
Aquila.elf:     file format elf32-avr

Sections:
Idx Name          Size      VMA       LMA       File off  Algn
  0 .text         000012f6  00000000  00000000  000000b4  2**1
                  CONTENTS, ALLOC, LOAD, READONLY, CODE
  1 .data         00000024  00802000  000012f6  000013aa  2**0
                  CONTENTS, ALLOC, LOAD, DATA
  2 .bss          00001856  00802024  00802024  000013ce  2**0
                  ALLOC
  3 .eeprom       00000004  00810000  00810000  000013ce  2**0
                  CONTENTS, ALLOC, LOAD, DATA
  4 .comment      00000030  00000000  00000000  000013d2  2**0
                  CONTENTS, READONLY
  5 .note.gnu.avr.deviceinfo 00000040  00000000  00000000  00001404  2**2
                  CONTENTS, READONLY
  6 .debug_aranges 00000428  00000000  00000000  00001448  2**3
                  CONTENTS, READONLY, DEBUGGING
  7 .debug_info   0001d2e9  00000000  00000000  00001870  2**0
                  CONTENTS, READONLY, DEBUGGING
  8 .debug_abbrev 00005802  00000000  00000000  0001eb59  2**0
                  CONTENTS, READONLY, DEBUGGING
  9 .debug_line   000064d8  00000000  00000000  0002435b  2**0
                  CONTENTS, READONLY, DEBUGGING
 10 .debug_frame  00000cd8  00000000  00000000  0002a834  2**2
                  CONTENTS, READONLY, DEBUGGING
 11 .debug_str    000044da  00000000  00000000  0002b50c  2**0
                  CONTENTS, READONLY, DEBUGGING
 12 .debug_loc    0000d07b  00000000  00000000  0002f9e6  2**0
                  CONTENTS, READONLY, DEBUGGING
 13 .debug_ranges 000004a0  00000000  00000000  0003ca61  2**0
                  CONTENTS, READONLY, DEBUGGING

Disassembly of section .text:

00000000 <__vectors>:
       0:	0c 94 04 01 	jmp	0x208	; 0x208 <__ctors_end>
       4:	0c 94 3a 01 	jmp	0x274	; 0x274 <__bad_interrupt>
       8:	0c 94 3a 01 	jmp	0x274	; 0x274 <__bad_interrupt>
       c:	0c 94 3a 01 	jmp	0x274	; 0x274 <__bad_interrupt>
      10:	0c 94 3a 01 	jmp	0x274	; 0x274 <__bad_interrupt>
      14:	0c 94 3a 01 	jmp	0x274	; 0x274 <__bad_interrupt>
      18:	0c 94 3a 01 	jmp	0x274	; 0x274 <__bad_interrupt>
      1c:	0c 94 3a 01 	jmp	0x274	; 0x274 <__bad_interrupt>
      20:	0c 94 3a 01 	jmp	0x274	; 0x274 <__bad_interrupt>
      24:	0c 94 3a 01 	jmp	0x274	; 0x274 <__bad_interrupt>
      28:	0c 94 3a 01 	jmp	0x274	; 0x274 <__bad_interrupt>
      2c:	0c 94 3a 01 	jmp	0x274	; 0x274 <__bad_interrupt>
      30:	0c 94 3a 01 	jmp	0x274	; 0x274 <__bad_interrupt>
      34:	0c 94 3a 01 	jmp	0x274	; 0x274 <__bad_interrupt>
      38:	0c 94 3a 01 	jmp	0x274	; 0x274 <__bad_interrupt>
      3c:	0c 94 3a 01 	jmp	0x274	; 0x274 <__bad_interrupt>
      40:	0c 94 3a 01 	jmp	0x274	; 0x274 <__bad_interrupt>
      44:	0c 94 3a 01 	jmp	0x274	; 0x274 <__bad_interrupt>
      48:	0c 94 3a 01 	jmp	0x274	; 0x274 <__bad_interrupt>
      4c:	0c 94 3a 01 	jmp	0x274	; 0x274 <__bad_interrupt>
      50:	0c 94 3a 01 	jmp	0x274	; 0x274 <__bad_interrupt>
      54:	0c 94 3a 01 	jmp	0x274	; 0x274 <__bad_interrupt>
      58:	0c 94 3a 01 	jmp	0x274	; 0x274 <__bad_interrupt>
      5c:	0c 94 3a 01 	jmp	0x274	; 0x274 <__bad_interrupt>
      60:	0c 94 3a 01 	jmp	0x274	; 0x274 <__bad_interrupt>
      64:	0c 94 3a 01 	jmp	0x274	; 0x274 <__bad_interrupt>
      68:	0c 94 3a 01 	jmp	0x274	; 0x274 <__bad_interrupt>
      6c:	0c 94 3a 01 	jmp	0x274	; 0x274 <__bad_interrupt>
      70:	0c 94 3a 01 	jmp	0x274	; 0x274 <__bad_interrupt>
      74:	0c 94 3a 01 	jmp	0x274	; 0x274 <__bad_interrupt>
      78:	0c 94 3a 01 	jmp	0x274	; 0x274 <__bad_interrupt>
      7c:	0c 94 3a 01 	jmp	0x274	; 0x274 <__bad_interrupt>
      80:	0c 94 3a 01 	jmp	0x274	; 0x274 <__bad_interrupt>
      84:	0c 94 3a 01 	jmp	0x274	; 0x274 <__bad_interrupt>
      88:	0c 94 3a 01 	jmp	0x274	; 0x274 <__bad_interrupt>
      8c:	0c 94 3a 01 	jmp	0x274	; 0x274 <__bad_interrupt>
      90:	0c 94 3a 01 	jmp	0x274	; 0x274 <__bad_interrupt>
      94:	0c 94 3a 01 	jmp	0x274	; 0x274 <__bad_interrupt>
      98:	0c 94 3a 01 	jmp	0x274	; 0x274 <__bad_interrupt>
      9c:	0c 94 3a 01 	jmp	0x274	; 0x274 <__bad_interrupt>
      a0:	0c 94 3a 01 	jmp	0x274	; 0x274 <__bad_interrupt>
      a4:	0c 94 3a 01 	jmp	0x274	; 0x274 <__bad_interrupt>
      a8:	0c 94 3a 01 	jmp	0x274	; 0x274 <__bad_interrupt>
      ac:	0c 94 3a 01 	jmp	0x274	; 0x274 <__bad_interrupt>
      b0:	0c 94 3a 01 	jmp	0x274	; 0x274 <__bad_interrupt>
      b4:	0c 94 3a 01 	jmp	0x274	; 0x274 <__bad_interrupt>
      b8:	0c 94 3a 01 	jmp	0x274	; 0x274 <__bad_interrupt>
      bc:	0c 94 3a 01 	jmp	0x274	; 0x274 <__bad_interrupt>
      c0:	0c 94 3a 01 	jmp	0x274	; 0x274 <__bad_interrupt>
      c4:	0c 94 3a 01 	jmp	0x274	; 0x274 <__bad_interrupt>
      c8:	0c 94 3a 01 	jmp	0x274	; 0x274 <__bad_interrupt>
      cc:	0c 94 3a 01 	jmp	0x274	; 0x274 <__bad_interrupt>
      d0:	0c 94 3a 01 	jmp	0x274	; 0x274 <__bad_interrupt>
      d4:	0c 94 3a 01 	jmp	0x274	; 0x274 <__bad_interrupt>
      d8:	0c 94 3a 01 	jmp	0x274	; 0x274 <__bad_interrupt>
      dc:	0c 94 3a 01 	jmp	0x274	; 0x274 <__bad_interrupt>
      e0:	0c 94 3a 01 	jmp	0x274	; 0x274 <__bad_interrupt>
      e4:	0c 94 3a 01 	jmp	0x274	; 0x274 <__bad_interrupt>
      e8:	0c 94 3a 01 	jmp	0x274	; 0x274 <__bad_interrupt>
      ec:	0c 94 3a 01 	jmp	0x274	; 0x274 <__bad_interrupt>
      f0:	0c 94 3a 01 	jmp	0x274	; 0x274 <__bad_interrupt>
      f4:	0c 94 3a 01 	jmp	0x274	; 0x274 <__bad_interrupt>
      f8:	0c 94 3a 01 	jmp	0x274	; 0x274 <__bad_interrupt>
      fc:	0c 94 3a 01 	jmp	0x274	; 0x274 <__bad_interrupt>
     100:	0c 94 3a 01 	jmp	0x274	; 0x274 <__bad_interrupt>
     104:	0c 94 3a 01 	jmp	0x274	; 0x274 <__bad_interrupt>
     108:	0c 94 3a 01 	jmp	0x274	; 0x274 <__bad_interrupt>
     10c:	0c 94 3a 01 	jmp	0x274	; 0x274 <__bad_interrupt>
     110:	0c 94 3a 01 	jmp	0x274	; 0x274 <__bad_interrupt>
     114:	0c 94 3a 01 	jmp	0x274	; 0x274 <__bad_interrupt>
     118:	0c 94 3a 01 	jmp	0x274	; 0x274 <__bad_interrupt>
     11c:	0c 94 3a 01 	jmp	0x274	; 0x274 <__bad_interrupt>
     120:	0c 94 3a 01 	jmp	0x274	; 0x274 <__bad_interrupt>
     124:	0c 94 3a 01 	jmp	0x274	; 0x274 <__bad_interrupt>
     128:	0c 94 3a 01 	jmp	0x274	; 0x274 <__bad_interrupt>
     12c:	0c 94 3a 01 	jmp	0x274	; 0x274 <__bad_interrupt>
     130:	0c 94 3a 01 	jmp	0x274	; 0x274 <__bad_interrupt>
     134:	0c 94 b8 07 	jmp	0xf70	; 0xf70 <__vector_77>
     138:	0c 94 3a 01 	jmp	0x274	; 0x274 <__bad_interrupt>
     13c:	0c 94 3a 01 	jmp	0x274	; 0x274 <__bad_interrupt>
     140:	0c 94 3a 01 	jmp	0x274	; 0x274 <__bad_interrupt>
     144:	0c 94 3a 01 	jmp	0x274	; 0x274 <__bad_interrupt>
     148:	0c 94 3a 01 	jmp	0x274	; 0x274 <__bad_interrupt>
     14c:	0c 94 3a 01 	jmp	0x274	; 0x274 <__bad_interrupt>
     150:	0c 94 3a 01 	jmp	0x274	; 0x274 <__bad_interrupt>
     154:	0c 94 3a 01 	jmp	0x274	; 0x274 <__bad_interrupt>
     158:	0c 94 3a 01 	jmp	0x274	; 0x274 <__bad_interrupt>
     15c:	0c 94 3a 01 	jmp	0x274	; 0x274 <__bad_interrupt>
     160:	0c 94 3a 01 	jmp	0x274	; 0x274 <__bad_interrupt>
     164:	0c 94 3a 01 	jmp	0x274	; 0x274 <__bad_interrupt>
     168:	0c 94 3a 01 	jmp	0x274	; 0x274 <__bad_interrupt>
     16c:	0c 94 3a 01 	jmp	0x274	; 0x274 <__bad_interrupt>
     170:	0c 94 3a 01 	jmp	0x274	; 0x274 <__bad_interrupt>
     174:	0c 94 3a 01 	jmp	0x274	; 0x274 <__bad_interrupt>
     178:	0c 94 3a 01 	jmp	0x274	; 0x274 <__bad_interrupt>
     17c:	0c 94 3a 01 	jmp	0x274	; 0x274 <__bad_interrupt>
     180:	0c 94 3a 01 	jmp	0x274	; 0x274 <__bad_interrupt>
     184:	0c 94 3a 01 	jmp	0x274	; 0x274 <__bad_interrupt>
     188:	0c 94 3a 01 	jmp	0x274	; 0x274 <__bad_interrupt>
     18c:	0c 94 3a 01 	jmp	0x274	; 0x274 <__bad_interrupt>
     190:	0c 94 3a 01 	jmp	0x274	; 0x274 <__bad_interrupt>
     194:	0c 94 3a 01 	jmp	0x274	; 0x274 <__bad_interrupt>
     198:	0c 94 3a 01 	jmp	0x274	; 0x274 <__bad_interrupt>
     19c:	0c 94 3a 01 	jmp	0x274	; 0x274 <__bad_interrupt>
     1a0:	0c 94 3a 01 	jmp	0x274	; 0x274 <__bad_interrupt>
     1a4:	0c 94 3a 01 	jmp	0x274	; 0x274 <__bad_interrupt>
     1a8:	0c 94 3a 01 	jmp	0x274	; 0x274 <__bad_interrupt>
     1ac:	0c 94 3a 01 	jmp	0x274	; 0x274 <__bad_interrupt>
     1b0:	0c 94 3a 01 	jmp	0x274	; 0x274 <__bad_interrupt>
     1b4:	0c 94 3a 01 	jmp	0x274	; 0x274 <__bad_interrupt>
     1b8:	0c 94 3a 01 	jmp	0x274	; 0x274 <__bad_interrupt>
     1bc:	0c 94 3a 01 	jmp	0x274	; 0x274 <__bad_interrupt>
     1c0:	0c 94 3a 01 	jmp	0x274	; 0x274 <__bad_interrupt>
     1c4:	0c 94 3a 01 	jmp	0x274	; 0x274 <__bad_interrupt>
     1c8:	0c 94 3a 01 	jmp	0x274	; 0x274 <__bad_interrupt>
     1cc:	0c 94 3a 01 	jmp	0x274	; 0x274 <__bad_interrupt>
     1d0:	0c 94 3a 01 	jmp	0x274	; 0x274 <__bad_interrupt>
     1d4:	0c 94 3a 01 	jmp	0x274	; 0x274 <__bad_interrupt>
     1d8:	0c 94 3a 01 	jmp	0x274	; 0x274 <__bad_interrupt>
     1dc:	0c 94 3a 01 	jmp	0x274	; 0x274 <__bad_interrupt>
     1e0:	0c 94 3a 01 	jmp	0x274	; 0x274 <__bad_interrupt>
     1e4:	0c 94 3a 01 	jmp	0x274	; 0x274 <__bad_interrupt>
     1e8:	0c 94 3a 01 	jmp	0x274	; 0x274 <__bad_interrupt>
     1ec:	0c 94 3a 01 	jmp	0x274	; 0x274 <__bad_interrupt>
     1f0:	0c 94 3a 01 	jmp	0x274	; 0x274 <__bad_interrupt>
     1f4:	0c 94 3a 01 	jmp	0x274	; 0x274 <__bad_interrupt>
     1f8:	0c 94 3a 01 	jmp	0x274	; 0x274 <__bad_interrupt>

000001fc <__trampolines_start>:
     1fc:	0c 94 51 07 	jmp	0xea2	; 0xea2 <_GLOBAL__sub_I_motor_spi>
     200:	0c 94 85 01 	jmp	0x30a	; 0x30a <_GLOBAL__sub_I_mall>

00000204 <__ctors_start>:
     204:	85 01       	movw	r16, r10
     206:	51 07       	cpc	r21, r17

00000208 <__ctors_end>:
     208:	11 24       	eor	r1, r1
     20a:	1f be       	out	0x3f, r1	; 63
     20c:	cf ef       	ldi	r28, 0xFF	; 255
     20e:	cd bf       	out	0x3d, r28	; 61
     210:	df e3       	ldi	r29, 0x3F	; 63
     212:	de bf       	out	0x3e, r29	; 62
     214:	00 e0       	ldi	r16, 0x00	; 0
     216:	0c bf       	out	0x3c, r16	; 60
     218:	18 be       	out	0x38, r1	; 56
     21a:	19 be       	out	0x39, r1	; 57
     21c:	1a be       	out	0x3a, r1	; 58
     21e:	1b be       	out	0x3b, r1	; 59

00000220 <__do_copy_data>:
     220:	10 e2       	ldi	r17, 0x20	; 32
     222:	a0 e0       	ldi	r26, 0x00	; 0
     224:	b0 e2       	ldi	r27, 0x20	; 32
     226:	e6 ef       	ldi	r30, 0xF6	; 246
     228:	f2 e1       	ldi	r31, 0x12	; 18
     22a:	00 e0       	ldi	r16, 0x00	; 0
     22c:	0b bf       	out	0x3b, r16	; 59
     22e:	02 c0       	rjmp	.+4      	; 0x234 <__do_copy_data+0x14>
     230:	07 90       	elpm	r0, Z+
     232:	0d 92       	st	X+, r0
     234:	a4 32       	cpi	r26, 0x24	; 36
     236:	b1 07       	cpc	r27, r17
     238:	d9 f7       	brne	.-10     	; 0x230 <__do_copy_data+0x10>
     23a:	1b be       	out	0x3b, r1	; 59

0000023c <__do_clear_bss>:
     23c:	28 e3       	ldi	r18, 0x38	; 56
     23e:	a4 e2       	ldi	r26, 0x24	; 36
     240:	b0 e2       	ldi	r27, 0x20	; 32
     242:	01 c0       	rjmp	.+2      	; 0x246 <.do_clear_bss_start>

00000244 <.do_clear_bss_loop>:
     244:	1d 92       	st	X+, r1

00000246 <.do_clear_bss_start>:
     246:	aa 37       	cpi	r26, 0x7A	; 122
     248:	b2 07       	cpc	r27, r18
     24a:	e1 f7       	brne	.-8      	; 0x244 <.do_clear_bss_loop>

0000024c <__do_global_ctors>:
     24c:	11 e0       	ldi	r17, 0x01	; 1
     24e:	c4 e0       	ldi	r28, 0x04	; 4
     250:	d1 e0       	ldi	r29, 0x01	; 1
     252:	00 e0       	ldi	r16, 0x00	; 0
     254:	06 c0       	rjmp	.+12     	; 0x262 <__do_global_ctors+0x16>
     256:	21 97       	sbiw	r28, 0x01	; 1
     258:	01 09       	sbc	r16, r1
     25a:	80 2f       	mov	r24, r16
     25c:	fe 01       	movw	r30, r28
     25e:	0e 94 48 09 	call	0x1290	; 0x1290 <__tablejump2__>
     262:	c2 30       	cpi	r28, 0x02	; 2
     264:	d1 07       	cpc	r29, r17
     266:	80 e0       	ldi	r24, 0x00	; 0
     268:	08 07       	cpc	r16, r24
     26a:	a9 f7       	brne	.-22     	; 0x256 <__do_global_ctors+0xa>
     26c:	0e 94 3c 01 	call	0x278	; 0x278 <main>
     270:	0c 94 79 09 	jmp	0x12f2	; 0x12f2 <_exit>

00000274 <__bad_interrupt>:
     274:	0c 94 00 00 	jmp	0	; 0x0 <__vectors>

00000278 <main>:
	lcd_clear();
	//ping->for_cp(ping_control)->for_write_walls1->write_walls(petal)
}

int main(){	
	init_all();
     278:	0e 94 36 05 	call	0xa6c	; 0xa6c <_Z8init_allv>
	#else
		//round up by default
		__ticks_dc = (uint32_t)(ceil(fabs(__tmp)));
	#endif

	__builtin_avr_delay_cycles(__ticks_dc);
     27c:	2f ef       	ldi	r18, 0xFF	; 255
     27e:	87 e8       	ldi	r24, 0x87	; 135
     280:	93 e1       	ldi	r25, 0x13	; 19
     282:	21 50       	subi	r18, 0x01	; 1
     284:	80 40       	sbci	r24, 0x00	; 0
     286:	90 40       	sbci	r25, 0x00	; 0
     288:	e1 f7       	brne	.-8      	; 0x282 <main+0xa>
     28a:	00 c0       	rjmp	.+0      	; 0x28c <main+0x14>
     28c:	00 00       	nop
	_delay_ms(200);
	lcd_putstr(LCD1_TWI,"Hello");
     28e:	68 e0       	ldi	r22, 0x08	; 8
     290:	70 e2       	ldi	r23, 0x20	; 32
     292:	80 eb       	ldi	r24, 0xB0	; 176
     294:	94 e0       	ldi	r25, 0x04	; 4
     296:	0e 94 90 06 	call	0xd20	; 0xd20 <_Z10lcd_putstrP10TWI_structPKc>
	motor::wait();
     29a:	0e 94 44 07 	call	0xe88	; 0xe88 <_ZN5motor4waitEv>
	lcd_clear();
     29e:	0e 94 f2 06 	call	0xde4	; 0xde4 <_Z9lcd_clearv>
	lcd_putstr(LCD1_TWI,"Ready!");
     2a2:	6e e0       	ldi	r22, 0x0E	; 14
     2a4:	70 e2       	ldi	r23, 0x20	; 32
     2a6:	80 eb       	ldi	r24, 0xB0	; 176
     2a8:	94 e0       	ldi	r25, 0x04	; 4
     2aa:	0e 94 90 06 	call	0xd20	; 0xd20 <_Z10lcd_putstrP10TWI_structPKc>
	//lcd_clear();
	serial.string("wake_up\n");
     2ae:	65 e1       	ldi	r22, 0x15	; 21
     2b0:	70 e2       	ldi	r23, 0x20	; 32
     2b2:	84 e2       	ldi	r24, 0x24	; 36
     2b4:	90 e2       	ldi	r25, 0x20	; 32
     2b6:	0e 94 c1 08 	call	0x1182	; 0x1182 <_ZN5usart6stringEPKc>
// 	while(1){
// 		serial.putdec(1);
// 	}
static uint16_t EEMEM rectime = 0x1000;
eeprom_busy_wait();
     2ba:	ef ec       	ldi	r30, 0xCF	; 207
     2bc:	f1 e0       	ldi	r31, 0x01	; 1
     2be:	80 81       	ld	r24, Z
     2c0:	88 23       	and	r24, r24
     2c2:	ec f3       	brlt	.-6      	; 0x2be <main+0x46>
eeprom_write_word(&rectime,0xAA);
     2c4:	6a ea       	ldi	r22, 0xAA	; 170
     2c6:	70 e0       	ldi	r23, 0x00	; 0
     2c8:	80 e0       	ldi	r24, 0x00	; 0
     2ca:	90 e0       	ldi	r25, 0x00	; 0
     2cc:	0e 94 51 09 	call	0x12a2	; 0x12a2 <eeprom_write_word>
	while(1){
	for(int i=1;i<=6;i++){
     2d0:	c1 e0       	ldi	r28, 0x01	; 1
     2d2:	d0 e0       	ldi	r29, 0x00	; 0
	serial.puthex(ping(i));
     2d4:	ce 01       	movw	r24, r28
     2d6:	0e 94 80 07 	call	0xf00	; 0xf00 <_Z4pingi>
     2da:	ac 01       	movw	r20, r24
     2dc:	60 e0       	ldi	r22, 0x00	; 0
     2de:	70 e0       	ldi	r23, 0x00	; 0
     2e0:	84 e2       	ldi	r24, 0x24	; 36
     2e2:	90 e2       	ldi	r25, 0x20	; 32
     2e4:	0e 94 d6 08 	call	0x11ac	; 0x11ac <_ZN5usart6puthexEm>
	serial.string(",");
     2e8:	6e e1       	ldi	r22, 0x1E	; 30
     2ea:	70 e2       	ldi	r23, 0x20	; 32
     2ec:	84 e2       	ldi	r24, 0x24	; 36
     2ee:	90 e2       	ldi	r25, 0x20	; 32
     2f0:	0e 94 c1 08 	call	0x1182	; 0x1182 <_ZN5usart6stringEPKc>
// 	}
static uint16_t EEMEM rectime = 0x1000;
eeprom_busy_wait();
eeprom_write_word(&rectime,0xAA);
	while(1){
	for(int i=1;i<=6;i++){
     2f4:	21 96       	adiw	r28, 0x01	; 1
     2f6:	c7 30       	cpi	r28, 0x07	; 7
     2f8:	d1 05       	cpc	r29, r1
     2fa:	61 f7       	brne	.-40     	; 0x2d4 <main+0x5c>
	serial.puthex(ping(i));
	serial.string(",");
	}
	serial.string("\n\r");
     2fc:	60 e2       	ldi	r22, 0x20	; 32
     2fe:	70 e2       	ldi	r23, 0x20	; 32
     300:	84 e2       	ldi	r24, 0x24	; 36
     302:	90 e2       	ldi	r25, 0x20	; 32
     304:	0e 94 c1 08 	call	0x1182	; 0x1182 <_ZN5usart6stringEPKc>
// 		serial.putdec(1);
// 	}
static uint16_t EEMEM rectime = 0x1000;
eeprom_busy_wait();
eeprom_write_word(&rectime,0xAA);
	while(1){
     308:	e3 cf       	rjmp	.-58     	; 0x2d0 <main+0x58>

0000030a <_GLOBAL__sub_I_mall>:
		debugping(v::right);
		debugping(v::back);
		_delay_ms(500);
	}
return 0;
     30a:	cf 93       	push	r28
     30c:	df 93       	push	r29
    ci max=200;
    int size,now;
    node mal[200];
    bl box[200]={0};
public:
    nodes(){size=0;now=0;};
     30e:	a8 e3       	ldi	r26, 0x38	; 56
     310:	b0 e2       	ldi	r27, 0x20	; 32
     312:	88 ec       	ldi	r24, 0xC8	; 200
     314:	90 e0       	ldi	r25, 0x00	; 0
     316:	8d 93       	st	X+, r24
     318:	9c 93       	st	X, r25
     31a:	11 97       	sbiw	r26, 0x01	; 1
     31c:	80 e7       	ldi	r24, 0x70	; 112
     31e:	97 e1       	ldi	r25, 0x17	; 23
     320:	ee e3       	ldi	r30, 0x3E	; 62
     322:	f0 e2       	ldi	r31, 0x20	; 32
     324:	ef 01       	movw	r28, r30
     326:	9c 01       	movw	r18, r24
     328:	19 92       	st	Y+, r1
     32a:	21 50       	subi	r18, 0x01	; 1
     32c:	30 40       	sbci	r19, 0x00	; 0
     32e:	e1 f7       	brne	.-8      	; 0x328 <_GLOBAL__sub_I_mall+0x1e>
     330:	88 ee       	ldi	r24, 0xE8	; 232
     332:	93 e0       	ldi	r25, 0x03	; 3
     334:	1c 96       	adiw	r26, 0x0c	; 12
     336:	8d 93       	st	X+, r24
     338:	9c 93       	st	X, r25
     33a:	1d 97       	sbiw	r26, 0x0d	; 13
     33c:	80 93 80 20 	sts	0x2080, r24	; 0x802080 <mall+0x48>
     340:	90 93 81 20 	sts	0x2081, r25	; 0x802081 <mall+0x49>
     344:	80 93 9e 20 	sts	0x209E, r24	; 0x80209e <mall+0x66>
     348:	90 93 9f 20 	sts	0x209F, r25	; 0x80209f <mall+0x67>
     34c:	80 93 bc 20 	sts	0x20BC, r24	; 0x8020bc <mall+0x84>
     350:	90 93 bd 20 	sts	0x20BD, r25	; 0x8020bd <mall+0x85>
     354:	80 93 da 20 	sts	0x20DA, r24	; 0x8020da <mall+0xa2>
     358:	90 93 db 20 	sts	0x20DB, r25	; 0x8020db <mall+0xa3>
     35c:	80 93 f8 20 	sts	0x20F8, r24	; 0x8020f8 <mall+0xc0>
     360:	90 93 f9 20 	sts	0x20F9, r25	; 0x8020f9 <mall+0xc1>
     364:	80 93 16 21 	sts	0x2116, r24	; 0x802116 <mall+0xde>
     368:	90 93 17 21 	sts	0x2117, r25	; 0x802117 <mall+0xdf>
     36c:	80 93 34 21 	sts	0x2134, r24	; 0x802134 <mall+0xfc>
     370:	90 93 35 21 	sts	0x2135, r25	; 0x802135 <mall+0xfd>
     374:	80 93 52 21 	sts	0x2152, r24	; 0x802152 <mall+0x11a>
     378:	90 93 53 21 	sts	0x2153, r25	; 0x802153 <mall+0x11b>
     37c:	80 93 70 21 	sts	0x2170, r24	; 0x802170 <mall+0x138>
     380:	90 93 71 21 	sts	0x2171, r25	; 0x802171 <mall+0x139>
     384:	80 93 8e 21 	sts	0x218E, r24	; 0x80218e <mall+0x156>
     388:	90 93 8f 21 	sts	0x218F, r25	; 0x80218f <mall+0x157>
     38c:	80 93 ac 21 	sts	0x21AC, r24	; 0x8021ac <mall+0x174>
     390:	90 93 ad 21 	sts	0x21AD, r25	; 0x8021ad <mall+0x175>
     394:	80 93 ca 21 	sts	0x21CA, r24	; 0x8021ca <mall+0x192>
     398:	90 93 cb 21 	sts	0x21CB, r25	; 0x8021cb <mall+0x193>
     39c:	80 93 e8 21 	sts	0x21E8, r24	; 0x8021e8 <mall+0x1b0>
     3a0:	90 93 e9 21 	sts	0x21E9, r25	; 0x8021e9 <mall+0x1b1>
     3a4:	80 93 06 22 	sts	0x2206, r24	; 0x802206 <mall+0x1ce>
     3a8:	90 93 07 22 	sts	0x2207, r25	; 0x802207 <mall+0x1cf>
     3ac:	80 93 24 22 	sts	0x2224, r24	; 0x802224 <mall+0x1ec>
     3b0:	90 93 25 22 	sts	0x2225, r25	; 0x802225 <mall+0x1ed>
     3b4:	80 93 42 22 	sts	0x2242, r24	; 0x802242 <mall+0x20a>
     3b8:	90 93 43 22 	sts	0x2243, r25	; 0x802243 <mall+0x20b>
     3bc:	80 93 60 22 	sts	0x2260, r24	; 0x802260 <mall+0x228>
     3c0:	90 93 61 22 	sts	0x2261, r25	; 0x802261 <mall+0x229>
     3c4:	80 93 7e 22 	sts	0x227E, r24	; 0x80227e <mall+0x246>
     3c8:	90 93 7f 22 	sts	0x227F, r25	; 0x80227f <mall+0x247>
     3cc:	80 93 9c 22 	sts	0x229C, r24	; 0x80229c <mall+0x264>
     3d0:	90 93 9d 22 	sts	0x229D, r25	; 0x80229d <mall+0x265>
     3d4:	80 93 ba 22 	sts	0x22BA, r24	; 0x8022ba <mall+0x282>
     3d8:	90 93 bb 22 	sts	0x22BB, r25	; 0x8022bb <mall+0x283>
     3dc:	80 93 d8 22 	sts	0x22D8, r24	; 0x8022d8 <mall+0x2a0>
     3e0:	90 93 d9 22 	sts	0x22D9, r25	; 0x8022d9 <mall+0x2a1>
     3e4:	80 93 f6 22 	sts	0x22F6, r24	; 0x8022f6 <mall+0x2be>
     3e8:	90 93 f7 22 	sts	0x22F7, r25	; 0x8022f7 <mall+0x2bf>
     3ec:	80 93 14 23 	sts	0x2314, r24	; 0x802314 <mall+0x2dc>
     3f0:	90 93 15 23 	sts	0x2315, r25	; 0x802315 <mall+0x2dd>
     3f4:	80 93 32 23 	sts	0x2332, r24	; 0x802332 <mall+0x2fa>
     3f8:	90 93 33 23 	sts	0x2333, r25	; 0x802333 <mall+0x2fb>
     3fc:	80 93 50 23 	sts	0x2350, r24	; 0x802350 <mall+0x318>
     400:	90 93 51 23 	sts	0x2351, r25	; 0x802351 <mall+0x319>
     404:	80 93 6e 23 	sts	0x236E, r24	; 0x80236e <mall+0x336>
     408:	90 93 6f 23 	sts	0x236F, r25	; 0x80236f <mall+0x337>
     40c:	80 93 8c 23 	sts	0x238C, r24	; 0x80238c <mall+0x354>
     410:	90 93 8d 23 	sts	0x238D, r25	; 0x80238d <mall+0x355>
     414:	80 93 aa 23 	sts	0x23AA, r24	; 0x8023aa <mall+0x372>
     418:	90 93 ab 23 	sts	0x23AB, r25	; 0x8023ab <mall+0x373>
     41c:	80 93 c8 23 	sts	0x23C8, r24	; 0x8023c8 <mall+0x390>
     420:	90 93 c9 23 	sts	0x23C9, r25	; 0x8023c9 <mall+0x391>
     424:	80 93 e6 23 	sts	0x23E6, r24	; 0x8023e6 <mall+0x3ae>
     428:	90 93 e7 23 	sts	0x23E7, r25	; 0x8023e7 <mall+0x3af>
     42c:	80 93 04 24 	sts	0x2404, r24	; 0x802404 <mall+0x3cc>
     430:	90 93 05 24 	sts	0x2405, r25	; 0x802405 <mall+0x3cd>
     434:	80 93 22 24 	sts	0x2422, r24	; 0x802422 <mall+0x3ea>
     438:	90 93 23 24 	sts	0x2423, r25	; 0x802423 <mall+0x3eb>
     43c:	80 93 40 24 	sts	0x2440, r24	; 0x802440 <mall+0x408>
     440:	90 93 41 24 	sts	0x2441, r25	; 0x802441 <mall+0x409>
     444:	80 93 5e 24 	sts	0x245E, r24	; 0x80245e <mall+0x426>
     448:	90 93 5f 24 	sts	0x245F, r25	; 0x80245f <mall+0x427>
     44c:	80 93 7c 24 	sts	0x247C, r24	; 0x80247c <mall+0x444>
     450:	90 93 7d 24 	sts	0x247D, r25	; 0x80247d <mall+0x445>
     454:	80 93 9a 24 	sts	0x249A, r24	; 0x80249a <mall+0x462>
     458:	90 93 9b 24 	sts	0x249B, r25	; 0x80249b <mall+0x463>
     45c:	80 93 b8 24 	sts	0x24B8, r24	; 0x8024b8 <mall+0x480>
     460:	90 93 b9 24 	sts	0x24B9, r25	; 0x8024b9 <mall+0x481>
     464:	80 93 d6 24 	sts	0x24D6, r24	; 0x8024d6 <mall+0x49e>
     468:	90 93 d7 24 	sts	0x24D7, r25	; 0x8024d7 <mall+0x49f>
     46c:	80 93 f4 24 	sts	0x24F4, r24	; 0x8024f4 <mall+0x4bc>
     470:	90 93 f5 24 	sts	0x24F5, r25	; 0x8024f5 <mall+0x4bd>
     474:	80 93 12 25 	sts	0x2512, r24	; 0x802512 <mall+0x4da>
     478:	90 93 13 25 	sts	0x2513, r25	; 0x802513 <mall+0x4db>
     47c:	80 93 30 25 	sts	0x2530, r24	; 0x802530 <mall+0x4f8>
     480:	90 93 31 25 	sts	0x2531, r25	; 0x802531 <mall+0x4f9>
     484:	80 93 4e 25 	sts	0x254E, r24	; 0x80254e <mall+0x516>
     488:	90 93 4f 25 	sts	0x254F, r25	; 0x80254f <mall+0x517>
     48c:	80 93 6c 25 	sts	0x256C, r24	; 0x80256c <mall+0x534>
     490:	90 93 6d 25 	sts	0x256D, r25	; 0x80256d <mall+0x535>
     494:	80 93 8a 25 	sts	0x258A, r24	; 0x80258a <mall+0x552>
     498:	90 93 8b 25 	sts	0x258B, r25	; 0x80258b <mall+0x553>
     49c:	80 93 a8 25 	sts	0x25A8, r24	; 0x8025a8 <mall+0x570>
     4a0:	90 93 a9 25 	sts	0x25A9, r25	; 0x8025a9 <mall+0x571>
     4a4:	80 93 c6 25 	sts	0x25C6, r24	; 0x8025c6 <mall+0x58e>
     4a8:	90 93 c7 25 	sts	0x25C7, r25	; 0x8025c7 <mall+0x58f>
     4ac:	80 93 e4 25 	sts	0x25E4, r24	; 0x8025e4 <mall+0x5ac>
     4b0:	90 93 e5 25 	sts	0x25E5, r25	; 0x8025e5 <mall+0x5ad>
     4b4:	80 93 02 26 	sts	0x2602, r24	; 0x802602 <mall+0x5ca>
     4b8:	90 93 03 26 	sts	0x2603, r25	; 0x802603 <mall+0x5cb>
     4bc:	80 93 20 26 	sts	0x2620, r24	; 0x802620 <mall+0x5e8>
     4c0:	90 93 21 26 	sts	0x2621, r25	; 0x802621 <mall+0x5e9>
     4c4:	80 93 3e 26 	sts	0x263E, r24	; 0x80263e <mall+0x606>
     4c8:	90 93 3f 26 	sts	0x263F, r25	; 0x80263f <mall+0x607>
     4cc:	80 93 5c 26 	sts	0x265C, r24	; 0x80265c <mall+0x624>
     4d0:	90 93 5d 26 	sts	0x265D, r25	; 0x80265d <mall+0x625>
     4d4:	80 93 7a 26 	sts	0x267A, r24	; 0x80267a <mall+0x642>
     4d8:	90 93 7b 26 	sts	0x267B, r25	; 0x80267b <mall+0x643>
     4dc:	80 93 98 26 	sts	0x2698, r24	; 0x802698 <mall+0x660>
     4e0:	90 93 99 26 	sts	0x2699, r25	; 0x802699 <mall+0x661>
     4e4:	80 93 b6 26 	sts	0x26B6, r24	; 0x8026b6 <mall+0x67e>
     4e8:	90 93 b7 26 	sts	0x26B7, r25	; 0x8026b7 <mall+0x67f>
     4ec:	80 93 d4 26 	sts	0x26D4, r24	; 0x8026d4 <mall+0x69c>
     4f0:	90 93 d5 26 	sts	0x26D5, r25	; 0x8026d5 <mall+0x69d>
     4f4:	80 93 f2 26 	sts	0x26F2, r24	; 0x8026f2 <mall+0x6ba>
     4f8:	90 93 f3 26 	sts	0x26F3, r25	; 0x8026f3 <mall+0x6bb>
     4fc:	80 93 10 27 	sts	0x2710, r24	; 0x802710 <mall+0x6d8>
     500:	90 93 11 27 	sts	0x2711, r25	; 0x802711 <mall+0x6d9>
     504:	80 93 2e 27 	sts	0x272E, r24	; 0x80272e <mall+0x6f6>
     508:	90 93 2f 27 	sts	0x272F, r25	; 0x80272f <mall+0x6f7>
     50c:	80 93 4c 27 	sts	0x274C, r24	; 0x80274c <mall+0x714>
     510:	90 93 4d 27 	sts	0x274D, r25	; 0x80274d <mall+0x715>
     514:	80 93 6a 27 	sts	0x276A, r24	; 0x80276a <mall+0x732>
     518:	90 93 6b 27 	sts	0x276B, r25	; 0x80276b <mall+0x733>
     51c:	80 93 88 27 	sts	0x2788, r24	; 0x802788 <mall+0x750>
     520:	90 93 89 27 	sts	0x2789, r25	; 0x802789 <mall+0x751>
     524:	80 93 a6 27 	sts	0x27A6, r24	; 0x8027a6 <mall+0x76e>
     528:	90 93 a7 27 	sts	0x27A7, r25	; 0x8027a7 <mall+0x76f>
     52c:	80 93 c4 27 	sts	0x27C4, r24	; 0x8027c4 <mall+0x78c>
     530:	90 93 c5 27 	sts	0x27C5, r25	; 0x8027c5 <mall+0x78d>
     534:	80 93 e2 27 	sts	0x27E2, r24	; 0x8027e2 <mall+0x7aa>
     538:	90 93 e3 27 	sts	0x27E3, r25	; 0x8027e3 <mall+0x7ab>
     53c:	80 93 00 28 	sts	0x2800, r24	; 0x802800 <mall+0x7c8>
     540:	90 93 01 28 	sts	0x2801, r25	; 0x802801 <mall+0x7c9>
     544:	80 93 1e 28 	sts	0x281E, r24	; 0x80281e <mall+0x7e6>
     548:	90 93 1f 28 	sts	0x281F, r25	; 0x80281f <mall+0x7e7>
     54c:	80 93 3c 28 	sts	0x283C, r24	; 0x80283c <mall+0x804>
     550:	90 93 3d 28 	sts	0x283D, r25	; 0x80283d <mall+0x805>
     554:	80 93 5a 28 	sts	0x285A, r24	; 0x80285a <mall+0x822>
     558:	90 93 5b 28 	sts	0x285B, r25	; 0x80285b <mall+0x823>
     55c:	80 93 78 28 	sts	0x2878, r24	; 0x802878 <mall+0x840>
     560:	90 93 79 28 	sts	0x2879, r25	; 0x802879 <mall+0x841>
     564:	80 93 96 28 	sts	0x2896, r24	; 0x802896 <mall+0x85e>
     568:	90 93 97 28 	sts	0x2897, r25	; 0x802897 <mall+0x85f>
     56c:	80 93 b4 28 	sts	0x28B4, r24	; 0x8028b4 <mall+0x87c>
     570:	90 93 b5 28 	sts	0x28B5, r25	; 0x8028b5 <mall+0x87d>
     574:	80 93 d2 28 	sts	0x28D2, r24	; 0x8028d2 <mall+0x89a>
     578:	90 93 d3 28 	sts	0x28D3, r25	; 0x8028d3 <mall+0x89b>
     57c:	80 93 f0 28 	sts	0x28F0, r24	; 0x8028f0 <mall+0x8b8>
     580:	90 93 f1 28 	sts	0x28F1, r25	; 0x8028f1 <mall+0x8b9>
     584:	80 93 0e 29 	sts	0x290E, r24	; 0x80290e <mall+0x8d6>
     588:	90 93 0f 29 	sts	0x290F, r25	; 0x80290f <mall+0x8d7>
     58c:	80 93 2c 29 	sts	0x292C, r24	; 0x80292c <mall+0x8f4>
     590:	90 93 2d 29 	sts	0x292D, r25	; 0x80292d <mall+0x8f5>
     594:	80 93 4a 29 	sts	0x294A, r24	; 0x80294a <mall+0x912>
     598:	90 93 4b 29 	sts	0x294B, r25	; 0x80294b <mall+0x913>
     59c:	80 93 68 29 	sts	0x2968, r24	; 0x802968 <mall+0x930>
     5a0:	90 93 69 29 	sts	0x2969, r25	; 0x802969 <mall+0x931>
     5a4:	80 93 86 29 	sts	0x2986, r24	; 0x802986 <mall+0x94e>
     5a8:	90 93 87 29 	sts	0x2987, r25	; 0x802987 <mall+0x94f>
     5ac:	80 93 a4 29 	sts	0x29A4, r24	; 0x8029a4 <mall+0x96c>
     5b0:	90 93 a5 29 	sts	0x29A5, r25	; 0x8029a5 <mall+0x96d>
     5b4:	80 93 c2 29 	sts	0x29C2, r24	; 0x8029c2 <mall+0x98a>
     5b8:	90 93 c3 29 	sts	0x29C3, r25	; 0x8029c3 <mall+0x98b>
     5bc:	80 93 e0 29 	sts	0x29E0, r24	; 0x8029e0 <mall+0x9a8>
     5c0:	90 93 e1 29 	sts	0x29E1, r25	; 0x8029e1 <mall+0x9a9>
     5c4:	80 93 fe 29 	sts	0x29FE, r24	; 0x8029fe <mall+0x9c6>
     5c8:	90 93 ff 29 	sts	0x29FF, r25	; 0x8029ff <mall+0x9c7>
     5cc:	80 93 1c 2a 	sts	0x2A1C, r24	; 0x802a1c <mall+0x9e4>
     5d0:	90 93 1d 2a 	sts	0x2A1D, r25	; 0x802a1d <mall+0x9e5>
     5d4:	80 93 3a 2a 	sts	0x2A3A, r24	; 0x802a3a <mall+0xa02>
     5d8:	90 93 3b 2a 	sts	0x2A3B, r25	; 0x802a3b <mall+0xa03>
     5dc:	80 93 58 2a 	sts	0x2A58, r24	; 0x802a58 <mall+0xa20>
     5e0:	90 93 59 2a 	sts	0x2A59, r25	; 0x802a59 <mall+0xa21>
     5e4:	80 93 76 2a 	sts	0x2A76, r24	; 0x802a76 <mall+0xa3e>
     5e8:	90 93 77 2a 	sts	0x2A77, r25	; 0x802a77 <mall+0xa3f>
     5ec:	80 93 94 2a 	sts	0x2A94, r24	; 0x802a94 <mall+0xa5c>
     5f0:	90 93 95 2a 	sts	0x2A95, r25	; 0x802a95 <mall+0xa5d>
     5f4:	80 93 b2 2a 	sts	0x2AB2, r24	; 0x802ab2 <mall+0xa7a>
     5f8:	90 93 b3 2a 	sts	0x2AB3, r25	; 0x802ab3 <mall+0xa7b>
     5fc:	80 93 d0 2a 	sts	0x2AD0, r24	; 0x802ad0 <mall+0xa98>
     600:	90 93 d1 2a 	sts	0x2AD1, r25	; 0x802ad1 <mall+0xa99>
     604:	80 93 ee 2a 	sts	0x2AEE, r24	; 0x802aee <mall+0xab6>
     608:	90 93 ef 2a 	sts	0x2AEF, r25	; 0x802aef <mall+0xab7>
     60c:	80 93 0c 2b 	sts	0x2B0C, r24	; 0x802b0c <mall+0xad4>
     610:	90 93 0d 2b 	sts	0x2B0D, r25	; 0x802b0d <mall+0xad5>
     614:	80 93 2a 2b 	sts	0x2B2A, r24	; 0x802b2a <mall+0xaf2>
     618:	90 93 2b 2b 	sts	0x2B2B, r25	; 0x802b2b <mall+0xaf3>
     61c:	80 93 48 2b 	sts	0x2B48, r24	; 0x802b48 <mall+0xb10>
     620:	90 93 49 2b 	sts	0x2B49, r25	; 0x802b49 <mall+0xb11>
     624:	80 93 66 2b 	sts	0x2B66, r24	; 0x802b66 <mall+0xb2e>
     628:	90 93 67 2b 	sts	0x2B67, r25	; 0x802b67 <mall+0xb2f>
     62c:	80 93 84 2b 	sts	0x2B84, r24	; 0x802b84 <mall+0xb4c>
     630:	90 93 85 2b 	sts	0x2B85, r25	; 0x802b85 <mall+0xb4d>
     634:	80 93 a2 2b 	sts	0x2BA2, r24	; 0x802ba2 <mall+0xb6a>
     638:	90 93 a3 2b 	sts	0x2BA3, r25	; 0x802ba3 <mall+0xb6b>
     63c:	80 93 c0 2b 	sts	0x2BC0, r24	; 0x802bc0 <mall+0xb88>
     640:	90 93 c1 2b 	sts	0x2BC1, r25	; 0x802bc1 <mall+0xb89>
     644:	80 93 de 2b 	sts	0x2BDE, r24	; 0x802bde <mall+0xba6>
     648:	90 93 df 2b 	sts	0x2BDF, r25	; 0x802bdf <mall+0xba7>
     64c:	80 93 fc 2b 	sts	0x2BFC, r24	; 0x802bfc <mall+0xbc4>
     650:	90 93 fd 2b 	sts	0x2BFD, r25	; 0x802bfd <mall+0xbc5>
     654:	80 93 1a 2c 	sts	0x2C1A, r24	; 0x802c1a <mall+0xbe2>
     658:	90 93 1b 2c 	sts	0x2C1B, r25	; 0x802c1b <mall+0xbe3>
     65c:	80 93 38 2c 	sts	0x2C38, r24	; 0x802c38 <mall+0xc00>
     660:	90 93 39 2c 	sts	0x2C39, r25	; 0x802c39 <mall+0xc01>
     664:	80 93 56 2c 	sts	0x2C56, r24	; 0x802c56 <mall+0xc1e>
     668:	90 93 57 2c 	sts	0x2C57, r25	; 0x802c57 <mall+0xc1f>
     66c:	80 93 74 2c 	sts	0x2C74, r24	; 0x802c74 <mall+0xc3c>
     670:	90 93 75 2c 	sts	0x2C75, r25	; 0x802c75 <mall+0xc3d>
     674:	80 93 92 2c 	sts	0x2C92, r24	; 0x802c92 <mall+0xc5a>
     678:	90 93 93 2c 	sts	0x2C93, r25	; 0x802c93 <mall+0xc5b>
     67c:	80 93 b0 2c 	sts	0x2CB0, r24	; 0x802cb0 <mall+0xc78>
     680:	90 93 b1 2c 	sts	0x2CB1, r25	; 0x802cb1 <mall+0xc79>
     684:	80 93 ce 2c 	sts	0x2CCE, r24	; 0x802cce <mall+0xc96>
     688:	90 93 cf 2c 	sts	0x2CCF, r25	; 0x802ccf <mall+0xc97>
     68c:	80 93 ec 2c 	sts	0x2CEC, r24	; 0x802cec <mall+0xcb4>
     690:	90 93 ed 2c 	sts	0x2CED, r25	; 0x802ced <mall+0xcb5>
     694:	80 93 0a 2d 	sts	0x2D0A, r24	; 0x802d0a <mall+0xcd2>
     698:	90 93 0b 2d 	sts	0x2D0B, r25	; 0x802d0b <mall+0xcd3>
     69c:	80 93 28 2d 	sts	0x2D28, r24	; 0x802d28 <mall+0xcf0>
     6a0:	90 93 29 2d 	sts	0x2D29, r25	; 0x802d29 <mall+0xcf1>
     6a4:	80 93 46 2d 	sts	0x2D46, r24	; 0x802d46 <mall+0xd0e>
     6a8:	90 93 47 2d 	sts	0x2D47, r25	; 0x802d47 <mall+0xd0f>
     6ac:	80 93 64 2d 	sts	0x2D64, r24	; 0x802d64 <mall+0xd2c>
     6b0:	90 93 65 2d 	sts	0x2D65, r25	; 0x802d65 <mall+0xd2d>
     6b4:	80 93 82 2d 	sts	0x2D82, r24	; 0x802d82 <mall+0xd4a>
     6b8:	90 93 83 2d 	sts	0x2D83, r25	; 0x802d83 <mall+0xd4b>
     6bc:	80 93 a0 2d 	sts	0x2DA0, r24	; 0x802da0 <mall+0xd68>
     6c0:	90 93 a1 2d 	sts	0x2DA1, r25	; 0x802da1 <mall+0xd69>
     6c4:	80 93 be 2d 	sts	0x2DBE, r24	; 0x802dbe <mall+0xd86>
     6c8:	90 93 bf 2d 	sts	0x2DBF, r25	; 0x802dbf <mall+0xd87>
     6cc:	80 93 dc 2d 	sts	0x2DDC, r24	; 0x802ddc <mall+0xda4>
     6d0:	90 93 dd 2d 	sts	0x2DDD, r25	; 0x802ddd <mall+0xda5>
     6d4:	80 93 fa 2d 	sts	0x2DFA, r24	; 0x802dfa <mall+0xdc2>
     6d8:	90 93 fb 2d 	sts	0x2DFB, r25	; 0x802dfb <mall+0xdc3>
     6dc:	80 93 18 2e 	sts	0x2E18, r24	; 0x802e18 <mall+0xde0>
     6e0:	90 93 19 2e 	sts	0x2E19, r25	; 0x802e19 <mall+0xde1>
     6e4:	80 93 36 2e 	sts	0x2E36, r24	; 0x802e36 <mall+0xdfe>
     6e8:	90 93 37 2e 	sts	0x2E37, r25	; 0x802e37 <mall+0xdff>
     6ec:	80 93 54 2e 	sts	0x2E54, r24	; 0x802e54 <mall+0xe1c>
     6f0:	90 93 55 2e 	sts	0x2E55, r25	; 0x802e55 <mall+0xe1d>
     6f4:	80 93 72 2e 	sts	0x2E72, r24	; 0x802e72 <mall+0xe3a>
     6f8:	90 93 73 2e 	sts	0x2E73, r25	; 0x802e73 <mall+0xe3b>
     6fc:	80 93 90 2e 	sts	0x2E90, r24	; 0x802e90 <mall+0xe58>
     700:	90 93 91 2e 	sts	0x2E91, r25	; 0x802e91 <mall+0xe59>
     704:	80 93 ae 2e 	sts	0x2EAE, r24	; 0x802eae <mall+0xe76>
     708:	90 93 af 2e 	sts	0x2EAF, r25	; 0x802eaf <mall+0xe77>
     70c:	80 93 cc 2e 	sts	0x2ECC, r24	; 0x802ecc <mall+0xe94>
     710:	90 93 cd 2e 	sts	0x2ECD, r25	; 0x802ecd <mall+0xe95>
     714:	80 93 ea 2e 	sts	0x2EEA, r24	; 0x802eea <mall+0xeb2>
     718:	90 93 eb 2e 	sts	0x2EEB, r25	; 0x802eeb <mall+0xeb3>
     71c:	80 93 08 2f 	sts	0x2F08, r24	; 0x802f08 <mall+0xed0>
     720:	90 93 09 2f 	sts	0x2F09, r25	; 0x802f09 <mall+0xed1>
     724:	80 93 26 2f 	sts	0x2F26, r24	; 0x802f26 <mall+0xeee>
     728:	90 93 27 2f 	sts	0x2F27, r25	; 0x802f27 <mall+0xeef>
     72c:	80 93 44 2f 	sts	0x2F44, r24	; 0x802f44 <mall+0xf0c>
     730:	90 93 45 2f 	sts	0x2F45, r25	; 0x802f45 <mall+0xf0d>
     734:	80 93 62 2f 	sts	0x2F62, r24	; 0x802f62 <mall+0xf2a>
     738:	90 93 63 2f 	sts	0x2F63, r25	; 0x802f63 <mall+0xf2b>
     73c:	80 93 80 2f 	sts	0x2F80, r24	; 0x802f80 <mall+0xf48>
     740:	90 93 81 2f 	sts	0x2F81, r25	; 0x802f81 <mall+0xf49>
     744:	80 93 9e 2f 	sts	0x2F9E, r24	; 0x802f9e <mall+0xf66>
     748:	90 93 9f 2f 	sts	0x2F9F, r25	; 0x802f9f <mall+0xf67>
     74c:	80 93 bc 2f 	sts	0x2FBC, r24	; 0x802fbc <mall+0xf84>
     750:	90 93 bd 2f 	sts	0x2FBD, r25	; 0x802fbd <mall+0xf85>
     754:	80 93 da 2f 	sts	0x2FDA, r24	; 0x802fda <mall+0xfa2>
     758:	90 93 db 2f 	sts	0x2FDB, r25	; 0x802fdb <mall+0xfa3>
     75c:	80 93 f8 2f 	sts	0x2FF8, r24	; 0x802ff8 <mall+0xfc0>
     760:	90 93 f9 2f 	sts	0x2FF9, r25	; 0x802ff9 <mall+0xfc1>
     764:	80 93 16 30 	sts	0x3016, r24	; 0x803016 <mall+0xfde>
     768:	90 93 17 30 	sts	0x3017, r25	; 0x803017 <mall+0xfdf>
     76c:	80 93 34 30 	sts	0x3034, r24	; 0x803034 <mall+0xffc>
     770:	90 93 35 30 	sts	0x3035, r25	; 0x803035 <mall+0xffd>
     774:	80 93 52 30 	sts	0x3052, r24	; 0x803052 <mall+0x101a>
     778:	90 93 53 30 	sts	0x3053, r25	; 0x803053 <mall+0x101b>
     77c:	80 93 70 30 	sts	0x3070, r24	; 0x803070 <mall+0x1038>
     780:	90 93 71 30 	sts	0x3071, r25	; 0x803071 <mall+0x1039>
     784:	80 93 8e 30 	sts	0x308E, r24	; 0x80308e <mall+0x1056>
     788:	90 93 8f 30 	sts	0x308F, r25	; 0x80308f <mall+0x1057>
     78c:	80 93 ac 30 	sts	0x30AC, r24	; 0x8030ac <mall+0x1074>
     790:	90 93 ad 30 	sts	0x30AD, r25	; 0x8030ad <mall+0x1075>
     794:	80 93 ca 30 	sts	0x30CA, r24	; 0x8030ca <mall+0x1092>
     798:	90 93 cb 30 	sts	0x30CB, r25	; 0x8030cb <mall+0x1093>
     79c:	80 93 e8 30 	sts	0x30E8, r24	; 0x8030e8 <mall+0x10b0>
     7a0:	90 93 e9 30 	sts	0x30E9, r25	; 0x8030e9 <mall+0x10b1>
     7a4:	80 93 06 31 	sts	0x3106, r24	; 0x803106 <mall+0x10ce>
     7a8:	90 93 07 31 	sts	0x3107, r25	; 0x803107 <mall+0x10cf>
     7ac:	80 93 24 31 	sts	0x3124, r24	; 0x803124 <mall+0x10ec>
     7b0:	90 93 25 31 	sts	0x3125, r25	; 0x803125 <mall+0x10ed>
     7b4:	80 93 42 31 	sts	0x3142, r24	; 0x803142 <mall+0x110a>
     7b8:	90 93 43 31 	sts	0x3143, r25	; 0x803143 <mall+0x110b>
     7bc:	80 93 60 31 	sts	0x3160, r24	; 0x803160 <mall+0x1128>
     7c0:	90 93 61 31 	sts	0x3161, r25	; 0x803161 <mall+0x1129>
     7c4:	80 93 7e 31 	sts	0x317E, r24	; 0x80317e <mall+0x1146>
     7c8:	90 93 7f 31 	sts	0x317F, r25	; 0x80317f <mall+0x1147>
     7cc:	80 93 9c 31 	sts	0x319C, r24	; 0x80319c <mall+0x1164>
     7d0:	90 93 9d 31 	sts	0x319D, r25	; 0x80319d <mall+0x1165>
     7d4:	80 93 ba 31 	sts	0x31BA, r24	; 0x8031ba <mall+0x1182>
     7d8:	90 93 bb 31 	sts	0x31BB, r25	; 0x8031bb <mall+0x1183>
     7dc:	80 93 d8 31 	sts	0x31D8, r24	; 0x8031d8 <mall+0x11a0>
     7e0:	90 93 d9 31 	sts	0x31D9, r25	; 0x8031d9 <mall+0x11a1>
     7e4:	80 93 f6 31 	sts	0x31F6, r24	; 0x8031f6 <mall+0x11be>
     7e8:	90 93 f7 31 	sts	0x31F7, r25	; 0x8031f7 <mall+0x11bf>
     7ec:	80 93 14 32 	sts	0x3214, r24	; 0x803214 <mall+0x11dc>
     7f0:	90 93 15 32 	sts	0x3215, r25	; 0x803215 <mall+0x11dd>
     7f4:	80 93 32 32 	sts	0x3232, r24	; 0x803232 <mall+0x11fa>
     7f8:	90 93 33 32 	sts	0x3233, r25	; 0x803233 <mall+0x11fb>
     7fc:	80 93 50 32 	sts	0x3250, r24	; 0x803250 <mall+0x1218>
     800:	90 93 51 32 	sts	0x3251, r25	; 0x803251 <mall+0x1219>
     804:	80 93 6e 32 	sts	0x326E, r24	; 0x80326e <mall+0x1236>
     808:	90 93 6f 32 	sts	0x326F, r25	; 0x80326f <mall+0x1237>
     80c:	80 93 8c 32 	sts	0x328C, r24	; 0x80328c <mall+0x1254>
     810:	90 93 8d 32 	sts	0x328D, r25	; 0x80328d <mall+0x1255>
     814:	80 93 aa 32 	sts	0x32AA, r24	; 0x8032aa <mall+0x1272>
     818:	90 93 ab 32 	sts	0x32AB, r25	; 0x8032ab <mall+0x1273>
     81c:	80 93 c8 32 	sts	0x32C8, r24	; 0x8032c8 <mall+0x1290>
     820:	90 93 c9 32 	sts	0x32C9, r25	; 0x8032c9 <mall+0x1291>
     824:	80 93 e6 32 	sts	0x32E6, r24	; 0x8032e6 <mall+0x12ae>
     828:	90 93 e7 32 	sts	0x32E7, r25	; 0x8032e7 <mall+0x12af>
     82c:	80 93 04 33 	sts	0x3304, r24	; 0x803304 <mall+0x12cc>
     830:	90 93 05 33 	sts	0x3305, r25	; 0x803305 <mall+0x12cd>
     834:	80 93 22 33 	sts	0x3322, r24	; 0x803322 <mall+0x12ea>
     838:	90 93 23 33 	sts	0x3323, r25	; 0x803323 <mall+0x12eb>
     83c:	80 93 40 33 	sts	0x3340, r24	; 0x803340 <mall+0x1308>
     840:	90 93 41 33 	sts	0x3341, r25	; 0x803341 <mall+0x1309>
     844:	80 93 5e 33 	sts	0x335E, r24	; 0x80335e <mall+0x1326>
     848:	90 93 5f 33 	sts	0x335F, r25	; 0x80335f <mall+0x1327>
     84c:	80 93 7c 33 	sts	0x337C, r24	; 0x80337c <mall+0x1344>
     850:	90 93 7d 33 	sts	0x337D, r25	; 0x80337d <mall+0x1345>
     854:	80 93 9a 33 	sts	0x339A, r24	; 0x80339a <mall+0x1362>
     858:	90 93 9b 33 	sts	0x339B, r25	; 0x80339b <mall+0x1363>
     85c:	80 93 b8 33 	sts	0x33B8, r24	; 0x8033b8 <mall+0x1380>
     860:	90 93 b9 33 	sts	0x33B9, r25	; 0x8033b9 <mall+0x1381>
     864:	80 93 d6 33 	sts	0x33D6, r24	; 0x8033d6 <mall+0x139e>
     868:	90 93 d7 33 	sts	0x33D7, r25	; 0x8033d7 <mall+0x139f>
     86c:	80 93 f4 33 	sts	0x33F4, r24	; 0x8033f4 <mall+0x13bc>
     870:	90 93 f5 33 	sts	0x33F5, r25	; 0x8033f5 <mall+0x13bd>
     874:	80 93 12 34 	sts	0x3412, r24	; 0x803412 <mall+0x13da>
     878:	90 93 13 34 	sts	0x3413, r25	; 0x803413 <mall+0x13db>
     87c:	80 93 30 34 	sts	0x3430, r24	; 0x803430 <mall+0x13f8>
     880:	90 93 31 34 	sts	0x3431, r25	; 0x803431 <mall+0x13f9>
     884:	80 93 4e 34 	sts	0x344E, r24	; 0x80344e <mall+0x1416>
     888:	90 93 4f 34 	sts	0x344F, r25	; 0x80344f <mall+0x1417>
     88c:	80 93 6c 34 	sts	0x346C, r24	; 0x80346c <mall+0x1434>
     890:	90 93 6d 34 	sts	0x346D, r25	; 0x80346d <mall+0x1435>
     894:	80 93 8a 34 	sts	0x348A, r24	; 0x80348a <mall+0x1452>
     898:	90 93 8b 34 	sts	0x348B, r25	; 0x80348b <mall+0x1453>
     89c:	80 93 a8 34 	sts	0x34A8, r24	; 0x8034a8 <mall+0x1470>
     8a0:	90 93 a9 34 	sts	0x34A9, r25	; 0x8034a9 <mall+0x1471>
     8a4:	80 93 c6 34 	sts	0x34C6, r24	; 0x8034c6 <mall+0x148e>
     8a8:	90 93 c7 34 	sts	0x34C7, r25	; 0x8034c7 <mall+0x148f>
     8ac:	80 93 e4 34 	sts	0x34E4, r24	; 0x8034e4 <mall+0x14ac>
     8b0:	90 93 e5 34 	sts	0x34E5, r25	; 0x8034e5 <mall+0x14ad>
     8b4:	80 93 02 35 	sts	0x3502, r24	; 0x803502 <mall+0x14ca>
     8b8:	90 93 03 35 	sts	0x3503, r25	; 0x803503 <mall+0x14cb>
     8bc:	80 93 20 35 	sts	0x3520, r24	; 0x803520 <mall+0x14e8>
     8c0:	90 93 21 35 	sts	0x3521, r25	; 0x803521 <mall+0x14e9>
     8c4:	80 93 3e 35 	sts	0x353E, r24	; 0x80353e <mall+0x1506>
     8c8:	90 93 3f 35 	sts	0x353F, r25	; 0x80353f <mall+0x1507>
     8cc:	80 93 5c 35 	sts	0x355C, r24	; 0x80355c <mall+0x1524>
     8d0:	90 93 5d 35 	sts	0x355D, r25	; 0x80355d <mall+0x1525>
     8d4:	80 93 7a 35 	sts	0x357A, r24	; 0x80357a <mall+0x1542>
     8d8:	90 93 7b 35 	sts	0x357B, r25	; 0x80357b <mall+0x1543>
     8dc:	80 93 98 35 	sts	0x3598, r24	; 0x803598 <mall+0x1560>
     8e0:	90 93 99 35 	sts	0x3599, r25	; 0x803599 <mall+0x1561>
     8e4:	80 93 b6 35 	sts	0x35B6, r24	; 0x8035b6 <mall+0x157e>
     8e8:	90 93 b7 35 	sts	0x35B7, r25	; 0x8035b7 <mall+0x157f>
     8ec:	80 93 d4 35 	sts	0x35D4, r24	; 0x8035d4 <mall+0x159c>
     8f0:	90 93 d5 35 	sts	0x35D5, r25	; 0x8035d5 <mall+0x159d>
     8f4:	80 93 f2 35 	sts	0x35F2, r24	; 0x8035f2 <mall+0x15ba>
     8f8:	90 93 f3 35 	sts	0x35F3, r25	; 0x8035f3 <mall+0x15bb>
     8fc:	80 93 10 36 	sts	0x3610, r24	; 0x803610 <mall+0x15d8>
     900:	90 93 11 36 	sts	0x3611, r25	; 0x803611 <mall+0x15d9>
     904:	80 93 2e 36 	sts	0x362E, r24	; 0x80362e <mall+0x15f6>
     908:	90 93 2f 36 	sts	0x362F, r25	; 0x80362f <mall+0x15f7>
     90c:	80 93 4c 36 	sts	0x364C, r24	; 0x80364c <mall+0x1614>
     910:	90 93 4d 36 	sts	0x364D, r25	; 0x80364d <mall+0x1615>
     914:	80 93 6a 36 	sts	0x366A, r24	; 0x80366a <mall+0x1632>
     918:	90 93 6b 36 	sts	0x366B, r25	; 0x80366b <mall+0x1633>
     91c:	80 93 88 36 	sts	0x3688, r24	; 0x803688 <mall+0x1650>
     920:	90 93 89 36 	sts	0x3689, r25	; 0x803689 <mall+0x1651>
     924:	80 93 a6 36 	sts	0x36A6, r24	; 0x8036a6 <mall+0x166e>
     928:	90 93 a7 36 	sts	0x36A7, r25	; 0x8036a7 <mall+0x166f>
     92c:	80 93 c4 36 	sts	0x36C4, r24	; 0x8036c4 <mall+0x168c>
     930:	90 93 c5 36 	sts	0x36C5, r25	; 0x8036c5 <mall+0x168d>
     934:	80 93 e2 36 	sts	0x36E2, r24	; 0x8036e2 <mall+0x16aa>
     938:	90 93 e3 36 	sts	0x36E3, r25	; 0x8036e3 <mall+0x16ab>
     93c:	80 93 00 37 	sts	0x3700, r24	; 0x803700 <mall+0x16c8>
     940:	90 93 01 37 	sts	0x3701, r25	; 0x803701 <mall+0x16c9>
     944:	80 93 1e 37 	sts	0x371E, r24	; 0x80371e <mall+0x16e6>
     948:	90 93 1f 37 	sts	0x371F, r25	; 0x80371f <mall+0x16e7>
     94c:	80 93 3c 37 	sts	0x373C, r24	; 0x80373c <mall+0x1704>
     950:	90 93 3d 37 	sts	0x373D, r25	; 0x80373d <mall+0x1705>
     954:	80 93 5a 37 	sts	0x375A, r24	; 0x80375a <mall+0x1722>
     958:	90 93 5b 37 	sts	0x375B, r25	; 0x80375b <mall+0x1723>
     95c:	80 93 78 37 	sts	0x3778, r24	; 0x803778 <mall+0x1740>
     960:	90 93 79 37 	sts	0x3779, r25	; 0x803779 <mall+0x1741>
     964:	80 93 96 37 	sts	0x3796, r24	; 0x803796 <mall+0x175e>
     968:	90 93 97 37 	sts	0x3797, r25	; 0x803797 <mall+0x175f>
     96c:	88 ec       	ldi	r24, 0xC8	; 200
     96e:	ee ea       	ldi	r30, 0xAE	; 174
     970:	f7 e3       	ldi	r31, 0x37	; 55
     972:	ef 01       	movw	r28, r30
     974:	19 92       	st	Y+, r1
     976:	8a 95       	dec	r24
     978:	e9 f7       	brne	.-6      	; 0x974 <__LOCK_REGION_LENGTH__+0x574>
     97a:	12 96       	adiw	r26, 0x02	; 2
     97c:	1d 92       	st	X+, r1
     97e:	1c 92       	st	X, r1
     980:	13 97       	sbiw	r26, 0x03	; 3
    node* make(){
        if(now>=max-1){ return np; }else{
            now++;
     982:	81 e0       	ldi	r24, 0x01	; 1
     984:	90 e0       	ldi	r25, 0x00	; 0
     986:	14 96       	adiw	r26, 0x04	; 4
     988:	8d 93       	st	X+, r24
     98a:	9c 93       	st	X, r25
     98c:	15 97       	sbiw	r26, 0x05	; 5
    long long unsigned int counter;//dfs's counter.
    node* ans;//dfs's answer.
    //for dfs
public:
    core(){
        now = mall.make();
     98e:	e8 e2       	ldi	r30, 0x28	; 40
     990:	f0 e2       	ldi	r31, 0x20	; 32
     992:	2c e5       	ldi	r18, 0x5C	; 92
     994:	30 e2       	ldi	r19, 0x20	; 32
     996:	20 83       	st	Z, r18
     998:	31 83       	std	Z+1, r19	; 0x01
        start = now; 
     99a:	22 83       	std	Z+2, r18	; 0x02
     99c:	33 83       	std	Z+3, r19	; 0x03
        start->x=100;start->y=100;start->z=1;start->back[0]=np;start->type=v::start;start->depth=0;
     99e:	24 e6       	ldi	r18, 0x64	; 100
     9a0:	30 e0       	ldi	r19, 0x00	; 0
     9a2:	94 96       	adiw	r26, 0x24	; 36
     9a4:	2d 93       	st	X+, r18
     9a6:	3c 93       	st	X, r19
     9a8:	95 97       	sbiw	r26, 0x25	; 37
     9aa:	96 96       	adiw	r26, 0x26	; 38
     9ac:	2d 93       	st	X+, r18
     9ae:	3c 93       	st	X, r19
     9b0:	97 97       	sbiw	r26, 0x27	; 39
     9b2:	98 96       	adiw	r26, 0x28	; 40
     9b4:	8d 93       	st	X+, r24
     9b6:	9c 93       	st	X, r25
     9b8:	99 97       	sbiw	r26, 0x29	; 41
     9ba:	8f ef       	ldi	r24, 0xFF	; 255
     9bc:	9f ef       	ldi	r25, 0xFF	; 255
     9be:	9c 96       	adiw	r26, 0x2c	; 44
     9c0:	8d 93       	st	X+, r24
     9c2:	9c 93       	st	X, r25
     9c4:	9d 97       	sbiw	r26, 0x2d	; 45
     9c6:	9a 96       	adiw	r26, 0x2a	; 42
     9c8:	1d 92       	st	X+, r1
     9ca:	1c 92       	st	X, r1
     9cc:	9b 97       	sbiw	r26, 0x2b	; 43
        //dir = v::left;
		dir = 0;
     9ce:	14 82       	std	Z+4, r1	; 0x04
     9d0:	15 82       	std	Z+5, r1	; 0x05
        counter=0;
     9d2:	16 82       	std	Z+6, r1	; 0x06
     9d4:	17 82       	std	Z+7, r1	; 0x07
     9d6:	10 86       	std	Z+8, r1	; 0x08
     9d8:	11 86       	std	Z+9, r1	; 0x09
     9da:	12 86       	std	Z+10, r1	; 0x0a
     9dc:	13 86       	std	Z+11, r1	; 0x0b
     9de:	14 86       	std	Z+12, r1	; 0x0c
     9e0:	15 86       	std	Z+13, r1	; 0x0d
        ans = np;
     9e2:	16 86       	std	Z+14, r1	; 0x0e
     9e4:	17 86       	std	Z+15, r1	; 0x0f
 * Created: 2018/08/25 1:27:46
 *  Author: TOMOKI
 */ 

#include "source/petal.hpp"
usart serial(&USARTC0,&PORTC);
     9e6:	40 e4       	ldi	r20, 0x40	; 64
     9e8:	56 e0       	ldi	r21, 0x06	; 6
     9ea:	60 ea       	ldi	r22, 0xA0	; 160
     9ec:	78 e0       	ldi	r23, 0x08	; 8
     9ee:	84 e2       	ldi	r24, 0x24	; 36
     9f0:	90 e2       	ldi	r25, 0x20	; 32
     9f2:	0e 94 95 08 	call	0x112a	; 0x112a <_ZN5usartC1EP12USART_structP11PORT_struct>
		debugping(v::right);
		debugping(v::back);
		_delay_ms(500);
	}
return 0;
     9f6:	df 91       	pop	r29
     9f8:	cf 91       	pop	r28
     9fa:	08 95       	ret

000009fc <_Z10init_colorv>:
     9fc:	87 e0       	ldi	r24, 0x07	; 7
     9fe:	80 93 a1 06 	sts	0x06A1, r24	; 0x8006a1 <__TEXT_REGION_LENGTH__+0x7006a1>
     a02:	08 95       	ret

00000a04 <_Z10init_clockv>:
	init_color();
}


void init_clock(void){
	OSC.CTRL |= 0x02;					//32MHz内蔵発振器動作許可
     a04:	e0 e5       	ldi	r30, 0x50	; 80
     a06:	f0 e0       	ldi	r31, 0x00	; 0
     a08:	80 81       	ld	r24, Z
     a0a:	82 60       	ori	r24, 0x02	; 2
     a0c:	80 83       	st	Z, r24
	while((OSC.STATUS & 0x02) == 0);	//32MHz内蔵発振器が安定するまで待つ
     a0e:	81 81       	ldd	r24, Z+1	; 0x01
     a10:	81 ff       	sbrs	r24, 1
     a12:	fd cf       	rjmp	.-6      	; 0xa0e <_Z10init_clockv+0xa>
	CPU_CCP = 0xD8;						//システムクロック制御レジスタアクセス許可を行う
     a14:	88 ed       	ldi	r24, 0xD8	; 216
     a16:	84 bf       	out	0x34, r24	; 52
	CLK.CTRL = 0x01;					//システムクロックを32MHzに変更
     a18:	e0 e4       	ldi	r30, 0x40	; 64
     a1a:	f0 e0       	ldi	r31, 0x00	; 0
     a1c:	81 e0       	ldi	r24, 0x01	; 1
     a1e:	80 83       	st	Z, r24
	CLK.PSCTRL=CLK_PSADIV0_bm;		//select Prescaler A as 2, Prescaler B and Prescaler C as 1, Clksys=16MHz, Clkper4=Clkper2=Clkper=Clkcpu=8MHz
     a20:	84 e0       	ldi	r24, 0x04	; 4
     a22:	81 83       	std	Z+1, r24	; 0x01
	OSC.CTRL &= 0xFE;					//2MHz内蔵発振器動作停止
     a24:	e0 e5       	ldi	r30, 0x50	; 80
     a26:	f0 e0       	ldi	r31, 0x00	; 0
     a28:	80 81       	ld	r24, Z
     a2a:	8e 7f       	andi	r24, 0xFE	; 254
     a2c:	80 83       	st	Z, r24
     a2e:	08 95       	ret

00000a30 <_Z3rtcv>:
}


void rtc(void){
	OSC.CTRL = OSC_RC32KEN_bm;
     a30:	84 e0       	ldi	r24, 0x04	; 4
     a32:	80 93 50 00 	sts	0x0050, r24	; 0x800050 <__TEXT_REGION_LENGTH__+0x700050>
	while((OSC_STATUS&&OSC_RC32KRDY_bm)==0);
     a36:	e1 e5       	ldi	r30, 0x51	; 81
     a38:	f0 e0       	ldi	r31, 0x00	; 0
     a3a:	80 81       	ld	r24, Z
     a3c:	88 23       	and	r24, r24
     a3e:	e9 f3       	breq	.-6      	; 0xa3a <_Z3rtcv+0xa>
	CLK.RTCCTRL = 0b00000001;
     a40:	81 e0       	ldi	r24, 0x01	; 1
     a42:	80 93 43 00 	sts	0x0043, r24	; 0x800043 <__TEXT_REGION_LENGTH__+0x700043>
	RTC.CTRL = RTC_PRESCALER_DIV1024_gc;
     a46:	87 e0       	ldi	r24, 0x07	; 7
     a48:	80 93 00 04 	sts	0x0400, r24	; 0x800400 <__TEXT_REGION_LENGTH__+0x700400>
     a4c:	08 95       	ret

00000a4e <_Z8init_avrv>:
}

void init_avr(void){
	PORTA.DIRSET=PIN0_bm;//ブザー
     a4e:	81 e0       	ldi	r24, 0x01	; 1
     a50:	80 93 01 06 	sts	0x0601, r24	; 0x800601 <__TEXT_REGION_LENGTH__+0x700601>
	PORTQ.DIRSET = PIN0_bm|PIN1_bm|PIN2_bm;//フルカラーLED
     a54:	e0 ec       	ldi	r30, 0xC0	; 192
     a56:	f7 e0       	ldi	r31, 0x07	; 7
     a58:	87 e0       	ldi	r24, 0x07	; 7
     a5a:	81 83       	std	Z+1, r24	; 0x01
	PORTQ.OUTSET = PIN0_bm|PIN1_bm|PIN2_bm;
     a5c:	85 83       	std	Z+5, r24	; 0x05
	PORTK.DIRSET = PIN0_bm|PIN1_bm|PIN2_bm|PIN3_bm;//ステッピングinit
     a5e:	8f e0       	ldi	r24, 0x0F	; 15
     a60:	80 93 21 07 	sts	0x0721, r24	; 0x800721 <__TEXT_REGION_LENGTH__+0x700721>
	PORTB.DIRSET = PIN0_bm|PIN1_bm;//モーター用SIG
     a64:	83 e0       	ldi	r24, 0x03	; 3
     a66:	80 93 21 06 	sts	0x0621, r24	; 0x800621 <__TEXT_REGION_LENGTH__+0x700621>
     a6a:	08 95       	ret

00000a6c <_Z8init_allv>:
#include "motor_control.hpp"
#include "action.hpp"
#include "color_control.hpp"

void init_all(void){
	init_clock();
     a6c:	0e 94 02 05 	call	0xa04	; 0xa04 <_Z10init_clockv>
	init_avr();
     a70:	0e 94 27 05 	call	0xa4e	; 0xa4e <_Z8init_avrv>
	init_lcd();
     a74:	0e 94 43 05 	call	0xa86	; 0xa86 <_Z8init_lcdv>
	init_motor();
     a78:	0e 94 25 07 	call	0xe4a	; 0xe4a <_Z10init_motorv>
	rtc();
     a7c:	0e 94 18 05 	call	0xa30	; 0xa30 <_Z3rtcv>
	init_color();
     a80:	0e 94 fe 04 	call	0x9fc	; 0x9fc <_Z10init_colorv>
     a84:	08 95       	ret

00000a86 <_Z8init_lcdv>:
     a86:	cf 93       	push	r28
     a88:	df 93       	push	r29
     a8a:	cd b7       	in	r28, 0x3d	; 61
     a8c:	de b7       	in	r29, 0x3e	; 62
     a8e:	2a 97       	sbiw	r28, 0x0a	; 10
     a90:	cd bf       	out	0x3d, r28	; 61
     a92:	de bf       	out	0x3e, r29	; 62
     a94:	20 e8       	ldi	r18, 0x80	; 128
     a96:	3a e1       	ldi	r19, 0x1A	; 26
     a98:	46 e0       	ldi	r20, 0x06	; 6
     a9a:	50 e0       	ldi	r21, 0x00	; 0
     a9c:	60 e9       	ldi	r22, 0x90	; 144
     a9e:	74 e0       	ldi	r23, 0x04	; 4
     aa0:	ce 01       	movw	r24, r28
     aa2:	01 96       	adiw	r24, 0x01	; 1
     aa4:	0e 94 eb 07 	call	0xfd6	; 0xfd6 <_ZN3twiC1EP10TWI_structm>
     aa8:	40 e0       	ldi	r20, 0x00	; 0
     aaa:	6c e7       	ldi	r22, 0x7C	; 124
     aac:	ce 01       	movw	r24, r28
     aae:	01 96       	adiw	r24, 0x01	; 1
     ab0:	0e 94 31 08 	call	0x1062	; 0x1062 <_ZN3twi7AddressEhh>
     ab4:	60 e0       	ldi	r22, 0x00	; 0
     ab6:	70 e0       	ldi	r23, 0x00	; 0
     ab8:	ce 01       	movw	r24, r28
     aba:	01 96       	adiw	r24, 0x01	; 1
     abc:	0e 94 5f 08 	call	0x10be	; 0x10be <_ZN3twi11WriteSingleEi>
     ac0:	68 e3       	ldi	r22, 0x38	; 56
     ac2:	70 e0       	ldi	r23, 0x00	; 0
     ac4:	ce 01       	movw	r24, r28
     ac6:	01 96       	adiw	r24, 0x01	; 1
     ac8:	0e 94 5f 08 	call	0x10be	; 0x10be <_ZN3twi11WriteSingleEi>
     acc:	ce 01       	movw	r24, r28
     ace:	01 96       	adiw	r24, 0x01	; 1
     ad0:	0e 94 83 08 	call	0x1106	; 0x1106 <_ZN3twi4StopEv>
     ad4:	2f ef       	ldi	r18, 0xFF	; 255
     ad6:	81 ee       	ldi	r24, 0xE1	; 225
     ad8:	94 e0       	ldi	r25, 0x04	; 4
     ada:	21 50       	subi	r18, 0x01	; 1
     adc:	80 40       	sbci	r24, 0x00	; 0
     ade:	90 40       	sbci	r25, 0x00	; 0
     ae0:	e1 f7       	brne	.-8      	; 0xada <_Z8init_lcdv+0x54>
     ae2:	00 c0       	rjmp	.+0      	; 0xae4 <_Z8init_lcdv+0x5e>
     ae4:	00 00       	nop
     ae6:	40 e0       	ldi	r20, 0x00	; 0
     ae8:	6c e7       	ldi	r22, 0x7C	; 124
     aea:	ce 01       	movw	r24, r28
     aec:	01 96       	adiw	r24, 0x01	; 1
     aee:	0e 94 31 08 	call	0x1062	; 0x1062 <_ZN3twi7AddressEhh>
     af2:	60 e0       	ldi	r22, 0x00	; 0
     af4:	70 e0       	ldi	r23, 0x00	; 0
     af6:	ce 01       	movw	r24, r28
     af8:	01 96       	adiw	r24, 0x01	; 1
     afa:	0e 94 5f 08 	call	0x10be	; 0x10be <_ZN3twi11WriteSingleEi>
     afe:	69 e3       	ldi	r22, 0x39	; 57
     b00:	70 e0       	ldi	r23, 0x00	; 0
     b02:	ce 01       	movw	r24, r28
     b04:	01 96       	adiw	r24, 0x01	; 1
     b06:	0e 94 5f 08 	call	0x10be	; 0x10be <_ZN3twi11WriteSingleEi>
     b0a:	ce 01       	movw	r24, r28
     b0c:	01 96       	adiw	r24, 0x01	; 1
     b0e:	0e 94 83 08 	call	0x1106	; 0x1106 <_ZN3twi4StopEv>
     b12:	2f ef       	ldi	r18, 0xFF	; 255
     b14:	81 ee       	ldi	r24, 0xE1	; 225
     b16:	94 e0       	ldi	r25, 0x04	; 4
     b18:	21 50       	subi	r18, 0x01	; 1
     b1a:	80 40       	sbci	r24, 0x00	; 0
     b1c:	90 40       	sbci	r25, 0x00	; 0
     b1e:	e1 f7       	brne	.-8      	; 0xb18 <_Z8init_lcdv+0x92>
     b20:	00 c0       	rjmp	.+0      	; 0xb22 <_Z8init_lcdv+0x9c>
     b22:	00 00       	nop
     b24:	40 e0       	ldi	r20, 0x00	; 0
     b26:	6c e7       	ldi	r22, 0x7C	; 124
     b28:	ce 01       	movw	r24, r28
     b2a:	01 96       	adiw	r24, 0x01	; 1
     b2c:	0e 94 31 08 	call	0x1062	; 0x1062 <_ZN3twi7AddressEhh>
     b30:	60 e0       	ldi	r22, 0x00	; 0
     b32:	70 e0       	ldi	r23, 0x00	; 0
     b34:	ce 01       	movw	r24, r28
     b36:	01 96       	adiw	r24, 0x01	; 1
     b38:	0e 94 5f 08 	call	0x10be	; 0x10be <_ZN3twi11WriteSingleEi>
     b3c:	64 e1       	ldi	r22, 0x14	; 20
     b3e:	70 e0       	ldi	r23, 0x00	; 0
     b40:	ce 01       	movw	r24, r28
     b42:	01 96       	adiw	r24, 0x01	; 1
     b44:	0e 94 5f 08 	call	0x10be	; 0x10be <_ZN3twi11WriteSingleEi>
     b48:	ce 01       	movw	r24, r28
     b4a:	01 96       	adiw	r24, 0x01	; 1
     b4c:	0e 94 83 08 	call	0x1106	; 0x1106 <_ZN3twi4StopEv>
     b50:	2f ef       	ldi	r18, 0xFF	; 255
     b52:	81 ee       	ldi	r24, 0xE1	; 225
     b54:	94 e0       	ldi	r25, 0x04	; 4
     b56:	21 50       	subi	r18, 0x01	; 1
     b58:	80 40       	sbci	r24, 0x00	; 0
     b5a:	90 40       	sbci	r25, 0x00	; 0
     b5c:	e1 f7       	brne	.-8      	; 0xb56 <_Z8init_lcdv+0xd0>
     b5e:	00 c0       	rjmp	.+0      	; 0xb60 <_Z8init_lcdv+0xda>
     b60:	00 00       	nop
     b62:	40 e0       	ldi	r20, 0x00	; 0
     b64:	6c e7       	ldi	r22, 0x7C	; 124
     b66:	ce 01       	movw	r24, r28
     b68:	01 96       	adiw	r24, 0x01	; 1
     b6a:	0e 94 31 08 	call	0x1062	; 0x1062 <_ZN3twi7AddressEhh>
     b6e:	60 e0       	ldi	r22, 0x00	; 0
     b70:	70 e0       	ldi	r23, 0x00	; 0
     b72:	ce 01       	movw	r24, r28
     b74:	01 96       	adiw	r24, 0x01	; 1
     b76:	0e 94 5f 08 	call	0x10be	; 0x10be <_ZN3twi11WriteSingleEi>
     b7a:	6e e7       	ldi	r22, 0x7E	; 126
     b7c:	70 e0       	ldi	r23, 0x00	; 0
     b7e:	ce 01       	movw	r24, r28
     b80:	01 96       	adiw	r24, 0x01	; 1
     b82:	0e 94 5f 08 	call	0x10be	; 0x10be <_ZN3twi11WriteSingleEi>
     b86:	ce 01       	movw	r24, r28
     b88:	01 96       	adiw	r24, 0x01	; 1
     b8a:	0e 94 83 08 	call	0x1106	; 0x1106 <_ZN3twi4StopEv>
     b8e:	2f ef       	ldi	r18, 0xFF	; 255
     b90:	81 ee       	ldi	r24, 0xE1	; 225
     b92:	94 e0       	ldi	r25, 0x04	; 4
     b94:	21 50       	subi	r18, 0x01	; 1
     b96:	80 40       	sbci	r24, 0x00	; 0
     b98:	90 40       	sbci	r25, 0x00	; 0
     b9a:	e1 f7       	brne	.-8      	; 0xb94 <_Z8init_lcdv+0x10e>
     b9c:	00 c0       	rjmp	.+0      	; 0xb9e <_Z8init_lcdv+0x118>
     b9e:	00 00       	nop
     ba0:	40 e0       	ldi	r20, 0x00	; 0
     ba2:	6c e7       	ldi	r22, 0x7C	; 124
     ba4:	ce 01       	movw	r24, r28
     ba6:	01 96       	adiw	r24, 0x01	; 1
     ba8:	0e 94 31 08 	call	0x1062	; 0x1062 <_ZN3twi7AddressEhh>
     bac:	60 e0       	ldi	r22, 0x00	; 0
     bae:	70 e0       	ldi	r23, 0x00	; 0
     bb0:	ce 01       	movw	r24, r28
     bb2:	01 96       	adiw	r24, 0x01	; 1
     bb4:	0e 94 5f 08 	call	0x10be	; 0x10be <_ZN3twi11WriteSingleEi>
     bb8:	65 e5       	ldi	r22, 0x55	; 85
     bba:	70 e0       	ldi	r23, 0x00	; 0
     bbc:	ce 01       	movw	r24, r28
     bbe:	01 96       	adiw	r24, 0x01	; 1
     bc0:	0e 94 5f 08 	call	0x10be	; 0x10be <_ZN3twi11WriteSingleEi>
     bc4:	ce 01       	movw	r24, r28
     bc6:	01 96       	adiw	r24, 0x01	; 1
     bc8:	0e 94 83 08 	call	0x1106	; 0x1106 <_ZN3twi4StopEv>
     bcc:	2f ef       	ldi	r18, 0xFF	; 255
     bce:	81 ee       	ldi	r24, 0xE1	; 225
     bd0:	94 e0       	ldi	r25, 0x04	; 4
     bd2:	21 50       	subi	r18, 0x01	; 1
     bd4:	80 40       	sbci	r24, 0x00	; 0
     bd6:	90 40       	sbci	r25, 0x00	; 0
     bd8:	e1 f7       	brne	.-8      	; 0xbd2 <_Z8init_lcdv+0x14c>
     bda:	00 c0       	rjmp	.+0      	; 0xbdc <_Z8init_lcdv+0x156>
     bdc:	00 00       	nop
     bde:	40 e0       	ldi	r20, 0x00	; 0
     be0:	6c e7       	ldi	r22, 0x7C	; 124
     be2:	ce 01       	movw	r24, r28
     be4:	01 96       	adiw	r24, 0x01	; 1
     be6:	0e 94 31 08 	call	0x1062	; 0x1062 <_ZN3twi7AddressEhh>
     bea:	60 e0       	ldi	r22, 0x00	; 0
     bec:	70 e0       	ldi	r23, 0x00	; 0
     bee:	ce 01       	movw	r24, r28
     bf0:	01 96       	adiw	r24, 0x01	; 1
     bf2:	0e 94 5f 08 	call	0x10be	; 0x10be <_ZN3twi11WriteSingleEi>
     bf6:	6c e6       	ldi	r22, 0x6C	; 108
     bf8:	70 e0       	ldi	r23, 0x00	; 0
     bfa:	ce 01       	movw	r24, r28
     bfc:	01 96       	adiw	r24, 0x01	; 1
     bfe:	0e 94 5f 08 	call	0x10be	; 0x10be <_ZN3twi11WriteSingleEi>
     c02:	ce 01       	movw	r24, r28
     c04:	01 96       	adiw	r24, 0x01	; 1
     c06:	0e 94 83 08 	call	0x1106	; 0x1106 <_ZN3twi4StopEv>
     c0a:	2f ef       	ldi	r18, 0xFF	; 255
     c0c:	83 ed       	ldi	r24, 0xD3	; 211
     c0e:	90 e3       	ldi	r25, 0x30	; 48
     c10:	21 50       	subi	r18, 0x01	; 1
     c12:	80 40       	sbci	r24, 0x00	; 0
     c14:	90 40       	sbci	r25, 0x00	; 0
     c16:	e1 f7       	brne	.-8      	; 0xc10 <_Z8init_lcdv+0x18a>
     c18:	00 c0       	rjmp	.+0      	; 0xc1a <_Z8init_lcdv+0x194>
     c1a:	00 00       	nop
     c1c:	40 e0       	ldi	r20, 0x00	; 0
     c1e:	6c e7       	ldi	r22, 0x7C	; 124
     c20:	ce 01       	movw	r24, r28
     c22:	01 96       	adiw	r24, 0x01	; 1
     c24:	0e 94 31 08 	call	0x1062	; 0x1062 <_ZN3twi7AddressEhh>
     c28:	60 e0       	ldi	r22, 0x00	; 0
     c2a:	70 e0       	ldi	r23, 0x00	; 0
     c2c:	ce 01       	movw	r24, r28
     c2e:	01 96       	adiw	r24, 0x01	; 1
     c30:	0e 94 5f 08 	call	0x10be	; 0x10be <_ZN3twi11WriteSingleEi>
     c34:	68 e3       	ldi	r22, 0x38	; 56
     c36:	70 e0       	ldi	r23, 0x00	; 0
     c38:	ce 01       	movw	r24, r28
     c3a:	01 96       	adiw	r24, 0x01	; 1
     c3c:	0e 94 5f 08 	call	0x10be	; 0x10be <_ZN3twi11WriteSingleEi>
     c40:	ce 01       	movw	r24, r28
     c42:	01 96       	adiw	r24, 0x01	; 1
     c44:	0e 94 83 08 	call	0x1106	; 0x1106 <_ZN3twi4StopEv>
     c48:	2f ef       	ldi	r18, 0xFF	; 255
     c4a:	81 ee       	ldi	r24, 0xE1	; 225
     c4c:	94 e0       	ldi	r25, 0x04	; 4
     c4e:	21 50       	subi	r18, 0x01	; 1
     c50:	80 40       	sbci	r24, 0x00	; 0
     c52:	90 40       	sbci	r25, 0x00	; 0
     c54:	e1 f7       	brne	.-8      	; 0xc4e <_Z8init_lcdv+0x1c8>
     c56:	00 c0       	rjmp	.+0      	; 0xc58 <_Z8init_lcdv+0x1d2>
     c58:	00 00       	nop
     c5a:	40 e0       	ldi	r20, 0x00	; 0
     c5c:	6c e7       	ldi	r22, 0x7C	; 124
     c5e:	ce 01       	movw	r24, r28
     c60:	01 96       	adiw	r24, 0x01	; 1
     c62:	0e 94 31 08 	call	0x1062	; 0x1062 <_ZN3twi7AddressEhh>
     c66:	60 e0       	ldi	r22, 0x00	; 0
     c68:	70 e0       	ldi	r23, 0x00	; 0
     c6a:	ce 01       	movw	r24, r28
     c6c:	01 96       	adiw	r24, 0x01	; 1
     c6e:	0e 94 5f 08 	call	0x10be	; 0x10be <_ZN3twi11WriteSingleEi>
     c72:	6c e0       	ldi	r22, 0x0C	; 12
     c74:	70 e0       	ldi	r23, 0x00	; 0
     c76:	ce 01       	movw	r24, r28
     c78:	01 96       	adiw	r24, 0x01	; 1
     c7a:	0e 94 5f 08 	call	0x10be	; 0x10be <_ZN3twi11WriteSingleEi>
     c7e:	ce 01       	movw	r24, r28
     c80:	01 96       	adiw	r24, 0x01	; 1
     c82:	0e 94 83 08 	call	0x1106	; 0x1106 <_ZN3twi4StopEv>
     c86:	2f ef       	ldi	r18, 0xFF	; 255
     c88:	81 ee       	ldi	r24, 0xE1	; 225
     c8a:	94 e0       	ldi	r25, 0x04	; 4
     c8c:	21 50       	subi	r18, 0x01	; 1
     c8e:	80 40       	sbci	r24, 0x00	; 0
     c90:	90 40       	sbci	r25, 0x00	; 0
     c92:	e1 f7       	brne	.-8      	; 0xc8c <_Z8init_lcdv+0x206>
     c94:	00 c0       	rjmp	.+0      	; 0xc96 <_Z8init_lcdv+0x210>
     c96:	00 00       	nop
     c98:	40 e0       	ldi	r20, 0x00	; 0
     c9a:	6c e7       	ldi	r22, 0x7C	; 124
     c9c:	ce 01       	movw	r24, r28
     c9e:	01 96       	adiw	r24, 0x01	; 1
     ca0:	0e 94 31 08 	call	0x1062	; 0x1062 <_ZN3twi7AddressEhh>
     ca4:	60 e0       	ldi	r22, 0x00	; 0
     ca6:	70 e0       	ldi	r23, 0x00	; 0
     ca8:	ce 01       	movw	r24, r28
     caa:	01 96       	adiw	r24, 0x01	; 1
     cac:	0e 94 5f 08 	call	0x10be	; 0x10be <_ZN3twi11WriteSingleEi>
     cb0:	61 e0       	ldi	r22, 0x01	; 1
     cb2:	70 e0       	ldi	r23, 0x00	; 0
     cb4:	ce 01       	movw	r24, r28
     cb6:	01 96       	adiw	r24, 0x01	; 1
     cb8:	0e 94 5f 08 	call	0x10be	; 0x10be <_ZN3twi11WriteSingleEi>
     cbc:	ce 01       	movw	r24, r28
     cbe:	01 96       	adiw	r24, 0x01	; 1
     cc0:	0e 94 83 08 	call	0x1106	; 0x1106 <_ZN3twi4StopEv>
     cc4:	2f ef       	ldi	r18, 0xFF	; 255
     cc6:	81 ee       	ldi	r24, 0xE1	; 225
     cc8:	94 e0       	ldi	r25, 0x04	; 4
     cca:	21 50       	subi	r18, 0x01	; 1
     ccc:	80 40       	sbci	r24, 0x00	; 0
     cce:	90 40       	sbci	r25, 0x00	; 0
     cd0:	e1 f7       	brne	.-8      	; 0xcca <_Z8init_lcdv+0x244>
     cd2:	00 c0       	rjmp	.+0      	; 0xcd4 <_Z8init_lcdv+0x24e>
     cd4:	00 00       	nop
     cd6:	40 e0       	ldi	r20, 0x00	; 0
     cd8:	6c e7       	ldi	r22, 0x7C	; 124
     cda:	ce 01       	movw	r24, r28
     cdc:	01 96       	adiw	r24, 0x01	; 1
     cde:	0e 94 31 08 	call	0x1062	; 0x1062 <_ZN3twi7AddressEhh>
     ce2:	60 e0       	ldi	r22, 0x00	; 0
     ce4:	70 e0       	ldi	r23, 0x00	; 0
     ce6:	ce 01       	movw	r24, r28
     ce8:	01 96       	adiw	r24, 0x01	; 1
     cea:	0e 94 5f 08 	call	0x10be	; 0x10be <_ZN3twi11WriteSingleEi>
     cee:	66 e0       	ldi	r22, 0x06	; 6
     cf0:	70 e0       	ldi	r23, 0x00	; 0
     cf2:	ce 01       	movw	r24, r28
     cf4:	01 96       	adiw	r24, 0x01	; 1
     cf6:	0e 94 5f 08 	call	0x10be	; 0x10be <_ZN3twi11WriteSingleEi>
     cfa:	ce 01       	movw	r24, r28
     cfc:	01 96       	adiw	r24, 0x01	; 1
     cfe:	0e 94 83 08 	call	0x1106	; 0x1106 <_ZN3twi4StopEv>
     d02:	2f ef       	ldi	r18, 0xFF	; 255
     d04:	81 ee       	ldi	r24, 0xE1	; 225
     d06:	94 e0       	ldi	r25, 0x04	; 4
     d08:	21 50       	subi	r18, 0x01	; 1
     d0a:	80 40       	sbci	r24, 0x00	; 0
     d0c:	90 40       	sbci	r25, 0x00	; 0
     d0e:	e1 f7       	brne	.-8      	; 0xd08 <_Z8init_lcdv+0x282>
     d10:	00 c0       	rjmp	.+0      	; 0xd12 <_Z8init_lcdv+0x28c>
     d12:	00 00       	nop
     d14:	2a 96       	adiw	r28, 0x0a	; 10
     d16:	cd bf       	out	0x3d, r28	; 61
     d18:	de bf       	out	0x3e, r29	; 62
     d1a:	df 91       	pop	r29
     d1c:	cf 91       	pop	r28
     d1e:	08 95       	ret

00000d20 <_Z10lcd_putstrP10TWI_structPKc>:
     d20:	af 92       	push	r10
     d22:	bf 92       	push	r11
     d24:	cf 92       	push	r12
     d26:	df 92       	push	r13
     d28:	ef 92       	push	r14
     d2a:	ff 92       	push	r15
     d2c:	1f 93       	push	r17
     d2e:	cf 93       	push	r28
     d30:	df 93       	push	r29
     d32:	cd b7       	in	r28, 0x3d	; 61
     d34:	de b7       	in	r29, 0x3e	; 62
     d36:	2a 97       	sbiw	r28, 0x0a	; 10
     d38:	cd bf       	out	0x3d, r28	; 61
     d3a:	de bf       	out	0x3e, r29	; 62
     d3c:	7b 01       	movw	r14, r22
     d3e:	20 e8       	ldi	r18, 0x80	; 128
     d40:	3a e1       	ldi	r19, 0x1A	; 26
     d42:	46 e0       	ldi	r20, 0x06	; 6
     d44:	50 e0       	ldi	r21, 0x00	; 0
     d46:	60 e9       	ldi	r22, 0x90	; 144
     d48:	74 e0       	ldi	r23, 0x04	; 4
     d4a:	ce 01       	movw	r24, r28
     d4c:	01 96       	adiw	r24, 0x01	; 1
     d4e:	0e 94 eb 07 	call	0xfd6	; 0xfd6 <_ZN3twiC1EP10TWI_structm>
     d52:	40 e0       	ldi	r20, 0x00	; 0
     d54:	6c e7       	ldi	r22, 0x7C	; 124
     d56:	ce 01       	movw	r24, r28
     d58:	01 96       	adiw	r24, 0x01	; 1
     d5a:	0e 94 31 08 	call	0x1062	; 0x1062 <_ZN3twi7AddressEhh>
     d5e:	f7 01       	movw	r30, r14
     d60:	01 90       	ld	r0, Z+
     d62:	00 20       	and	r0, r0
     d64:	e9 f7       	brne	.-6      	; 0xd60 <_Z10lcd_putstrP10TWI_structPKc+0x40>
     d66:	31 97       	sbiw	r30, 0x01	; 1
     d68:	6f 01       	movw	r12, r30
     d6a:	ce 18       	sub	r12, r14
     d6c:	df 08       	sbc	r13, r15
     d6e:	49 f1       	breq	.+82     	; 0xdc2 <_Z10lcd_putstrP10TWI_structPKc+0xa2>
     d70:	80 e0       	ldi	r24, 0x00	; 0
     d72:	90 e0       	ldi	r25, 0x00	; 0
     d74:	10 e0       	ldi	r17, 0x00	; 0
     d76:	56 01       	movw	r10, r12
     d78:	21 e0       	ldi	r18, 0x01	; 1
     d7a:	a2 1a       	sub	r10, r18
     d7c:	b1 08       	sbc	r11, r1
     d7e:	a8 16       	cp	r10, r24
     d80:	b9 06       	cpc	r11, r25
     d82:	39 f4       	brne	.+14     	; 0xd92 <_Z10lcd_putstrP10TWI_structPKc+0x72>
     d84:	60 e4       	ldi	r22, 0x40	; 64
     d86:	70 e0       	ldi	r23, 0x00	; 0
     d88:	ce 01       	movw	r24, r28
     d8a:	01 96       	adiw	r24, 0x01	; 1
     d8c:	0e 94 5f 08 	call	0x10be	; 0x10be <_ZN3twi11WriteSingleEi>
     d90:	06 c0       	rjmp	.+12     	; 0xd9e <_Z10lcd_putstrP10TWI_structPKc+0x7e>
     d92:	60 ec       	ldi	r22, 0xC0	; 192
     d94:	70 e0       	ldi	r23, 0x00	; 0
     d96:	ce 01       	movw	r24, r28
     d98:	01 96       	adiw	r24, 0x01	; 1
     d9a:	0e 94 5f 08 	call	0x10be	; 0x10be <_ZN3twi11WriteSingleEi>
     d9e:	f7 01       	movw	r30, r14
     da0:	61 91       	ld	r22, Z+
     da2:	7f 01       	movw	r14, r30
     da4:	70 e0       	ldi	r23, 0x00	; 0
     da6:	ce 01       	movw	r24, r28
     da8:	01 96       	adiw	r24, 0x01	; 1
     daa:	0e 94 5f 08 	call	0x10be	; 0x10be <_ZN3twi11WriteSingleEi>
     dae:	fa e6       	ldi	r31, 0x6A	; 106
     db0:	fa 95       	dec	r31
     db2:	f1 f7       	brne	.-4      	; 0xdb0 <_Z10lcd_putstrP10TWI_structPKc+0x90>
     db4:	00 c0       	rjmp	.+0      	; 0xdb6 <_Z10lcd_putstrP10TWI_structPKc+0x96>
     db6:	1f 5f       	subi	r17, 0xFF	; 255
     db8:	81 2f       	mov	r24, r17
     dba:	90 e0       	ldi	r25, 0x00	; 0
     dbc:	8c 15       	cp	r24, r12
     dbe:	9d 05       	cpc	r25, r13
     dc0:	f0 f2       	brcs	.-68     	; 0xd7e <_Z10lcd_putstrP10TWI_structPKc+0x5e>
     dc2:	ce 01       	movw	r24, r28
     dc4:	01 96       	adiw	r24, 0x01	; 1
     dc6:	0e 94 83 08 	call	0x1106	; 0x1106 <_ZN3twi4StopEv>
     dca:	2a 96       	adiw	r28, 0x0a	; 10
     dcc:	cd bf       	out	0x3d, r28	; 61
     dce:	de bf       	out	0x3e, r29	; 62
     dd0:	df 91       	pop	r29
     dd2:	cf 91       	pop	r28
     dd4:	1f 91       	pop	r17
     dd6:	ff 90       	pop	r15
     dd8:	ef 90       	pop	r14
     dda:	df 90       	pop	r13
     ddc:	cf 90       	pop	r12
     dde:	bf 90       	pop	r11
     de0:	af 90       	pop	r10
     de2:	08 95       	ret

00000de4 <_Z9lcd_clearv>:
     de4:	cf 93       	push	r28
     de6:	df 93       	push	r29
     de8:	cd b7       	in	r28, 0x3d	; 61
     dea:	de b7       	in	r29, 0x3e	; 62
     dec:	2a 97       	sbiw	r28, 0x0a	; 10
     dee:	cd bf       	out	0x3d, r28	; 61
     df0:	de bf       	out	0x3e, r29	; 62
     df2:	20 e8       	ldi	r18, 0x80	; 128
     df4:	3a e1       	ldi	r19, 0x1A	; 26
     df6:	46 e0       	ldi	r20, 0x06	; 6
     df8:	50 e0       	ldi	r21, 0x00	; 0
     dfa:	60 e9       	ldi	r22, 0x90	; 144
     dfc:	74 e0       	ldi	r23, 0x04	; 4
     dfe:	ce 01       	movw	r24, r28
     e00:	01 96       	adiw	r24, 0x01	; 1
     e02:	0e 94 eb 07 	call	0xfd6	; 0xfd6 <_ZN3twiC1EP10TWI_structm>
     e06:	40 e0       	ldi	r20, 0x00	; 0
     e08:	6c e7       	ldi	r22, 0x7C	; 124
     e0a:	ce 01       	movw	r24, r28
     e0c:	01 96       	adiw	r24, 0x01	; 1
     e0e:	0e 94 31 08 	call	0x1062	; 0x1062 <_ZN3twi7AddressEhh>
     e12:	60 e0       	ldi	r22, 0x00	; 0
     e14:	70 e0       	ldi	r23, 0x00	; 0
     e16:	ce 01       	movw	r24, r28
     e18:	01 96       	adiw	r24, 0x01	; 1
     e1a:	0e 94 5f 08 	call	0x10be	; 0x10be <_ZN3twi11WriteSingleEi>
     e1e:	61 e0       	ldi	r22, 0x01	; 1
     e20:	70 e0       	ldi	r23, 0x00	; 0
     e22:	ce 01       	movw	r24, r28
     e24:	01 96       	adiw	r24, 0x01	; 1
     e26:	0e 94 5f 08 	call	0x10be	; 0x10be <_ZN3twi11WriteSingleEi>
     e2a:	ce 01       	movw	r24, r28
     e2c:	01 96       	adiw	r24, 0x01	; 1
     e2e:	0e 94 83 08 	call	0x1106	; 0x1106 <_ZN3twi4StopEv>
	#else
		//round up by default
		__ticks_dc = (uint32_t)(ceil(fabs(__tmp)));
	#endif

	__builtin_avr_delay_cycles(__ticks_dc);
     e32:	8f eb       	ldi	r24, 0xBF	; 191
     e34:	92 e1       	ldi	r25, 0x12	; 18
     e36:	01 97       	sbiw	r24, 0x01	; 1
     e38:	f1 f7       	brne	.-4      	; 0xe36 <_Z9lcd_clearv+0x52>
     e3a:	00 c0       	rjmp	.+0      	; 0xe3c <_Z9lcd_clearv+0x58>
     e3c:	00 00       	nop
     e3e:	2a 96       	adiw	r28, 0x0a	; 10
     e40:	cd bf       	out	0x3d, r28	; 61
     e42:	de bf       	out	0x3e, r29	; 62
     e44:	df 91       	pop	r29
     e46:	cf 91       	pop	r28
     e48:	08 95       	ret

00000e4a <_Z10init_motorv>:
     e4a:	e0 e2       	ldi	r30, 0x20	; 32
     e4c:	f6 e0       	ldi	r31, 0x06	; 6
     e4e:	8c e0       	ldi	r24, 0x0C	; 12
     e50:	81 83       	std	Z+1, r24	; 0x01
     e52:	85 83       	std	Z+5, r24	; 0x05
     e54:	08 95       	ret

00000e56 <_Z4mspihh>:
     e56:	62 30       	cpi	r22, 0x02	; 2
     e58:	21 f4       	brne	.+8      	; 0xe62 <_Z4mspihh+0xc>
     e5a:	98 e0       	ldi	r25, 0x08	; 8
     e5c:	90 93 26 06 	sts	0x0626, r25	; 0x800626 <__TEXT_REGION_LENGTH__+0x700626>
     e60:	05 c0       	rjmp	.+10     	; 0xe6c <_Z4mspihh+0x16>
     e62:	61 30       	cpi	r22, 0x01	; 1
     e64:	79 f4       	brne	.+30     	; 0xe84 <_Z4mspihh+0x2e>
     e66:	94 e0       	ldi	r25, 0x04	; 4
     e68:	90 93 26 06 	sts	0x0626, r25	; 0x800626 <__TEXT_REGION_LENGTH__+0x700626>
     e6c:	68 2f       	mov	r22, r24
     e6e:	8f e3       	ldi	r24, 0x3F	; 63
     e70:	9c e9       	ldi	r25, 0x9C	; 156
     e72:	01 97       	sbiw	r24, 0x01	; 1
     e74:	f1 f7       	brne	.-4      	; 0xe72 <_Z4mspihh+0x1c>
     e76:	00 c0       	rjmp	.+0      	; 0xe78 <_Z4mspihh+0x22>
     e78:	00 00       	nop
     e7a:	86 e7       	ldi	r24, 0x76	; 118
     e7c:	98 e3       	ldi	r25, 0x38	; 56
     e7e:	0e 94 db 07 	call	0xfb6	; 0xfb6 <_ZN3spi4sendEh>
     e82:	08 95       	ret
     e84:	80 e0       	ldi	r24, 0x00	; 0
     e86:	08 95       	ret

00000e88 <_ZN5motor4waitEv>:
     e88:	61 e0       	ldi	r22, 0x01	; 1
     e8a:	80 e0       	ldi	r24, 0x00	; 0
     e8c:	0e 94 2b 07 	call	0xe56	; 0xe56 <_Z4mspihh>
     e90:	81 30       	cpi	r24, 0x01	; 1
     e92:	d1 f7       	brne	.-12     	; 0xe88 <_ZN5motor4waitEv>
     e94:	62 e0       	ldi	r22, 0x02	; 2
     e96:	80 e0       	ldi	r24, 0x00	; 0
     e98:	0e 94 2b 07 	call	0xe56	; 0xe56 <_Z4mspihh>
     e9c:	81 30       	cpi	r24, 0x01	; 1
     e9e:	d1 f7       	brne	.-12     	; 0xe94 <_ZN5motor4waitEv+0xc>
     ea0:	08 95       	ret

00000ea2 <_GLOBAL__sub_I_motor_spi>:
     ea2:	22 e0       	ldi	r18, 0x02	; 2
     ea4:	40 e4       	ldi	r20, 0x40	; 64
     ea6:	56 e0       	ldi	r21, 0x06	; 6
     ea8:	60 ec       	ldi	r22, 0xC0	; 192
     eaa:	78 e0       	ldi	r23, 0x08	; 8
     eac:	86 e7       	ldi	r24, 0x76	; 118
     eae:	98 e3       	ldi	r25, 0x38	; 56
     eb0:	0e 94 c7 07 	call	0xf8e	; 0xf8e <_ZN3spiC1EP10SPI_structP11PORT_struct18SPI_PRESCALER_enum>
     eb4:	08 95       	ret

00000eb6 <_Z10ping_checkP11PORT_structh>:
     eb6:	fc 01       	movw	r30, r24
     eb8:	61 83       	std	Z+1, r22	; 0x01
     eba:	64 83       	std	Z+4, r22	; 0x04
     ebc:	8a e2       	ldi	r24, 0x2A	; 42
     ebe:	8a 95       	dec	r24
     ec0:	f1 f7       	brne	.-4      	; 0xebe <_Z10ping_checkP11PORT_structh+0x8>
     ec2:	00 c0       	rjmp	.+0      	; 0xec4 <_Z10ping_checkP11PORT_structh+0xe>
     ec4:	66 83       	std	Z+6, r22	; 0x06
     ec6:	62 83       	std	Z+2, r22	; 0x02
     ec8:	90 85       	ldd	r25, Z+8	; 0x08
     eca:	96 23       	and	r25, r22
     ecc:	e9 f3       	breq	.-6      	; 0xec8 <_Z10ping_checkP11PORT_structh+0x12>
     ece:	a0 e0       	ldi	r26, 0x00	; 0
     ed0:	b8 e0       	ldi	r27, 0x08	; 8
     ed2:	90 96       	adiw	r26, 0x20	; 32
     ed4:	1d 92       	st	X+, r1
     ed6:	1c 92       	st	X, r1
     ed8:	91 97       	sbiw	r26, 0x21	; 33
     eda:	f8 94       	cli
     edc:	85 e0       	ldi	r24, 0x05	; 5
     ede:	8c 93       	st	X, r24
     ee0:	90 85       	ldd	r25, Z+8	; 0x08
     ee2:	96 23       	and	r25, r22
     ee4:	e9 f7       	brne	.-6      	; 0xee0 <_Z10ping_checkP11PORT_structh+0x2a>
     ee6:	e0 e0       	ldi	r30, 0x00	; 0
     ee8:	f8 e0       	ldi	r31, 0x08	; 8
     eea:	10 82       	st	Z, r1
     eec:	78 94       	sei
	#else
		//round up by default
		__ticks_dc = (uint32_t)(ceil(fabs(__tmp)));
	#endif

	__builtin_avr_delay_cycles(__ticks_dc);
     eee:	8f e3       	ldi	r24, 0x3F	; 63
     ef0:	9c e9       	ldi	r25, 0x9C	; 156
     ef2:	01 97       	sbiw	r24, 0x01	; 1
     ef4:	f1 f7       	brne	.-4      	; 0xef2 <_Z10ping_checkP11PORT_structh+0x3c>
     ef6:	00 c0       	rjmp	.+0      	; 0xef8 <_Z10ping_checkP11PORT_structh+0x42>
     ef8:	00 00       	nop
     efa:	80 a1       	ldd	r24, Z+32	; 0x20
     efc:	91 a1       	ldd	r25, Z+33	; 0x21
     efe:	08 95       	ret

00000f00 <_Z4pingi>:
     f00:	83 30       	cpi	r24, 0x03	; 3
     f02:	91 05       	cpc	r25, r1
     f04:	d1 f0       	breq	.+52     	; 0xf3a <_Z4pingi+0x3a>
     f06:	34 f4       	brge	.+12     	; 0xf14 <_Z4pingi+0x14>
     f08:	81 30       	cpi	r24, 0x01	; 1
     f0a:	91 05       	cpc	r25, r1
     f0c:	51 f0       	breq	.+20     	; 0xf22 <_Z4pingi+0x22>
     f0e:	02 97       	sbiw	r24, 0x02	; 2
     f10:	71 f0       	breq	.+28     	; 0xf2e <_Z4pingi+0x2e>
     f12:	2b c0       	rjmp	.+86     	; 0xf6a <_Z4pingi+0x6a>
     f14:	85 30       	cpi	r24, 0x05	; 5
     f16:	91 05       	cpc	r25, r1
     f18:	e1 f0       	breq	.+56     	; 0xf52 <_Z4pingi+0x52>
     f1a:	ac f0       	brlt	.+42     	; 0xf46 <_Z4pingi+0x46>
     f1c:	06 97       	sbiw	r24, 0x06	; 6
     f1e:	f9 f0       	breq	.+62     	; 0xf5e <_Z4pingi+0x5e>
     f20:	24 c0       	rjmp	.+72     	; 0xf6a <_Z4pingi+0x6a>
     f22:	61 e0       	ldi	r22, 0x01	; 1
     f24:	80 e8       	ldi	r24, 0x80	; 128
     f26:	96 e0       	ldi	r25, 0x06	; 6
     f28:	0e 94 5b 07 	call	0xeb6	; 0xeb6 <_Z10ping_checkP11PORT_structh>
     f2c:	08 95       	ret
     f2e:	62 e0       	ldi	r22, 0x02	; 2
     f30:	80 e8       	ldi	r24, 0x80	; 128
     f32:	96 e0       	ldi	r25, 0x06	; 6
     f34:	0e 94 5b 07 	call	0xeb6	; 0xeb6 <_Z10ping_checkP11PORT_structh>
     f38:	08 95       	ret
     f3a:	64 e0       	ldi	r22, 0x04	; 4
     f3c:	80 e8       	ldi	r24, 0x80	; 128
     f3e:	96 e0       	ldi	r25, 0x06	; 6
     f40:	0e 94 5b 07 	call	0xeb6	; 0xeb6 <_Z10ping_checkP11PORT_structh>
     f44:	08 95       	ret
     f46:	68 e0       	ldi	r22, 0x08	; 8
     f48:	80 e8       	ldi	r24, 0x80	; 128
     f4a:	96 e0       	ldi	r25, 0x06	; 6
     f4c:	0e 94 5b 07 	call	0xeb6	; 0xeb6 <_Z10ping_checkP11PORT_structh>
     f50:	08 95       	ret
     f52:	60 e1       	ldi	r22, 0x10	; 16
     f54:	80 e8       	ldi	r24, 0x80	; 128
     f56:	96 e0       	ldi	r25, 0x06	; 6
     f58:	0e 94 5b 07 	call	0xeb6	; 0xeb6 <_Z10ping_checkP11PORT_structh>
     f5c:	08 95       	ret
     f5e:	60 e2       	ldi	r22, 0x20	; 32
     f60:	80 e8       	ldi	r24, 0x80	; 128
     f62:	96 e0       	ldi	r25, 0x06	; 6
     f64:	0e 94 5b 07 	call	0xeb6	; 0xeb6 <_Z10ping_checkP11PORT_structh>
     f68:	08 95       	ret
     f6a:	80 e0       	ldi	r24, 0x00	; 0
     f6c:	90 e0       	ldi	r25, 0x00	; 0
     f6e:	08 95       	ret

00000f70 <__vector_77>:
     f70:	1f 92       	push	r1
     f72:	0f 92       	push	r0
     f74:	0f b6       	in	r0, 0x3f	; 63
     f76:	0f 92       	push	r0
     f78:	11 24       	eor	r1, r1
     f7a:	08 b6       	in	r0, 0x38	; 56
     f7c:	0f 92       	push	r0
     f7e:	18 be       	out	0x38, r1	; 56
     f80:	0f 90       	pop	r0
     f82:	08 be       	out	0x38, r0	; 56
     f84:	0f 90       	pop	r0
     f86:	0f be       	out	0x3f, r0	; 63
     f88:	0f 90       	pop	r0
     f8a:	1f 90       	pop	r1
     f8c:	18 95       	reti

00000f8e <_ZN3spiC1EP10SPI_structP11PORT_struct18SPI_PRESCALER_enum>:
     f8e:	fc 01       	movw	r30, r24
     f90:	60 83       	st	Z, r22
     f92:	71 83       	std	Z+1, r23	; 0x01
     f94:	42 83       	std	Z+2, r20	; 0x02
     f96:	53 83       	std	Z+3, r21	; 0x03
     f98:	80 e4       	ldi	r24, 0x40	; 64
     f9a:	da 01       	movw	r26, r20
     f9c:	12 96       	adiw	r26, 0x02	; 2
     f9e:	8c 93       	st	X, r24
     fa0:	a2 81       	ldd	r26, Z+2	; 0x02
     fa2:	b3 81       	ldd	r27, Z+3	; 0x03
     fa4:	80 eb       	ldi	r24, 0xB0	; 176
     fa6:	11 96       	adiw	r26, 0x01	; 1
     fa8:	8c 93       	st	X, r24
     faa:	01 90       	ld	r0, Z+
     fac:	f0 81       	ld	r31, Z
     fae:	e0 2d       	mov	r30, r0
     fb0:	20 65       	ori	r18, 0x50	; 80
     fb2:	20 83       	st	Z, r18
     fb4:	08 95       	ret

00000fb6 <_ZN3spi4sendEh>:
     fb6:	dc 01       	movw	r26, r24
     fb8:	ed 91       	ld	r30, X+
     fba:	fc 91       	ld	r31, X
     fbc:	11 97       	sbiw	r26, 0x01	; 1
     fbe:	63 83       	std	Z+3, r22	; 0x03
     fc0:	ed 91       	ld	r30, X+
     fc2:	fc 91       	ld	r31, X
     fc4:	11 97       	sbiw	r26, 0x01	; 1
     fc6:	92 81       	ldd	r25, Z+2	; 0x02
     fc8:	99 23       	and	r25, r25
     fca:	ec f7       	brge	.-6      	; 0xfc6 <_ZN3spi4sendEh+0x10>
     fcc:	12 82       	std	Z+2, r1	; 0x02
     fce:	ed 91       	ld	r30, X+
     fd0:	fc 91       	ld	r31, X
     fd2:	83 81       	ldd	r24, Z+3	; 0x03
     fd4:	08 95       	ret

00000fd6 <_ZN3twiC1EP10TWI_structm>:
     fd6:	0f 93       	push	r16
     fd8:	1f 93       	push	r17
     fda:	cf 93       	push	r28
     fdc:	df 93       	push	r29
     fde:	ec 01       	movw	r28, r24
     fe0:	8b 01       	movw	r16, r22
     fe2:	68 87       	std	Y+8, r22	; 0x08
     fe4:	79 87       	std	Y+9, r23	; 0x09
     fe6:	22 0f       	add	r18, r18
     fe8:	33 1f       	adc	r19, r19
     fea:	44 1f       	adc	r20, r20
     fec:	55 1f       	adc	r21, r21
     fee:	60 e0       	ldi	r22, 0x00	; 0
     ff0:	78 e4       	ldi	r23, 0x48	; 72
     ff2:	88 ee       	ldi	r24, 0xE8	; 232
     ff4:	91 e0       	ldi	r25, 0x01	; 1
     ff6:	0e 94 26 09 	call	0x124c	; 0x124c <__udivmodsi4>
     ffa:	da 01       	movw	r26, r20
     ffc:	c9 01       	movw	r24, r18
     ffe:	05 97       	sbiw	r24, 0x05	; 5
    1000:	a1 09       	sbc	r26, r1
    1002:	b1 09       	sbc	r27, r1
    1004:	8c 83       	std	Y+4, r24	; 0x04
    1006:	9d 83       	std	Y+5, r25	; 0x05
    1008:	ae 83       	std	Y+6, r26	; 0x06
    100a:	bf 83       	std	Y+7, r27	; 0x07
    100c:	f8 01       	movw	r30, r16
    100e:	85 83       	std	Z+5, r24	; 0x05
    1010:	e8 85       	ldd	r30, Y+8	; 0x08
    1012:	f9 85       	ldd	r31, Y+9	; 0x09
    1014:	82 81       	ldd	r24, Z+2	; 0x02
    1016:	82 83       	std	Z+2, r24	; 0x02
    1018:	e8 85       	ldd	r30, Y+8	; 0x08
    101a:	f9 85       	ldd	r31, Y+9	; 0x09
    101c:	81 81       	ldd	r24, Z+1	; 0x01
    101e:	88 60       	ori	r24, 0x08	; 8
    1020:	81 83       	std	Z+1, r24	; 0x01
    1022:	e8 85       	ldd	r30, Y+8	; 0x08
    1024:	f9 85       	ldd	r31, Y+9	; 0x09
    1026:	81 e0       	ldi	r24, 0x01	; 1
    1028:	84 83       	std	Z+4, r24	; 0x04
    102a:	df 91       	pop	r29
    102c:	cf 91       	pop	r28
    102e:	1f 91       	pop	r17
    1030:	0f 91       	pop	r16
    1032:	08 95       	ret

00001034 <_ZN3twi10errorCheckEv>:
    1034:	dc 01       	movw	r26, r24
    1036:	18 96       	adiw	r26, 0x08	; 8
    1038:	ed 91       	ld	r30, X+
    103a:	fc 91       	ld	r31, X
    103c:	19 97       	sbiw	r26, 0x09	; 9
    103e:	84 81       	ldd	r24, Z+4	; 0x04
    1040:	82 fd       	sbrc	r24, 2
    1042:	05 c0       	rjmp	.+10     	; 0x104e <_ZN3twi10errorCheckEv+0x1a>
    1044:	94 81       	ldd	r25, Z+4	; 0x04
    1046:	89 2f       	mov	r24, r25
    1048:	88 70       	andi	r24, 0x08	; 8
    104a:	93 ff       	sbrs	r25, 3
    104c:	09 c0       	rjmp	.+18     	; 0x1060 <_ZN3twi10errorCheckEv+0x2c>
    104e:	81 e0       	ldi	r24, 0x01	; 1
    1050:	84 83       	std	Z+4, r24	; 0x04
    1052:	18 96       	adiw	r26, 0x08	; 8
    1054:	ed 91       	ld	r30, X+
    1056:	fc 91       	ld	r31, X
    1058:	19 97       	sbiw	r26, 0x09	; 9
    105a:	83 e0       	ldi	r24, 0x03	; 3
    105c:	83 83       	std	Z+3, r24	; 0x03
    105e:	8f ef       	ldi	r24, 0xFF	; 255
    1060:	08 95       	ret

00001062 <_ZN3twi7AddressEhh>:
    1062:	dc 01       	movw	r26, r24
    1064:	44 23       	and	r20, r20
    1066:	59 f0       	breq	.+22     	; 0x107e <_ZN3twi7AddressEhh+0x1c>
    1068:	18 96       	adiw	r26, 0x08	; 8
    106a:	ed 91       	ld	r30, X+
    106c:	fc 91       	ld	r31, X
    106e:	19 97       	sbiw	r26, 0x09	; 9
    1070:	61 60       	ori	r22, 0x01	; 1
    1072:	66 83       	std	Z+6, r22	; 0x06
    1074:	18 96       	adiw	r26, 0x08	; 8
    1076:	ed 91       	ld	r30, X+
    1078:	fc 91       	ld	r31, X
    107a:	19 97       	sbiw	r26, 0x09	; 9
    107c:	07 c0       	rjmp	.+14     	; 0x108c <_ZN3twi7AddressEhh+0x2a>
    107e:	18 96       	adiw	r26, 0x08	; 8
    1080:	ed 91       	ld	r30, X+
    1082:	fc 91       	ld	r31, X
    1084:	19 97       	sbiw	r26, 0x09	; 9
    1086:	6e 7f       	andi	r22, 0xFE	; 254
    1088:	66 83       	std	Z+6, r22	; 0x06
    108a:	f4 cf       	rjmp	.-24     	; 0x1074 <_ZN3twi7AddressEhh+0x12>
    108c:	94 81       	ldd	r25, Z+4	; 0x04
    108e:	90 7c       	andi	r25, 0xC0	; 192
    1090:	e9 f3       	breq	.-6      	; 0x108c <_ZN3twi7AddressEhh+0x2a>
    1092:	94 81       	ldd	r25, Z+4	; 0x04
    1094:	89 2f       	mov	r24, r25
    1096:	80 71       	andi	r24, 0x10	; 16
    1098:	94 ff       	sbrs	r25, 4
    109a:	10 c0       	rjmp	.+32     	; 0x10bc <_ZN3twi7AddressEhh+0x5a>
    109c:	84 81       	ldd	r24, Z+4	; 0x04
    109e:	80 64       	ori	r24, 0x40	; 64
    10a0:	84 83       	std	Z+4, r24	; 0x04
    10a2:	18 96       	adiw	r26, 0x08	; 8
    10a4:	ed 91       	ld	r30, X+
    10a6:	fc 91       	ld	r31, X
    10a8:	19 97       	sbiw	r26, 0x09	; 9
    10aa:	84 81       	ldd	r24, Z+4	; 0x04
    10ac:	80 68       	ori	r24, 0x80	; 128
    10ae:	84 83       	std	Z+4, r24	; 0x04
    10b0:	18 96       	adiw	r26, 0x08	; 8
    10b2:	ed 91       	ld	r30, X+
    10b4:	fc 91       	ld	r31, X
    10b6:	19 97       	sbiw	r26, 0x09	; 9
    10b8:	81 e0       	ldi	r24, 0x01	; 1
    10ba:	84 83       	std	Z+4, r24	; 0x04
    10bc:	08 95       	ret

000010be <_ZN3twi11WriteSingleEi>:
    10be:	cf 93       	push	r28
    10c0:	df 93       	push	r29
    10c2:	ec 01       	movw	r28, r24
    10c4:	e8 85       	ldd	r30, Y+8	; 0x08
    10c6:	f9 85       	ldd	r31, Y+9	; 0x09
    10c8:	67 83       	std	Z+7, r22	; 0x07
    10ca:	e8 85       	ldd	r30, Y+8	; 0x08
    10cc:	f9 85       	ldd	r31, Y+9	; 0x09
    10ce:	84 81       	ldd	r24, Z+4	; 0x04
    10d0:	8c 7f       	andi	r24, 0xFC	; 252
    10d2:	e9 f3       	breq	.-6      	; 0x10ce <_ZN3twi11WriteSingleEi+0x10>
    10d4:	ce 01       	movw	r24, r28
    10d6:	0e 94 1a 08 	call	0x1034	; 0x1034 <_ZN3twi10errorCheckEv>
    10da:	e8 85       	ldd	r30, Y+8	; 0x08
    10dc:	f9 85       	ldd	r31, Y+9	; 0x09
    10de:	94 81       	ldd	r25, Z+4	; 0x04
    10e0:	89 2f       	mov	r24, r25
    10e2:	80 71       	andi	r24, 0x10	; 16
    10e4:	94 ff       	sbrs	r25, 4
    10e6:	0c c0       	rjmp	.+24     	; 0x1100 <_ZN3twi11WriteSingleEi+0x42>
    10e8:	84 81       	ldd	r24, Z+4	; 0x04
    10ea:	80 64       	ori	r24, 0x40	; 64
    10ec:	84 83       	std	Z+4, r24	; 0x04
    10ee:	e8 85       	ldd	r30, Y+8	; 0x08
    10f0:	f9 85       	ldd	r31, Y+9	; 0x09
    10f2:	84 81       	ldd	r24, Z+4	; 0x04
    10f4:	80 68       	ori	r24, 0x80	; 128
    10f6:	84 83       	std	Z+4, r24	; 0x04
    10f8:	e8 85       	ldd	r30, Y+8	; 0x08
    10fa:	f9 85       	ldd	r31, Y+9	; 0x09
    10fc:	81 e0       	ldi	r24, 0x01	; 1
    10fe:	84 83       	std	Z+4, r24	; 0x04
    1100:	df 91       	pop	r29
    1102:	cf 91       	pop	r28
    1104:	08 95       	ret

00001106 <_ZN3twi4StopEv>:
    1106:	cf 93       	push	r28
    1108:	df 93       	push	r29
    110a:	ec 01       	movw	r28, r24
    110c:	e8 85       	ldd	r30, Y+8	; 0x08
    110e:	f9 85       	ldd	r31, Y+9	; 0x09
    1110:	84 81       	ldd	r24, Z+4	; 0x04
    1112:	8c 7f       	andi	r24, 0xFC	; 252
    1114:	e9 f3       	breq	.-6      	; 0x1110 <_ZN3twi4StopEv+0xa>
    1116:	ce 01       	movw	r24, r28
    1118:	0e 94 1a 08 	call	0x1034	; 0x1034 <_ZN3twi10errorCheckEv>
    111c:	e8 85       	ldd	r30, Y+8	; 0x08
    111e:	f9 85       	ldd	r31, Y+9	; 0x09
    1120:	83 e0       	ldi	r24, 0x03	; 3
    1122:	83 83       	std	Z+3, r24	; 0x03
    1124:	df 91       	pop	r29
    1126:	cf 91       	pop	r28
    1128:	08 95       	ret

0000112a <_ZN5usartC1EP12USART_structP11PORT_struct>:
    112a:	fc 01       	movw	r30, r24
    112c:	40 83       	st	Z, r20
    112e:	51 83       	std	Z+1, r21	; 0x01
    1130:	62 83       	std	Z+2, r22	; 0x02
    1132:	73 83       	std	Z+3, r23	; 0x03
    1134:	88 e0       	ldi	r24, 0x08	; 8
    1136:	da 01       	movw	r26, r20
    1138:	11 96       	adiw	r26, 0x01	; 1
    113a:	8c 93       	st	X, r24
    113c:	a0 81       	ld	r26, Z
    113e:	b1 81       	ldd	r27, Z+1	; 0x01
    1140:	84 e0       	ldi	r24, 0x04	; 4
    1142:	12 96       	adiw	r26, 0x02	; 2
    1144:	8c 93       	st	X, r24
    1146:	a2 81       	ldd	r26, Z+2	; 0x02
    1148:	b3 81       	ldd	r27, Z+3	; 0x03
    114a:	83 e3       	ldi	r24, 0x33	; 51
    114c:	16 96       	adiw	r26, 0x06	; 6
    114e:	8c 93       	st	X, r24
    1150:	a2 81       	ldd	r26, Z+2	; 0x02
    1152:	b3 81       	ldd	r27, Z+3	; 0x03
    1154:	17 96       	adiw	r26, 0x07	; 7
    1156:	1c 92       	st	X, r1
    1158:	a2 81       	ldd	r26, Z+2	; 0x02
    115a:	b3 81       	ldd	r27, Z+3	; 0x03
    115c:	83 e0       	ldi	r24, 0x03	; 3
    115e:	15 96       	adiw	r26, 0x05	; 5
    1160:	8c 93       	st	X, r24
    1162:	02 80       	ldd	r0, Z+2	; 0x02
    1164:	f3 81       	ldd	r31, Z+3	; 0x03
    1166:	e0 2d       	mov	r30, r0
    1168:	88 e1       	ldi	r24, 0x18	; 24
    116a:	84 83       	std	Z+4, r24	; 0x04
    116c:	08 95       	ret

0000116e <_ZN5usart4sendEc>:
    116e:	dc 01       	movw	r26, r24
    1170:	12 96       	adiw	r26, 0x02	; 2
    1172:	ed 91       	ld	r30, X+
    1174:	fc 91       	ld	r31, X
    1176:	13 97       	sbiw	r26, 0x03	; 3
    1178:	81 81       	ldd	r24, Z+1	; 0x01
    117a:	85 ff       	sbrs	r24, 5
    117c:	fd cf       	rjmp	.-6      	; 0x1178 <_ZN5usart4sendEc+0xa>
    117e:	60 83       	st	Z, r22
    1180:	08 95       	ret

00001182 <_ZN5usart6stringEPKc>:
    1182:	0f 93       	push	r16
    1184:	1f 93       	push	r17
    1186:	cf 93       	push	r28
    1188:	df 93       	push	r29
    118a:	eb 01       	movw	r28, r22
    118c:	68 81       	ld	r22, Y
    118e:	66 23       	and	r22, r22
    1190:	41 f0       	breq	.+16     	; 0x11a2 <_ZN5usart6stringEPKc+0x20>
    1192:	8c 01       	movw	r16, r24
    1194:	21 96       	adiw	r28, 0x01	; 1
    1196:	c8 01       	movw	r24, r16
    1198:	0e 94 b7 08 	call	0x116e	; 0x116e <_ZN5usart4sendEc>
    119c:	69 91       	ld	r22, Y+
    119e:	61 11       	cpse	r22, r1
    11a0:	fa cf       	rjmp	.-12     	; 0x1196 <_ZN5usart6stringEPKc+0x14>
    11a2:	df 91       	pop	r29
    11a4:	cf 91       	pop	r28
    11a6:	1f 91       	pop	r17
    11a8:	0f 91       	pop	r16
    11aa:	08 95       	ret

000011ac <_ZN5usart6puthexEm>:
    11ac:	cf 92       	push	r12
    11ae:	df 92       	push	r13
    11b0:	ef 92       	push	r14
    11b2:	ff 92       	push	r15
    11b4:	1f 93       	push	r17
    11b6:	cf 93       	push	r28
    11b8:	df 93       	push	r29
    11ba:	ec 01       	movw	r28, r24
    11bc:	cb 01       	movw	r24, r22
    11be:	ba 01       	movw	r22, r20
    11c0:	20 e1       	ldi	r18, 0x10	; 16
    11c2:	37 e2       	ldi	r19, 0x27	; 39
    11c4:	40 e0       	ldi	r20, 0x00	; 0
    11c6:	50 e0       	ldi	r21, 0x00	; 0
    11c8:	0e 94 26 09 	call	0x124c	; 0x124c <__udivmodsi4>
    11cc:	6b 01       	movw	r12, r22
    11ce:	7c 01       	movw	r14, r24
    11d0:	60 e3       	ldi	r22, 0x30	; 48
    11d2:	62 0f       	add	r22, r18
    11d4:	ce 01       	movw	r24, r28
    11d6:	0e 94 b7 08 	call	0x116e	; 0x116e <_ZN5usart4sendEc>
    11da:	c7 01       	movw	r24, r14
    11dc:	b6 01       	movw	r22, r12
    11de:	28 ee       	ldi	r18, 0xE8	; 232
    11e0:	33 e0       	ldi	r19, 0x03	; 3
    11e2:	40 e0       	ldi	r20, 0x00	; 0
    11e4:	50 e0       	ldi	r21, 0x00	; 0
    11e6:	0e 94 26 09 	call	0x124c	; 0x124c <__udivmodsi4>
    11ea:	6b 01       	movw	r12, r22
    11ec:	7c 01       	movw	r14, r24
    11ee:	60 e3       	ldi	r22, 0x30	; 48
    11f0:	62 0f       	add	r22, r18
    11f2:	ce 01       	movw	r24, r28
    11f4:	0e 94 b7 08 	call	0x116e	; 0x116e <_ZN5usart4sendEc>
    11f8:	c7 01       	movw	r24, r14
    11fa:	b6 01       	movw	r22, r12
    11fc:	24 e6       	ldi	r18, 0x64	; 100
    11fe:	30 e0       	ldi	r19, 0x00	; 0
    1200:	40 e0       	ldi	r20, 0x00	; 0
    1202:	50 e0       	ldi	r21, 0x00	; 0
    1204:	0e 94 26 09 	call	0x124c	; 0x124c <__udivmodsi4>
    1208:	6b 01       	movw	r12, r22
    120a:	7c 01       	movw	r14, r24
    120c:	60 e3       	ldi	r22, 0x30	; 48
    120e:	62 0f       	add	r22, r18
    1210:	ce 01       	movw	r24, r28
    1212:	0e 94 b7 08 	call	0x116e	; 0x116e <_ZN5usart4sendEc>
    1216:	c7 01       	movw	r24, r14
    1218:	b6 01       	movw	r22, r12
    121a:	2a e0       	ldi	r18, 0x0A	; 10
    121c:	30 e0       	ldi	r19, 0x00	; 0
    121e:	40 e0       	ldi	r20, 0x00	; 0
    1220:	50 e0       	ldi	r21, 0x00	; 0
    1222:	0e 94 26 09 	call	0x124c	; 0x124c <__udivmodsi4>
    1226:	16 2f       	mov	r17, r22
    1228:	60 e3       	ldi	r22, 0x30	; 48
    122a:	62 0f       	add	r22, r18
    122c:	ce 01       	movw	r24, r28
    122e:	0e 94 b7 08 	call	0x116e	; 0x116e <_ZN5usart4sendEc>
    1232:	60 e3       	ldi	r22, 0x30	; 48
    1234:	61 0f       	add	r22, r17
    1236:	ce 01       	movw	r24, r28
    1238:	0e 94 b7 08 	call	0x116e	; 0x116e <_ZN5usart4sendEc>
    123c:	df 91       	pop	r29
    123e:	cf 91       	pop	r28
    1240:	1f 91       	pop	r17
    1242:	ff 90       	pop	r15
    1244:	ef 90       	pop	r14
    1246:	df 90       	pop	r13
    1248:	cf 90       	pop	r12
    124a:	08 95       	ret

0000124c <__udivmodsi4>:
    124c:	a1 e2       	ldi	r26, 0x21	; 33
    124e:	1a 2e       	mov	r1, r26
    1250:	aa 1b       	sub	r26, r26
    1252:	bb 1b       	sub	r27, r27
    1254:	fd 01       	movw	r30, r26
    1256:	0d c0       	rjmp	.+26     	; 0x1272 <__udivmodsi4_ep>

00001258 <__udivmodsi4_loop>:
    1258:	aa 1f       	adc	r26, r26
    125a:	bb 1f       	adc	r27, r27
    125c:	ee 1f       	adc	r30, r30
    125e:	ff 1f       	adc	r31, r31
    1260:	a2 17       	cp	r26, r18
    1262:	b3 07       	cpc	r27, r19
    1264:	e4 07       	cpc	r30, r20
    1266:	f5 07       	cpc	r31, r21
    1268:	20 f0       	brcs	.+8      	; 0x1272 <__udivmodsi4_ep>
    126a:	a2 1b       	sub	r26, r18
    126c:	b3 0b       	sbc	r27, r19
    126e:	e4 0b       	sbc	r30, r20
    1270:	f5 0b       	sbc	r31, r21

00001272 <__udivmodsi4_ep>:
    1272:	66 1f       	adc	r22, r22
    1274:	77 1f       	adc	r23, r23
    1276:	88 1f       	adc	r24, r24
    1278:	99 1f       	adc	r25, r25
    127a:	1a 94       	dec	r1
    127c:	69 f7       	brne	.-38     	; 0x1258 <__udivmodsi4_loop>
    127e:	60 95       	com	r22
    1280:	70 95       	com	r23
    1282:	80 95       	com	r24
    1284:	90 95       	com	r25
    1286:	9b 01       	movw	r18, r22
    1288:	ac 01       	movw	r20, r24
    128a:	bd 01       	movw	r22, r26
    128c:	cf 01       	movw	r24, r30
    128e:	08 95       	ret

00001290 <__tablejump2__>:
    1290:	ee 0f       	add	r30, r30
    1292:	ff 1f       	adc	r31, r31
    1294:	88 1f       	adc	r24, r24
    1296:	8b bf       	out	0x3b, r24	; 59
    1298:	07 90       	elpm	r0, Z+
    129a:	f6 91       	elpm	r31, Z
    129c:	e0 2d       	mov	r30, r0
    129e:	1b be       	out	0x3b, r1	; 59
    12a0:	19 94       	eijmp

000012a2 <eeprom_write_word>:
    12a2:	0e 94 56 09 	call	0x12ac	; 0x12ac <eeprom_write_byte>
    12a6:	27 2f       	mov	r18, r23
    12a8:	0c 94 57 09 	jmp	0x12ae	; 0x12ae <eeprom_write_r18>

000012ac <eeprom_write_byte>:
    12ac:	26 2f       	mov	r18, r22

000012ae <eeprom_write_r18>:
    12ae:	e0 ec       	ldi	r30, 0xC0	; 192
    12b0:	f1 e0       	ldi	r31, 0x01	; 1
    12b2:	37 85       	ldd	r19, Z+15	; 0x0f
    12b4:	37 fd       	sbrc	r19, 7
    12b6:	fd cf       	rjmp	.-6      	; 0x12b2 <eeprom_write_r18+0x4>
    12b8:	34 85       	ldd	r19, Z+12	; 0x0c
    12ba:	37 7f       	andi	r19, 0xF7	; 247
    12bc:	34 87       	std	Z+12, r19	; 0x0c
    12be:	37 85       	ldd	r19, Z+15	; 0x0f
    12c0:	31 ff       	sbrs	r19, 1
    12c2:	09 c0       	rjmp	.+18     	; 0x12d6 <eeprom_write_r18+0x28>
    12c4:	36 e3       	ldi	r19, 0x36	; 54
    12c6:	32 87       	std	Z+10, r19	; 0x0a
    12c8:	38 ed       	ldi	r19, 0xD8	; 216
    12ca:	34 bf       	out	0x34, r19	; 52
    12cc:	31 e0       	ldi	r19, 0x01	; 1
    12ce:	33 87       	std	Z+11, r19	; 0x0b
    12d0:	37 85       	ldd	r19, Z+15	; 0x0f
    12d2:	37 fd       	sbrc	r19, 7
    12d4:	fd cf       	rjmp	.-6      	; 0x12d0 <eeprom_write_r18+0x22>
    12d6:	33 e3       	ldi	r19, 0x33	; 51
    12d8:	32 87       	std	Z+10, r19	; 0x0a
    12da:	80 83       	st	Z, r24
    12dc:	91 83       	std	Z+1, r25	; 0x01
    12de:	12 82       	std	Z+2, r1	; 0x02
    12e0:	24 83       	std	Z+4, r18	; 0x04
    12e2:	25 e3       	ldi	r18, 0x35	; 53
    12e4:	22 87       	std	Z+10, r18	; 0x0a
    12e6:	28 ed       	ldi	r18, 0xD8	; 216
    12e8:	31 e0       	ldi	r19, 0x01	; 1
    12ea:	24 bf       	out	0x34, r18	; 52
    12ec:	33 87       	std	Z+11, r19	; 0x0b
    12ee:	01 96       	adiw	r24, 0x01	; 1
    12f0:	08 95       	ret

000012f2 <_exit>:
    12f2:	f8 94       	cli

000012f4 <__stop_program>:
    12f4:	ff cf       	rjmp	.-2      	; 0x12f4 <__stop_program>
