
Aquila.elf:     file format elf32-avr

Sections:
Idx Name          Size      VMA       LMA       File off  Algn
  0 .text         00007144  00000000  00000000  000000b4  2**1
                  CONTENTS, ALLOC, LOAD, READONLY, CODE
  1 .data         00000054  00802000  00007144  000071f8  2**0
                  CONTENTS, ALLOC, LOAD, DATA
  2 .bss          00001b8e  00802054  00802054  0000724c  2**0
                  ALLOC
  3 .eeprom       00000002  00810000  00810000  0000724c  2**0
                  CONTENTS, ALLOC, LOAD, DATA
  4 .comment      00000030  00000000  00000000  0000724e  2**0
                  CONTENTS, READONLY
  5 .note.gnu.avr.deviceinfo 00000040  00000000  00000000  00007280  2**2
                  CONTENTS, READONLY
  6 .debug_aranges 00000400  00000000  00000000  000072c0  2**0
                  CONTENTS, READONLY, DEBUGGING
  7 .debug_info   0001f2a2  00000000  00000000  000076c0  2**0
                  CONTENTS, READONLY, DEBUGGING
  8 .debug_abbrev 00005ad9  00000000  00000000  00026962  2**0
                  CONTENTS, READONLY, DEBUGGING
  9 .debug_line   000083d9  00000000  00000000  0002c43b  2**0
                  CONTENTS, READONLY, DEBUGGING
 10 .debug_frame  00000d94  00000000  00000000  00034814  2**2
                  CONTENTS, READONLY, DEBUGGING
 11 .debug_str    00004637  00000000  00000000  000355a8  2**0
                  CONTENTS, READONLY, DEBUGGING
 12 .debug_loc    0000e873  00000000  00000000  00039bdf  2**0
                  CONTENTS, READONLY, DEBUGGING
 13 .debug_ranges 00000788  00000000  00000000  00048452  2**0
                  CONTENTS, READONLY, DEBUGGING

Disassembly of section .text:

00000000 <__vectors>:
       0:	0c 94 0a 01 	jmp	0x214	; 0x214 <__ctors_end>
       4:	0c 94 40 01 	jmp	0x280	; 0x280 <__bad_interrupt>
       8:	0c 94 40 01 	jmp	0x280	; 0x280 <__bad_interrupt>
       c:	0c 94 40 01 	jmp	0x280	; 0x280 <__bad_interrupt>
      10:	0c 94 40 01 	jmp	0x280	; 0x280 <__bad_interrupt>
      14:	0c 94 40 01 	jmp	0x280	; 0x280 <__bad_interrupt>
      18:	0c 94 40 01 	jmp	0x280	; 0x280 <__bad_interrupt>
      1c:	0c 94 40 01 	jmp	0x280	; 0x280 <__bad_interrupt>
      20:	0c 94 40 01 	jmp	0x280	; 0x280 <__bad_interrupt>
      24:	0c 94 40 01 	jmp	0x280	; 0x280 <__bad_interrupt>
      28:	0c 94 40 01 	jmp	0x280	; 0x280 <__bad_interrupt>
      2c:	0c 94 40 01 	jmp	0x280	; 0x280 <__bad_interrupt>
      30:	0c 94 40 01 	jmp	0x280	; 0x280 <__bad_interrupt>
      34:	0c 94 40 01 	jmp	0x280	; 0x280 <__bad_interrupt>
      38:	0c 94 40 01 	jmp	0x280	; 0x280 <__bad_interrupt>
      3c:	0c 94 40 01 	jmp	0x280	; 0x280 <__bad_interrupt>
      40:	0c 94 40 01 	jmp	0x280	; 0x280 <__bad_interrupt>
      44:	0c 94 40 01 	jmp	0x280	; 0x280 <__bad_interrupt>
      48:	0c 94 40 01 	jmp	0x280	; 0x280 <__bad_interrupt>
      4c:	0c 94 40 01 	jmp	0x280	; 0x280 <__bad_interrupt>
      50:	0c 94 40 01 	jmp	0x280	; 0x280 <__bad_interrupt>
      54:	0c 94 40 01 	jmp	0x280	; 0x280 <__bad_interrupt>
      58:	0c 94 40 01 	jmp	0x280	; 0x280 <__bad_interrupt>
      5c:	0c 94 40 01 	jmp	0x280	; 0x280 <__bad_interrupt>
      60:	0c 94 40 01 	jmp	0x280	; 0x280 <__bad_interrupt>
      64:	0c 94 40 01 	jmp	0x280	; 0x280 <__bad_interrupt>
      68:	0c 94 40 01 	jmp	0x280	; 0x280 <__bad_interrupt>
      6c:	0c 94 40 01 	jmp	0x280	; 0x280 <__bad_interrupt>
      70:	0c 94 40 01 	jmp	0x280	; 0x280 <__bad_interrupt>
      74:	0c 94 40 01 	jmp	0x280	; 0x280 <__bad_interrupt>
      78:	0c 94 40 01 	jmp	0x280	; 0x280 <__bad_interrupt>
      7c:	0c 94 40 01 	jmp	0x280	; 0x280 <__bad_interrupt>
      80:	0c 94 40 01 	jmp	0x280	; 0x280 <__bad_interrupt>
      84:	0c 94 40 01 	jmp	0x280	; 0x280 <__bad_interrupt>
      88:	0c 94 40 01 	jmp	0x280	; 0x280 <__bad_interrupt>
      8c:	0c 94 40 01 	jmp	0x280	; 0x280 <__bad_interrupt>
      90:	0c 94 40 01 	jmp	0x280	; 0x280 <__bad_interrupt>
      94:	0c 94 40 01 	jmp	0x280	; 0x280 <__bad_interrupt>
      98:	0c 94 40 01 	jmp	0x280	; 0x280 <__bad_interrupt>
      9c:	0c 94 40 01 	jmp	0x280	; 0x280 <__bad_interrupt>
      a0:	0c 94 40 01 	jmp	0x280	; 0x280 <__bad_interrupt>
      a4:	0c 94 40 01 	jmp	0x280	; 0x280 <__bad_interrupt>
      a8:	0c 94 40 01 	jmp	0x280	; 0x280 <__bad_interrupt>
      ac:	0c 94 40 01 	jmp	0x280	; 0x280 <__bad_interrupt>
      b0:	0c 94 40 01 	jmp	0x280	; 0x280 <__bad_interrupt>
      b4:	0c 94 40 01 	jmp	0x280	; 0x280 <__bad_interrupt>
      b8:	0c 94 40 01 	jmp	0x280	; 0x280 <__bad_interrupt>
      bc:	0c 94 40 01 	jmp	0x280	; 0x280 <__bad_interrupt>
      c0:	0c 94 40 01 	jmp	0x280	; 0x280 <__bad_interrupt>
      c4:	0c 94 40 01 	jmp	0x280	; 0x280 <__bad_interrupt>
      c8:	0c 94 40 01 	jmp	0x280	; 0x280 <__bad_interrupt>
      cc:	0c 94 40 01 	jmp	0x280	; 0x280 <__bad_interrupt>
      d0:	0c 94 40 01 	jmp	0x280	; 0x280 <__bad_interrupt>
      d4:	0c 94 40 01 	jmp	0x280	; 0x280 <__bad_interrupt>
      d8:	0c 94 40 01 	jmp	0x280	; 0x280 <__bad_interrupt>
      dc:	0c 94 40 01 	jmp	0x280	; 0x280 <__bad_interrupt>
      e0:	0c 94 40 01 	jmp	0x280	; 0x280 <__bad_interrupt>
      e4:	0c 94 40 01 	jmp	0x280	; 0x280 <__bad_interrupt>
      e8:	0c 94 40 01 	jmp	0x280	; 0x280 <__bad_interrupt>
      ec:	0c 94 40 01 	jmp	0x280	; 0x280 <__bad_interrupt>
      f0:	0c 94 40 01 	jmp	0x280	; 0x280 <__bad_interrupt>
      f4:	0c 94 40 01 	jmp	0x280	; 0x280 <__bad_interrupt>
      f8:	0c 94 40 01 	jmp	0x280	; 0x280 <__bad_interrupt>
      fc:	0c 94 40 01 	jmp	0x280	; 0x280 <__bad_interrupt>
     100:	0c 94 40 01 	jmp	0x280	; 0x280 <__bad_interrupt>
     104:	0c 94 40 01 	jmp	0x280	; 0x280 <__bad_interrupt>
     108:	0c 94 40 01 	jmp	0x280	; 0x280 <__bad_interrupt>
     10c:	0c 94 40 01 	jmp	0x280	; 0x280 <__bad_interrupt>
     110:	0c 94 40 01 	jmp	0x280	; 0x280 <__bad_interrupt>
     114:	0c 94 40 01 	jmp	0x280	; 0x280 <__bad_interrupt>
     118:	0c 94 40 01 	jmp	0x280	; 0x280 <__bad_interrupt>
     11c:	0c 94 40 01 	jmp	0x280	; 0x280 <__bad_interrupt>
     120:	0c 94 40 01 	jmp	0x280	; 0x280 <__bad_interrupt>
     124:	0c 94 40 01 	jmp	0x280	; 0x280 <__bad_interrupt>
     128:	0c 94 40 01 	jmp	0x280	; 0x280 <__bad_interrupt>
     12c:	0c 94 40 01 	jmp	0x280	; 0x280 <__bad_interrupt>
     130:	0c 94 40 01 	jmp	0x280	; 0x280 <__bad_interrupt>
     134:	0c 94 71 36 	jmp	0x6ce2	; 0x6ce2 <__vector_77>
     138:	0c 94 40 01 	jmp	0x280	; 0x280 <__bad_interrupt>
     13c:	0c 94 40 01 	jmp	0x280	; 0x280 <__bad_interrupt>
     140:	0c 94 40 01 	jmp	0x280	; 0x280 <__bad_interrupt>
     144:	0c 94 40 01 	jmp	0x280	; 0x280 <__bad_interrupt>
     148:	0c 94 40 01 	jmp	0x280	; 0x280 <__bad_interrupt>
     14c:	0c 94 40 01 	jmp	0x280	; 0x280 <__bad_interrupt>
     150:	0c 94 40 01 	jmp	0x280	; 0x280 <__bad_interrupt>
     154:	0c 94 40 01 	jmp	0x280	; 0x280 <__bad_interrupt>
     158:	0c 94 40 01 	jmp	0x280	; 0x280 <__bad_interrupt>
     15c:	0c 94 40 01 	jmp	0x280	; 0x280 <__bad_interrupt>
     160:	0c 94 40 01 	jmp	0x280	; 0x280 <__bad_interrupt>
     164:	0c 94 40 01 	jmp	0x280	; 0x280 <__bad_interrupt>
     168:	0c 94 40 01 	jmp	0x280	; 0x280 <__bad_interrupt>
     16c:	0c 94 40 01 	jmp	0x280	; 0x280 <__bad_interrupt>
     170:	0c 94 40 01 	jmp	0x280	; 0x280 <__bad_interrupt>
     174:	0c 94 40 01 	jmp	0x280	; 0x280 <__bad_interrupt>
     178:	0c 94 40 01 	jmp	0x280	; 0x280 <__bad_interrupt>
     17c:	0c 94 40 01 	jmp	0x280	; 0x280 <__bad_interrupt>
     180:	0c 94 40 01 	jmp	0x280	; 0x280 <__bad_interrupt>
     184:	0c 94 40 01 	jmp	0x280	; 0x280 <__bad_interrupt>
     188:	0c 94 40 01 	jmp	0x280	; 0x280 <__bad_interrupt>
     18c:	0c 94 40 01 	jmp	0x280	; 0x280 <__bad_interrupt>
     190:	0c 94 40 01 	jmp	0x280	; 0x280 <__bad_interrupt>
     194:	0c 94 40 01 	jmp	0x280	; 0x280 <__bad_interrupt>
     198:	0c 94 40 01 	jmp	0x280	; 0x280 <__bad_interrupt>
     19c:	0c 94 40 01 	jmp	0x280	; 0x280 <__bad_interrupt>
     1a0:	0c 94 40 01 	jmp	0x280	; 0x280 <__bad_interrupt>
     1a4:	0c 94 40 01 	jmp	0x280	; 0x280 <__bad_interrupt>
     1a8:	0c 94 40 01 	jmp	0x280	; 0x280 <__bad_interrupt>
     1ac:	0c 94 40 01 	jmp	0x280	; 0x280 <__bad_interrupt>
     1b0:	0c 94 40 01 	jmp	0x280	; 0x280 <__bad_interrupt>
     1b4:	0c 94 40 01 	jmp	0x280	; 0x280 <__bad_interrupt>
     1b8:	0c 94 40 01 	jmp	0x280	; 0x280 <__bad_interrupt>
     1bc:	0c 94 40 01 	jmp	0x280	; 0x280 <__bad_interrupt>
     1c0:	0c 94 40 01 	jmp	0x280	; 0x280 <__bad_interrupt>
     1c4:	0c 94 40 01 	jmp	0x280	; 0x280 <__bad_interrupt>
     1c8:	0c 94 40 01 	jmp	0x280	; 0x280 <__bad_interrupt>
     1cc:	0c 94 40 01 	jmp	0x280	; 0x280 <__bad_interrupt>
     1d0:	0c 94 40 01 	jmp	0x280	; 0x280 <__bad_interrupt>
     1d4:	0c 94 40 01 	jmp	0x280	; 0x280 <__bad_interrupt>
     1d8:	0c 94 40 01 	jmp	0x280	; 0x280 <__bad_interrupt>
     1dc:	0c 94 40 01 	jmp	0x280	; 0x280 <__bad_interrupt>
     1e0:	0c 94 40 01 	jmp	0x280	; 0x280 <__bad_interrupt>
     1e4:	0c 94 40 01 	jmp	0x280	; 0x280 <__bad_interrupt>
     1e8:	0c 94 40 01 	jmp	0x280	; 0x280 <__bad_interrupt>
     1ec:	0c 94 40 01 	jmp	0x280	; 0x280 <__bad_interrupt>
     1f0:	0c 94 40 01 	jmp	0x280	; 0x280 <__bad_interrupt>
     1f4:	0c 94 40 01 	jmp	0x280	; 0x280 <__bad_interrupt>
     1f8:	0c 94 40 01 	jmp	0x280	; 0x280 <__bad_interrupt>

000001fc <__trampolines_start>:
     1fc:	0c 94 55 2a 	jmp	0x54aa	; 0x54aa <_GLOBAL__sub_I_st>
     200:	0c 94 30 35 	jmp	0x6a60	; 0x6a60 <_GLOBAL__sub_I_motor_spi>
     204:	0c 94 89 31 	jmp	0x6312	; 0x6312 <_GLOBAL__sub_I_gyro>
     208:	0c 94 65 36 	jmp	0x6cca	; 0x6cca <_GLOBAL__sub_I_mv>

0000020c <__ctors_start>:
     20c:	55 2a       	or	r5, r21
     20e:	89 31       	cpi	r24, 0x19	; 25
     210:	30 35       	cpi	r19, 0x50	; 80
     212:	65 36       	cpi	r22, 0x65	; 101

00000214 <__ctors_end>:
     214:	11 24       	eor	r1, r1
     216:	1f be       	out	0x3f, r1	; 63
     218:	cf ef       	ldi	r28, 0xFF	; 255
     21a:	cd bf       	out	0x3d, r28	; 61
     21c:	df e3       	ldi	r29, 0x3F	; 63
     21e:	de bf       	out	0x3e, r29	; 62
     220:	00 e0       	ldi	r16, 0x00	; 0
     222:	0c bf       	out	0x3c, r16	; 60
     224:	18 be       	out	0x38, r1	; 56
     226:	19 be       	out	0x39, r1	; 57
     228:	1a be       	out	0x3a, r1	; 58
     22a:	1b be       	out	0x3b, r1	; 59

0000022c <__do_copy_data>:
     22c:	10 e2       	ldi	r17, 0x20	; 32
     22e:	a0 e0       	ldi	r26, 0x00	; 0
     230:	b0 e2       	ldi	r27, 0x20	; 32
     232:	e4 e4       	ldi	r30, 0x44	; 68
     234:	f1 e7       	ldi	r31, 0x71	; 113
     236:	00 e0       	ldi	r16, 0x00	; 0
     238:	0b bf       	out	0x3b, r16	; 59
     23a:	02 c0       	rjmp	.+4      	; 0x240 <__do_copy_data+0x14>
     23c:	07 90       	elpm	r0, Z+
     23e:	0d 92       	st	X+, r0
     240:	a4 35       	cpi	r26, 0x54	; 84
     242:	b1 07       	cpc	r27, r17
     244:	d9 f7       	brne	.-10     	; 0x23c <__do_copy_data+0x10>
     246:	1b be       	out	0x3b, r1	; 59

00000248 <__do_clear_bss>:
     248:	2b e3       	ldi	r18, 0x3B	; 59
     24a:	a4 e5       	ldi	r26, 0x54	; 84
     24c:	b0 e2       	ldi	r27, 0x20	; 32
     24e:	01 c0       	rjmp	.+2      	; 0x252 <.do_clear_bss_start>

00000250 <.do_clear_bss_loop>:
     250:	1d 92       	st	X+, r1

00000252 <.do_clear_bss_start>:
     252:	a2 3e       	cpi	r26, 0xE2	; 226
     254:	b2 07       	cpc	r27, r18
     256:	e1 f7       	brne	.-8      	; 0x250 <.do_clear_bss_loop>

00000258 <__do_global_ctors>:
     258:	11 e0       	ldi	r17, 0x01	; 1
     25a:	ca e0       	ldi	r28, 0x0A	; 10
     25c:	d1 e0       	ldi	r29, 0x01	; 1
     25e:	00 e0       	ldi	r16, 0x00	; 0
     260:	06 c0       	rjmp	.+12     	; 0x26e <__do_global_ctors+0x16>
     262:	21 97       	sbiw	r28, 0x01	; 1
     264:	01 09       	sbc	r16, r1
     266:	80 2f       	mov	r24, r16
     268:	fe 01       	movw	r30, r28
     26a:	0e 94 88 38 	call	0x7110	; 0x7110 <__tablejump2__>
     26e:	c6 30       	cpi	r28, 0x06	; 6
     270:	d1 07       	cpc	r29, r17
     272:	80 e0       	ldi	r24, 0x00	; 0
     274:	08 07       	cpc	r16, r24
     276:	a9 f7       	brne	.-22     	; 0x262 <__do_global_ctors+0xa>
     278:	0e 94 e7 29 	call	0x53ce	; 0x53ce <main>
     27c:	0c 94 a0 38 	jmp	0x7140	; 0x7140 <_exit>

00000280 <__bad_interrupt>:
     280:	0c 94 00 00 	jmp	0	; 0x0 <__vectors>

00000284 <_ZN4core3dfsEP4nodeiiii>:
		st.top()->color=2;
		st.pop();
		for(int i=0;i<4;i++)if(ta.ac_next(i,1)!=np && ta.ac_next(i,1)->type==v::unknown && ta.ac_next(i,1)->color==0){ st.push(ta.ac_next(i,1)); ta.ac_next(i,1)->color=1;}
		write_walls();
	}
}
     284:	6f 92       	push	r6
     286:	7f 92       	push	r7
     288:	8f 92       	push	r8
     28a:	9f 92       	push	r9
     28c:	af 92       	push	r10
     28e:	bf 92       	push	r11
     290:	cf 92       	push	r12
     292:	df 92       	push	r13
     294:	ef 92       	push	r14
     296:	ff 92       	push	r15
     298:	0f 93       	push	r16
     29a:	1f 93       	push	r17
     29c:	cf 93       	push	r28
     29e:	df 93       	push	r29
     2a0:	ec 01       	movw	r28, r24
     2a2:	fb 01       	movw	r30, r22
     2a4:	30 97       	sbiw	r30, 0x00	; 0
     2a6:	09 f4       	brne	.+2      	; 0x2aa <_ZN4core3dfsEP4nodeiiii+0x26>
     2a8:	4e c0       	rjmp	.+156    	; 0x346 <_ZN4core3dfsEP4nodeiiii+0xc2>
     2aa:	8f ef       	ldi	r24, 0xFF	; 255
     2ac:	e8 1a       	sub	r14, r24
     2ae:	f8 0a       	sbc	r15, r24
     2b0:	86 81       	ldd	r24, Z+6	; 0x06
     2b2:	97 81       	ldd	r25, Z+7	; 0x07
     2b4:	e8 16       	cp	r14, r24
     2b6:	f9 06       	cpc	r15, r25
     2b8:	14 f4       	brge	.+4      	; 0x2be <_ZN4core3dfsEP4nodeiiii+0x3a>
     2ba:	e6 82       	std	Z+6, r14	; 0x06
     2bc:	f7 82       	std	Z+7, r15	; 0x07
     2be:	6e 85       	ldd	r22, Y+14	; 0x0e
     2c0:	80 8d       	ldd	r24, Z+24	; 0x18
     2c2:	86 17       	cp	r24, r22
     2c4:	09 f4       	brne	.+2      	; 0x2c8 <_ZN4core3dfsEP4nodeiiii+0x44>
     2c6:	3f c0       	rjmp	.+126    	; 0x346 <_ZN4core3dfsEP4nodeiiii+0xc2>
     2c8:	8b 89       	ldd	r24, Y+19	; 0x13
     2ca:	9c 89       	ldd	r25, Y+20	; 0x14
     2cc:	01 96       	adiw	r24, 0x01	; 1
     2ce:	8b 8b       	std	Y+19, r24	; 0x13
     2d0:	9c 8b       	std	Y+20, r25	; 0x14
     2d2:	80 81       	ld	r24, Z
     2d4:	91 81       	ldd	r25, Z+1	; 0x01
     2d6:	84 17       	cp	r24, r20
     2d8:	95 07       	cpc	r25, r21
     2da:	61 f4       	brne	.+24     	; 0x2f4 <_ZN4core3dfsEP4nodeiiii+0x70>
     2dc:	82 81       	ldd	r24, Z+2	; 0x02
     2de:	93 81       	ldd	r25, Z+3	; 0x03
     2e0:	82 17       	cp	r24, r18
     2e2:	93 07       	cpc	r25, r19
     2e4:	39 f4       	brne	.+14     	; 0x2f4 <_ZN4core3dfsEP4nodeiiii+0x70>
     2e6:	84 81       	ldd	r24, Z+4	; 0x04
     2e8:	95 81       	ldd	r25, Z+5	; 0x05
     2ea:	80 17       	cp	r24, r16
     2ec:	91 07       	cpc	r25, r17
     2ee:	11 f4       	brne	.+4      	; 0x2f4 <_ZN4core3dfsEP4nodeiiii+0x70>
     2f0:	ef 87       	std	Y+15, r30	; 0x0f
     2f2:	f8 8b       	std	Y+16, r31	; 0x10
     2f4:	59 01       	movw	r10, r18
     2f6:	6a 01       	movw	r12, r20
     2f8:	3f 01       	movw	r6, r30
     2fa:	60 8f       	std	Z+24, r22	; 0x18
     2fc:	e6 80       	ldd	r14, Z+6	; 0x06
     2fe:	f7 80       	ldd	r15, Z+7	; 0x07
     300:	62 85       	ldd	r22, Z+10	; 0x0a
     302:	73 85       	ldd	r23, Z+11	; 0x0b
     304:	ce 01       	movw	r24, r28
     306:	0e 94 42 01 	call	0x284	; 0x284 <_ZN4core3dfsEP4nodeiiii>
     30a:	f3 01       	movw	r30, r6
     30c:	e6 80       	ldd	r14, Z+6	; 0x06
     30e:	f7 80       	ldd	r15, Z+7	; 0x07
     310:	64 85       	ldd	r22, Z+12	; 0x0c
     312:	75 85       	ldd	r23, Z+13	; 0x0d
     314:	95 01       	movw	r18, r10
     316:	a6 01       	movw	r20, r12
     318:	ce 01       	movw	r24, r28
     31a:	0e 94 42 01 	call	0x284	; 0x284 <_ZN4core3dfsEP4nodeiiii>
     31e:	f3 01       	movw	r30, r6
     320:	e6 80       	ldd	r14, Z+6	; 0x06
     322:	f7 80       	ldd	r15, Z+7	; 0x07
     324:	66 85       	ldd	r22, Z+14	; 0x0e
     326:	77 85       	ldd	r23, Z+15	; 0x0f
     328:	95 01       	movw	r18, r10
     32a:	a6 01       	movw	r20, r12
     32c:	ce 01       	movw	r24, r28
     32e:	0e 94 42 01 	call	0x284	; 0x284 <_ZN4core3dfsEP4nodeiiii>
     332:	f3 01       	movw	r30, r6
     334:	e6 80       	ldd	r14, Z+6	; 0x06
     336:	f7 80       	ldd	r15, Z+7	; 0x07
     338:	60 89       	ldd	r22, Z+16	; 0x10
     33a:	71 89       	ldd	r23, Z+17	; 0x11
     33c:	95 01       	movw	r18, r10
     33e:	a6 01       	movw	r20, r12
     340:	ce 01       	movw	r24, r28
     342:	0e 94 42 01 	call	0x284	; 0x284 <_ZN4core3dfsEP4nodeiiii>
     346:	df 91       	pop	r29
     348:	cf 91       	pop	r28
     34a:	1f 91       	pop	r17
     34c:	0f 91       	pop	r16
     34e:	ff 90       	pop	r15
     350:	ef 90       	pop	r14
     352:	df 90       	pop	r13
     354:	cf 90       	pop	r12
     356:	bf 90       	pop	r11
     358:	af 90       	pop	r10
     35a:	9f 90       	pop	r9
     35c:	8f 90       	pop	r8
     35e:	7f 90       	pop	r7
     360:	6f 90       	pop	r6
     362:	08 95       	ret

00000364 <_ZN4core4findEiii>:
     364:	2f 92       	push	r2
     366:	3f 92       	push	r3
     368:	4f 92       	push	r4
     36a:	5f 92       	push	r5
     36c:	6f 92       	push	r6
     36e:	7f 92       	push	r7
     370:	8f 92       	push	r8
     372:	9f 92       	push	r9
     374:	af 92       	push	r10
     376:	bf 92       	push	r11
     378:	cf 92       	push	r12
     37a:	df 92       	push	r13
     37c:	ef 92       	push	r14
     37e:	ff 92       	push	r15
     380:	0f 93       	push	r16
     382:	1f 93       	push	r17
     384:	cf 93       	push	r28
     386:	df 93       	push	r29
     388:	00 d0       	rcall	.+0      	; 0x38a <_ZN4core4findEiii+0x26>
     38a:	1f 92       	push	r1
     38c:	cd b7       	in	r28, 0x3d	; 61
     38e:	de b7       	in	r29, 0x3e	; 62
     390:	8b 83       	std	Y+3, r24	; 0x03
     392:	9c 83       	std	Y+4, r25	; 0x04
     394:	6b 01       	movw	r12, r22
     396:	5a 01       	movw	r10, r20
     398:	49 01       	movw	r8, r18
     39a:	fc 01       	movw	r30, r24
     39c:	13 8a       	std	Z+19, r1	; 0x13
     39e:	14 8a       	std	Z+20, r1	; 0x14
     3a0:	17 86       	std	Z+15, r1	; 0x0f
     3a2:	10 8a       	std	Z+16, r1	; 0x10
     3a4:	62 80       	ldd	r6, Z+2	; 0x02
     3a6:	73 80       	ldd	r7, Z+3	; 0x03
     3a8:	f3 01       	movw	r30, r6
     3aa:	86 81       	ldd	r24, Z+6	; 0x06
     3ac:	97 81       	ldd	r25, Z+7	; 0x07
     3ae:	61 14       	cp	r6, r1
     3b0:	71 04       	cpc	r7, r1
     3b2:	11 f4       	brne	.+4      	; 0x3b8 <_ZN4core4findEiii+0x54>
     3b4:	0c 94 db 13 	jmp	0x27b6	; 0x27b6 <__LOCK_REGION_LENGTH__+0x23b6>
     3b8:	9c 01       	movw	r18, r24
     3ba:	2f 5f       	subi	r18, 0xFF	; 255
     3bc:	3f 4f       	sbci	r19, 0xFF	; 255
     3be:	28 17       	cp	r18, r24
     3c0:	39 07       	cpc	r19, r25
     3c2:	14 f4       	brge	.+4      	; 0x3c8 <_ZN4core4findEiii+0x64>
     3c4:	26 83       	std	Z+6, r18	; 0x06
     3c6:	37 83       	std	Z+7, r19	; 0x07
     3c8:	eb 81       	ldd	r30, Y+3	; 0x03
     3ca:	fc 81       	ldd	r31, Y+4	; 0x04
     3cc:	26 85       	ldd	r18, Z+14	; 0x0e
     3ce:	f3 01       	movw	r30, r6
     3d0:	80 8d       	ldd	r24, Z+24	; 0x18
     3d2:	82 17       	cp	r24, r18
     3d4:	11 f4       	brne	.+4      	; 0x3da <_ZN4core4findEiii+0x76>
     3d6:	0c 94 db 13 	jmp	0x27b6	; 0x27b6 <__LOCK_REGION_LENGTH__+0x23b6>
     3da:	eb 81       	ldd	r30, Y+3	; 0x03
     3dc:	fc 81       	ldd	r31, Y+4	; 0x04
     3de:	83 89       	ldd	r24, Z+19	; 0x13
     3e0:	94 89       	ldd	r25, Z+20	; 0x14
     3e2:	01 96       	adiw	r24, 0x01	; 1
     3e4:	83 8b       	std	Z+19, r24	; 0x13
     3e6:	94 8b       	std	Z+20, r25	; 0x14
     3e8:	f3 01       	movw	r30, r6
     3ea:	80 81       	ld	r24, Z
     3ec:	91 81       	ldd	r25, Z+1	; 0x01
     3ee:	c8 16       	cp	r12, r24
     3f0:	d9 06       	cpc	r13, r25
     3f2:	71 f4       	brne	.+28     	; 0x410 <__LOCK_REGION_LENGTH__+0x10>
     3f4:	82 81       	ldd	r24, Z+2	; 0x02
     3f6:	93 81       	ldd	r25, Z+3	; 0x03
     3f8:	a8 16       	cp	r10, r24
     3fa:	b9 06       	cpc	r11, r25
     3fc:	49 f4       	brne	.+18     	; 0x410 <__LOCK_REGION_LENGTH__+0x10>
     3fe:	84 81       	ldd	r24, Z+4	; 0x04
     400:	95 81       	ldd	r25, Z+5	; 0x05
     402:	88 16       	cp	r8, r24
     404:	99 06       	cpc	r9, r25
     406:	21 f4       	brne	.+8      	; 0x410 <__LOCK_REGION_LENGTH__+0x10>
     408:	eb 81       	ldd	r30, Y+3	; 0x03
     40a:	fc 81       	ldd	r31, Y+4	; 0x04
     40c:	67 86       	std	Z+15, r6	; 0x0f
     40e:	70 8a       	std	Z+16, r7	; 0x10
     410:	f3 01       	movw	r30, r6
     412:	20 8f       	std	Z+24, r18	; 0x18
     414:	86 81       	ldd	r24, Z+6	; 0x06
     416:	97 81       	ldd	r25, Z+7	; 0x07
     418:	42 84       	ldd	r4, Z+10	; 0x0a
     41a:	53 84       	ldd	r5, Z+11	; 0x0b
     41c:	41 14       	cp	r4, r1
     41e:	51 04       	cpc	r5, r1
     420:	09 f4       	brne	.+2      	; 0x424 <__LOCK_REGION_LENGTH__+0x24>
     422:	b9 c1       	rjmp	.+882    	; 0x796 <__LOCK_REGION_LENGTH__+0x396>
     424:	01 96       	adiw	r24, 0x01	; 1
     426:	f2 01       	movw	r30, r4
     428:	26 81       	ldd	r18, Z+6	; 0x06
     42a:	37 81       	ldd	r19, Z+7	; 0x07
     42c:	82 17       	cp	r24, r18
     42e:	93 07       	cpc	r25, r19
     430:	14 f4       	brge	.+4      	; 0x436 <__LOCK_REGION_LENGTH__+0x36>
     432:	86 83       	std	Z+6, r24	; 0x06
     434:	97 83       	std	Z+7, r25	; 0x07
     436:	eb 81       	ldd	r30, Y+3	; 0x03
     438:	fc 81       	ldd	r31, Y+4	; 0x04
     43a:	26 85       	ldd	r18, Z+14	; 0x0e
     43c:	f2 01       	movw	r30, r4
     43e:	80 8d       	ldd	r24, Z+24	; 0x18
     440:	82 17       	cp	r24, r18
     442:	09 f4       	brne	.+2      	; 0x446 <__LOCK_REGION_LENGTH__+0x46>
     444:	a8 c1       	rjmp	.+848    	; 0x796 <__LOCK_REGION_LENGTH__+0x396>
     446:	eb 81       	ldd	r30, Y+3	; 0x03
     448:	fc 81       	ldd	r31, Y+4	; 0x04
     44a:	83 89       	ldd	r24, Z+19	; 0x13
     44c:	94 89       	ldd	r25, Z+20	; 0x14
     44e:	01 96       	adiw	r24, 0x01	; 1
     450:	83 8b       	std	Z+19, r24	; 0x13
     452:	94 8b       	std	Z+20, r25	; 0x14
     454:	f2 01       	movw	r30, r4
     456:	80 81       	ld	r24, Z
     458:	91 81       	ldd	r25, Z+1	; 0x01
     45a:	c8 16       	cp	r12, r24
     45c:	d9 06       	cpc	r13, r25
     45e:	71 f4       	brne	.+28     	; 0x47c <__LOCK_REGION_LENGTH__+0x7c>
     460:	82 81       	ldd	r24, Z+2	; 0x02
     462:	93 81       	ldd	r25, Z+3	; 0x03
     464:	a8 16       	cp	r10, r24
     466:	b9 06       	cpc	r11, r25
     468:	49 f4       	brne	.+18     	; 0x47c <__LOCK_REGION_LENGTH__+0x7c>
     46a:	84 81       	ldd	r24, Z+4	; 0x04
     46c:	95 81       	ldd	r25, Z+5	; 0x05
     46e:	88 16       	cp	r8, r24
     470:	99 06       	cpc	r9, r25
     472:	21 f4       	brne	.+8      	; 0x47c <__LOCK_REGION_LENGTH__+0x7c>
     474:	eb 81       	ldd	r30, Y+3	; 0x03
     476:	fc 81       	ldd	r31, Y+4	; 0x04
     478:	47 86       	std	Z+15, r4	; 0x0f
     47a:	50 8a       	std	Z+16, r5	; 0x10
     47c:	f2 01       	movw	r30, r4
     47e:	20 8f       	std	Z+24, r18	; 0x18
     480:	86 81       	ldd	r24, Z+6	; 0x06
     482:	97 81       	ldd	r25, Z+7	; 0x07
     484:	22 84       	ldd	r2, Z+10	; 0x0a
     486:	33 84       	ldd	r3, Z+11	; 0x0b
     488:	21 14       	cp	r2, r1
     48a:	31 04       	cpc	r3, r1
     48c:	09 f4       	brne	.+2      	; 0x490 <__LOCK_REGION_LENGTH__+0x90>
     48e:	5a c0       	rjmp	.+180    	; 0x544 <__LOCK_REGION_LENGTH__+0x144>
     490:	01 96       	adiw	r24, 0x01	; 1
     492:	f1 01       	movw	r30, r2
     494:	26 81       	ldd	r18, Z+6	; 0x06
     496:	37 81       	ldd	r19, Z+7	; 0x07
     498:	82 17       	cp	r24, r18
     49a:	93 07       	cpc	r25, r19
     49c:	14 f4       	brge	.+4      	; 0x4a2 <__LOCK_REGION_LENGTH__+0xa2>
     49e:	86 83       	std	Z+6, r24	; 0x06
     4a0:	97 83       	std	Z+7, r25	; 0x07
     4a2:	eb 81       	ldd	r30, Y+3	; 0x03
     4a4:	fc 81       	ldd	r31, Y+4	; 0x04
     4a6:	26 85       	ldd	r18, Z+14	; 0x0e
     4a8:	f1 01       	movw	r30, r2
     4aa:	80 8d       	ldd	r24, Z+24	; 0x18
     4ac:	82 17       	cp	r24, r18
     4ae:	09 f4       	brne	.+2      	; 0x4b2 <__LOCK_REGION_LENGTH__+0xb2>
     4b0:	49 c0       	rjmp	.+146    	; 0x544 <__LOCK_REGION_LENGTH__+0x144>
     4b2:	eb 81       	ldd	r30, Y+3	; 0x03
     4b4:	fc 81       	ldd	r31, Y+4	; 0x04
     4b6:	83 89       	ldd	r24, Z+19	; 0x13
     4b8:	94 89       	ldd	r25, Z+20	; 0x14
     4ba:	01 96       	adiw	r24, 0x01	; 1
     4bc:	83 8b       	std	Z+19, r24	; 0x13
     4be:	94 8b       	std	Z+20, r25	; 0x14
     4c0:	f1 01       	movw	r30, r2
     4c2:	80 81       	ld	r24, Z
     4c4:	91 81       	ldd	r25, Z+1	; 0x01
     4c6:	c8 16       	cp	r12, r24
     4c8:	d9 06       	cpc	r13, r25
     4ca:	71 f4       	brne	.+28     	; 0x4e8 <__LOCK_REGION_LENGTH__+0xe8>
     4cc:	82 81       	ldd	r24, Z+2	; 0x02
     4ce:	93 81       	ldd	r25, Z+3	; 0x03
     4d0:	a8 16       	cp	r10, r24
     4d2:	b9 06       	cpc	r11, r25
     4d4:	49 f4       	brne	.+18     	; 0x4e8 <__LOCK_REGION_LENGTH__+0xe8>
     4d6:	84 81       	ldd	r24, Z+4	; 0x04
     4d8:	95 81       	ldd	r25, Z+5	; 0x05
     4da:	88 16       	cp	r8, r24
     4dc:	99 06       	cpc	r9, r25
     4de:	21 f4       	brne	.+8      	; 0x4e8 <__LOCK_REGION_LENGTH__+0xe8>
     4e0:	eb 81       	ldd	r30, Y+3	; 0x03
     4e2:	fc 81       	ldd	r31, Y+4	; 0x04
     4e4:	27 86       	std	Z+15, r2	; 0x0f
     4e6:	30 8a       	std	Z+16, r3	; 0x10
     4e8:	f1 01       	movw	r30, r2
     4ea:	20 8f       	std	Z+24, r18	; 0x18
     4ec:	e6 80       	ldd	r14, Z+6	; 0x06
     4ee:	f7 80       	ldd	r15, Z+7	; 0x07
     4f0:	62 85       	ldd	r22, Z+10	; 0x0a
     4f2:	73 85       	ldd	r23, Z+11	; 0x0b
     4f4:	84 01       	movw	r16, r8
     4f6:	95 01       	movw	r18, r10
     4f8:	a6 01       	movw	r20, r12
     4fa:	8b 81       	ldd	r24, Y+3	; 0x03
     4fc:	9c 81       	ldd	r25, Y+4	; 0x04
     4fe:	0e 94 42 01 	call	0x284	; 0x284 <_ZN4core3dfsEP4nodeiiii>
     502:	f1 01       	movw	r30, r2
     504:	e6 80       	ldd	r14, Z+6	; 0x06
     506:	f7 80       	ldd	r15, Z+7	; 0x07
     508:	64 85       	ldd	r22, Z+12	; 0x0c
     50a:	75 85       	ldd	r23, Z+13	; 0x0d
     50c:	95 01       	movw	r18, r10
     50e:	a6 01       	movw	r20, r12
     510:	8b 81       	ldd	r24, Y+3	; 0x03
     512:	9c 81       	ldd	r25, Y+4	; 0x04
     514:	0e 94 42 01 	call	0x284	; 0x284 <_ZN4core3dfsEP4nodeiiii>
     518:	f1 01       	movw	r30, r2
     51a:	e6 80       	ldd	r14, Z+6	; 0x06
     51c:	f7 80       	ldd	r15, Z+7	; 0x07
     51e:	66 85       	ldd	r22, Z+14	; 0x0e
     520:	77 85       	ldd	r23, Z+15	; 0x0f
     522:	95 01       	movw	r18, r10
     524:	a6 01       	movw	r20, r12
     526:	8b 81       	ldd	r24, Y+3	; 0x03
     528:	9c 81       	ldd	r25, Y+4	; 0x04
     52a:	0e 94 42 01 	call	0x284	; 0x284 <_ZN4core3dfsEP4nodeiiii>
     52e:	f1 01       	movw	r30, r2
     530:	e6 80       	ldd	r14, Z+6	; 0x06
     532:	f7 80       	ldd	r15, Z+7	; 0x07
     534:	60 89       	ldd	r22, Z+16	; 0x10
     536:	71 89       	ldd	r23, Z+17	; 0x11
     538:	95 01       	movw	r18, r10
     53a:	a6 01       	movw	r20, r12
     53c:	8b 81       	ldd	r24, Y+3	; 0x03
     53e:	9c 81       	ldd	r25, Y+4	; 0x04
     540:	0e 94 42 01 	call	0x284	; 0x284 <_ZN4core3dfsEP4nodeiiii>
     544:	f2 01       	movw	r30, r4
     546:	86 81       	ldd	r24, Z+6	; 0x06
     548:	97 81       	ldd	r25, Z+7	; 0x07
     54a:	24 84       	ldd	r2, Z+12	; 0x0c
     54c:	35 84       	ldd	r3, Z+13	; 0x0d
     54e:	21 14       	cp	r2, r1
     550:	31 04       	cpc	r3, r1
     552:	09 f4       	brne	.+2      	; 0x556 <__LOCK_REGION_LENGTH__+0x156>
     554:	5a c0       	rjmp	.+180    	; 0x60a <__LOCK_REGION_LENGTH__+0x20a>
     556:	01 96       	adiw	r24, 0x01	; 1
     558:	f1 01       	movw	r30, r2
     55a:	26 81       	ldd	r18, Z+6	; 0x06
     55c:	37 81       	ldd	r19, Z+7	; 0x07
     55e:	82 17       	cp	r24, r18
     560:	93 07       	cpc	r25, r19
     562:	14 f4       	brge	.+4      	; 0x568 <__LOCK_REGION_LENGTH__+0x168>
     564:	86 83       	std	Z+6, r24	; 0x06
     566:	97 83       	std	Z+7, r25	; 0x07
     568:	eb 81       	ldd	r30, Y+3	; 0x03
     56a:	fc 81       	ldd	r31, Y+4	; 0x04
     56c:	26 85       	ldd	r18, Z+14	; 0x0e
     56e:	f1 01       	movw	r30, r2
     570:	80 8d       	ldd	r24, Z+24	; 0x18
     572:	82 17       	cp	r24, r18
     574:	09 f4       	brne	.+2      	; 0x578 <__LOCK_REGION_LENGTH__+0x178>
     576:	49 c0       	rjmp	.+146    	; 0x60a <__LOCK_REGION_LENGTH__+0x20a>
     578:	eb 81       	ldd	r30, Y+3	; 0x03
     57a:	fc 81       	ldd	r31, Y+4	; 0x04
     57c:	83 89       	ldd	r24, Z+19	; 0x13
     57e:	94 89       	ldd	r25, Z+20	; 0x14
     580:	01 96       	adiw	r24, 0x01	; 1
     582:	83 8b       	std	Z+19, r24	; 0x13
     584:	94 8b       	std	Z+20, r25	; 0x14
     586:	f1 01       	movw	r30, r2
     588:	80 81       	ld	r24, Z
     58a:	91 81       	ldd	r25, Z+1	; 0x01
     58c:	c8 16       	cp	r12, r24
     58e:	d9 06       	cpc	r13, r25
     590:	71 f4       	brne	.+28     	; 0x5ae <__LOCK_REGION_LENGTH__+0x1ae>
     592:	82 81       	ldd	r24, Z+2	; 0x02
     594:	93 81       	ldd	r25, Z+3	; 0x03
     596:	a8 16       	cp	r10, r24
     598:	b9 06       	cpc	r11, r25
     59a:	49 f4       	brne	.+18     	; 0x5ae <__LOCK_REGION_LENGTH__+0x1ae>
     59c:	84 81       	ldd	r24, Z+4	; 0x04
     59e:	95 81       	ldd	r25, Z+5	; 0x05
     5a0:	88 16       	cp	r8, r24
     5a2:	99 06       	cpc	r9, r25
     5a4:	21 f4       	brne	.+8      	; 0x5ae <__LOCK_REGION_LENGTH__+0x1ae>
     5a6:	eb 81       	ldd	r30, Y+3	; 0x03
     5a8:	fc 81       	ldd	r31, Y+4	; 0x04
     5aa:	27 86       	std	Z+15, r2	; 0x0f
     5ac:	30 8a       	std	Z+16, r3	; 0x10
     5ae:	f1 01       	movw	r30, r2
     5b0:	20 8f       	std	Z+24, r18	; 0x18
     5b2:	e6 80       	ldd	r14, Z+6	; 0x06
     5b4:	f7 80       	ldd	r15, Z+7	; 0x07
     5b6:	62 85       	ldd	r22, Z+10	; 0x0a
     5b8:	73 85       	ldd	r23, Z+11	; 0x0b
     5ba:	84 01       	movw	r16, r8
     5bc:	95 01       	movw	r18, r10
     5be:	a6 01       	movw	r20, r12
     5c0:	8b 81       	ldd	r24, Y+3	; 0x03
     5c2:	9c 81       	ldd	r25, Y+4	; 0x04
     5c4:	0e 94 42 01 	call	0x284	; 0x284 <_ZN4core3dfsEP4nodeiiii>
     5c8:	f1 01       	movw	r30, r2
     5ca:	e6 80       	ldd	r14, Z+6	; 0x06
     5cc:	f7 80       	ldd	r15, Z+7	; 0x07
     5ce:	64 85       	ldd	r22, Z+12	; 0x0c
     5d0:	75 85       	ldd	r23, Z+13	; 0x0d
     5d2:	95 01       	movw	r18, r10
     5d4:	a6 01       	movw	r20, r12
     5d6:	8b 81       	ldd	r24, Y+3	; 0x03
     5d8:	9c 81       	ldd	r25, Y+4	; 0x04
     5da:	0e 94 42 01 	call	0x284	; 0x284 <_ZN4core3dfsEP4nodeiiii>
     5de:	f1 01       	movw	r30, r2
     5e0:	e6 80       	ldd	r14, Z+6	; 0x06
     5e2:	f7 80       	ldd	r15, Z+7	; 0x07
     5e4:	66 85       	ldd	r22, Z+14	; 0x0e
     5e6:	77 85       	ldd	r23, Z+15	; 0x0f
     5e8:	95 01       	movw	r18, r10
     5ea:	a6 01       	movw	r20, r12
     5ec:	8b 81       	ldd	r24, Y+3	; 0x03
     5ee:	9c 81       	ldd	r25, Y+4	; 0x04
     5f0:	0e 94 42 01 	call	0x284	; 0x284 <_ZN4core3dfsEP4nodeiiii>
     5f4:	f1 01       	movw	r30, r2
     5f6:	e6 80       	ldd	r14, Z+6	; 0x06
     5f8:	f7 80       	ldd	r15, Z+7	; 0x07
     5fa:	60 89       	ldd	r22, Z+16	; 0x10
     5fc:	71 89       	ldd	r23, Z+17	; 0x11
     5fe:	95 01       	movw	r18, r10
     600:	a6 01       	movw	r20, r12
     602:	8b 81       	ldd	r24, Y+3	; 0x03
     604:	9c 81       	ldd	r25, Y+4	; 0x04
     606:	0e 94 42 01 	call	0x284	; 0x284 <_ZN4core3dfsEP4nodeiiii>
     60a:	f2 01       	movw	r30, r4
     60c:	86 81       	ldd	r24, Z+6	; 0x06
     60e:	97 81       	ldd	r25, Z+7	; 0x07
     610:	26 84       	ldd	r2, Z+14	; 0x0e
     612:	37 84       	ldd	r3, Z+15	; 0x0f
     614:	21 14       	cp	r2, r1
     616:	31 04       	cpc	r3, r1
     618:	09 f4       	brne	.+2      	; 0x61c <__LOCK_REGION_LENGTH__+0x21c>
     61a:	5a c0       	rjmp	.+180    	; 0x6d0 <__LOCK_REGION_LENGTH__+0x2d0>
     61c:	01 96       	adiw	r24, 0x01	; 1
     61e:	f1 01       	movw	r30, r2
     620:	26 81       	ldd	r18, Z+6	; 0x06
     622:	37 81       	ldd	r19, Z+7	; 0x07
     624:	82 17       	cp	r24, r18
     626:	93 07       	cpc	r25, r19
     628:	14 f4       	brge	.+4      	; 0x62e <__LOCK_REGION_LENGTH__+0x22e>
     62a:	86 83       	std	Z+6, r24	; 0x06
     62c:	97 83       	std	Z+7, r25	; 0x07
     62e:	eb 81       	ldd	r30, Y+3	; 0x03
     630:	fc 81       	ldd	r31, Y+4	; 0x04
     632:	26 85       	ldd	r18, Z+14	; 0x0e
     634:	f1 01       	movw	r30, r2
     636:	80 8d       	ldd	r24, Z+24	; 0x18
     638:	82 17       	cp	r24, r18
     63a:	09 f4       	brne	.+2      	; 0x63e <__LOCK_REGION_LENGTH__+0x23e>
     63c:	49 c0       	rjmp	.+146    	; 0x6d0 <__LOCK_REGION_LENGTH__+0x2d0>
     63e:	eb 81       	ldd	r30, Y+3	; 0x03
     640:	fc 81       	ldd	r31, Y+4	; 0x04
     642:	83 89       	ldd	r24, Z+19	; 0x13
     644:	94 89       	ldd	r25, Z+20	; 0x14
     646:	01 96       	adiw	r24, 0x01	; 1
     648:	83 8b       	std	Z+19, r24	; 0x13
     64a:	94 8b       	std	Z+20, r25	; 0x14
     64c:	f1 01       	movw	r30, r2
     64e:	80 81       	ld	r24, Z
     650:	91 81       	ldd	r25, Z+1	; 0x01
     652:	c8 16       	cp	r12, r24
     654:	d9 06       	cpc	r13, r25
     656:	71 f4       	brne	.+28     	; 0x674 <__LOCK_REGION_LENGTH__+0x274>
     658:	82 81       	ldd	r24, Z+2	; 0x02
     65a:	93 81       	ldd	r25, Z+3	; 0x03
     65c:	a8 16       	cp	r10, r24
     65e:	b9 06       	cpc	r11, r25
     660:	49 f4       	brne	.+18     	; 0x674 <__LOCK_REGION_LENGTH__+0x274>
     662:	84 81       	ldd	r24, Z+4	; 0x04
     664:	95 81       	ldd	r25, Z+5	; 0x05
     666:	88 16       	cp	r8, r24
     668:	99 06       	cpc	r9, r25
     66a:	21 f4       	brne	.+8      	; 0x674 <__LOCK_REGION_LENGTH__+0x274>
     66c:	eb 81       	ldd	r30, Y+3	; 0x03
     66e:	fc 81       	ldd	r31, Y+4	; 0x04
     670:	27 86       	std	Z+15, r2	; 0x0f
     672:	30 8a       	std	Z+16, r3	; 0x10
     674:	f1 01       	movw	r30, r2
     676:	20 8f       	std	Z+24, r18	; 0x18
     678:	e6 80       	ldd	r14, Z+6	; 0x06
     67a:	f7 80       	ldd	r15, Z+7	; 0x07
     67c:	62 85       	ldd	r22, Z+10	; 0x0a
     67e:	73 85       	ldd	r23, Z+11	; 0x0b
     680:	84 01       	movw	r16, r8
     682:	95 01       	movw	r18, r10
     684:	a6 01       	movw	r20, r12
     686:	8b 81       	ldd	r24, Y+3	; 0x03
     688:	9c 81       	ldd	r25, Y+4	; 0x04
     68a:	0e 94 42 01 	call	0x284	; 0x284 <_ZN4core3dfsEP4nodeiiii>
     68e:	f1 01       	movw	r30, r2
     690:	e6 80       	ldd	r14, Z+6	; 0x06
     692:	f7 80       	ldd	r15, Z+7	; 0x07
     694:	64 85       	ldd	r22, Z+12	; 0x0c
     696:	75 85       	ldd	r23, Z+13	; 0x0d
     698:	95 01       	movw	r18, r10
     69a:	a6 01       	movw	r20, r12
     69c:	8b 81       	ldd	r24, Y+3	; 0x03
     69e:	9c 81       	ldd	r25, Y+4	; 0x04
     6a0:	0e 94 42 01 	call	0x284	; 0x284 <_ZN4core3dfsEP4nodeiiii>
     6a4:	f1 01       	movw	r30, r2
     6a6:	e6 80       	ldd	r14, Z+6	; 0x06
     6a8:	f7 80       	ldd	r15, Z+7	; 0x07
     6aa:	66 85       	ldd	r22, Z+14	; 0x0e
     6ac:	77 85       	ldd	r23, Z+15	; 0x0f
     6ae:	95 01       	movw	r18, r10
     6b0:	a6 01       	movw	r20, r12
     6b2:	8b 81       	ldd	r24, Y+3	; 0x03
     6b4:	9c 81       	ldd	r25, Y+4	; 0x04
     6b6:	0e 94 42 01 	call	0x284	; 0x284 <_ZN4core3dfsEP4nodeiiii>
     6ba:	f1 01       	movw	r30, r2
     6bc:	e6 80       	ldd	r14, Z+6	; 0x06
     6be:	f7 80       	ldd	r15, Z+7	; 0x07
     6c0:	60 89       	ldd	r22, Z+16	; 0x10
     6c2:	71 89       	ldd	r23, Z+17	; 0x11
     6c4:	95 01       	movw	r18, r10
     6c6:	a6 01       	movw	r20, r12
     6c8:	8b 81       	ldd	r24, Y+3	; 0x03
     6ca:	9c 81       	ldd	r25, Y+4	; 0x04
     6cc:	0e 94 42 01 	call	0x284	; 0x284 <_ZN4core3dfsEP4nodeiiii>
     6d0:	f2 01       	movw	r30, r4
     6d2:	86 81       	ldd	r24, Z+6	; 0x06
     6d4:	97 81       	ldd	r25, Z+7	; 0x07
     6d6:	40 88       	ldd	r4, Z+16	; 0x10
     6d8:	51 88       	ldd	r5, Z+17	; 0x11
     6da:	41 14       	cp	r4, r1
     6dc:	51 04       	cpc	r5, r1
     6de:	09 f4       	brne	.+2      	; 0x6e2 <__LOCK_REGION_LENGTH__+0x2e2>
     6e0:	5a c0       	rjmp	.+180    	; 0x796 <__LOCK_REGION_LENGTH__+0x396>
     6e2:	01 96       	adiw	r24, 0x01	; 1
     6e4:	f2 01       	movw	r30, r4
     6e6:	26 81       	ldd	r18, Z+6	; 0x06
     6e8:	37 81       	ldd	r19, Z+7	; 0x07
     6ea:	82 17       	cp	r24, r18
     6ec:	93 07       	cpc	r25, r19
     6ee:	14 f4       	brge	.+4      	; 0x6f4 <__LOCK_REGION_LENGTH__+0x2f4>
     6f0:	86 83       	std	Z+6, r24	; 0x06
     6f2:	97 83       	std	Z+7, r25	; 0x07
     6f4:	eb 81       	ldd	r30, Y+3	; 0x03
     6f6:	fc 81       	ldd	r31, Y+4	; 0x04
     6f8:	26 85       	ldd	r18, Z+14	; 0x0e
     6fa:	f2 01       	movw	r30, r4
     6fc:	80 8d       	ldd	r24, Z+24	; 0x18
     6fe:	82 17       	cp	r24, r18
     700:	09 f4       	brne	.+2      	; 0x704 <__LOCK_REGION_LENGTH__+0x304>
     702:	49 c0       	rjmp	.+146    	; 0x796 <__LOCK_REGION_LENGTH__+0x396>
     704:	eb 81       	ldd	r30, Y+3	; 0x03
     706:	fc 81       	ldd	r31, Y+4	; 0x04
     708:	83 89       	ldd	r24, Z+19	; 0x13
     70a:	94 89       	ldd	r25, Z+20	; 0x14
     70c:	01 96       	adiw	r24, 0x01	; 1
     70e:	83 8b       	std	Z+19, r24	; 0x13
     710:	94 8b       	std	Z+20, r25	; 0x14
     712:	f2 01       	movw	r30, r4
     714:	80 81       	ld	r24, Z
     716:	91 81       	ldd	r25, Z+1	; 0x01
     718:	c8 16       	cp	r12, r24
     71a:	d9 06       	cpc	r13, r25
     71c:	71 f4       	brne	.+28     	; 0x73a <__LOCK_REGION_LENGTH__+0x33a>
     71e:	82 81       	ldd	r24, Z+2	; 0x02
     720:	93 81       	ldd	r25, Z+3	; 0x03
     722:	a8 16       	cp	r10, r24
     724:	b9 06       	cpc	r11, r25
     726:	49 f4       	brne	.+18     	; 0x73a <__LOCK_REGION_LENGTH__+0x33a>
     728:	84 81       	ldd	r24, Z+4	; 0x04
     72a:	95 81       	ldd	r25, Z+5	; 0x05
     72c:	88 16       	cp	r8, r24
     72e:	99 06       	cpc	r9, r25
     730:	21 f4       	brne	.+8      	; 0x73a <__LOCK_REGION_LENGTH__+0x33a>
     732:	eb 81       	ldd	r30, Y+3	; 0x03
     734:	fc 81       	ldd	r31, Y+4	; 0x04
     736:	47 86       	std	Z+15, r4	; 0x0f
     738:	50 8a       	std	Z+16, r5	; 0x10
     73a:	f2 01       	movw	r30, r4
     73c:	20 8f       	std	Z+24, r18	; 0x18
     73e:	e6 80       	ldd	r14, Z+6	; 0x06
     740:	f7 80       	ldd	r15, Z+7	; 0x07
     742:	62 85       	ldd	r22, Z+10	; 0x0a
     744:	73 85       	ldd	r23, Z+11	; 0x0b
     746:	84 01       	movw	r16, r8
     748:	95 01       	movw	r18, r10
     74a:	a6 01       	movw	r20, r12
     74c:	8b 81       	ldd	r24, Y+3	; 0x03
     74e:	9c 81       	ldd	r25, Y+4	; 0x04
     750:	0e 94 42 01 	call	0x284	; 0x284 <_ZN4core3dfsEP4nodeiiii>
     754:	f2 01       	movw	r30, r4
     756:	e6 80       	ldd	r14, Z+6	; 0x06
     758:	f7 80       	ldd	r15, Z+7	; 0x07
     75a:	64 85       	ldd	r22, Z+12	; 0x0c
     75c:	75 85       	ldd	r23, Z+13	; 0x0d
     75e:	95 01       	movw	r18, r10
     760:	a6 01       	movw	r20, r12
     762:	8b 81       	ldd	r24, Y+3	; 0x03
     764:	9c 81       	ldd	r25, Y+4	; 0x04
     766:	0e 94 42 01 	call	0x284	; 0x284 <_ZN4core3dfsEP4nodeiiii>
     76a:	f2 01       	movw	r30, r4
     76c:	e6 80       	ldd	r14, Z+6	; 0x06
     76e:	f7 80       	ldd	r15, Z+7	; 0x07
     770:	66 85       	ldd	r22, Z+14	; 0x0e
     772:	77 85       	ldd	r23, Z+15	; 0x0f
     774:	95 01       	movw	r18, r10
     776:	a6 01       	movw	r20, r12
     778:	8b 81       	ldd	r24, Y+3	; 0x03
     77a:	9c 81       	ldd	r25, Y+4	; 0x04
     77c:	0e 94 42 01 	call	0x284	; 0x284 <_ZN4core3dfsEP4nodeiiii>
     780:	f2 01       	movw	r30, r4
     782:	e6 80       	ldd	r14, Z+6	; 0x06
     784:	f7 80       	ldd	r15, Z+7	; 0x07
     786:	60 89       	ldd	r22, Z+16	; 0x10
     788:	71 89       	ldd	r23, Z+17	; 0x11
     78a:	95 01       	movw	r18, r10
     78c:	a6 01       	movw	r20, r12
     78e:	8b 81       	ldd	r24, Y+3	; 0x03
     790:	9c 81       	ldd	r25, Y+4	; 0x04
     792:	0e 94 42 01 	call	0x284	; 0x284 <_ZN4core3dfsEP4nodeiiii>
     796:	f3 01       	movw	r30, r6
     798:	86 81       	ldd	r24, Z+6	; 0x06
     79a:	97 81       	ldd	r25, Z+7	; 0x07
     79c:	44 84       	ldd	r4, Z+12	; 0x0c
     79e:	55 84       	ldd	r5, Z+13	; 0x0d
     7a0:	41 14       	cp	r4, r1
     7a2:	51 04       	cpc	r5, r1
     7a4:	09 f4       	brne	.+2      	; 0x7a8 <__LOCK_REGION_LENGTH__+0x3a8>
     7a6:	27 c6       	rjmp	.+3150   	; 0x13f6 <__LOCK_REGION_LENGTH__+0xff6>
     7a8:	01 96       	adiw	r24, 0x01	; 1
     7aa:	f2 01       	movw	r30, r4
     7ac:	26 81       	ldd	r18, Z+6	; 0x06
     7ae:	37 81       	ldd	r19, Z+7	; 0x07
     7b0:	82 17       	cp	r24, r18
     7b2:	93 07       	cpc	r25, r19
     7b4:	14 f4       	brge	.+4      	; 0x7ba <__LOCK_REGION_LENGTH__+0x3ba>
     7b6:	86 83       	std	Z+6, r24	; 0x06
     7b8:	97 83       	std	Z+7, r25	; 0x07
     7ba:	eb 81       	ldd	r30, Y+3	; 0x03
     7bc:	fc 81       	ldd	r31, Y+4	; 0x04
     7be:	26 85       	ldd	r18, Z+14	; 0x0e
     7c0:	f2 01       	movw	r30, r4
     7c2:	80 8d       	ldd	r24, Z+24	; 0x18
     7c4:	82 17       	cp	r24, r18
     7c6:	09 f4       	brne	.+2      	; 0x7ca <__LOCK_REGION_LENGTH__+0x3ca>
     7c8:	16 c6       	rjmp	.+3116   	; 0x13f6 <__LOCK_REGION_LENGTH__+0xff6>
     7ca:	eb 81       	ldd	r30, Y+3	; 0x03
     7cc:	fc 81       	ldd	r31, Y+4	; 0x04
     7ce:	83 89       	ldd	r24, Z+19	; 0x13
     7d0:	94 89       	ldd	r25, Z+20	; 0x14
     7d2:	01 96       	adiw	r24, 0x01	; 1
     7d4:	83 8b       	std	Z+19, r24	; 0x13
     7d6:	94 8b       	std	Z+20, r25	; 0x14
     7d8:	f2 01       	movw	r30, r4
     7da:	80 81       	ld	r24, Z
     7dc:	91 81       	ldd	r25, Z+1	; 0x01
     7de:	c8 16       	cp	r12, r24
     7e0:	d9 06       	cpc	r13, r25
     7e2:	71 f4       	brne	.+28     	; 0x800 <__LOCK_REGION_LENGTH__+0x400>
     7e4:	82 81       	ldd	r24, Z+2	; 0x02
     7e6:	93 81       	ldd	r25, Z+3	; 0x03
     7e8:	a8 16       	cp	r10, r24
     7ea:	b9 06       	cpc	r11, r25
     7ec:	49 f4       	brne	.+18     	; 0x800 <__LOCK_REGION_LENGTH__+0x400>
     7ee:	84 81       	ldd	r24, Z+4	; 0x04
     7f0:	95 81       	ldd	r25, Z+5	; 0x05
     7f2:	88 16       	cp	r8, r24
     7f4:	99 06       	cpc	r9, r25
     7f6:	21 f4       	brne	.+8      	; 0x800 <__LOCK_REGION_LENGTH__+0x400>
     7f8:	eb 81       	ldd	r30, Y+3	; 0x03
     7fa:	fc 81       	ldd	r31, Y+4	; 0x04
     7fc:	47 86       	std	Z+15, r4	; 0x0f
     7fe:	50 8a       	std	Z+16, r5	; 0x10
     800:	f2 01       	movw	r30, r4
     802:	20 8f       	std	Z+24, r18	; 0x18
     804:	86 81       	ldd	r24, Z+6	; 0x06
     806:	97 81       	ldd	r25, Z+7	; 0x07
     808:	22 84       	ldd	r2, Z+10	; 0x0a
     80a:	33 84       	ldd	r3, Z+11	; 0x0b
     80c:	21 14       	cp	r2, r1
     80e:	31 04       	cpc	r3, r1
     810:	09 f4       	brne	.+2      	; 0x814 <__LOCK_REGION_LENGTH__+0x414>
     812:	d4 c1       	rjmp	.+936    	; 0xbbc <__LOCK_REGION_LENGTH__+0x7bc>
     814:	01 96       	adiw	r24, 0x01	; 1
     816:	f1 01       	movw	r30, r2
     818:	26 81       	ldd	r18, Z+6	; 0x06
     81a:	37 81       	ldd	r19, Z+7	; 0x07
     81c:	82 17       	cp	r24, r18
     81e:	93 07       	cpc	r25, r19
     820:	14 f4       	brge	.+4      	; 0x826 <__LOCK_REGION_LENGTH__+0x426>
     822:	86 83       	std	Z+6, r24	; 0x06
     824:	97 83       	std	Z+7, r25	; 0x07
     826:	eb 81       	ldd	r30, Y+3	; 0x03
     828:	fc 81       	ldd	r31, Y+4	; 0x04
     82a:	26 85       	ldd	r18, Z+14	; 0x0e
     82c:	f1 01       	movw	r30, r2
     82e:	80 8d       	ldd	r24, Z+24	; 0x18
     830:	82 17       	cp	r24, r18
     832:	09 f4       	brne	.+2      	; 0x836 <__LOCK_REGION_LENGTH__+0x436>
     834:	c3 c1       	rjmp	.+902    	; 0xbbc <__LOCK_REGION_LENGTH__+0x7bc>
     836:	eb 81       	ldd	r30, Y+3	; 0x03
     838:	fc 81       	ldd	r31, Y+4	; 0x04
     83a:	83 89       	ldd	r24, Z+19	; 0x13
     83c:	94 89       	ldd	r25, Z+20	; 0x14
     83e:	01 96       	adiw	r24, 0x01	; 1
     840:	83 8b       	std	Z+19, r24	; 0x13
     842:	94 8b       	std	Z+20, r25	; 0x14
     844:	f1 01       	movw	r30, r2
     846:	80 81       	ld	r24, Z
     848:	91 81       	ldd	r25, Z+1	; 0x01
     84a:	c8 16       	cp	r12, r24
     84c:	d9 06       	cpc	r13, r25
     84e:	71 f4       	brne	.+28     	; 0x86c <__LOCK_REGION_LENGTH__+0x46c>
     850:	82 81       	ldd	r24, Z+2	; 0x02
     852:	93 81       	ldd	r25, Z+3	; 0x03
     854:	a8 16       	cp	r10, r24
     856:	b9 06       	cpc	r11, r25
     858:	49 f4       	brne	.+18     	; 0x86c <__LOCK_REGION_LENGTH__+0x46c>
     85a:	84 81       	ldd	r24, Z+4	; 0x04
     85c:	95 81       	ldd	r25, Z+5	; 0x05
     85e:	88 16       	cp	r8, r24
     860:	99 06       	cpc	r9, r25
     862:	21 f4       	brne	.+8      	; 0x86c <__LOCK_REGION_LENGTH__+0x46c>
     864:	eb 81       	ldd	r30, Y+3	; 0x03
     866:	fc 81       	ldd	r31, Y+4	; 0x04
     868:	27 86       	std	Z+15, r2	; 0x0f
     86a:	30 8a       	std	Z+16, r3	; 0x10
     86c:	f1 01       	movw	r30, r2
     86e:	20 8f       	std	Z+24, r18	; 0x18
     870:	86 81       	ldd	r24, Z+6	; 0x06
     872:	97 81       	ldd	r25, Z+7	; 0x07
     874:	22 85       	ldd	r18, Z+10	; 0x0a
     876:	33 85       	ldd	r19, Z+11	; 0x0b
     878:	29 83       	std	Y+1, r18	; 0x01
     87a:	3a 83       	std	Y+2, r19	; 0x02
     87c:	21 15       	cp	r18, r1
     87e:	31 05       	cpc	r19, r1
     880:	09 f4       	brne	.+2      	; 0x884 <__LOCK_REGION_LENGTH__+0x484>
     882:	61 c0       	rjmp	.+194    	; 0x946 <__LOCK_REGION_LENGTH__+0x546>
     884:	01 96       	adiw	r24, 0x01	; 1
     886:	f9 01       	movw	r30, r18
     888:	26 81       	ldd	r18, Z+6	; 0x06
     88a:	37 81       	ldd	r19, Z+7	; 0x07
     88c:	82 17       	cp	r24, r18
     88e:	93 07       	cpc	r25, r19
     890:	14 f4       	brge	.+4      	; 0x896 <__LOCK_REGION_LENGTH__+0x496>
     892:	86 83       	std	Z+6, r24	; 0x06
     894:	97 83       	std	Z+7, r25	; 0x07
     896:	eb 81       	ldd	r30, Y+3	; 0x03
     898:	fc 81       	ldd	r31, Y+4	; 0x04
     89a:	26 85       	ldd	r18, Z+14	; 0x0e
     89c:	e9 81       	ldd	r30, Y+1	; 0x01
     89e:	fa 81       	ldd	r31, Y+2	; 0x02
     8a0:	80 8d       	ldd	r24, Z+24	; 0x18
     8a2:	82 17       	cp	r24, r18
     8a4:	09 f4       	brne	.+2      	; 0x8a8 <__LOCK_REGION_LENGTH__+0x4a8>
     8a6:	4f c0       	rjmp	.+158    	; 0x946 <__LOCK_REGION_LENGTH__+0x546>
     8a8:	eb 81       	ldd	r30, Y+3	; 0x03
     8aa:	fc 81       	ldd	r31, Y+4	; 0x04
     8ac:	83 89       	ldd	r24, Z+19	; 0x13
     8ae:	94 89       	ldd	r25, Z+20	; 0x14
     8b0:	01 96       	adiw	r24, 0x01	; 1
     8b2:	83 8b       	std	Z+19, r24	; 0x13
     8b4:	94 8b       	std	Z+20, r25	; 0x14
     8b6:	e9 81       	ldd	r30, Y+1	; 0x01
     8b8:	fa 81       	ldd	r31, Y+2	; 0x02
     8ba:	80 81       	ld	r24, Z
     8bc:	91 81       	ldd	r25, Z+1	; 0x01
     8be:	c8 16       	cp	r12, r24
     8c0:	d9 06       	cpc	r13, r25
     8c2:	79 f4       	brne	.+30     	; 0x8e2 <__LOCK_REGION_LENGTH__+0x4e2>
     8c4:	82 81       	ldd	r24, Z+2	; 0x02
     8c6:	93 81       	ldd	r25, Z+3	; 0x03
     8c8:	a8 16       	cp	r10, r24
     8ca:	b9 06       	cpc	r11, r25
     8cc:	51 f4       	brne	.+20     	; 0x8e2 <__LOCK_REGION_LENGTH__+0x4e2>
     8ce:	84 81       	ldd	r24, Z+4	; 0x04
     8d0:	95 81       	ldd	r25, Z+5	; 0x05
     8d2:	88 16       	cp	r8, r24
     8d4:	99 06       	cpc	r9, r25
     8d6:	29 f4       	brne	.+10     	; 0x8e2 <__LOCK_REGION_LENGTH__+0x4e2>
     8d8:	cf 01       	movw	r24, r30
     8da:	eb 81       	ldd	r30, Y+3	; 0x03
     8dc:	fc 81       	ldd	r31, Y+4	; 0x04
     8de:	87 87       	std	Z+15, r24	; 0x0f
     8e0:	90 8b       	std	Z+16, r25	; 0x10
     8e2:	e9 81       	ldd	r30, Y+1	; 0x01
     8e4:	fa 81       	ldd	r31, Y+2	; 0x02
     8e6:	20 8f       	std	Z+24, r18	; 0x18
     8e8:	e6 80       	ldd	r14, Z+6	; 0x06
     8ea:	f7 80       	ldd	r15, Z+7	; 0x07
     8ec:	62 85       	ldd	r22, Z+10	; 0x0a
     8ee:	73 85       	ldd	r23, Z+11	; 0x0b
     8f0:	84 01       	movw	r16, r8
     8f2:	95 01       	movw	r18, r10
     8f4:	a6 01       	movw	r20, r12
     8f6:	8b 81       	ldd	r24, Y+3	; 0x03
     8f8:	9c 81       	ldd	r25, Y+4	; 0x04
     8fa:	0e 94 42 01 	call	0x284	; 0x284 <_ZN4core3dfsEP4nodeiiii>
     8fe:	e9 81       	ldd	r30, Y+1	; 0x01
     900:	fa 81       	ldd	r31, Y+2	; 0x02
     902:	e6 80       	ldd	r14, Z+6	; 0x06
     904:	f7 80       	ldd	r15, Z+7	; 0x07
     906:	64 85       	ldd	r22, Z+12	; 0x0c
     908:	75 85       	ldd	r23, Z+13	; 0x0d
     90a:	95 01       	movw	r18, r10
     90c:	a6 01       	movw	r20, r12
     90e:	8b 81       	ldd	r24, Y+3	; 0x03
     910:	9c 81       	ldd	r25, Y+4	; 0x04
     912:	0e 94 42 01 	call	0x284	; 0x284 <_ZN4core3dfsEP4nodeiiii>
     916:	e9 81       	ldd	r30, Y+1	; 0x01
     918:	fa 81       	ldd	r31, Y+2	; 0x02
     91a:	e6 80       	ldd	r14, Z+6	; 0x06
     91c:	f7 80       	ldd	r15, Z+7	; 0x07
     91e:	66 85       	ldd	r22, Z+14	; 0x0e
     920:	77 85       	ldd	r23, Z+15	; 0x0f
     922:	95 01       	movw	r18, r10
     924:	a6 01       	movw	r20, r12
     926:	8b 81       	ldd	r24, Y+3	; 0x03
     928:	9c 81       	ldd	r25, Y+4	; 0x04
     92a:	0e 94 42 01 	call	0x284	; 0x284 <_ZN4core3dfsEP4nodeiiii>
     92e:	e9 81       	ldd	r30, Y+1	; 0x01
     930:	fa 81       	ldd	r31, Y+2	; 0x02
     932:	e6 80       	ldd	r14, Z+6	; 0x06
     934:	f7 80       	ldd	r15, Z+7	; 0x07
     936:	60 89       	ldd	r22, Z+16	; 0x10
     938:	71 89       	ldd	r23, Z+17	; 0x11
     93a:	95 01       	movw	r18, r10
     93c:	a6 01       	movw	r20, r12
     93e:	8b 81       	ldd	r24, Y+3	; 0x03
     940:	9c 81       	ldd	r25, Y+4	; 0x04
     942:	0e 94 42 01 	call	0x284	; 0x284 <_ZN4core3dfsEP4nodeiiii>
     946:	f1 01       	movw	r30, r2
     948:	86 81       	ldd	r24, Z+6	; 0x06
     94a:	97 81       	ldd	r25, Z+7	; 0x07
     94c:	24 85       	ldd	r18, Z+12	; 0x0c
     94e:	35 85       	ldd	r19, Z+13	; 0x0d
     950:	29 83       	std	Y+1, r18	; 0x01
     952:	3a 83       	std	Y+2, r19	; 0x02
     954:	21 15       	cp	r18, r1
     956:	31 05       	cpc	r19, r1
     958:	09 f4       	brne	.+2      	; 0x95c <__LOCK_REGION_LENGTH__+0x55c>
     95a:	61 c0       	rjmp	.+194    	; 0xa1e <__LOCK_REGION_LENGTH__+0x61e>
     95c:	01 96       	adiw	r24, 0x01	; 1
     95e:	f9 01       	movw	r30, r18
     960:	26 81       	ldd	r18, Z+6	; 0x06
     962:	37 81       	ldd	r19, Z+7	; 0x07
     964:	82 17       	cp	r24, r18
     966:	93 07       	cpc	r25, r19
     968:	14 f4       	brge	.+4      	; 0x96e <__LOCK_REGION_LENGTH__+0x56e>
     96a:	86 83       	std	Z+6, r24	; 0x06
     96c:	97 83       	std	Z+7, r25	; 0x07
     96e:	eb 81       	ldd	r30, Y+3	; 0x03
     970:	fc 81       	ldd	r31, Y+4	; 0x04
     972:	26 85       	ldd	r18, Z+14	; 0x0e
     974:	e9 81       	ldd	r30, Y+1	; 0x01
     976:	fa 81       	ldd	r31, Y+2	; 0x02
     978:	80 8d       	ldd	r24, Z+24	; 0x18
     97a:	82 17       	cp	r24, r18
     97c:	09 f4       	brne	.+2      	; 0x980 <__LOCK_REGION_LENGTH__+0x580>
     97e:	4f c0       	rjmp	.+158    	; 0xa1e <__LOCK_REGION_LENGTH__+0x61e>
     980:	eb 81       	ldd	r30, Y+3	; 0x03
     982:	fc 81       	ldd	r31, Y+4	; 0x04
     984:	83 89       	ldd	r24, Z+19	; 0x13
     986:	94 89       	ldd	r25, Z+20	; 0x14
     988:	01 96       	adiw	r24, 0x01	; 1
     98a:	83 8b       	std	Z+19, r24	; 0x13
     98c:	94 8b       	std	Z+20, r25	; 0x14
     98e:	e9 81       	ldd	r30, Y+1	; 0x01
     990:	fa 81       	ldd	r31, Y+2	; 0x02
     992:	80 81       	ld	r24, Z
     994:	91 81       	ldd	r25, Z+1	; 0x01
     996:	c8 16       	cp	r12, r24
     998:	d9 06       	cpc	r13, r25
     99a:	79 f4       	brne	.+30     	; 0x9ba <__LOCK_REGION_LENGTH__+0x5ba>
     99c:	82 81       	ldd	r24, Z+2	; 0x02
     99e:	93 81       	ldd	r25, Z+3	; 0x03
     9a0:	a8 16       	cp	r10, r24
     9a2:	b9 06       	cpc	r11, r25
     9a4:	51 f4       	brne	.+20     	; 0x9ba <__LOCK_REGION_LENGTH__+0x5ba>
     9a6:	84 81       	ldd	r24, Z+4	; 0x04
     9a8:	95 81       	ldd	r25, Z+5	; 0x05
     9aa:	88 16       	cp	r8, r24
     9ac:	99 06       	cpc	r9, r25
     9ae:	29 f4       	brne	.+10     	; 0x9ba <__LOCK_REGION_LENGTH__+0x5ba>
     9b0:	cf 01       	movw	r24, r30
     9b2:	eb 81       	ldd	r30, Y+3	; 0x03
     9b4:	fc 81       	ldd	r31, Y+4	; 0x04
     9b6:	87 87       	std	Z+15, r24	; 0x0f
     9b8:	90 8b       	std	Z+16, r25	; 0x10
     9ba:	e9 81       	ldd	r30, Y+1	; 0x01
     9bc:	fa 81       	ldd	r31, Y+2	; 0x02
     9be:	20 8f       	std	Z+24, r18	; 0x18
     9c0:	e6 80       	ldd	r14, Z+6	; 0x06
     9c2:	f7 80       	ldd	r15, Z+7	; 0x07
     9c4:	62 85       	ldd	r22, Z+10	; 0x0a
     9c6:	73 85       	ldd	r23, Z+11	; 0x0b
     9c8:	84 01       	movw	r16, r8
     9ca:	95 01       	movw	r18, r10
     9cc:	a6 01       	movw	r20, r12
     9ce:	8b 81       	ldd	r24, Y+3	; 0x03
     9d0:	9c 81       	ldd	r25, Y+4	; 0x04
     9d2:	0e 94 42 01 	call	0x284	; 0x284 <_ZN4core3dfsEP4nodeiiii>
     9d6:	e9 81       	ldd	r30, Y+1	; 0x01
     9d8:	fa 81       	ldd	r31, Y+2	; 0x02
     9da:	e6 80       	ldd	r14, Z+6	; 0x06
     9dc:	f7 80       	ldd	r15, Z+7	; 0x07
     9de:	64 85       	ldd	r22, Z+12	; 0x0c
     9e0:	75 85       	ldd	r23, Z+13	; 0x0d
     9e2:	95 01       	movw	r18, r10
     9e4:	a6 01       	movw	r20, r12
     9e6:	8b 81       	ldd	r24, Y+3	; 0x03
     9e8:	9c 81       	ldd	r25, Y+4	; 0x04
     9ea:	0e 94 42 01 	call	0x284	; 0x284 <_ZN4core3dfsEP4nodeiiii>
     9ee:	e9 81       	ldd	r30, Y+1	; 0x01
     9f0:	fa 81       	ldd	r31, Y+2	; 0x02
     9f2:	e6 80       	ldd	r14, Z+6	; 0x06
     9f4:	f7 80       	ldd	r15, Z+7	; 0x07
     9f6:	66 85       	ldd	r22, Z+14	; 0x0e
     9f8:	77 85       	ldd	r23, Z+15	; 0x0f
     9fa:	95 01       	movw	r18, r10
     9fc:	a6 01       	movw	r20, r12
     9fe:	8b 81       	ldd	r24, Y+3	; 0x03
     a00:	9c 81       	ldd	r25, Y+4	; 0x04
     a02:	0e 94 42 01 	call	0x284	; 0x284 <_ZN4core3dfsEP4nodeiiii>
     a06:	e9 81       	ldd	r30, Y+1	; 0x01
     a08:	fa 81       	ldd	r31, Y+2	; 0x02
     a0a:	e6 80       	ldd	r14, Z+6	; 0x06
     a0c:	f7 80       	ldd	r15, Z+7	; 0x07
     a0e:	60 89       	ldd	r22, Z+16	; 0x10
     a10:	71 89       	ldd	r23, Z+17	; 0x11
     a12:	95 01       	movw	r18, r10
     a14:	a6 01       	movw	r20, r12
     a16:	8b 81       	ldd	r24, Y+3	; 0x03
     a18:	9c 81       	ldd	r25, Y+4	; 0x04
     a1a:	0e 94 42 01 	call	0x284	; 0x284 <_ZN4core3dfsEP4nodeiiii>
     a1e:	f1 01       	movw	r30, r2
     a20:	86 81       	ldd	r24, Z+6	; 0x06
     a22:	97 81       	ldd	r25, Z+7	; 0x07
     a24:	26 85       	ldd	r18, Z+14	; 0x0e
     a26:	37 85       	ldd	r19, Z+15	; 0x0f
     a28:	29 83       	std	Y+1, r18	; 0x01
     a2a:	3a 83       	std	Y+2, r19	; 0x02
     a2c:	21 15       	cp	r18, r1
     a2e:	31 05       	cpc	r19, r1
     a30:	09 f4       	brne	.+2      	; 0xa34 <__LOCK_REGION_LENGTH__+0x634>
     a32:	61 c0       	rjmp	.+194    	; 0xaf6 <__LOCK_REGION_LENGTH__+0x6f6>
     a34:	01 96       	adiw	r24, 0x01	; 1
     a36:	f9 01       	movw	r30, r18
     a38:	26 81       	ldd	r18, Z+6	; 0x06
     a3a:	37 81       	ldd	r19, Z+7	; 0x07
     a3c:	82 17       	cp	r24, r18
     a3e:	93 07       	cpc	r25, r19
     a40:	14 f4       	brge	.+4      	; 0xa46 <__LOCK_REGION_LENGTH__+0x646>
     a42:	86 83       	std	Z+6, r24	; 0x06
     a44:	97 83       	std	Z+7, r25	; 0x07
     a46:	eb 81       	ldd	r30, Y+3	; 0x03
     a48:	fc 81       	ldd	r31, Y+4	; 0x04
     a4a:	26 85       	ldd	r18, Z+14	; 0x0e
     a4c:	e9 81       	ldd	r30, Y+1	; 0x01
     a4e:	fa 81       	ldd	r31, Y+2	; 0x02
     a50:	80 8d       	ldd	r24, Z+24	; 0x18
     a52:	82 17       	cp	r24, r18
     a54:	09 f4       	brne	.+2      	; 0xa58 <__LOCK_REGION_LENGTH__+0x658>
     a56:	4f c0       	rjmp	.+158    	; 0xaf6 <__LOCK_REGION_LENGTH__+0x6f6>
     a58:	eb 81       	ldd	r30, Y+3	; 0x03
     a5a:	fc 81       	ldd	r31, Y+4	; 0x04
     a5c:	83 89       	ldd	r24, Z+19	; 0x13
     a5e:	94 89       	ldd	r25, Z+20	; 0x14
     a60:	01 96       	adiw	r24, 0x01	; 1
     a62:	83 8b       	std	Z+19, r24	; 0x13
     a64:	94 8b       	std	Z+20, r25	; 0x14
     a66:	e9 81       	ldd	r30, Y+1	; 0x01
     a68:	fa 81       	ldd	r31, Y+2	; 0x02
     a6a:	80 81       	ld	r24, Z
     a6c:	91 81       	ldd	r25, Z+1	; 0x01
     a6e:	c8 16       	cp	r12, r24
     a70:	d9 06       	cpc	r13, r25
     a72:	79 f4       	brne	.+30     	; 0xa92 <__LOCK_REGION_LENGTH__+0x692>
     a74:	82 81       	ldd	r24, Z+2	; 0x02
     a76:	93 81       	ldd	r25, Z+3	; 0x03
     a78:	a8 16       	cp	r10, r24
     a7a:	b9 06       	cpc	r11, r25
     a7c:	51 f4       	brne	.+20     	; 0xa92 <__LOCK_REGION_LENGTH__+0x692>
     a7e:	84 81       	ldd	r24, Z+4	; 0x04
     a80:	95 81       	ldd	r25, Z+5	; 0x05
     a82:	88 16       	cp	r8, r24
     a84:	99 06       	cpc	r9, r25
     a86:	29 f4       	brne	.+10     	; 0xa92 <__LOCK_REGION_LENGTH__+0x692>
     a88:	cf 01       	movw	r24, r30
     a8a:	eb 81       	ldd	r30, Y+3	; 0x03
     a8c:	fc 81       	ldd	r31, Y+4	; 0x04
     a8e:	87 87       	std	Z+15, r24	; 0x0f
     a90:	90 8b       	std	Z+16, r25	; 0x10
     a92:	e9 81       	ldd	r30, Y+1	; 0x01
     a94:	fa 81       	ldd	r31, Y+2	; 0x02
     a96:	20 8f       	std	Z+24, r18	; 0x18
     a98:	e6 80       	ldd	r14, Z+6	; 0x06
     a9a:	f7 80       	ldd	r15, Z+7	; 0x07
     a9c:	62 85       	ldd	r22, Z+10	; 0x0a
     a9e:	73 85       	ldd	r23, Z+11	; 0x0b
     aa0:	84 01       	movw	r16, r8
     aa2:	95 01       	movw	r18, r10
     aa4:	a6 01       	movw	r20, r12
     aa6:	8b 81       	ldd	r24, Y+3	; 0x03
     aa8:	9c 81       	ldd	r25, Y+4	; 0x04
     aaa:	0e 94 42 01 	call	0x284	; 0x284 <_ZN4core3dfsEP4nodeiiii>
     aae:	e9 81       	ldd	r30, Y+1	; 0x01
     ab0:	fa 81       	ldd	r31, Y+2	; 0x02
     ab2:	e6 80       	ldd	r14, Z+6	; 0x06
     ab4:	f7 80       	ldd	r15, Z+7	; 0x07
     ab6:	64 85       	ldd	r22, Z+12	; 0x0c
     ab8:	75 85       	ldd	r23, Z+13	; 0x0d
     aba:	95 01       	movw	r18, r10
     abc:	a6 01       	movw	r20, r12
     abe:	8b 81       	ldd	r24, Y+3	; 0x03
     ac0:	9c 81       	ldd	r25, Y+4	; 0x04
     ac2:	0e 94 42 01 	call	0x284	; 0x284 <_ZN4core3dfsEP4nodeiiii>
     ac6:	e9 81       	ldd	r30, Y+1	; 0x01
     ac8:	fa 81       	ldd	r31, Y+2	; 0x02
     aca:	e6 80       	ldd	r14, Z+6	; 0x06
     acc:	f7 80       	ldd	r15, Z+7	; 0x07
     ace:	66 85       	ldd	r22, Z+14	; 0x0e
     ad0:	77 85       	ldd	r23, Z+15	; 0x0f
     ad2:	95 01       	movw	r18, r10
     ad4:	a6 01       	movw	r20, r12
     ad6:	8b 81       	ldd	r24, Y+3	; 0x03
     ad8:	9c 81       	ldd	r25, Y+4	; 0x04
     ada:	0e 94 42 01 	call	0x284	; 0x284 <_ZN4core3dfsEP4nodeiiii>
     ade:	e9 81       	ldd	r30, Y+1	; 0x01
     ae0:	fa 81       	ldd	r31, Y+2	; 0x02
     ae2:	e6 80       	ldd	r14, Z+6	; 0x06
     ae4:	f7 80       	ldd	r15, Z+7	; 0x07
     ae6:	60 89       	ldd	r22, Z+16	; 0x10
     ae8:	71 89       	ldd	r23, Z+17	; 0x11
     aea:	95 01       	movw	r18, r10
     aec:	a6 01       	movw	r20, r12
     aee:	8b 81       	ldd	r24, Y+3	; 0x03
     af0:	9c 81       	ldd	r25, Y+4	; 0x04
     af2:	0e 94 42 01 	call	0x284	; 0x284 <_ZN4core3dfsEP4nodeiiii>
     af6:	f1 01       	movw	r30, r2
     af8:	86 81       	ldd	r24, Z+6	; 0x06
     afa:	97 81       	ldd	r25, Z+7	; 0x07
     afc:	20 88       	ldd	r2, Z+16	; 0x10
     afe:	31 88       	ldd	r3, Z+17	; 0x11
     b00:	21 14       	cp	r2, r1
     b02:	31 04       	cpc	r3, r1
     b04:	09 f4       	brne	.+2      	; 0xb08 <__LOCK_REGION_LENGTH__+0x708>
     b06:	5a c0       	rjmp	.+180    	; 0xbbc <__LOCK_REGION_LENGTH__+0x7bc>
     b08:	01 96       	adiw	r24, 0x01	; 1
     b0a:	f1 01       	movw	r30, r2
     b0c:	26 81       	ldd	r18, Z+6	; 0x06
     b0e:	37 81       	ldd	r19, Z+7	; 0x07
     b10:	82 17       	cp	r24, r18
     b12:	93 07       	cpc	r25, r19
     b14:	14 f4       	brge	.+4      	; 0xb1a <__LOCK_REGION_LENGTH__+0x71a>
     b16:	86 83       	std	Z+6, r24	; 0x06
     b18:	97 83       	std	Z+7, r25	; 0x07
     b1a:	eb 81       	ldd	r30, Y+3	; 0x03
     b1c:	fc 81       	ldd	r31, Y+4	; 0x04
     b1e:	26 85       	ldd	r18, Z+14	; 0x0e
     b20:	f1 01       	movw	r30, r2
     b22:	80 8d       	ldd	r24, Z+24	; 0x18
     b24:	82 17       	cp	r24, r18
     b26:	09 f4       	brne	.+2      	; 0xb2a <__LOCK_REGION_LENGTH__+0x72a>
     b28:	49 c0       	rjmp	.+146    	; 0xbbc <__LOCK_REGION_LENGTH__+0x7bc>
     b2a:	eb 81       	ldd	r30, Y+3	; 0x03
     b2c:	fc 81       	ldd	r31, Y+4	; 0x04
     b2e:	83 89       	ldd	r24, Z+19	; 0x13
     b30:	94 89       	ldd	r25, Z+20	; 0x14
     b32:	01 96       	adiw	r24, 0x01	; 1
     b34:	83 8b       	std	Z+19, r24	; 0x13
     b36:	94 8b       	std	Z+20, r25	; 0x14
     b38:	f1 01       	movw	r30, r2
     b3a:	80 81       	ld	r24, Z
     b3c:	91 81       	ldd	r25, Z+1	; 0x01
     b3e:	c8 16       	cp	r12, r24
     b40:	d9 06       	cpc	r13, r25
     b42:	71 f4       	brne	.+28     	; 0xb60 <__LOCK_REGION_LENGTH__+0x760>
     b44:	82 81       	ldd	r24, Z+2	; 0x02
     b46:	93 81       	ldd	r25, Z+3	; 0x03
     b48:	a8 16       	cp	r10, r24
     b4a:	b9 06       	cpc	r11, r25
     b4c:	49 f4       	brne	.+18     	; 0xb60 <__LOCK_REGION_LENGTH__+0x760>
     b4e:	84 81       	ldd	r24, Z+4	; 0x04
     b50:	95 81       	ldd	r25, Z+5	; 0x05
     b52:	88 16       	cp	r8, r24
     b54:	99 06       	cpc	r9, r25
     b56:	21 f4       	brne	.+8      	; 0xb60 <__LOCK_REGION_LENGTH__+0x760>
     b58:	eb 81       	ldd	r30, Y+3	; 0x03
     b5a:	fc 81       	ldd	r31, Y+4	; 0x04
     b5c:	27 86       	std	Z+15, r2	; 0x0f
     b5e:	30 8a       	std	Z+16, r3	; 0x10
     b60:	f1 01       	movw	r30, r2
     b62:	20 8f       	std	Z+24, r18	; 0x18
     b64:	e6 80       	ldd	r14, Z+6	; 0x06
     b66:	f7 80       	ldd	r15, Z+7	; 0x07
     b68:	62 85       	ldd	r22, Z+10	; 0x0a
     b6a:	73 85       	ldd	r23, Z+11	; 0x0b
     b6c:	84 01       	movw	r16, r8
     b6e:	95 01       	movw	r18, r10
     b70:	a6 01       	movw	r20, r12
     b72:	8b 81       	ldd	r24, Y+3	; 0x03
     b74:	9c 81       	ldd	r25, Y+4	; 0x04
     b76:	0e 94 42 01 	call	0x284	; 0x284 <_ZN4core3dfsEP4nodeiiii>
     b7a:	f1 01       	movw	r30, r2
     b7c:	e6 80       	ldd	r14, Z+6	; 0x06
     b7e:	f7 80       	ldd	r15, Z+7	; 0x07
     b80:	64 85       	ldd	r22, Z+12	; 0x0c
     b82:	75 85       	ldd	r23, Z+13	; 0x0d
     b84:	95 01       	movw	r18, r10
     b86:	a6 01       	movw	r20, r12
     b88:	8b 81       	ldd	r24, Y+3	; 0x03
     b8a:	9c 81       	ldd	r25, Y+4	; 0x04
     b8c:	0e 94 42 01 	call	0x284	; 0x284 <_ZN4core3dfsEP4nodeiiii>
     b90:	f1 01       	movw	r30, r2
     b92:	e6 80       	ldd	r14, Z+6	; 0x06
     b94:	f7 80       	ldd	r15, Z+7	; 0x07
     b96:	66 85       	ldd	r22, Z+14	; 0x0e
     b98:	77 85       	ldd	r23, Z+15	; 0x0f
     b9a:	95 01       	movw	r18, r10
     b9c:	a6 01       	movw	r20, r12
     b9e:	8b 81       	ldd	r24, Y+3	; 0x03
     ba0:	9c 81       	ldd	r25, Y+4	; 0x04
     ba2:	0e 94 42 01 	call	0x284	; 0x284 <_ZN4core3dfsEP4nodeiiii>
     ba6:	f1 01       	movw	r30, r2
     ba8:	e6 80       	ldd	r14, Z+6	; 0x06
     baa:	f7 80       	ldd	r15, Z+7	; 0x07
     bac:	60 89       	ldd	r22, Z+16	; 0x10
     bae:	71 89       	ldd	r23, Z+17	; 0x11
     bb0:	95 01       	movw	r18, r10
     bb2:	a6 01       	movw	r20, r12
     bb4:	8b 81       	ldd	r24, Y+3	; 0x03
     bb6:	9c 81       	ldd	r25, Y+4	; 0x04
     bb8:	0e 94 42 01 	call	0x284	; 0x284 <_ZN4core3dfsEP4nodeiiii>
     bbc:	f2 01       	movw	r30, r4
     bbe:	86 81       	ldd	r24, Z+6	; 0x06
     bc0:	97 81       	ldd	r25, Z+7	; 0x07
     bc2:	24 84       	ldd	r2, Z+12	; 0x0c
     bc4:	35 84       	ldd	r3, Z+13	; 0x0d
     bc6:	21 14       	cp	r2, r1
     bc8:	31 04       	cpc	r3, r1
     bca:	09 f4       	brne	.+2      	; 0xbce <__LOCK_REGION_LENGTH__+0x7ce>
     bcc:	d4 c1       	rjmp	.+936    	; 0xf76 <__LOCK_REGION_LENGTH__+0xb76>
     bce:	01 96       	adiw	r24, 0x01	; 1
     bd0:	f1 01       	movw	r30, r2
     bd2:	26 81       	ldd	r18, Z+6	; 0x06
     bd4:	37 81       	ldd	r19, Z+7	; 0x07
     bd6:	82 17       	cp	r24, r18
     bd8:	93 07       	cpc	r25, r19
     bda:	14 f4       	brge	.+4      	; 0xbe0 <__LOCK_REGION_LENGTH__+0x7e0>
     bdc:	86 83       	std	Z+6, r24	; 0x06
     bde:	97 83       	std	Z+7, r25	; 0x07
     be0:	eb 81       	ldd	r30, Y+3	; 0x03
     be2:	fc 81       	ldd	r31, Y+4	; 0x04
     be4:	26 85       	ldd	r18, Z+14	; 0x0e
     be6:	f1 01       	movw	r30, r2
     be8:	80 8d       	ldd	r24, Z+24	; 0x18
     bea:	82 17       	cp	r24, r18
     bec:	09 f4       	brne	.+2      	; 0xbf0 <__LOCK_REGION_LENGTH__+0x7f0>
     bee:	c3 c1       	rjmp	.+902    	; 0xf76 <__LOCK_REGION_LENGTH__+0xb76>
     bf0:	eb 81       	ldd	r30, Y+3	; 0x03
     bf2:	fc 81       	ldd	r31, Y+4	; 0x04
     bf4:	83 89       	ldd	r24, Z+19	; 0x13
     bf6:	94 89       	ldd	r25, Z+20	; 0x14
     bf8:	01 96       	adiw	r24, 0x01	; 1
     bfa:	83 8b       	std	Z+19, r24	; 0x13
     bfc:	94 8b       	std	Z+20, r25	; 0x14
     bfe:	f1 01       	movw	r30, r2
     c00:	80 81       	ld	r24, Z
     c02:	91 81       	ldd	r25, Z+1	; 0x01
     c04:	c8 16       	cp	r12, r24
     c06:	d9 06       	cpc	r13, r25
     c08:	71 f4       	brne	.+28     	; 0xc26 <__LOCK_REGION_LENGTH__+0x826>
     c0a:	82 81       	ldd	r24, Z+2	; 0x02
     c0c:	93 81       	ldd	r25, Z+3	; 0x03
     c0e:	a8 16       	cp	r10, r24
     c10:	b9 06       	cpc	r11, r25
     c12:	49 f4       	brne	.+18     	; 0xc26 <__LOCK_REGION_LENGTH__+0x826>
     c14:	84 81       	ldd	r24, Z+4	; 0x04
     c16:	95 81       	ldd	r25, Z+5	; 0x05
     c18:	88 16       	cp	r8, r24
     c1a:	99 06       	cpc	r9, r25
     c1c:	21 f4       	brne	.+8      	; 0xc26 <__LOCK_REGION_LENGTH__+0x826>
     c1e:	eb 81       	ldd	r30, Y+3	; 0x03
     c20:	fc 81       	ldd	r31, Y+4	; 0x04
     c22:	27 86       	std	Z+15, r2	; 0x0f
     c24:	30 8a       	std	Z+16, r3	; 0x10
     c26:	f1 01       	movw	r30, r2
     c28:	20 8f       	std	Z+24, r18	; 0x18
     c2a:	86 81       	ldd	r24, Z+6	; 0x06
     c2c:	97 81       	ldd	r25, Z+7	; 0x07
     c2e:	22 85       	ldd	r18, Z+10	; 0x0a
     c30:	33 85       	ldd	r19, Z+11	; 0x0b
     c32:	29 83       	std	Y+1, r18	; 0x01
     c34:	3a 83       	std	Y+2, r19	; 0x02
     c36:	21 15       	cp	r18, r1
     c38:	31 05       	cpc	r19, r1
     c3a:	09 f4       	brne	.+2      	; 0xc3e <__LOCK_REGION_LENGTH__+0x83e>
     c3c:	61 c0       	rjmp	.+194    	; 0xd00 <__LOCK_REGION_LENGTH__+0x900>
     c3e:	01 96       	adiw	r24, 0x01	; 1
     c40:	f9 01       	movw	r30, r18
     c42:	26 81       	ldd	r18, Z+6	; 0x06
     c44:	37 81       	ldd	r19, Z+7	; 0x07
     c46:	82 17       	cp	r24, r18
     c48:	93 07       	cpc	r25, r19
     c4a:	14 f4       	brge	.+4      	; 0xc50 <__LOCK_REGION_LENGTH__+0x850>
     c4c:	86 83       	std	Z+6, r24	; 0x06
     c4e:	97 83       	std	Z+7, r25	; 0x07
     c50:	eb 81       	ldd	r30, Y+3	; 0x03
     c52:	fc 81       	ldd	r31, Y+4	; 0x04
     c54:	26 85       	ldd	r18, Z+14	; 0x0e
     c56:	e9 81       	ldd	r30, Y+1	; 0x01
     c58:	fa 81       	ldd	r31, Y+2	; 0x02
     c5a:	80 8d       	ldd	r24, Z+24	; 0x18
     c5c:	82 17       	cp	r24, r18
     c5e:	09 f4       	brne	.+2      	; 0xc62 <__LOCK_REGION_LENGTH__+0x862>
     c60:	4f c0       	rjmp	.+158    	; 0xd00 <__LOCK_REGION_LENGTH__+0x900>
     c62:	eb 81       	ldd	r30, Y+3	; 0x03
     c64:	fc 81       	ldd	r31, Y+4	; 0x04
     c66:	83 89       	ldd	r24, Z+19	; 0x13
     c68:	94 89       	ldd	r25, Z+20	; 0x14
     c6a:	01 96       	adiw	r24, 0x01	; 1
     c6c:	83 8b       	std	Z+19, r24	; 0x13
     c6e:	94 8b       	std	Z+20, r25	; 0x14
     c70:	e9 81       	ldd	r30, Y+1	; 0x01
     c72:	fa 81       	ldd	r31, Y+2	; 0x02
     c74:	80 81       	ld	r24, Z
     c76:	91 81       	ldd	r25, Z+1	; 0x01
     c78:	c8 16       	cp	r12, r24
     c7a:	d9 06       	cpc	r13, r25
     c7c:	79 f4       	brne	.+30     	; 0xc9c <__LOCK_REGION_LENGTH__+0x89c>
     c7e:	82 81       	ldd	r24, Z+2	; 0x02
     c80:	93 81       	ldd	r25, Z+3	; 0x03
     c82:	a8 16       	cp	r10, r24
     c84:	b9 06       	cpc	r11, r25
     c86:	51 f4       	brne	.+20     	; 0xc9c <__LOCK_REGION_LENGTH__+0x89c>
     c88:	84 81       	ldd	r24, Z+4	; 0x04
     c8a:	95 81       	ldd	r25, Z+5	; 0x05
     c8c:	88 16       	cp	r8, r24
     c8e:	99 06       	cpc	r9, r25
     c90:	29 f4       	brne	.+10     	; 0xc9c <__LOCK_REGION_LENGTH__+0x89c>
     c92:	cf 01       	movw	r24, r30
     c94:	eb 81       	ldd	r30, Y+3	; 0x03
     c96:	fc 81       	ldd	r31, Y+4	; 0x04
     c98:	87 87       	std	Z+15, r24	; 0x0f
     c9a:	90 8b       	std	Z+16, r25	; 0x10
     c9c:	e9 81       	ldd	r30, Y+1	; 0x01
     c9e:	fa 81       	ldd	r31, Y+2	; 0x02
     ca0:	20 8f       	std	Z+24, r18	; 0x18
     ca2:	e6 80       	ldd	r14, Z+6	; 0x06
     ca4:	f7 80       	ldd	r15, Z+7	; 0x07
     ca6:	62 85       	ldd	r22, Z+10	; 0x0a
     ca8:	73 85       	ldd	r23, Z+11	; 0x0b
     caa:	84 01       	movw	r16, r8
     cac:	95 01       	movw	r18, r10
     cae:	a6 01       	movw	r20, r12
     cb0:	8b 81       	ldd	r24, Y+3	; 0x03
     cb2:	9c 81       	ldd	r25, Y+4	; 0x04
     cb4:	0e 94 42 01 	call	0x284	; 0x284 <_ZN4core3dfsEP4nodeiiii>
     cb8:	e9 81       	ldd	r30, Y+1	; 0x01
     cba:	fa 81       	ldd	r31, Y+2	; 0x02
     cbc:	e6 80       	ldd	r14, Z+6	; 0x06
     cbe:	f7 80       	ldd	r15, Z+7	; 0x07
     cc0:	64 85       	ldd	r22, Z+12	; 0x0c
     cc2:	75 85       	ldd	r23, Z+13	; 0x0d
     cc4:	95 01       	movw	r18, r10
     cc6:	a6 01       	movw	r20, r12
     cc8:	8b 81       	ldd	r24, Y+3	; 0x03
     cca:	9c 81       	ldd	r25, Y+4	; 0x04
     ccc:	0e 94 42 01 	call	0x284	; 0x284 <_ZN4core3dfsEP4nodeiiii>
     cd0:	e9 81       	ldd	r30, Y+1	; 0x01
     cd2:	fa 81       	ldd	r31, Y+2	; 0x02
     cd4:	e6 80       	ldd	r14, Z+6	; 0x06
     cd6:	f7 80       	ldd	r15, Z+7	; 0x07
     cd8:	66 85       	ldd	r22, Z+14	; 0x0e
     cda:	77 85       	ldd	r23, Z+15	; 0x0f
     cdc:	95 01       	movw	r18, r10
     cde:	a6 01       	movw	r20, r12
     ce0:	8b 81       	ldd	r24, Y+3	; 0x03
     ce2:	9c 81       	ldd	r25, Y+4	; 0x04
     ce4:	0e 94 42 01 	call	0x284	; 0x284 <_ZN4core3dfsEP4nodeiiii>
     ce8:	e9 81       	ldd	r30, Y+1	; 0x01
     cea:	fa 81       	ldd	r31, Y+2	; 0x02
     cec:	e6 80       	ldd	r14, Z+6	; 0x06
     cee:	f7 80       	ldd	r15, Z+7	; 0x07
     cf0:	60 89       	ldd	r22, Z+16	; 0x10
     cf2:	71 89       	ldd	r23, Z+17	; 0x11
     cf4:	95 01       	movw	r18, r10
     cf6:	a6 01       	movw	r20, r12
     cf8:	8b 81       	ldd	r24, Y+3	; 0x03
     cfa:	9c 81       	ldd	r25, Y+4	; 0x04
     cfc:	0e 94 42 01 	call	0x284	; 0x284 <_ZN4core3dfsEP4nodeiiii>
     d00:	f1 01       	movw	r30, r2
     d02:	86 81       	ldd	r24, Z+6	; 0x06
     d04:	97 81       	ldd	r25, Z+7	; 0x07
     d06:	24 85       	ldd	r18, Z+12	; 0x0c
     d08:	35 85       	ldd	r19, Z+13	; 0x0d
     d0a:	29 83       	std	Y+1, r18	; 0x01
     d0c:	3a 83       	std	Y+2, r19	; 0x02
     d0e:	21 15       	cp	r18, r1
     d10:	31 05       	cpc	r19, r1
     d12:	09 f4       	brne	.+2      	; 0xd16 <__LOCK_REGION_LENGTH__+0x916>
     d14:	61 c0       	rjmp	.+194    	; 0xdd8 <__LOCK_REGION_LENGTH__+0x9d8>
     d16:	01 96       	adiw	r24, 0x01	; 1
     d18:	f9 01       	movw	r30, r18
     d1a:	26 81       	ldd	r18, Z+6	; 0x06
     d1c:	37 81       	ldd	r19, Z+7	; 0x07
     d1e:	82 17       	cp	r24, r18
     d20:	93 07       	cpc	r25, r19
     d22:	14 f4       	brge	.+4      	; 0xd28 <__LOCK_REGION_LENGTH__+0x928>
     d24:	86 83       	std	Z+6, r24	; 0x06
     d26:	97 83       	std	Z+7, r25	; 0x07
     d28:	eb 81       	ldd	r30, Y+3	; 0x03
     d2a:	fc 81       	ldd	r31, Y+4	; 0x04
     d2c:	26 85       	ldd	r18, Z+14	; 0x0e
     d2e:	e9 81       	ldd	r30, Y+1	; 0x01
     d30:	fa 81       	ldd	r31, Y+2	; 0x02
     d32:	80 8d       	ldd	r24, Z+24	; 0x18
     d34:	82 17       	cp	r24, r18
     d36:	09 f4       	brne	.+2      	; 0xd3a <__LOCK_REGION_LENGTH__+0x93a>
     d38:	4f c0       	rjmp	.+158    	; 0xdd8 <__LOCK_REGION_LENGTH__+0x9d8>
     d3a:	eb 81       	ldd	r30, Y+3	; 0x03
     d3c:	fc 81       	ldd	r31, Y+4	; 0x04
     d3e:	83 89       	ldd	r24, Z+19	; 0x13
     d40:	94 89       	ldd	r25, Z+20	; 0x14
     d42:	01 96       	adiw	r24, 0x01	; 1
     d44:	83 8b       	std	Z+19, r24	; 0x13
     d46:	94 8b       	std	Z+20, r25	; 0x14
     d48:	e9 81       	ldd	r30, Y+1	; 0x01
     d4a:	fa 81       	ldd	r31, Y+2	; 0x02
     d4c:	80 81       	ld	r24, Z
     d4e:	91 81       	ldd	r25, Z+1	; 0x01
     d50:	c8 16       	cp	r12, r24
     d52:	d9 06       	cpc	r13, r25
     d54:	79 f4       	brne	.+30     	; 0xd74 <__LOCK_REGION_LENGTH__+0x974>
     d56:	82 81       	ldd	r24, Z+2	; 0x02
     d58:	93 81       	ldd	r25, Z+3	; 0x03
     d5a:	a8 16       	cp	r10, r24
     d5c:	b9 06       	cpc	r11, r25
     d5e:	51 f4       	brne	.+20     	; 0xd74 <__LOCK_REGION_LENGTH__+0x974>
     d60:	84 81       	ldd	r24, Z+4	; 0x04
     d62:	95 81       	ldd	r25, Z+5	; 0x05
     d64:	88 16       	cp	r8, r24
     d66:	99 06       	cpc	r9, r25
     d68:	29 f4       	brne	.+10     	; 0xd74 <__LOCK_REGION_LENGTH__+0x974>
     d6a:	cf 01       	movw	r24, r30
     d6c:	eb 81       	ldd	r30, Y+3	; 0x03
     d6e:	fc 81       	ldd	r31, Y+4	; 0x04
     d70:	87 87       	std	Z+15, r24	; 0x0f
     d72:	90 8b       	std	Z+16, r25	; 0x10
     d74:	e9 81       	ldd	r30, Y+1	; 0x01
     d76:	fa 81       	ldd	r31, Y+2	; 0x02
     d78:	20 8f       	std	Z+24, r18	; 0x18
     d7a:	e6 80       	ldd	r14, Z+6	; 0x06
     d7c:	f7 80       	ldd	r15, Z+7	; 0x07
     d7e:	62 85       	ldd	r22, Z+10	; 0x0a
     d80:	73 85       	ldd	r23, Z+11	; 0x0b
     d82:	84 01       	movw	r16, r8
     d84:	95 01       	movw	r18, r10
     d86:	a6 01       	movw	r20, r12
     d88:	8b 81       	ldd	r24, Y+3	; 0x03
     d8a:	9c 81       	ldd	r25, Y+4	; 0x04
     d8c:	0e 94 42 01 	call	0x284	; 0x284 <_ZN4core3dfsEP4nodeiiii>
     d90:	e9 81       	ldd	r30, Y+1	; 0x01
     d92:	fa 81       	ldd	r31, Y+2	; 0x02
     d94:	e6 80       	ldd	r14, Z+6	; 0x06
     d96:	f7 80       	ldd	r15, Z+7	; 0x07
     d98:	64 85       	ldd	r22, Z+12	; 0x0c
     d9a:	75 85       	ldd	r23, Z+13	; 0x0d
     d9c:	95 01       	movw	r18, r10
     d9e:	a6 01       	movw	r20, r12
     da0:	8b 81       	ldd	r24, Y+3	; 0x03
     da2:	9c 81       	ldd	r25, Y+4	; 0x04
     da4:	0e 94 42 01 	call	0x284	; 0x284 <_ZN4core3dfsEP4nodeiiii>
     da8:	e9 81       	ldd	r30, Y+1	; 0x01
     daa:	fa 81       	ldd	r31, Y+2	; 0x02
     dac:	e6 80       	ldd	r14, Z+6	; 0x06
     dae:	f7 80       	ldd	r15, Z+7	; 0x07
     db0:	66 85       	ldd	r22, Z+14	; 0x0e
     db2:	77 85       	ldd	r23, Z+15	; 0x0f
     db4:	95 01       	movw	r18, r10
     db6:	a6 01       	movw	r20, r12
     db8:	8b 81       	ldd	r24, Y+3	; 0x03
     dba:	9c 81       	ldd	r25, Y+4	; 0x04
     dbc:	0e 94 42 01 	call	0x284	; 0x284 <_ZN4core3dfsEP4nodeiiii>
     dc0:	e9 81       	ldd	r30, Y+1	; 0x01
     dc2:	fa 81       	ldd	r31, Y+2	; 0x02
     dc4:	e6 80       	ldd	r14, Z+6	; 0x06
     dc6:	f7 80       	ldd	r15, Z+7	; 0x07
     dc8:	60 89       	ldd	r22, Z+16	; 0x10
     dca:	71 89       	ldd	r23, Z+17	; 0x11
     dcc:	95 01       	movw	r18, r10
     dce:	a6 01       	movw	r20, r12
     dd0:	8b 81       	ldd	r24, Y+3	; 0x03
     dd2:	9c 81       	ldd	r25, Y+4	; 0x04
     dd4:	0e 94 42 01 	call	0x284	; 0x284 <_ZN4core3dfsEP4nodeiiii>
     dd8:	f1 01       	movw	r30, r2
     dda:	86 81       	ldd	r24, Z+6	; 0x06
     ddc:	97 81       	ldd	r25, Z+7	; 0x07
     dde:	26 85       	ldd	r18, Z+14	; 0x0e
     de0:	37 85       	ldd	r19, Z+15	; 0x0f
     de2:	29 83       	std	Y+1, r18	; 0x01
     de4:	3a 83       	std	Y+2, r19	; 0x02
     de6:	21 15       	cp	r18, r1
     de8:	31 05       	cpc	r19, r1
     dea:	09 f4       	brne	.+2      	; 0xdee <__LOCK_REGION_LENGTH__+0x9ee>
     dec:	61 c0       	rjmp	.+194    	; 0xeb0 <__LOCK_REGION_LENGTH__+0xab0>
     dee:	01 96       	adiw	r24, 0x01	; 1
     df0:	f9 01       	movw	r30, r18
     df2:	26 81       	ldd	r18, Z+6	; 0x06
     df4:	37 81       	ldd	r19, Z+7	; 0x07
     df6:	82 17       	cp	r24, r18
     df8:	93 07       	cpc	r25, r19
     dfa:	14 f4       	brge	.+4      	; 0xe00 <__LOCK_REGION_LENGTH__+0xa00>
     dfc:	86 83       	std	Z+6, r24	; 0x06
     dfe:	97 83       	std	Z+7, r25	; 0x07
     e00:	eb 81       	ldd	r30, Y+3	; 0x03
     e02:	fc 81       	ldd	r31, Y+4	; 0x04
     e04:	26 85       	ldd	r18, Z+14	; 0x0e
     e06:	e9 81       	ldd	r30, Y+1	; 0x01
     e08:	fa 81       	ldd	r31, Y+2	; 0x02
     e0a:	80 8d       	ldd	r24, Z+24	; 0x18
     e0c:	82 17       	cp	r24, r18
     e0e:	09 f4       	brne	.+2      	; 0xe12 <__LOCK_REGION_LENGTH__+0xa12>
     e10:	4f c0       	rjmp	.+158    	; 0xeb0 <__LOCK_REGION_LENGTH__+0xab0>
     e12:	eb 81       	ldd	r30, Y+3	; 0x03
     e14:	fc 81       	ldd	r31, Y+4	; 0x04
     e16:	83 89       	ldd	r24, Z+19	; 0x13
     e18:	94 89       	ldd	r25, Z+20	; 0x14
     e1a:	01 96       	adiw	r24, 0x01	; 1
     e1c:	83 8b       	std	Z+19, r24	; 0x13
     e1e:	94 8b       	std	Z+20, r25	; 0x14
     e20:	e9 81       	ldd	r30, Y+1	; 0x01
     e22:	fa 81       	ldd	r31, Y+2	; 0x02
     e24:	80 81       	ld	r24, Z
     e26:	91 81       	ldd	r25, Z+1	; 0x01
     e28:	c8 16       	cp	r12, r24
     e2a:	d9 06       	cpc	r13, r25
     e2c:	79 f4       	brne	.+30     	; 0xe4c <__LOCK_REGION_LENGTH__+0xa4c>
     e2e:	82 81       	ldd	r24, Z+2	; 0x02
     e30:	93 81       	ldd	r25, Z+3	; 0x03
     e32:	a8 16       	cp	r10, r24
     e34:	b9 06       	cpc	r11, r25
     e36:	51 f4       	brne	.+20     	; 0xe4c <__LOCK_REGION_LENGTH__+0xa4c>
     e38:	84 81       	ldd	r24, Z+4	; 0x04
     e3a:	95 81       	ldd	r25, Z+5	; 0x05
     e3c:	88 16       	cp	r8, r24
     e3e:	99 06       	cpc	r9, r25
     e40:	29 f4       	brne	.+10     	; 0xe4c <__LOCK_REGION_LENGTH__+0xa4c>
     e42:	cf 01       	movw	r24, r30
     e44:	eb 81       	ldd	r30, Y+3	; 0x03
     e46:	fc 81       	ldd	r31, Y+4	; 0x04
     e48:	87 87       	std	Z+15, r24	; 0x0f
     e4a:	90 8b       	std	Z+16, r25	; 0x10
     e4c:	e9 81       	ldd	r30, Y+1	; 0x01
     e4e:	fa 81       	ldd	r31, Y+2	; 0x02
     e50:	20 8f       	std	Z+24, r18	; 0x18
     e52:	e6 80       	ldd	r14, Z+6	; 0x06
     e54:	f7 80       	ldd	r15, Z+7	; 0x07
     e56:	62 85       	ldd	r22, Z+10	; 0x0a
     e58:	73 85       	ldd	r23, Z+11	; 0x0b
     e5a:	84 01       	movw	r16, r8
     e5c:	95 01       	movw	r18, r10
     e5e:	a6 01       	movw	r20, r12
     e60:	8b 81       	ldd	r24, Y+3	; 0x03
     e62:	9c 81       	ldd	r25, Y+4	; 0x04
     e64:	0e 94 42 01 	call	0x284	; 0x284 <_ZN4core3dfsEP4nodeiiii>
     e68:	e9 81       	ldd	r30, Y+1	; 0x01
     e6a:	fa 81       	ldd	r31, Y+2	; 0x02
     e6c:	e6 80       	ldd	r14, Z+6	; 0x06
     e6e:	f7 80       	ldd	r15, Z+7	; 0x07
     e70:	64 85       	ldd	r22, Z+12	; 0x0c
     e72:	75 85       	ldd	r23, Z+13	; 0x0d
     e74:	95 01       	movw	r18, r10
     e76:	a6 01       	movw	r20, r12
     e78:	8b 81       	ldd	r24, Y+3	; 0x03
     e7a:	9c 81       	ldd	r25, Y+4	; 0x04
     e7c:	0e 94 42 01 	call	0x284	; 0x284 <_ZN4core3dfsEP4nodeiiii>
     e80:	e9 81       	ldd	r30, Y+1	; 0x01
     e82:	fa 81       	ldd	r31, Y+2	; 0x02
     e84:	e6 80       	ldd	r14, Z+6	; 0x06
     e86:	f7 80       	ldd	r15, Z+7	; 0x07
     e88:	66 85       	ldd	r22, Z+14	; 0x0e
     e8a:	77 85       	ldd	r23, Z+15	; 0x0f
     e8c:	95 01       	movw	r18, r10
     e8e:	a6 01       	movw	r20, r12
     e90:	8b 81       	ldd	r24, Y+3	; 0x03
     e92:	9c 81       	ldd	r25, Y+4	; 0x04
     e94:	0e 94 42 01 	call	0x284	; 0x284 <_ZN4core3dfsEP4nodeiiii>
     e98:	e9 81       	ldd	r30, Y+1	; 0x01
     e9a:	fa 81       	ldd	r31, Y+2	; 0x02
     e9c:	e6 80       	ldd	r14, Z+6	; 0x06
     e9e:	f7 80       	ldd	r15, Z+7	; 0x07
     ea0:	60 89       	ldd	r22, Z+16	; 0x10
     ea2:	71 89       	ldd	r23, Z+17	; 0x11
     ea4:	95 01       	movw	r18, r10
     ea6:	a6 01       	movw	r20, r12
     ea8:	8b 81       	ldd	r24, Y+3	; 0x03
     eaa:	9c 81       	ldd	r25, Y+4	; 0x04
     eac:	0e 94 42 01 	call	0x284	; 0x284 <_ZN4core3dfsEP4nodeiiii>
     eb0:	f1 01       	movw	r30, r2
     eb2:	86 81       	ldd	r24, Z+6	; 0x06
     eb4:	97 81       	ldd	r25, Z+7	; 0x07
     eb6:	20 88       	ldd	r2, Z+16	; 0x10
     eb8:	31 88       	ldd	r3, Z+17	; 0x11
     eba:	21 14       	cp	r2, r1
     ebc:	31 04       	cpc	r3, r1
     ebe:	09 f4       	brne	.+2      	; 0xec2 <__LOCK_REGION_LENGTH__+0xac2>
     ec0:	5a c0       	rjmp	.+180    	; 0xf76 <__LOCK_REGION_LENGTH__+0xb76>
     ec2:	01 96       	adiw	r24, 0x01	; 1
     ec4:	f1 01       	movw	r30, r2
     ec6:	26 81       	ldd	r18, Z+6	; 0x06
     ec8:	37 81       	ldd	r19, Z+7	; 0x07
     eca:	82 17       	cp	r24, r18
     ecc:	93 07       	cpc	r25, r19
     ece:	14 f4       	brge	.+4      	; 0xed4 <__LOCK_REGION_LENGTH__+0xad4>
     ed0:	86 83       	std	Z+6, r24	; 0x06
     ed2:	97 83       	std	Z+7, r25	; 0x07
     ed4:	eb 81       	ldd	r30, Y+3	; 0x03
     ed6:	fc 81       	ldd	r31, Y+4	; 0x04
     ed8:	26 85       	ldd	r18, Z+14	; 0x0e
     eda:	f1 01       	movw	r30, r2
     edc:	80 8d       	ldd	r24, Z+24	; 0x18
     ede:	82 17       	cp	r24, r18
     ee0:	09 f4       	brne	.+2      	; 0xee4 <__LOCK_REGION_LENGTH__+0xae4>
     ee2:	49 c0       	rjmp	.+146    	; 0xf76 <__LOCK_REGION_LENGTH__+0xb76>
     ee4:	eb 81       	ldd	r30, Y+3	; 0x03
     ee6:	fc 81       	ldd	r31, Y+4	; 0x04
     ee8:	83 89       	ldd	r24, Z+19	; 0x13
     eea:	94 89       	ldd	r25, Z+20	; 0x14
     eec:	01 96       	adiw	r24, 0x01	; 1
     eee:	83 8b       	std	Z+19, r24	; 0x13
     ef0:	94 8b       	std	Z+20, r25	; 0x14
     ef2:	f1 01       	movw	r30, r2
     ef4:	80 81       	ld	r24, Z
     ef6:	91 81       	ldd	r25, Z+1	; 0x01
     ef8:	c8 16       	cp	r12, r24
     efa:	d9 06       	cpc	r13, r25
     efc:	71 f4       	brne	.+28     	; 0xf1a <__LOCK_REGION_LENGTH__+0xb1a>
     efe:	82 81       	ldd	r24, Z+2	; 0x02
     f00:	93 81       	ldd	r25, Z+3	; 0x03
     f02:	a8 16       	cp	r10, r24
     f04:	b9 06       	cpc	r11, r25
     f06:	49 f4       	brne	.+18     	; 0xf1a <__LOCK_REGION_LENGTH__+0xb1a>
     f08:	84 81       	ldd	r24, Z+4	; 0x04
     f0a:	95 81       	ldd	r25, Z+5	; 0x05
     f0c:	88 16       	cp	r8, r24
     f0e:	99 06       	cpc	r9, r25
     f10:	21 f4       	brne	.+8      	; 0xf1a <__LOCK_REGION_LENGTH__+0xb1a>
     f12:	eb 81       	ldd	r30, Y+3	; 0x03
     f14:	fc 81       	ldd	r31, Y+4	; 0x04
     f16:	27 86       	std	Z+15, r2	; 0x0f
     f18:	30 8a       	std	Z+16, r3	; 0x10
     f1a:	f1 01       	movw	r30, r2
     f1c:	20 8f       	std	Z+24, r18	; 0x18
     f1e:	e6 80       	ldd	r14, Z+6	; 0x06
     f20:	f7 80       	ldd	r15, Z+7	; 0x07
     f22:	62 85       	ldd	r22, Z+10	; 0x0a
     f24:	73 85       	ldd	r23, Z+11	; 0x0b
     f26:	84 01       	movw	r16, r8
     f28:	95 01       	movw	r18, r10
     f2a:	a6 01       	movw	r20, r12
     f2c:	8b 81       	ldd	r24, Y+3	; 0x03
     f2e:	9c 81       	ldd	r25, Y+4	; 0x04
     f30:	0e 94 42 01 	call	0x284	; 0x284 <_ZN4core3dfsEP4nodeiiii>
     f34:	f1 01       	movw	r30, r2
     f36:	e6 80       	ldd	r14, Z+6	; 0x06
     f38:	f7 80       	ldd	r15, Z+7	; 0x07
     f3a:	64 85       	ldd	r22, Z+12	; 0x0c
     f3c:	75 85       	ldd	r23, Z+13	; 0x0d
     f3e:	95 01       	movw	r18, r10
     f40:	a6 01       	movw	r20, r12
     f42:	8b 81       	ldd	r24, Y+3	; 0x03
     f44:	9c 81       	ldd	r25, Y+4	; 0x04
     f46:	0e 94 42 01 	call	0x284	; 0x284 <_ZN4core3dfsEP4nodeiiii>
     f4a:	f1 01       	movw	r30, r2
     f4c:	e6 80       	ldd	r14, Z+6	; 0x06
     f4e:	f7 80       	ldd	r15, Z+7	; 0x07
     f50:	66 85       	ldd	r22, Z+14	; 0x0e
     f52:	77 85       	ldd	r23, Z+15	; 0x0f
     f54:	95 01       	movw	r18, r10
     f56:	a6 01       	movw	r20, r12
     f58:	8b 81       	ldd	r24, Y+3	; 0x03
     f5a:	9c 81       	ldd	r25, Y+4	; 0x04
     f5c:	0e 94 42 01 	call	0x284	; 0x284 <_ZN4core3dfsEP4nodeiiii>
     f60:	f1 01       	movw	r30, r2
     f62:	e6 80       	ldd	r14, Z+6	; 0x06
     f64:	f7 80       	ldd	r15, Z+7	; 0x07
     f66:	60 89       	ldd	r22, Z+16	; 0x10
     f68:	71 89       	ldd	r23, Z+17	; 0x11
     f6a:	95 01       	movw	r18, r10
     f6c:	a6 01       	movw	r20, r12
     f6e:	8b 81       	ldd	r24, Y+3	; 0x03
     f70:	9c 81       	ldd	r25, Y+4	; 0x04
     f72:	0e 94 42 01 	call	0x284	; 0x284 <_ZN4core3dfsEP4nodeiiii>
     f76:	f2 01       	movw	r30, r4
     f78:	86 81       	ldd	r24, Z+6	; 0x06
     f7a:	97 81       	ldd	r25, Z+7	; 0x07
     f7c:	26 84       	ldd	r2, Z+14	; 0x0e
     f7e:	37 84       	ldd	r3, Z+15	; 0x0f
     f80:	21 14       	cp	r2, r1
     f82:	31 04       	cpc	r3, r1
     f84:	09 f4       	brne	.+2      	; 0xf88 <__LOCK_REGION_LENGTH__+0xb88>
     f86:	d4 c1       	rjmp	.+936    	; 0x1330 <__LOCK_REGION_LENGTH__+0xf30>
     f88:	01 96       	adiw	r24, 0x01	; 1
     f8a:	f1 01       	movw	r30, r2
     f8c:	26 81       	ldd	r18, Z+6	; 0x06
     f8e:	37 81       	ldd	r19, Z+7	; 0x07
     f90:	82 17       	cp	r24, r18
     f92:	93 07       	cpc	r25, r19
     f94:	14 f4       	brge	.+4      	; 0xf9a <__LOCK_REGION_LENGTH__+0xb9a>
     f96:	86 83       	std	Z+6, r24	; 0x06
     f98:	97 83       	std	Z+7, r25	; 0x07
     f9a:	eb 81       	ldd	r30, Y+3	; 0x03
     f9c:	fc 81       	ldd	r31, Y+4	; 0x04
     f9e:	26 85       	ldd	r18, Z+14	; 0x0e
     fa0:	f1 01       	movw	r30, r2
     fa2:	80 8d       	ldd	r24, Z+24	; 0x18
     fa4:	82 17       	cp	r24, r18
     fa6:	09 f4       	brne	.+2      	; 0xfaa <__LOCK_REGION_LENGTH__+0xbaa>
     fa8:	c3 c1       	rjmp	.+902    	; 0x1330 <__LOCK_REGION_LENGTH__+0xf30>
     faa:	eb 81       	ldd	r30, Y+3	; 0x03
     fac:	fc 81       	ldd	r31, Y+4	; 0x04
     fae:	83 89       	ldd	r24, Z+19	; 0x13
     fb0:	94 89       	ldd	r25, Z+20	; 0x14
     fb2:	01 96       	adiw	r24, 0x01	; 1
     fb4:	83 8b       	std	Z+19, r24	; 0x13
     fb6:	94 8b       	std	Z+20, r25	; 0x14
     fb8:	f1 01       	movw	r30, r2
     fba:	80 81       	ld	r24, Z
     fbc:	91 81       	ldd	r25, Z+1	; 0x01
     fbe:	c8 16       	cp	r12, r24
     fc0:	d9 06       	cpc	r13, r25
     fc2:	71 f4       	brne	.+28     	; 0xfe0 <__LOCK_REGION_LENGTH__+0xbe0>
     fc4:	82 81       	ldd	r24, Z+2	; 0x02
     fc6:	93 81       	ldd	r25, Z+3	; 0x03
     fc8:	a8 16       	cp	r10, r24
     fca:	b9 06       	cpc	r11, r25
     fcc:	49 f4       	brne	.+18     	; 0xfe0 <__LOCK_REGION_LENGTH__+0xbe0>
     fce:	84 81       	ldd	r24, Z+4	; 0x04
     fd0:	95 81       	ldd	r25, Z+5	; 0x05
     fd2:	88 16       	cp	r8, r24
     fd4:	99 06       	cpc	r9, r25
     fd6:	21 f4       	brne	.+8      	; 0xfe0 <__LOCK_REGION_LENGTH__+0xbe0>
     fd8:	eb 81       	ldd	r30, Y+3	; 0x03
     fda:	fc 81       	ldd	r31, Y+4	; 0x04
     fdc:	27 86       	std	Z+15, r2	; 0x0f
     fde:	30 8a       	std	Z+16, r3	; 0x10
     fe0:	f1 01       	movw	r30, r2
     fe2:	20 8f       	std	Z+24, r18	; 0x18
     fe4:	86 81       	ldd	r24, Z+6	; 0x06
     fe6:	97 81       	ldd	r25, Z+7	; 0x07
     fe8:	22 85       	ldd	r18, Z+10	; 0x0a
     fea:	33 85       	ldd	r19, Z+11	; 0x0b
     fec:	29 83       	std	Y+1, r18	; 0x01
     fee:	3a 83       	std	Y+2, r19	; 0x02
     ff0:	21 15       	cp	r18, r1
     ff2:	31 05       	cpc	r19, r1
     ff4:	09 f4       	brne	.+2      	; 0xff8 <__LOCK_REGION_LENGTH__+0xbf8>
     ff6:	61 c0       	rjmp	.+194    	; 0x10ba <__LOCK_REGION_LENGTH__+0xcba>
     ff8:	01 96       	adiw	r24, 0x01	; 1
     ffa:	f9 01       	movw	r30, r18
     ffc:	26 81       	ldd	r18, Z+6	; 0x06
     ffe:	37 81       	ldd	r19, Z+7	; 0x07
    1000:	82 17       	cp	r24, r18
    1002:	93 07       	cpc	r25, r19
    1004:	14 f4       	brge	.+4      	; 0x100a <__LOCK_REGION_LENGTH__+0xc0a>
    1006:	86 83       	std	Z+6, r24	; 0x06
    1008:	97 83       	std	Z+7, r25	; 0x07
    100a:	eb 81       	ldd	r30, Y+3	; 0x03
    100c:	fc 81       	ldd	r31, Y+4	; 0x04
    100e:	26 85       	ldd	r18, Z+14	; 0x0e
    1010:	e9 81       	ldd	r30, Y+1	; 0x01
    1012:	fa 81       	ldd	r31, Y+2	; 0x02
    1014:	80 8d       	ldd	r24, Z+24	; 0x18
    1016:	82 17       	cp	r24, r18
    1018:	09 f4       	brne	.+2      	; 0x101c <__LOCK_REGION_LENGTH__+0xc1c>
    101a:	4f c0       	rjmp	.+158    	; 0x10ba <__LOCK_REGION_LENGTH__+0xcba>
    101c:	eb 81       	ldd	r30, Y+3	; 0x03
    101e:	fc 81       	ldd	r31, Y+4	; 0x04
    1020:	83 89       	ldd	r24, Z+19	; 0x13
    1022:	94 89       	ldd	r25, Z+20	; 0x14
    1024:	01 96       	adiw	r24, 0x01	; 1
    1026:	83 8b       	std	Z+19, r24	; 0x13
    1028:	94 8b       	std	Z+20, r25	; 0x14
    102a:	e9 81       	ldd	r30, Y+1	; 0x01
    102c:	fa 81       	ldd	r31, Y+2	; 0x02
    102e:	80 81       	ld	r24, Z
    1030:	91 81       	ldd	r25, Z+1	; 0x01
    1032:	c8 16       	cp	r12, r24
    1034:	d9 06       	cpc	r13, r25
    1036:	79 f4       	brne	.+30     	; 0x1056 <__LOCK_REGION_LENGTH__+0xc56>
    1038:	82 81       	ldd	r24, Z+2	; 0x02
    103a:	93 81       	ldd	r25, Z+3	; 0x03
    103c:	a8 16       	cp	r10, r24
    103e:	b9 06       	cpc	r11, r25
    1040:	51 f4       	brne	.+20     	; 0x1056 <__LOCK_REGION_LENGTH__+0xc56>
    1042:	84 81       	ldd	r24, Z+4	; 0x04
    1044:	95 81       	ldd	r25, Z+5	; 0x05
    1046:	88 16       	cp	r8, r24
    1048:	99 06       	cpc	r9, r25
    104a:	29 f4       	brne	.+10     	; 0x1056 <__LOCK_REGION_LENGTH__+0xc56>
    104c:	cf 01       	movw	r24, r30
    104e:	eb 81       	ldd	r30, Y+3	; 0x03
    1050:	fc 81       	ldd	r31, Y+4	; 0x04
    1052:	87 87       	std	Z+15, r24	; 0x0f
    1054:	90 8b       	std	Z+16, r25	; 0x10
    1056:	e9 81       	ldd	r30, Y+1	; 0x01
    1058:	fa 81       	ldd	r31, Y+2	; 0x02
    105a:	20 8f       	std	Z+24, r18	; 0x18
    105c:	e6 80       	ldd	r14, Z+6	; 0x06
    105e:	f7 80       	ldd	r15, Z+7	; 0x07
    1060:	62 85       	ldd	r22, Z+10	; 0x0a
    1062:	73 85       	ldd	r23, Z+11	; 0x0b
    1064:	84 01       	movw	r16, r8
    1066:	95 01       	movw	r18, r10
    1068:	a6 01       	movw	r20, r12
    106a:	8b 81       	ldd	r24, Y+3	; 0x03
    106c:	9c 81       	ldd	r25, Y+4	; 0x04
    106e:	0e 94 42 01 	call	0x284	; 0x284 <_ZN4core3dfsEP4nodeiiii>
    1072:	e9 81       	ldd	r30, Y+1	; 0x01
    1074:	fa 81       	ldd	r31, Y+2	; 0x02
    1076:	e6 80       	ldd	r14, Z+6	; 0x06
    1078:	f7 80       	ldd	r15, Z+7	; 0x07
    107a:	64 85       	ldd	r22, Z+12	; 0x0c
    107c:	75 85       	ldd	r23, Z+13	; 0x0d
    107e:	95 01       	movw	r18, r10
    1080:	a6 01       	movw	r20, r12
    1082:	8b 81       	ldd	r24, Y+3	; 0x03
    1084:	9c 81       	ldd	r25, Y+4	; 0x04
    1086:	0e 94 42 01 	call	0x284	; 0x284 <_ZN4core3dfsEP4nodeiiii>
    108a:	e9 81       	ldd	r30, Y+1	; 0x01
    108c:	fa 81       	ldd	r31, Y+2	; 0x02
    108e:	e6 80       	ldd	r14, Z+6	; 0x06
    1090:	f7 80       	ldd	r15, Z+7	; 0x07
    1092:	66 85       	ldd	r22, Z+14	; 0x0e
    1094:	77 85       	ldd	r23, Z+15	; 0x0f
    1096:	95 01       	movw	r18, r10
    1098:	a6 01       	movw	r20, r12
    109a:	8b 81       	ldd	r24, Y+3	; 0x03
    109c:	9c 81       	ldd	r25, Y+4	; 0x04
    109e:	0e 94 42 01 	call	0x284	; 0x284 <_ZN4core3dfsEP4nodeiiii>
    10a2:	e9 81       	ldd	r30, Y+1	; 0x01
    10a4:	fa 81       	ldd	r31, Y+2	; 0x02
    10a6:	e6 80       	ldd	r14, Z+6	; 0x06
    10a8:	f7 80       	ldd	r15, Z+7	; 0x07
    10aa:	60 89       	ldd	r22, Z+16	; 0x10
    10ac:	71 89       	ldd	r23, Z+17	; 0x11
    10ae:	95 01       	movw	r18, r10
    10b0:	a6 01       	movw	r20, r12
    10b2:	8b 81       	ldd	r24, Y+3	; 0x03
    10b4:	9c 81       	ldd	r25, Y+4	; 0x04
    10b6:	0e 94 42 01 	call	0x284	; 0x284 <_ZN4core3dfsEP4nodeiiii>
    10ba:	f1 01       	movw	r30, r2
    10bc:	86 81       	ldd	r24, Z+6	; 0x06
    10be:	97 81       	ldd	r25, Z+7	; 0x07
    10c0:	24 85       	ldd	r18, Z+12	; 0x0c
    10c2:	35 85       	ldd	r19, Z+13	; 0x0d
    10c4:	29 83       	std	Y+1, r18	; 0x01
    10c6:	3a 83       	std	Y+2, r19	; 0x02
    10c8:	21 15       	cp	r18, r1
    10ca:	31 05       	cpc	r19, r1
    10cc:	09 f4       	brne	.+2      	; 0x10d0 <__LOCK_REGION_LENGTH__+0xcd0>
    10ce:	61 c0       	rjmp	.+194    	; 0x1192 <__LOCK_REGION_LENGTH__+0xd92>
    10d0:	01 96       	adiw	r24, 0x01	; 1
    10d2:	f9 01       	movw	r30, r18
    10d4:	26 81       	ldd	r18, Z+6	; 0x06
    10d6:	37 81       	ldd	r19, Z+7	; 0x07
    10d8:	82 17       	cp	r24, r18
    10da:	93 07       	cpc	r25, r19
    10dc:	14 f4       	brge	.+4      	; 0x10e2 <__LOCK_REGION_LENGTH__+0xce2>
    10de:	86 83       	std	Z+6, r24	; 0x06
    10e0:	97 83       	std	Z+7, r25	; 0x07
    10e2:	eb 81       	ldd	r30, Y+3	; 0x03
    10e4:	fc 81       	ldd	r31, Y+4	; 0x04
    10e6:	26 85       	ldd	r18, Z+14	; 0x0e
    10e8:	e9 81       	ldd	r30, Y+1	; 0x01
    10ea:	fa 81       	ldd	r31, Y+2	; 0x02
    10ec:	80 8d       	ldd	r24, Z+24	; 0x18
    10ee:	82 17       	cp	r24, r18
    10f0:	09 f4       	brne	.+2      	; 0x10f4 <__LOCK_REGION_LENGTH__+0xcf4>
    10f2:	4f c0       	rjmp	.+158    	; 0x1192 <__LOCK_REGION_LENGTH__+0xd92>
    10f4:	eb 81       	ldd	r30, Y+3	; 0x03
    10f6:	fc 81       	ldd	r31, Y+4	; 0x04
    10f8:	83 89       	ldd	r24, Z+19	; 0x13
    10fa:	94 89       	ldd	r25, Z+20	; 0x14
    10fc:	01 96       	adiw	r24, 0x01	; 1
    10fe:	83 8b       	std	Z+19, r24	; 0x13
    1100:	94 8b       	std	Z+20, r25	; 0x14
    1102:	e9 81       	ldd	r30, Y+1	; 0x01
    1104:	fa 81       	ldd	r31, Y+2	; 0x02
    1106:	80 81       	ld	r24, Z
    1108:	91 81       	ldd	r25, Z+1	; 0x01
    110a:	c8 16       	cp	r12, r24
    110c:	d9 06       	cpc	r13, r25
    110e:	79 f4       	brne	.+30     	; 0x112e <__LOCK_REGION_LENGTH__+0xd2e>
    1110:	82 81       	ldd	r24, Z+2	; 0x02
    1112:	93 81       	ldd	r25, Z+3	; 0x03
    1114:	a8 16       	cp	r10, r24
    1116:	b9 06       	cpc	r11, r25
    1118:	51 f4       	brne	.+20     	; 0x112e <__LOCK_REGION_LENGTH__+0xd2e>
    111a:	84 81       	ldd	r24, Z+4	; 0x04
    111c:	95 81       	ldd	r25, Z+5	; 0x05
    111e:	88 16       	cp	r8, r24
    1120:	99 06       	cpc	r9, r25
    1122:	29 f4       	brne	.+10     	; 0x112e <__LOCK_REGION_LENGTH__+0xd2e>
    1124:	cf 01       	movw	r24, r30
    1126:	eb 81       	ldd	r30, Y+3	; 0x03
    1128:	fc 81       	ldd	r31, Y+4	; 0x04
    112a:	87 87       	std	Z+15, r24	; 0x0f
    112c:	90 8b       	std	Z+16, r25	; 0x10
    112e:	e9 81       	ldd	r30, Y+1	; 0x01
    1130:	fa 81       	ldd	r31, Y+2	; 0x02
    1132:	20 8f       	std	Z+24, r18	; 0x18
    1134:	e6 80       	ldd	r14, Z+6	; 0x06
    1136:	f7 80       	ldd	r15, Z+7	; 0x07
    1138:	62 85       	ldd	r22, Z+10	; 0x0a
    113a:	73 85       	ldd	r23, Z+11	; 0x0b
    113c:	84 01       	movw	r16, r8
    113e:	95 01       	movw	r18, r10
    1140:	a6 01       	movw	r20, r12
    1142:	8b 81       	ldd	r24, Y+3	; 0x03
    1144:	9c 81       	ldd	r25, Y+4	; 0x04
    1146:	0e 94 42 01 	call	0x284	; 0x284 <_ZN4core3dfsEP4nodeiiii>
    114a:	e9 81       	ldd	r30, Y+1	; 0x01
    114c:	fa 81       	ldd	r31, Y+2	; 0x02
    114e:	e6 80       	ldd	r14, Z+6	; 0x06
    1150:	f7 80       	ldd	r15, Z+7	; 0x07
    1152:	64 85       	ldd	r22, Z+12	; 0x0c
    1154:	75 85       	ldd	r23, Z+13	; 0x0d
    1156:	95 01       	movw	r18, r10
    1158:	a6 01       	movw	r20, r12
    115a:	8b 81       	ldd	r24, Y+3	; 0x03
    115c:	9c 81       	ldd	r25, Y+4	; 0x04
    115e:	0e 94 42 01 	call	0x284	; 0x284 <_ZN4core3dfsEP4nodeiiii>
    1162:	e9 81       	ldd	r30, Y+1	; 0x01
    1164:	fa 81       	ldd	r31, Y+2	; 0x02
    1166:	e6 80       	ldd	r14, Z+6	; 0x06
    1168:	f7 80       	ldd	r15, Z+7	; 0x07
    116a:	66 85       	ldd	r22, Z+14	; 0x0e
    116c:	77 85       	ldd	r23, Z+15	; 0x0f
    116e:	95 01       	movw	r18, r10
    1170:	a6 01       	movw	r20, r12
    1172:	8b 81       	ldd	r24, Y+3	; 0x03
    1174:	9c 81       	ldd	r25, Y+4	; 0x04
    1176:	0e 94 42 01 	call	0x284	; 0x284 <_ZN4core3dfsEP4nodeiiii>
    117a:	e9 81       	ldd	r30, Y+1	; 0x01
    117c:	fa 81       	ldd	r31, Y+2	; 0x02
    117e:	e6 80       	ldd	r14, Z+6	; 0x06
    1180:	f7 80       	ldd	r15, Z+7	; 0x07
    1182:	60 89       	ldd	r22, Z+16	; 0x10
    1184:	71 89       	ldd	r23, Z+17	; 0x11
    1186:	95 01       	movw	r18, r10
    1188:	a6 01       	movw	r20, r12
    118a:	8b 81       	ldd	r24, Y+3	; 0x03
    118c:	9c 81       	ldd	r25, Y+4	; 0x04
    118e:	0e 94 42 01 	call	0x284	; 0x284 <_ZN4core3dfsEP4nodeiiii>
    1192:	f1 01       	movw	r30, r2
    1194:	86 81       	ldd	r24, Z+6	; 0x06
    1196:	97 81       	ldd	r25, Z+7	; 0x07
    1198:	26 85       	ldd	r18, Z+14	; 0x0e
    119a:	37 85       	ldd	r19, Z+15	; 0x0f
    119c:	29 83       	std	Y+1, r18	; 0x01
    119e:	3a 83       	std	Y+2, r19	; 0x02
    11a0:	21 15       	cp	r18, r1
    11a2:	31 05       	cpc	r19, r1
    11a4:	09 f4       	brne	.+2      	; 0x11a8 <__LOCK_REGION_LENGTH__+0xda8>
    11a6:	61 c0       	rjmp	.+194    	; 0x126a <__LOCK_REGION_LENGTH__+0xe6a>
    11a8:	01 96       	adiw	r24, 0x01	; 1
    11aa:	f9 01       	movw	r30, r18
    11ac:	26 81       	ldd	r18, Z+6	; 0x06
    11ae:	37 81       	ldd	r19, Z+7	; 0x07
    11b0:	82 17       	cp	r24, r18
    11b2:	93 07       	cpc	r25, r19
    11b4:	14 f4       	brge	.+4      	; 0x11ba <__LOCK_REGION_LENGTH__+0xdba>
    11b6:	86 83       	std	Z+6, r24	; 0x06
    11b8:	97 83       	std	Z+7, r25	; 0x07
    11ba:	eb 81       	ldd	r30, Y+3	; 0x03
    11bc:	fc 81       	ldd	r31, Y+4	; 0x04
    11be:	26 85       	ldd	r18, Z+14	; 0x0e
    11c0:	e9 81       	ldd	r30, Y+1	; 0x01
    11c2:	fa 81       	ldd	r31, Y+2	; 0x02
    11c4:	80 8d       	ldd	r24, Z+24	; 0x18
    11c6:	82 17       	cp	r24, r18
    11c8:	09 f4       	brne	.+2      	; 0x11cc <__LOCK_REGION_LENGTH__+0xdcc>
    11ca:	4f c0       	rjmp	.+158    	; 0x126a <__LOCK_REGION_LENGTH__+0xe6a>
    11cc:	eb 81       	ldd	r30, Y+3	; 0x03
    11ce:	fc 81       	ldd	r31, Y+4	; 0x04
    11d0:	83 89       	ldd	r24, Z+19	; 0x13
    11d2:	94 89       	ldd	r25, Z+20	; 0x14
    11d4:	01 96       	adiw	r24, 0x01	; 1
    11d6:	83 8b       	std	Z+19, r24	; 0x13
    11d8:	94 8b       	std	Z+20, r25	; 0x14
    11da:	e9 81       	ldd	r30, Y+1	; 0x01
    11dc:	fa 81       	ldd	r31, Y+2	; 0x02
    11de:	80 81       	ld	r24, Z
    11e0:	91 81       	ldd	r25, Z+1	; 0x01
    11e2:	c8 16       	cp	r12, r24
    11e4:	d9 06       	cpc	r13, r25
    11e6:	79 f4       	brne	.+30     	; 0x1206 <__LOCK_REGION_LENGTH__+0xe06>
    11e8:	82 81       	ldd	r24, Z+2	; 0x02
    11ea:	93 81       	ldd	r25, Z+3	; 0x03
    11ec:	a8 16       	cp	r10, r24
    11ee:	b9 06       	cpc	r11, r25
    11f0:	51 f4       	brne	.+20     	; 0x1206 <__LOCK_REGION_LENGTH__+0xe06>
    11f2:	84 81       	ldd	r24, Z+4	; 0x04
    11f4:	95 81       	ldd	r25, Z+5	; 0x05
    11f6:	88 16       	cp	r8, r24
    11f8:	99 06       	cpc	r9, r25
    11fa:	29 f4       	brne	.+10     	; 0x1206 <__LOCK_REGION_LENGTH__+0xe06>
    11fc:	cf 01       	movw	r24, r30
    11fe:	eb 81       	ldd	r30, Y+3	; 0x03
    1200:	fc 81       	ldd	r31, Y+4	; 0x04
    1202:	87 87       	std	Z+15, r24	; 0x0f
    1204:	90 8b       	std	Z+16, r25	; 0x10
    1206:	e9 81       	ldd	r30, Y+1	; 0x01
    1208:	fa 81       	ldd	r31, Y+2	; 0x02
    120a:	20 8f       	std	Z+24, r18	; 0x18
    120c:	e6 80       	ldd	r14, Z+6	; 0x06
    120e:	f7 80       	ldd	r15, Z+7	; 0x07
    1210:	62 85       	ldd	r22, Z+10	; 0x0a
    1212:	73 85       	ldd	r23, Z+11	; 0x0b
    1214:	84 01       	movw	r16, r8
    1216:	95 01       	movw	r18, r10
    1218:	a6 01       	movw	r20, r12
    121a:	8b 81       	ldd	r24, Y+3	; 0x03
    121c:	9c 81       	ldd	r25, Y+4	; 0x04
    121e:	0e 94 42 01 	call	0x284	; 0x284 <_ZN4core3dfsEP4nodeiiii>
    1222:	e9 81       	ldd	r30, Y+1	; 0x01
    1224:	fa 81       	ldd	r31, Y+2	; 0x02
    1226:	e6 80       	ldd	r14, Z+6	; 0x06
    1228:	f7 80       	ldd	r15, Z+7	; 0x07
    122a:	64 85       	ldd	r22, Z+12	; 0x0c
    122c:	75 85       	ldd	r23, Z+13	; 0x0d
    122e:	95 01       	movw	r18, r10
    1230:	a6 01       	movw	r20, r12
    1232:	8b 81       	ldd	r24, Y+3	; 0x03
    1234:	9c 81       	ldd	r25, Y+4	; 0x04
    1236:	0e 94 42 01 	call	0x284	; 0x284 <_ZN4core3dfsEP4nodeiiii>
    123a:	e9 81       	ldd	r30, Y+1	; 0x01
    123c:	fa 81       	ldd	r31, Y+2	; 0x02
    123e:	e6 80       	ldd	r14, Z+6	; 0x06
    1240:	f7 80       	ldd	r15, Z+7	; 0x07
    1242:	66 85       	ldd	r22, Z+14	; 0x0e
    1244:	77 85       	ldd	r23, Z+15	; 0x0f
    1246:	95 01       	movw	r18, r10
    1248:	a6 01       	movw	r20, r12
    124a:	8b 81       	ldd	r24, Y+3	; 0x03
    124c:	9c 81       	ldd	r25, Y+4	; 0x04
    124e:	0e 94 42 01 	call	0x284	; 0x284 <_ZN4core3dfsEP4nodeiiii>
    1252:	e9 81       	ldd	r30, Y+1	; 0x01
    1254:	fa 81       	ldd	r31, Y+2	; 0x02
    1256:	e6 80       	ldd	r14, Z+6	; 0x06
    1258:	f7 80       	ldd	r15, Z+7	; 0x07
    125a:	60 89       	ldd	r22, Z+16	; 0x10
    125c:	71 89       	ldd	r23, Z+17	; 0x11
    125e:	95 01       	movw	r18, r10
    1260:	a6 01       	movw	r20, r12
    1262:	8b 81       	ldd	r24, Y+3	; 0x03
    1264:	9c 81       	ldd	r25, Y+4	; 0x04
    1266:	0e 94 42 01 	call	0x284	; 0x284 <_ZN4core3dfsEP4nodeiiii>
    126a:	f1 01       	movw	r30, r2
    126c:	86 81       	ldd	r24, Z+6	; 0x06
    126e:	97 81       	ldd	r25, Z+7	; 0x07
    1270:	20 88       	ldd	r2, Z+16	; 0x10
    1272:	31 88       	ldd	r3, Z+17	; 0x11
    1274:	21 14       	cp	r2, r1
    1276:	31 04       	cpc	r3, r1
    1278:	09 f4       	brne	.+2      	; 0x127c <__LOCK_REGION_LENGTH__+0xe7c>
    127a:	5a c0       	rjmp	.+180    	; 0x1330 <__LOCK_REGION_LENGTH__+0xf30>
    127c:	01 96       	adiw	r24, 0x01	; 1
    127e:	f1 01       	movw	r30, r2
    1280:	26 81       	ldd	r18, Z+6	; 0x06
    1282:	37 81       	ldd	r19, Z+7	; 0x07
    1284:	82 17       	cp	r24, r18
    1286:	93 07       	cpc	r25, r19
    1288:	14 f4       	brge	.+4      	; 0x128e <__LOCK_REGION_LENGTH__+0xe8e>
    128a:	86 83       	std	Z+6, r24	; 0x06
    128c:	97 83       	std	Z+7, r25	; 0x07
    128e:	eb 81       	ldd	r30, Y+3	; 0x03
    1290:	fc 81       	ldd	r31, Y+4	; 0x04
    1292:	26 85       	ldd	r18, Z+14	; 0x0e
    1294:	f1 01       	movw	r30, r2
    1296:	80 8d       	ldd	r24, Z+24	; 0x18
    1298:	82 17       	cp	r24, r18
    129a:	09 f4       	brne	.+2      	; 0x129e <__LOCK_REGION_LENGTH__+0xe9e>
    129c:	49 c0       	rjmp	.+146    	; 0x1330 <__LOCK_REGION_LENGTH__+0xf30>
    129e:	eb 81       	ldd	r30, Y+3	; 0x03
    12a0:	fc 81       	ldd	r31, Y+4	; 0x04
    12a2:	83 89       	ldd	r24, Z+19	; 0x13
    12a4:	94 89       	ldd	r25, Z+20	; 0x14
    12a6:	01 96       	adiw	r24, 0x01	; 1
    12a8:	83 8b       	std	Z+19, r24	; 0x13
    12aa:	94 8b       	std	Z+20, r25	; 0x14
    12ac:	f1 01       	movw	r30, r2
    12ae:	80 81       	ld	r24, Z
    12b0:	91 81       	ldd	r25, Z+1	; 0x01
    12b2:	c8 16       	cp	r12, r24
    12b4:	d9 06       	cpc	r13, r25
    12b6:	71 f4       	brne	.+28     	; 0x12d4 <__LOCK_REGION_LENGTH__+0xed4>
    12b8:	82 81       	ldd	r24, Z+2	; 0x02
    12ba:	93 81       	ldd	r25, Z+3	; 0x03
    12bc:	a8 16       	cp	r10, r24
    12be:	b9 06       	cpc	r11, r25
    12c0:	49 f4       	brne	.+18     	; 0x12d4 <__LOCK_REGION_LENGTH__+0xed4>
    12c2:	84 81       	ldd	r24, Z+4	; 0x04
    12c4:	95 81       	ldd	r25, Z+5	; 0x05
    12c6:	88 16       	cp	r8, r24
    12c8:	99 06       	cpc	r9, r25
    12ca:	21 f4       	brne	.+8      	; 0x12d4 <__LOCK_REGION_LENGTH__+0xed4>
    12cc:	eb 81       	ldd	r30, Y+3	; 0x03
    12ce:	fc 81       	ldd	r31, Y+4	; 0x04
    12d0:	27 86       	std	Z+15, r2	; 0x0f
    12d2:	30 8a       	std	Z+16, r3	; 0x10
    12d4:	f1 01       	movw	r30, r2
    12d6:	20 8f       	std	Z+24, r18	; 0x18
    12d8:	e6 80       	ldd	r14, Z+6	; 0x06
    12da:	f7 80       	ldd	r15, Z+7	; 0x07
    12dc:	62 85       	ldd	r22, Z+10	; 0x0a
    12de:	73 85       	ldd	r23, Z+11	; 0x0b
    12e0:	84 01       	movw	r16, r8
    12e2:	95 01       	movw	r18, r10
    12e4:	a6 01       	movw	r20, r12
    12e6:	8b 81       	ldd	r24, Y+3	; 0x03
    12e8:	9c 81       	ldd	r25, Y+4	; 0x04
    12ea:	0e 94 42 01 	call	0x284	; 0x284 <_ZN4core3dfsEP4nodeiiii>
    12ee:	f1 01       	movw	r30, r2
    12f0:	e6 80       	ldd	r14, Z+6	; 0x06
    12f2:	f7 80       	ldd	r15, Z+7	; 0x07
    12f4:	64 85       	ldd	r22, Z+12	; 0x0c
    12f6:	75 85       	ldd	r23, Z+13	; 0x0d
    12f8:	95 01       	movw	r18, r10
    12fa:	a6 01       	movw	r20, r12
    12fc:	8b 81       	ldd	r24, Y+3	; 0x03
    12fe:	9c 81       	ldd	r25, Y+4	; 0x04
    1300:	0e 94 42 01 	call	0x284	; 0x284 <_ZN4core3dfsEP4nodeiiii>
    1304:	f1 01       	movw	r30, r2
    1306:	e6 80       	ldd	r14, Z+6	; 0x06
    1308:	f7 80       	ldd	r15, Z+7	; 0x07
    130a:	66 85       	ldd	r22, Z+14	; 0x0e
    130c:	77 85       	ldd	r23, Z+15	; 0x0f
    130e:	95 01       	movw	r18, r10
    1310:	a6 01       	movw	r20, r12
    1312:	8b 81       	ldd	r24, Y+3	; 0x03
    1314:	9c 81       	ldd	r25, Y+4	; 0x04
    1316:	0e 94 42 01 	call	0x284	; 0x284 <_ZN4core3dfsEP4nodeiiii>
    131a:	f1 01       	movw	r30, r2
    131c:	e6 80       	ldd	r14, Z+6	; 0x06
    131e:	f7 80       	ldd	r15, Z+7	; 0x07
    1320:	60 89       	ldd	r22, Z+16	; 0x10
    1322:	71 89       	ldd	r23, Z+17	; 0x11
    1324:	95 01       	movw	r18, r10
    1326:	a6 01       	movw	r20, r12
    1328:	8b 81       	ldd	r24, Y+3	; 0x03
    132a:	9c 81       	ldd	r25, Y+4	; 0x04
    132c:	0e 94 42 01 	call	0x284	; 0x284 <_ZN4core3dfsEP4nodeiiii>
    1330:	f2 01       	movw	r30, r4
    1332:	86 81       	ldd	r24, Z+6	; 0x06
    1334:	97 81       	ldd	r25, Z+7	; 0x07
    1336:	40 88       	ldd	r4, Z+16	; 0x10
    1338:	51 88       	ldd	r5, Z+17	; 0x11
    133a:	41 14       	cp	r4, r1
    133c:	51 04       	cpc	r5, r1
    133e:	09 f4       	brne	.+2      	; 0x1342 <__LOCK_REGION_LENGTH__+0xf42>
    1340:	5a c0       	rjmp	.+180    	; 0x13f6 <__LOCK_REGION_LENGTH__+0xff6>
    1342:	01 96       	adiw	r24, 0x01	; 1
    1344:	f2 01       	movw	r30, r4
    1346:	26 81       	ldd	r18, Z+6	; 0x06
    1348:	37 81       	ldd	r19, Z+7	; 0x07
    134a:	82 17       	cp	r24, r18
    134c:	93 07       	cpc	r25, r19
    134e:	14 f4       	brge	.+4      	; 0x1354 <__LOCK_REGION_LENGTH__+0xf54>
    1350:	86 83       	std	Z+6, r24	; 0x06
    1352:	97 83       	std	Z+7, r25	; 0x07
    1354:	eb 81       	ldd	r30, Y+3	; 0x03
    1356:	fc 81       	ldd	r31, Y+4	; 0x04
    1358:	26 85       	ldd	r18, Z+14	; 0x0e
    135a:	f2 01       	movw	r30, r4
    135c:	80 8d       	ldd	r24, Z+24	; 0x18
    135e:	82 17       	cp	r24, r18
    1360:	09 f4       	brne	.+2      	; 0x1364 <__LOCK_REGION_LENGTH__+0xf64>
    1362:	49 c0       	rjmp	.+146    	; 0x13f6 <__LOCK_REGION_LENGTH__+0xff6>
    1364:	eb 81       	ldd	r30, Y+3	; 0x03
    1366:	fc 81       	ldd	r31, Y+4	; 0x04
    1368:	83 89       	ldd	r24, Z+19	; 0x13
    136a:	94 89       	ldd	r25, Z+20	; 0x14
    136c:	01 96       	adiw	r24, 0x01	; 1
    136e:	83 8b       	std	Z+19, r24	; 0x13
    1370:	94 8b       	std	Z+20, r25	; 0x14
    1372:	f2 01       	movw	r30, r4
    1374:	80 81       	ld	r24, Z
    1376:	91 81       	ldd	r25, Z+1	; 0x01
    1378:	c8 16       	cp	r12, r24
    137a:	d9 06       	cpc	r13, r25
    137c:	71 f4       	brne	.+28     	; 0x139a <__LOCK_REGION_LENGTH__+0xf9a>
    137e:	82 81       	ldd	r24, Z+2	; 0x02
    1380:	93 81       	ldd	r25, Z+3	; 0x03
    1382:	a8 16       	cp	r10, r24
    1384:	b9 06       	cpc	r11, r25
    1386:	49 f4       	brne	.+18     	; 0x139a <__LOCK_REGION_LENGTH__+0xf9a>
    1388:	84 81       	ldd	r24, Z+4	; 0x04
    138a:	95 81       	ldd	r25, Z+5	; 0x05
    138c:	88 16       	cp	r8, r24
    138e:	99 06       	cpc	r9, r25
    1390:	21 f4       	brne	.+8      	; 0x139a <__LOCK_REGION_LENGTH__+0xf9a>
    1392:	eb 81       	ldd	r30, Y+3	; 0x03
    1394:	fc 81       	ldd	r31, Y+4	; 0x04
    1396:	47 86       	std	Z+15, r4	; 0x0f
    1398:	50 8a       	std	Z+16, r5	; 0x10
    139a:	f2 01       	movw	r30, r4
    139c:	20 8f       	std	Z+24, r18	; 0x18
    139e:	e6 80       	ldd	r14, Z+6	; 0x06
    13a0:	f7 80       	ldd	r15, Z+7	; 0x07
    13a2:	62 85       	ldd	r22, Z+10	; 0x0a
    13a4:	73 85       	ldd	r23, Z+11	; 0x0b
    13a6:	84 01       	movw	r16, r8
    13a8:	95 01       	movw	r18, r10
    13aa:	a6 01       	movw	r20, r12
    13ac:	8b 81       	ldd	r24, Y+3	; 0x03
    13ae:	9c 81       	ldd	r25, Y+4	; 0x04
    13b0:	0e 94 42 01 	call	0x284	; 0x284 <_ZN4core3dfsEP4nodeiiii>
    13b4:	f2 01       	movw	r30, r4
    13b6:	e6 80       	ldd	r14, Z+6	; 0x06
    13b8:	f7 80       	ldd	r15, Z+7	; 0x07
    13ba:	64 85       	ldd	r22, Z+12	; 0x0c
    13bc:	75 85       	ldd	r23, Z+13	; 0x0d
    13be:	95 01       	movw	r18, r10
    13c0:	a6 01       	movw	r20, r12
    13c2:	8b 81       	ldd	r24, Y+3	; 0x03
    13c4:	9c 81       	ldd	r25, Y+4	; 0x04
    13c6:	0e 94 42 01 	call	0x284	; 0x284 <_ZN4core3dfsEP4nodeiiii>
    13ca:	f2 01       	movw	r30, r4
    13cc:	e6 80       	ldd	r14, Z+6	; 0x06
    13ce:	f7 80       	ldd	r15, Z+7	; 0x07
    13d0:	66 85       	ldd	r22, Z+14	; 0x0e
    13d2:	77 85       	ldd	r23, Z+15	; 0x0f
    13d4:	95 01       	movw	r18, r10
    13d6:	a6 01       	movw	r20, r12
    13d8:	8b 81       	ldd	r24, Y+3	; 0x03
    13da:	9c 81       	ldd	r25, Y+4	; 0x04
    13dc:	0e 94 42 01 	call	0x284	; 0x284 <_ZN4core3dfsEP4nodeiiii>
    13e0:	f2 01       	movw	r30, r4
    13e2:	e6 80       	ldd	r14, Z+6	; 0x06
    13e4:	f7 80       	ldd	r15, Z+7	; 0x07
    13e6:	60 89       	ldd	r22, Z+16	; 0x10
    13e8:	71 89       	ldd	r23, Z+17	; 0x11
    13ea:	95 01       	movw	r18, r10
    13ec:	a6 01       	movw	r20, r12
    13ee:	8b 81       	ldd	r24, Y+3	; 0x03
    13f0:	9c 81       	ldd	r25, Y+4	; 0x04
    13f2:	0e 94 42 01 	call	0x284	; 0x284 <_ZN4core3dfsEP4nodeiiii>
    13f6:	f3 01       	movw	r30, r6
    13f8:	86 81       	ldd	r24, Z+6	; 0x06
    13fa:	97 81       	ldd	r25, Z+7	; 0x07
    13fc:	46 84       	ldd	r4, Z+14	; 0x0e
    13fe:	57 84       	ldd	r5, Z+15	; 0x0f
    1400:	41 14       	cp	r4, r1
    1402:	51 04       	cpc	r5, r1
    1404:	09 f4       	brne	.+2      	; 0x1408 <__LOCK_REGION_LENGTH__+0x1008>
    1406:	4e c4       	rjmp	.+2204   	; 0x1ca4 <__LOCK_REGION_LENGTH__+0x18a4>
    1408:	01 96       	adiw	r24, 0x01	; 1
    140a:	f2 01       	movw	r30, r4
    140c:	26 81       	ldd	r18, Z+6	; 0x06
    140e:	37 81       	ldd	r19, Z+7	; 0x07
    1410:	82 17       	cp	r24, r18
    1412:	93 07       	cpc	r25, r19
    1414:	14 f4       	brge	.+4      	; 0x141a <__LOCK_REGION_LENGTH__+0x101a>
    1416:	86 83       	std	Z+6, r24	; 0x06
    1418:	97 83       	std	Z+7, r25	; 0x07
    141a:	eb 81       	ldd	r30, Y+3	; 0x03
    141c:	fc 81       	ldd	r31, Y+4	; 0x04
    141e:	26 85       	ldd	r18, Z+14	; 0x0e
    1420:	f2 01       	movw	r30, r4
    1422:	80 8d       	ldd	r24, Z+24	; 0x18
    1424:	82 17       	cp	r24, r18
    1426:	09 f4       	brne	.+2      	; 0x142a <__LOCK_REGION_LENGTH__+0x102a>
    1428:	3d c4       	rjmp	.+2170   	; 0x1ca4 <__LOCK_REGION_LENGTH__+0x18a4>
    142a:	eb 81       	ldd	r30, Y+3	; 0x03
    142c:	fc 81       	ldd	r31, Y+4	; 0x04
    142e:	83 89       	ldd	r24, Z+19	; 0x13
    1430:	94 89       	ldd	r25, Z+20	; 0x14
    1432:	01 96       	adiw	r24, 0x01	; 1
    1434:	83 8b       	std	Z+19, r24	; 0x13
    1436:	94 8b       	std	Z+20, r25	; 0x14
    1438:	f2 01       	movw	r30, r4
    143a:	80 81       	ld	r24, Z
    143c:	91 81       	ldd	r25, Z+1	; 0x01
    143e:	c8 16       	cp	r12, r24
    1440:	d9 06       	cpc	r13, r25
    1442:	71 f4       	brne	.+28     	; 0x1460 <__LOCK_REGION_LENGTH__+0x1060>
    1444:	82 81       	ldd	r24, Z+2	; 0x02
    1446:	93 81       	ldd	r25, Z+3	; 0x03
    1448:	a8 16       	cp	r10, r24
    144a:	b9 06       	cpc	r11, r25
    144c:	49 f4       	brne	.+18     	; 0x1460 <__LOCK_REGION_LENGTH__+0x1060>
    144e:	84 81       	ldd	r24, Z+4	; 0x04
    1450:	95 81       	ldd	r25, Z+5	; 0x05
    1452:	88 16       	cp	r8, r24
    1454:	99 06       	cpc	r9, r25
    1456:	21 f4       	brne	.+8      	; 0x1460 <__LOCK_REGION_LENGTH__+0x1060>
    1458:	eb 81       	ldd	r30, Y+3	; 0x03
    145a:	fc 81       	ldd	r31, Y+4	; 0x04
    145c:	47 86       	std	Z+15, r4	; 0x0f
    145e:	50 8a       	std	Z+16, r5	; 0x10
    1460:	f2 01       	movw	r30, r4
    1462:	20 8f       	std	Z+24, r18	; 0x18
    1464:	86 81       	ldd	r24, Z+6	; 0x06
    1466:	97 81       	ldd	r25, Z+7	; 0x07
    1468:	22 84       	ldd	r2, Z+10	; 0x0a
    146a:	33 84       	ldd	r3, Z+11	; 0x0b
    146c:	21 14       	cp	r2, r1
    146e:	31 04       	cpc	r3, r1
    1470:	09 f4       	brne	.+2      	; 0x1474 <__LOCK_REGION_LENGTH__+0x1074>
    1472:	d4 c1       	rjmp	.+936    	; 0x181c <__LOCK_REGION_LENGTH__+0x141c>
    1474:	01 96       	adiw	r24, 0x01	; 1
    1476:	f1 01       	movw	r30, r2
    1478:	26 81       	ldd	r18, Z+6	; 0x06
    147a:	37 81       	ldd	r19, Z+7	; 0x07
    147c:	82 17       	cp	r24, r18
    147e:	93 07       	cpc	r25, r19
    1480:	14 f4       	brge	.+4      	; 0x1486 <__LOCK_REGION_LENGTH__+0x1086>
    1482:	86 83       	std	Z+6, r24	; 0x06
    1484:	97 83       	std	Z+7, r25	; 0x07
    1486:	eb 81       	ldd	r30, Y+3	; 0x03
    1488:	fc 81       	ldd	r31, Y+4	; 0x04
    148a:	26 85       	ldd	r18, Z+14	; 0x0e
    148c:	f1 01       	movw	r30, r2
    148e:	80 8d       	ldd	r24, Z+24	; 0x18
    1490:	82 17       	cp	r24, r18
    1492:	09 f4       	brne	.+2      	; 0x1496 <__LOCK_REGION_LENGTH__+0x1096>
    1494:	c3 c1       	rjmp	.+902    	; 0x181c <__LOCK_REGION_LENGTH__+0x141c>
    1496:	eb 81       	ldd	r30, Y+3	; 0x03
    1498:	fc 81       	ldd	r31, Y+4	; 0x04
    149a:	83 89       	ldd	r24, Z+19	; 0x13
    149c:	94 89       	ldd	r25, Z+20	; 0x14
    149e:	01 96       	adiw	r24, 0x01	; 1
    14a0:	83 8b       	std	Z+19, r24	; 0x13
    14a2:	94 8b       	std	Z+20, r25	; 0x14
    14a4:	f1 01       	movw	r30, r2
    14a6:	80 81       	ld	r24, Z
    14a8:	91 81       	ldd	r25, Z+1	; 0x01
    14aa:	c8 16       	cp	r12, r24
    14ac:	d9 06       	cpc	r13, r25
    14ae:	71 f4       	brne	.+28     	; 0x14cc <__LOCK_REGION_LENGTH__+0x10cc>
    14b0:	82 81       	ldd	r24, Z+2	; 0x02
    14b2:	93 81       	ldd	r25, Z+3	; 0x03
    14b4:	a8 16       	cp	r10, r24
    14b6:	b9 06       	cpc	r11, r25
    14b8:	49 f4       	brne	.+18     	; 0x14cc <__LOCK_REGION_LENGTH__+0x10cc>
    14ba:	84 81       	ldd	r24, Z+4	; 0x04
    14bc:	95 81       	ldd	r25, Z+5	; 0x05
    14be:	88 16       	cp	r8, r24
    14c0:	99 06       	cpc	r9, r25
    14c2:	21 f4       	brne	.+8      	; 0x14cc <__LOCK_REGION_LENGTH__+0x10cc>
    14c4:	eb 81       	ldd	r30, Y+3	; 0x03
    14c6:	fc 81       	ldd	r31, Y+4	; 0x04
    14c8:	27 86       	std	Z+15, r2	; 0x0f
    14ca:	30 8a       	std	Z+16, r3	; 0x10
    14cc:	f1 01       	movw	r30, r2
    14ce:	20 8f       	std	Z+24, r18	; 0x18
    14d0:	86 81       	ldd	r24, Z+6	; 0x06
    14d2:	97 81       	ldd	r25, Z+7	; 0x07
    14d4:	22 85       	ldd	r18, Z+10	; 0x0a
    14d6:	33 85       	ldd	r19, Z+11	; 0x0b
    14d8:	29 83       	std	Y+1, r18	; 0x01
    14da:	3a 83       	std	Y+2, r19	; 0x02
    14dc:	21 15       	cp	r18, r1
    14de:	31 05       	cpc	r19, r1
    14e0:	09 f4       	brne	.+2      	; 0x14e4 <__LOCK_REGION_LENGTH__+0x10e4>
    14e2:	61 c0       	rjmp	.+194    	; 0x15a6 <__LOCK_REGION_LENGTH__+0x11a6>
    14e4:	01 96       	adiw	r24, 0x01	; 1
    14e6:	f9 01       	movw	r30, r18
    14e8:	26 81       	ldd	r18, Z+6	; 0x06
    14ea:	37 81       	ldd	r19, Z+7	; 0x07
    14ec:	82 17       	cp	r24, r18
    14ee:	93 07       	cpc	r25, r19
    14f0:	14 f4       	brge	.+4      	; 0x14f6 <__LOCK_REGION_LENGTH__+0x10f6>
    14f2:	86 83       	std	Z+6, r24	; 0x06
    14f4:	97 83       	std	Z+7, r25	; 0x07
    14f6:	eb 81       	ldd	r30, Y+3	; 0x03
    14f8:	fc 81       	ldd	r31, Y+4	; 0x04
    14fa:	26 85       	ldd	r18, Z+14	; 0x0e
    14fc:	e9 81       	ldd	r30, Y+1	; 0x01
    14fe:	fa 81       	ldd	r31, Y+2	; 0x02
    1500:	80 8d       	ldd	r24, Z+24	; 0x18
    1502:	82 17       	cp	r24, r18
    1504:	09 f4       	brne	.+2      	; 0x1508 <__LOCK_REGION_LENGTH__+0x1108>
    1506:	4f c0       	rjmp	.+158    	; 0x15a6 <__LOCK_REGION_LENGTH__+0x11a6>
    1508:	eb 81       	ldd	r30, Y+3	; 0x03
    150a:	fc 81       	ldd	r31, Y+4	; 0x04
    150c:	83 89       	ldd	r24, Z+19	; 0x13
    150e:	94 89       	ldd	r25, Z+20	; 0x14
    1510:	01 96       	adiw	r24, 0x01	; 1
    1512:	83 8b       	std	Z+19, r24	; 0x13
    1514:	94 8b       	std	Z+20, r25	; 0x14
    1516:	e9 81       	ldd	r30, Y+1	; 0x01
    1518:	fa 81       	ldd	r31, Y+2	; 0x02
    151a:	80 81       	ld	r24, Z
    151c:	91 81       	ldd	r25, Z+1	; 0x01
    151e:	c8 16       	cp	r12, r24
    1520:	d9 06       	cpc	r13, r25
    1522:	79 f4       	brne	.+30     	; 0x1542 <__LOCK_REGION_LENGTH__+0x1142>
    1524:	82 81       	ldd	r24, Z+2	; 0x02
    1526:	93 81       	ldd	r25, Z+3	; 0x03
    1528:	a8 16       	cp	r10, r24
    152a:	b9 06       	cpc	r11, r25
    152c:	51 f4       	brne	.+20     	; 0x1542 <__LOCK_REGION_LENGTH__+0x1142>
    152e:	84 81       	ldd	r24, Z+4	; 0x04
    1530:	95 81       	ldd	r25, Z+5	; 0x05
    1532:	88 16       	cp	r8, r24
    1534:	99 06       	cpc	r9, r25
    1536:	29 f4       	brne	.+10     	; 0x1542 <__LOCK_REGION_LENGTH__+0x1142>
    1538:	cf 01       	movw	r24, r30
    153a:	eb 81       	ldd	r30, Y+3	; 0x03
    153c:	fc 81       	ldd	r31, Y+4	; 0x04
    153e:	87 87       	std	Z+15, r24	; 0x0f
    1540:	90 8b       	std	Z+16, r25	; 0x10
    1542:	e9 81       	ldd	r30, Y+1	; 0x01
    1544:	fa 81       	ldd	r31, Y+2	; 0x02
    1546:	20 8f       	std	Z+24, r18	; 0x18
    1548:	e6 80       	ldd	r14, Z+6	; 0x06
    154a:	f7 80       	ldd	r15, Z+7	; 0x07
    154c:	62 85       	ldd	r22, Z+10	; 0x0a
    154e:	73 85       	ldd	r23, Z+11	; 0x0b
    1550:	84 01       	movw	r16, r8
    1552:	95 01       	movw	r18, r10
    1554:	a6 01       	movw	r20, r12
    1556:	8b 81       	ldd	r24, Y+3	; 0x03
    1558:	9c 81       	ldd	r25, Y+4	; 0x04
    155a:	0e 94 42 01 	call	0x284	; 0x284 <_ZN4core3dfsEP4nodeiiii>
    155e:	e9 81       	ldd	r30, Y+1	; 0x01
    1560:	fa 81       	ldd	r31, Y+2	; 0x02
    1562:	e6 80       	ldd	r14, Z+6	; 0x06
    1564:	f7 80       	ldd	r15, Z+7	; 0x07
    1566:	64 85       	ldd	r22, Z+12	; 0x0c
    1568:	75 85       	ldd	r23, Z+13	; 0x0d
    156a:	95 01       	movw	r18, r10
    156c:	a6 01       	movw	r20, r12
    156e:	8b 81       	ldd	r24, Y+3	; 0x03
    1570:	9c 81       	ldd	r25, Y+4	; 0x04
    1572:	0e 94 42 01 	call	0x284	; 0x284 <_ZN4core3dfsEP4nodeiiii>
    1576:	e9 81       	ldd	r30, Y+1	; 0x01
    1578:	fa 81       	ldd	r31, Y+2	; 0x02
    157a:	e6 80       	ldd	r14, Z+6	; 0x06
    157c:	f7 80       	ldd	r15, Z+7	; 0x07
    157e:	66 85       	ldd	r22, Z+14	; 0x0e
    1580:	77 85       	ldd	r23, Z+15	; 0x0f
    1582:	95 01       	movw	r18, r10
    1584:	a6 01       	movw	r20, r12
    1586:	8b 81       	ldd	r24, Y+3	; 0x03
    1588:	9c 81       	ldd	r25, Y+4	; 0x04
    158a:	0e 94 42 01 	call	0x284	; 0x284 <_ZN4core3dfsEP4nodeiiii>
    158e:	e9 81       	ldd	r30, Y+1	; 0x01
    1590:	fa 81       	ldd	r31, Y+2	; 0x02
    1592:	e6 80       	ldd	r14, Z+6	; 0x06
    1594:	f7 80       	ldd	r15, Z+7	; 0x07
    1596:	60 89       	ldd	r22, Z+16	; 0x10
    1598:	71 89       	ldd	r23, Z+17	; 0x11
    159a:	95 01       	movw	r18, r10
    159c:	a6 01       	movw	r20, r12
    159e:	8b 81       	ldd	r24, Y+3	; 0x03
    15a0:	9c 81       	ldd	r25, Y+4	; 0x04
    15a2:	0e 94 42 01 	call	0x284	; 0x284 <_ZN4core3dfsEP4nodeiiii>
    15a6:	f1 01       	movw	r30, r2
    15a8:	86 81       	ldd	r24, Z+6	; 0x06
    15aa:	97 81       	ldd	r25, Z+7	; 0x07
    15ac:	24 85       	ldd	r18, Z+12	; 0x0c
    15ae:	35 85       	ldd	r19, Z+13	; 0x0d
    15b0:	29 83       	std	Y+1, r18	; 0x01
    15b2:	3a 83       	std	Y+2, r19	; 0x02
    15b4:	21 15       	cp	r18, r1
    15b6:	31 05       	cpc	r19, r1
    15b8:	09 f4       	brne	.+2      	; 0x15bc <__LOCK_REGION_LENGTH__+0x11bc>
    15ba:	61 c0       	rjmp	.+194    	; 0x167e <__LOCK_REGION_LENGTH__+0x127e>
    15bc:	01 96       	adiw	r24, 0x01	; 1
    15be:	f9 01       	movw	r30, r18
    15c0:	26 81       	ldd	r18, Z+6	; 0x06
    15c2:	37 81       	ldd	r19, Z+7	; 0x07
    15c4:	82 17       	cp	r24, r18
    15c6:	93 07       	cpc	r25, r19
    15c8:	14 f4       	brge	.+4      	; 0x15ce <__LOCK_REGION_LENGTH__+0x11ce>
    15ca:	86 83       	std	Z+6, r24	; 0x06
    15cc:	97 83       	std	Z+7, r25	; 0x07
    15ce:	eb 81       	ldd	r30, Y+3	; 0x03
    15d0:	fc 81       	ldd	r31, Y+4	; 0x04
    15d2:	26 85       	ldd	r18, Z+14	; 0x0e
    15d4:	e9 81       	ldd	r30, Y+1	; 0x01
    15d6:	fa 81       	ldd	r31, Y+2	; 0x02
    15d8:	80 8d       	ldd	r24, Z+24	; 0x18
    15da:	82 17       	cp	r24, r18
    15dc:	09 f4       	brne	.+2      	; 0x15e0 <__LOCK_REGION_LENGTH__+0x11e0>
    15de:	4f c0       	rjmp	.+158    	; 0x167e <__LOCK_REGION_LENGTH__+0x127e>
    15e0:	eb 81       	ldd	r30, Y+3	; 0x03
    15e2:	fc 81       	ldd	r31, Y+4	; 0x04
    15e4:	83 89       	ldd	r24, Z+19	; 0x13
    15e6:	94 89       	ldd	r25, Z+20	; 0x14
    15e8:	01 96       	adiw	r24, 0x01	; 1
    15ea:	83 8b       	std	Z+19, r24	; 0x13
    15ec:	94 8b       	std	Z+20, r25	; 0x14
    15ee:	e9 81       	ldd	r30, Y+1	; 0x01
    15f0:	fa 81       	ldd	r31, Y+2	; 0x02
    15f2:	80 81       	ld	r24, Z
    15f4:	91 81       	ldd	r25, Z+1	; 0x01
    15f6:	c8 16       	cp	r12, r24
    15f8:	d9 06       	cpc	r13, r25
    15fa:	79 f4       	brne	.+30     	; 0x161a <__LOCK_REGION_LENGTH__+0x121a>
    15fc:	82 81       	ldd	r24, Z+2	; 0x02
    15fe:	93 81       	ldd	r25, Z+3	; 0x03
    1600:	a8 16       	cp	r10, r24
    1602:	b9 06       	cpc	r11, r25
    1604:	51 f4       	brne	.+20     	; 0x161a <__LOCK_REGION_LENGTH__+0x121a>
    1606:	84 81       	ldd	r24, Z+4	; 0x04
    1608:	95 81       	ldd	r25, Z+5	; 0x05
    160a:	88 16       	cp	r8, r24
    160c:	99 06       	cpc	r9, r25
    160e:	29 f4       	brne	.+10     	; 0x161a <__LOCK_REGION_LENGTH__+0x121a>
    1610:	cf 01       	movw	r24, r30
    1612:	eb 81       	ldd	r30, Y+3	; 0x03
    1614:	fc 81       	ldd	r31, Y+4	; 0x04
    1616:	87 87       	std	Z+15, r24	; 0x0f
    1618:	90 8b       	std	Z+16, r25	; 0x10
    161a:	e9 81       	ldd	r30, Y+1	; 0x01
    161c:	fa 81       	ldd	r31, Y+2	; 0x02
    161e:	20 8f       	std	Z+24, r18	; 0x18
    1620:	e6 80       	ldd	r14, Z+6	; 0x06
    1622:	f7 80       	ldd	r15, Z+7	; 0x07
    1624:	62 85       	ldd	r22, Z+10	; 0x0a
    1626:	73 85       	ldd	r23, Z+11	; 0x0b
    1628:	84 01       	movw	r16, r8
    162a:	95 01       	movw	r18, r10
    162c:	a6 01       	movw	r20, r12
    162e:	8b 81       	ldd	r24, Y+3	; 0x03
    1630:	9c 81       	ldd	r25, Y+4	; 0x04
    1632:	0e 94 42 01 	call	0x284	; 0x284 <_ZN4core3dfsEP4nodeiiii>
    1636:	e9 81       	ldd	r30, Y+1	; 0x01
    1638:	fa 81       	ldd	r31, Y+2	; 0x02
    163a:	e6 80       	ldd	r14, Z+6	; 0x06
    163c:	f7 80       	ldd	r15, Z+7	; 0x07
    163e:	64 85       	ldd	r22, Z+12	; 0x0c
    1640:	75 85       	ldd	r23, Z+13	; 0x0d
    1642:	95 01       	movw	r18, r10
    1644:	a6 01       	movw	r20, r12
    1646:	8b 81       	ldd	r24, Y+3	; 0x03
    1648:	9c 81       	ldd	r25, Y+4	; 0x04
    164a:	0e 94 42 01 	call	0x284	; 0x284 <_ZN4core3dfsEP4nodeiiii>
    164e:	e9 81       	ldd	r30, Y+1	; 0x01
    1650:	fa 81       	ldd	r31, Y+2	; 0x02
    1652:	e6 80       	ldd	r14, Z+6	; 0x06
    1654:	f7 80       	ldd	r15, Z+7	; 0x07
    1656:	66 85       	ldd	r22, Z+14	; 0x0e
    1658:	77 85       	ldd	r23, Z+15	; 0x0f
    165a:	95 01       	movw	r18, r10
    165c:	a6 01       	movw	r20, r12
    165e:	8b 81       	ldd	r24, Y+3	; 0x03
    1660:	9c 81       	ldd	r25, Y+4	; 0x04
    1662:	0e 94 42 01 	call	0x284	; 0x284 <_ZN4core3dfsEP4nodeiiii>
    1666:	e9 81       	ldd	r30, Y+1	; 0x01
    1668:	fa 81       	ldd	r31, Y+2	; 0x02
    166a:	e6 80       	ldd	r14, Z+6	; 0x06
    166c:	f7 80       	ldd	r15, Z+7	; 0x07
    166e:	60 89       	ldd	r22, Z+16	; 0x10
    1670:	71 89       	ldd	r23, Z+17	; 0x11
    1672:	95 01       	movw	r18, r10
    1674:	a6 01       	movw	r20, r12
    1676:	8b 81       	ldd	r24, Y+3	; 0x03
    1678:	9c 81       	ldd	r25, Y+4	; 0x04
    167a:	0e 94 42 01 	call	0x284	; 0x284 <_ZN4core3dfsEP4nodeiiii>
    167e:	f1 01       	movw	r30, r2
    1680:	86 81       	ldd	r24, Z+6	; 0x06
    1682:	97 81       	ldd	r25, Z+7	; 0x07
    1684:	26 85       	ldd	r18, Z+14	; 0x0e
    1686:	37 85       	ldd	r19, Z+15	; 0x0f
    1688:	29 83       	std	Y+1, r18	; 0x01
    168a:	3a 83       	std	Y+2, r19	; 0x02
    168c:	21 15       	cp	r18, r1
    168e:	31 05       	cpc	r19, r1
    1690:	09 f4       	brne	.+2      	; 0x1694 <__LOCK_REGION_LENGTH__+0x1294>
    1692:	61 c0       	rjmp	.+194    	; 0x1756 <__LOCK_REGION_LENGTH__+0x1356>
    1694:	01 96       	adiw	r24, 0x01	; 1
    1696:	f9 01       	movw	r30, r18
    1698:	26 81       	ldd	r18, Z+6	; 0x06
    169a:	37 81       	ldd	r19, Z+7	; 0x07
    169c:	82 17       	cp	r24, r18
    169e:	93 07       	cpc	r25, r19
    16a0:	14 f4       	brge	.+4      	; 0x16a6 <__LOCK_REGION_LENGTH__+0x12a6>
    16a2:	86 83       	std	Z+6, r24	; 0x06
    16a4:	97 83       	std	Z+7, r25	; 0x07
    16a6:	eb 81       	ldd	r30, Y+3	; 0x03
    16a8:	fc 81       	ldd	r31, Y+4	; 0x04
    16aa:	26 85       	ldd	r18, Z+14	; 0x0e
    16ac:	e9 81       	ldd	r30, Y+1	; 0x01
    16ae:	fa 81       	ldd	r31, Y+2	; 0x02
    16b0:	80 8d       	ldd	r24, Z+24	; 0x18
    16b2:	82 17       	cp	r24, r18
    16b4:	09 f4       	brne	.+2      	; 0x16b8 <__LOCK_REGION_LENGTH__+0x12b8>
    16b6:	4f c0       	rjmp	.+158    	; 0x1756 <__LOCK_REGION_LENGTH__+0x1356>
    16b8:	eb 81       	ldd	r30, Y+3	; 0x03
    16ba:	fc 81       	ldd	r31, Y+4	; 0x04
    16bc:	83 89       	ldd	r24, Z+19	; 0x13
    16be:	94 89       	ldd	r25, Z+20	; 0x14
    16c0:	01 96       	adiw	r24, 0x01	; 1
    16c2:	83 8b       	std	Z+19, r24	; 0x13
    16c4:	94 8b       	std	Z+20, r25	; 0x14
    16c6:	e9 81       	ldd	r30, Y+1	; 0x01
    16c8:	fa 81       	ldd	r31, Y+2	; 0x02
    16ca:	80 81       	ld	r24, Z
    16cc:	91 81       	ldd	r25, Z+1	; 0x01
    16ce:	c8 16       	cp	r12, r24
    16d0:	d9 06       	cpc	r13, r25
    16d2:	79 f4       	brne	.+30     	; 0x16f2 <__LOCK_REGION_LENGTH__+0x12f2>
    16d4:	82 81       	ldd	r24, Z+2	; 0x02
    16d6:	93 81       	ldd	r25, Z+3	; 0x03
    16d8:	a8 16       	cp	r10, r24
    16da:	b9 06       	cpc	r11, r25
    16dc:	51 f4       	brne	.+20     	; 0x16f2 <__LOCK_REGION_LENGTH__+0x12f2>
    16de:	84 81       	ldd	r24, Z+4	; 0x04
    16e0:	95 81       	ldd	r25, Z+5	; 0x05
    16e2:	88 16       	cp	r8, r24
    16e4:	99 06       	cpc	r9, r25
    16e6:	29 f4       	brne	.+10     	; 0x16f2 <__LOCK_REGION_LENGTH__+0x12f2>
    16e8:	cf 01       	movw	r24, r30
    16ea:	eb 81       	ldd	r30, Y+3	; 0x03
    16ec:	fc 81       	ldd	r31, Y+4	; 0x04
    16ee:	87 87       	std	Z+15, r24	; 0x0f
    16f0:	90 8b       	std	Z+16, r25	; 0x10
    16f2:	e9 81       	ldd	r30, Y+1	; 0x01
    16f4:	fa 81       	ldd	r31, Y+2	; 0x02
    16f6:	20 8f       	std	Z+24, r18	; 0x18
    16f8:	e6 80       	ldd	r14, Z+6	; 0x06
    16fa:	f7 80       	ldd	r15, Z+7	; 0x07
    16fc:	62 85       	ldd	r22, Z+10	; 0x0a
    16fe:	73 85       	ldd	r23, Z+11	; 0x0b
    1700:	84 01       	movw	r16, r8
    1702:	95 01       	movw	r18, r10
    1704:	a6 01       	movw	r20, r12
    1706:	8b 81       	ldd	r24, Y+3	; 0x03
    1708:	9c 81       	ldd	r25, Y+4	; 0x04
    170a:	0e 94 42 01 	call	0x284	; 0x284 <_ZN4core3dfsEP4nodeiiii>
    170e:	e9 81       	ldd	r30, Y+1	; 0x01
    1710:	fa 81       	ldd	r31, Y+2	; 0x02
    1712:	e6 80       	ldd	r14, Z+6	; 0x06
    1714:	f7 80       	ldd	r15, Z+7	; 0x07
    1716:	64 85       	ldd	r22, Z+12	; 0x0c
    1718:	75 85       	ldd	r23, Z+13	; 0x0d
    171a:	95 01       	movw	r18, r10
    171c:	a6 01       	movw	r20, r12
    171e:	8b 81       	ldd	r24, Y+3	; 0x03
    1720:	9c 81       	ldd	r25, Y+4	; 0x04
    1722:	0e 94 42 01 	call	0x284	; 0x284 <_ZN4core3dfsEP4nodeiiii>
    1726:	e9 81       	ldd	r30, Y+1	; 0x01
    1728:	fa 81       	ldd	r31, Y+2	; 0x02
    172a:	e6 80       	ldd	r14, Z+6	; 0x06
    172c:	f7 80       	ldd	r15, Z+7	; 0x07
    172e:	66 85       	ldd	r22, Z+14	; 0x0e
    1730:	77 85       	ldd	r23, Z+15	; 0x0f
    1732:	95 01       	movw	r18, r10
    1734:	a6 01       	movw	r20, r12
    1736:	8b 81       	ldd	r24, Y+3	; 0x03
    1738:	9c 81       	ldd	r25, Y+4	; 0x04
    173a:	0e 94 42 01 	call	0x284	; 0x284 <_ZN4core3dfsEP4nodeiiii>
    173e:	e9 81       	ldd	r30, Y+1	; 0x01
    1740:	fa 81       	ldd	r31, Y+2	; 0x02
    1742:	e6 80       	ldd	r14, Z+6	; 0x06
    1744:	f7 80       	ldd	r15, Z+7	; 0x07
    1746:	60 89       	ldd	r22, Z+16	; 0x10
    1748:	71 89       	ldd	r23, Z+17	; 0x11
    174a:	95 01       	movw	r18, r10
    174c:	a6 01       	movw	r20, r12
    174e:	8b 81       	ldd	r24, Y+3	; 0x03
    1750:	9c 81       	ldd	r25, Y+4	; 0x04
    1752:	0e 94 42 01 	call	0x284	; 0x284 <_ZN4core3dfsEP4nodeiiii>
    1756:	f1 01       	movw	r30, r2
    1758:	86 81       	ldd	r24, Z+6	; 0x06
    175a:	97 81       	ldd	r25, Z+7	; 0x07
    175c:	20 88       	ldd	r2, Z+16	; 0x10
    175e:	31 88       	ldd	r3, Z+17	; 0x11
    1760:	21 14       	cp	r2, r1
    1762:	31 04       	cpc	r3, r1
    1764:	09 f4       	brne	.+2      	; 0x1768 <__LOCK_REGION_LENGTH__+0x1368>
    1766:	5a c0       	rjmp	.+180    	; 0x181c <__LOCK_REGION_LENGTH__+0x141c>
    1768:	01 96       	adiw	r24, 0x01	; 1
    176a:	f1 01       	movw	r30, r2
    176c:	26 81       	ldd	r18, Z+6	; 0x06
    176e:	37 81       	ldd	r19, Z+7	; 0x07
    1770:	82 17       	cp	r24, r18
    1772:	93 07       	cpc	r25, r19
    1774:	14 f4       	brge	.+4      	; 0x177a <__LOCK_REGION_LENGTH__+0x137a>
    1776:	86 83       	std	Z+6, r24	; 0x06
    1778:	97 83       	std	Z+7, r25	; 0x07
    177a:	eb 81       	ldd	r30, Y+3	; 0x03
    177c:	fc 81       	ldd	r31, Y+4	; 0x04
    177e:	26 85       	ldd	r18, Z+14	; 0x0e
    1780:	f1 01       	movw	r30, r2
    1782:	80 8d       	ldd	r24, Z+24	; 0x18
    1784:	82 17       	cp	r24, r18
    1786:	09 f4       	brne	.+2      	; 0x178a <__LOCK_REGION_LENGTH__+0x138a>
    1788:	49 c0       	rjmp	.+146    	; 0x181c <__LOCK_REGION_LENGTH__+0x141c>
    178a:	eb 81       	ldd	r30, Y+3	; 0x03
    178c:	fc 81       	ldd	r31, Y+4	; 0x04
    178e:	83 89       	ldd	r24, Z+19	; 0x13
    1790:	94 89       	ldd	r25, Z+20	; 0x14
    1792:	01 96       	adiw	r24, 0x01	; 1
    1794:	83 8b       	std	Z+19, r24	; 0x13
    1796:	94 8b       	std	Z+20, r25	; 0x14
    1798:	f1 01       	movw	r30, r2
    179a:	80 81       	ld	r24, Z
    179c:	91 81       	ldd	r25, Z+1	; 0x01
    179e:	c8 16       	cp	r12, r24
    17a0:	d9 06       	cpc	r13, r25
    17a2:	71 f4       	brne	.+28     	; 0x17c0 <__LOCK_REGION_LENGTH__+0x13c0>
    17a4:	82 81       	ldd	r24, Z+2	; 0x02
    17a6:	93 81       	ldd	r25, Z+3	; 0x03
    17a8:	a8 16       	cp	r10, r24
    17aa:	b9 06       	cpc	r11, r25
    17ac:	49 f4       	brne	.+18     	; 0x17c0 <__LOCK_REGION_LENGTH__+0x13c0>
    17ae:	84 81       	ldd	r24, Z+4	; 0x04
    17b0:	95 81       	ldd	r25, Z+5	; 0x05
    17b2:	88 16       	cp	r8, r24
    17b4:	99 06       	cpc	r9, r25
    17b6:	21 f4       	brne	.+8      	; 0x17c0 <__LOCK_REGION_LENGTH__+0x13c0>
    17b8:	eb 81       	ldd	r30, Y+3	; 0x03
    17ba:	fc 81       	ldd	r31, Y+4	; 0x04
    17bc:	27 86       	std	Z+15, r2	; 0x0f
    17be:	30 8a       	std	Z+16, r3	; 0x10
    17c0:	f1 01       	movw	r30, r2
    17c2:	20 8f       	std	Z+24, r18	; 0x18
    17c4:	e6 80       	ldd	r14, Z+6	; 0x06
    17c6:	f7 80       	ldd	r15, Z+7	; 0x07
    17c8:	62 85       	ldd	r22, Z+10	; 0x0a
    17ca:	73 85       	ldd	r23, Z+11	; 0x0b
    17cc:	84 01       	movw	r16, r8
    17ce:	95 01       	movw	r18, r10
    17d0:	a6 01       	movw	r20, r12
    17d2:	8b 81       	ldd	r24, Y+3	; 0x03
    17d4:	9c 81       	ldd	r25, Y+4	; 0x04
    17d6:	0e 94 42 01 	call	0x284	; 0x284 <_ZN4core3dfsEP4nodeiiii>
    17da:	f1 01       	movw	r30, r2
    17dc:	e6 80       	ldd	r14, Z+6	; 0x06
    17de:	f7 80       	ldd	r15, Z+7	; 0x07
    17e0:	64 85       	ldd	r22, Z+12	; 0x0c
    17e2:	75 85       	ldd	r23, Z+13	; 0x0d
    17e4:	95 01       	movw	r18, r10
    17e6:	a6 01       	movw	r20, r12
    17e8:	8b 81       	ldd	r24, Y+3	; 0x03
    17ea:	9c 81       	ldd	r25, Y+4	; 0x04
    17ec:	0e 94 42 01 	call	0x284	; 0x284 <_ZN4core3dfsEP4nodeiiii>
    17f0:	f1 01       	movw	r30, r2
    17f2:	e6 80       	ldd	r14, Z+6	; 0x06
    17f4:	f7 80       	ldd	r15, Z+7	; 0x07
    17f6:	66 85       	ldd	r22, Z+14	; 0x0e
    17f8:	77 85       	ldd	r23, Z+15	; 0x0f
    17fa:	95 01       	movw	r18, r10
    17fc:	a6 01       	movw	r20, r12
    17fe:	8b 81       	ldd	r24, Y+3	; 0x03
    1800:	9c 81       	ldd	r25, Y+4	; 0x04
    1802:	0e 94 42 01 	call	0x284	; 0x284 <_ZN4core3dfsEP4nodeiiii>
    1806:	f1 01       	movw	r30, r2
    1808:	e6 80       	ldd	r14, Z+6	; 0x06
    180a:	f7 80       	ldd	r15, Z+7	; 0x07
    180c:	60 89       	ldd	r22, Z+16	; 0x10
    180e:	71 89       	ldd	r23, Z+17	; 0x11
    1810:	95 01       	movw	r18, r10
    1812:	a6 01       	movw	r20, r12
    1814:	8b 81       	ldd	r24, Y+3	; 0x03
    1816:	9c 81       	ldd	r25, Y+4	; 0x04
    1818:	0e 94 42 01 	call	0x284	; 0x284 <_ZN4core3dfsEP4nodeiiii>
    181c:	f2 01       	movw	r30, r4
    181e:	86 81       	ldd	r24, Z+6	; 0x06
    1820:	97 81       	ldd	r25, Z+7	; 0x07
    1822:	24 84       	ldd	r2, Z+12	; 0x0c
    1824:	35 84       	ldd	r3, Z+13	; 0x0d
    1826:	21 14       	cp	r2, r1
    1828:	31 04       	cpc	r3, r1
    182a:	09 f4       	brne	.+2      	; 0x182e <__LOCK_REGION_LENGTH__+0x142e>
    182c:	5a c0       	rjmp	.+180    	; 0x18e2 <__LOCK_REGION_LENGTH__+0x14e2>
    182e:	01 96       	adiw	r24, 0x01	; 1
    1830:	f1 01       	movw	r30, r2
    1832:	26 81       	ldd	r18, Z+6	; 0x06
    1834:	37 81       	ldd	r19, Z+7	; 0x07
    1836:	82 17       	cp	r24, r18
    1838:	93 07       	cpc	r25, r19
    183a:	14 f4       	brge	.+4      	; 0x1840 <__LOCK_REGION_LENGTH__+0x1440>
    183c:	86 83       	std	Z+6, r24	; 0x06
    183e:	97 83       	std	Z+7, r25	; 0x07
    1840:	eb 81       	ldd	r30, Y+3	; 0x03
    1842:	fc 81       	ldd	r31, Y+4	; 0x04
    1844:	26 85       	ldd	r18, Z+14	; 0x0e
    1846:	f1 01       	movw	r30, r2
    1848:	80 8d       	ldd	r24, Z+24	; 0x18
    184a:	82 17       	cp	r24, r18
    184c:	09 f4       	brne	.+2      	; 0x1850 <__LOCK_REGION_LENGTH__+0x1450>
    184e:	49 c0       	rjmp	.+146    	; 0x18e2 <__LOCK_REGION_LENGTH__+0x14e2>
    1850:	eb 81       	ldd	r30, Y+3	; 0x03
    1852:	fc 81       	ldd	r31, Y+4	; 0x04
    1854:	83 89       	ldd	r24, Z+19	; 0x13
    1856:	94 89       	ldd	r25, Z+20	; 0x14
    1858:	01 96       	adiw	r24, 0x01	; 1
    185a:	83 8b       	std	Z+19, r24	; 0x13
    185c:	94 8b       	std	Z+20, r25	; 0x14
    185e:	f1 01       	movw	r30, r2
    1860:	80 81       	ld	r24, Z
    1862:	91 81       	ldd	r25, Z+1	; 0x01
    1864:	c8 16       	cp	r12, r24
    1866:	d9 06       	cpc	r13, r25
    1868:	71 f4       	brne	.+28     	; 0x1886 <__LOCK_REGION_LENGTH__+0x1486>
    186a:	82 81       	ldd	r24, Z+2	; 0x02
    186c:	93 81       	ldd	r25, Z+3	; 0x03
    186e:	a8 16       	cp	r10, r24
    1870:	b9 06       	cpc	r11, r25
    1872:	49 f4       	brne	.+18     	; 0x1886 <__LOCK_REGION_LENGTH__+0x1486>
    1874:	84 81       	ldd	r24, Z+4	; 0x04
    1876:	95 81       	ldd	r25, Z+5	; 0x05
    1878:	88 16       	cp	r8, r24
    187a:	99 06       	cpc	r9, r25
    187c:	21 f4       	brne	.+8      	; 0x1886 <__LOCK_REGION_LENGTH__+0x1486>
    187e:	eb 81       	ldd	r30, Y+3	; 0x03
    1880:	fc 81       	ldd	r31, Y+4	; 0x04
    1882:	27 86       	std	Z+15, r2	; 0x0f
    1884:	30 8a       	std	Z+16, r3	; 0x10
    1886:	f1 01       	movw	r30, r2
    1888:	20 8f       	std	Z+24, r18	; 0x18
    188a:	e6 80       	ldd	r14, Z+6	; 0x06
    188c:	f7 80       	ldd	r15, Z+7	; 0x07
    188e:	62 85       	ldd	r22, Z+10	; 0x0a
    1890:	73 85       	ldd	r23, Z+11	; 0x0b
    1892:	84 01       	movw	r16, r8
    1894:	95 01       	movw	r18, r10
    1896:	a6 01       	movw	r20, r12
    1898:	8b 81       	ldd	r24, Y+3	; 0x03
    189a:	9c 81       	ldd	r25, Y+4	; 0x04
    189c:	0e 94 42 01 	call	0x284	; 0x284 <_ZN4core3dfsEP4nodeiiii>
    18a0:	f1 01       	movw	r30, r2
    18a2:	e6 80       	ldd	r14, Z+6	; 0x06
    18a4:	f7 80       	ldd	r15, Z+7	; 0x07
    18a6:	64 85       	ldd	r22, Z+12	; 0x0c
    18a8:	75 85       	ldd	r23, Z+13	; 0x0d
    18aa:	95 01       	movw	r18, r10
    18ac:	a6 01       	movw	r20, r12
    18ae:	8b 81       	ldd	r24, Y+3	; 0x03
    18b0:	9c 81       	ldd	r25, Y+4	; 0x04
    18b2:	0e 94 42 01 	call	0x284	; 0x284 <_ZN4core3dfsEP4nodeiiii>
    18b6:	f1 01       	movw	r30, r2
    18b8:	e6 80       	ldd	r14, Z+6	; 0x06
    18ba:	f7 80       	ldd	r15, Z+7	; 0x07
    18bc:	66 85       	ldd	r22, Z+14	; 0x0e
    18be:	77 85       	ldd	r23, Z+15	; 0x0f
    18c0:	95 01       	movw	r18, r10
    18c2:	a6 01       	movw	r20, r12
    18c4:	8b 81       	ldd	r24, Y+3	; 0x03
    18c6:	9c 81       	ldd	r25, Y+4	; 0x04
    18c8:	0e 94 42 01 	call	0x284	; 0x284 <_ZN4core3dfsEP4nodeiiii>
    18cc:	f1 01       	movw	r30, r2
    18ce:	e6 80       	ldd	r14, Z+6	; 0x06
    18d0:	f7 80       	ldd	r15, Z+7	; 0x07
    18d2:	60 89       	ldd	r22, Z+16	; 0x10
    18d4:	71 89       	ldd	r23, Z+17	; 0x11
    18d6:	95 01       	movw	r18, r10
    18d8:	a6 01       	movw	r20, r12
    18da:	8b 81       	ldd	r24, Y+3	; 0x03
    18dc:	9c 81       	ldd	r25, Y+4	; 0x04
    18de:	0e 94 42 01 	call	0x284	; 0x284 <_ZN4core3dfsEP4nodeiiii>
    18e2:	f2 01       	movw	r30, r4
    18e4:	86 81       	ldd	r24, Z+6	; 0x06
    18e6:	97 81       	ldd	r25, Z+7	; 0x07
    18e8:	26 84       	ldd	r2, Z+14	; 0x0e
    18ea:	37 84       	ldd	r3, Z+15	; 0x0f
    18ec:	21 14       	cp	r2, r1
    18ee:	31 04       	cpc	r3, r1
    18f0:	09 f4       	brne	.+2      	; 0x18f4 <__LOCK_REGION_LENGTH__+0x14f4>
    18f2:	1d c1       	rjmp	.+570    	; 0x1b2e <__LOCK_REGION_LENGTH__+0x172e>
    18f4:	01 96       	adiw	r24, 0x01	; 1
    18f6:	f1 01       	movw	r30, r2
    18f8:	26 81       	ldd	r18, Z+6	; 0x06
    18fa:	37 81       	ldd	r19, Z+7	; 0x07
    18fc:	82 17       	cp	r24, r18
    18fe:	93 07       	cpc	r25, r19
    1900:	14 f4       	brge	.+4      	; 0x1906 <__LOCK_REGION_LENGTH__+0x1506>
    1902:	86 83       	std	Z+6, r24	; 0x06
    1904:	97 83       	std	Z+7, r25	; 0x07
    1906:	eb 81       	ldd	r30, Y+3	; 0x03
    1908:	fc 81       	ldd	r31, Y+4	; 0x04
    190a:	26 85       	ldd	r18, Z+14	; 0x0e
    190c:	f1 01       	movw	r30, r2
    190e:	80 8d       	ldd	r24, Z+24	; 0x18
    1910:	82 17       	cp	r24, r18
    1912:	09 f4       	brne	.+2      	; 0x1916 <__LOCK_REGION_LENGTH__+0x1516>
    1914:	0c c1       	rjmp	.+536    	; 0x1b2e <__LOCK_REGION_LENGTH__+0x172e>
    1916:	eb 81       	ldd	r30, Y+3	; 0x03
    1918:	fc 81       	ldd	r31, Y+4	; 0x04
    191a:	83 89       	ldd	r24, Z+19	; 0x13
    191c:	94 89       	ldd	r25, Z+20	; 0x14
    191e:	01 96       	adiw	r24, 0x01	; 1
    1920:	83 8b       	std	Z+19, r24	; 0x13
    1922:	94 8b       	std	Z+20, r25	; 0x14
    1924:	f1 01       	movw	r30, r2
    1926:	80 81       	ld	r24, Z
    1928:	91 81       	ldd	r25, Z+1	; 0x01
    192a:	c8 16       	cp	r12, r24
    192c:	d9 06       	cpc	r13, r25
    192e:	71 f4       	brne	.+28     	; 0x194c <__LOCK_REGION_LENGTH__+0x154c>
    1930:	82 81       	ldd	r24, Z+2	; 0x02
    1932:	93 81       	ldd	r25, Z+3	; 0x03
    1934:	a8 16       	cp	r10, r24
    1936:	b9 06       	cpc	r11, r25
    1938:	49 f4       	brne	.+18     	; 0x194c <__LOCK_REGION_LENGTH__+0x154c>
    193a:	84 81       	ldd	r24, Z+4	; 0x04
    193c:	95 81       	ldd	r25, Z+5	; 0x05
    193e:	88 16       	cp	r8, r24
    1940:	99 06       	cpc	r9, r25
    1942:	21 f4       	brne	.+8      	; 0x194c <__LOCK_REGION_LENGTH__+0x154c>
    1944:	eb 81       	ldd	r30, Y+3	; 0x03
    1946:	fc 81       	ldd	r31, Y+4	; 0x04
    1948:	27 86       	std	Z+15, r2	; 0x0f
    194a:	30 8a       	std	Z+16, r3	; 0x10
    194c:	f1 01       	movw	r30, r2
    194e:	20 8f       	std	Z+24, r18	; 0x18
    1950:	86 81       	ldd	r24, Z+6	; 0x06
    1952:	97 81       	ldd	r25, Z+7	; 0x07
    1954:	22 85       	ldd	r18, Z+10	; 0x0a
    1956:	33 85       	ldd	r19, Z+11	; 0x0b
    1958:	29 83       	std	Y+1, r18	; 0x01
    195a:	3a 83       	std	Y+2, r19	; 0x02
    195c:	21 15       	cp	r18, r1
    195e:	31 05       	cpc	r19, r1
    1960:	09 f4       	brne	.+2      	; 0x1964 <__LOCK_REGION_LENGTH__+0x1564>
    1962:	61 c0       	rjmp	.+194    	; 0x1a26 <__LOCK_REGION_LENGTH__+0x1626>
    1964:	01 96       	adiw	r24, 0x01	; 1
    1966:	f9 01       	movw	r30, r18
    1968:	26 81       	ldd	r18, Z+6	; 0x06
    196a:	37 81       	ldd	r19, Z+7	; 0x07
    196c:	82 17       	cp	r24, r18
    196e:	93 07       	cpc	r25, r19
    1970:	14 f4       	brge	.+4      	; 0x1976 <__LOCK_REGION_LENGTH__+0x1576>
    1972:	86 83       	std	Z+6, r24	; 0x06
    1974:	97 83       	std	Z+7, r25	; 0x07
    1976:	eb 81       	ldd	r30, Y+3	; 0x03
    1978:	fc 81       	ldd	r31, Y+4	; 0x04
    197a:	26 85       	ldd	r18, Z+14	; 0x0e
    197c:	e9 81       	ldd	r30, Y+1	; 0x01
    197e:	fa 81       	ldd	r31, Y+2	; 0x02
    1980:	80 8d       	ldd	r24, Z+24	; 0x18
    1982:	82 17       	cp	r24, r18
    1984:	09 f4       	brne	.+2      	; 0x1988 <__LOCK_REGION_LENGTH__+0x1588>
    1986:	4f c0       	rjmp	.+158    	; 0x1a26 <__LOCK_REGION_LENGTH__+0x1626>
    1988:	eb 81       	ldd	r30, Y+3	; 0x03
    198a:	fc 81       	ldd	r31, Y+4	; 0x04
    198c:	83 89       	ldd	r24, Z+19	; 0x13
    198e:	94 89       	ldd	r25, Z+20	; 0x14
    1990:	01 96       	adiw	r24, 0x01	; 1
    1992:	83 8b       	std	Z+19, r24	; 0x13
    1994:	94 8b       	std	Z+20, r25	; 0x14
    1996:	e9 81       	ldd	r30, Y+1	; 0x01
    1998:	fa 81       	ldd	r31, Y+2	; 0x02
    199a:	80 81       	ld	r24, Z
    199c:	91 81       	ldd	r25, Z+1	; 0x01
    199e:	c8 16       	cp	r12, r24
    19a0:	d9 06       	cpc	r13, r25
    19a2:	79 f4       	brne	.+30     	; 0x19c2 <__LOCK_REGION_LENGTH__+0x15c2>
    19a4:	82 81       	ldd	r24, Z+2	; 0x02
    19a6:	93 81       	ldd	r25, Z+3	; 0x03
    19a8:	a8 16       	cp	r10, r24
    19aa:	b9 06       	cpc	r11, r25
    19ac:	51 f4       	brne	.+20     	; 0x19c2 <__LOCK_REGION_LENGTH__+0x15c2>
    19ae:	84 81       	ldd	r24, Z+4	; 0x04
    19b0:	95 81       	ldd	r25, Z+5	; 0x05
    19b2:	88 16       	cp	r8, r24
    19b4:	99 06       	cpc	r9, r25
    19b6:	29 f4       	brne	.+10     	; 0x19c2 <__LOCK_REGION_LENGTH__+0x15c2>
    19b8:	cf 01       	movw	r24, r30
    19ba:	eb 81       	ldd	r30, Y+3	; 0x03
    19bc:	fc 81       	ldd	r31, Y+4	; 0x04
    19be:	87 87       	std	Z+15, r24	; 0x0f
    19c0:	90 8b       	std	Z+16, r25	; 0x10
    19c2:	e9 81       	ldd	r30, Y+1	; 0x01
    19c4:	fa 81       	ldd	r31, Y+2	; 0x02
    19c6:	20 8f       	std	Z+24, r18	; 0x18
    19c8:	e6 80       	ldd	r14, Z+6	; 0x06
    19ca:	f7 80       	ldd	r15, Z+7	; 0x07
    19cc:	62 85       	ldd	r22, Z+10	; 0x0a
    19ce:	73 85       	ldd	r23, Z+11	; 0x0b
    19d0:	84 01       	movw	r16, r8
    19d2:	95 01       	movw	r18, r10
    19d4:	a6 01       	movw	r20, r12
    19d6:	8b 81       	ldd	r24, Y+3	; 0x03
    19d8:	9c 81       	ldd	r25, Y+4	; 0x04
    19da:	0e 94 42 01 	call	0x284	; 0x284 <_ZN4core3dfsEP4nodeiiii>
    19de:	e9 81       	ldd	r30, Y+1	; 0x01
    19e0:	fa 81       	ldd	r31, Y+2	; 0x02
    19e2:	e6 80       	ldd	r14, Z+6	; 0x06
    19e4:	f7 80       	ldd	r15, Z+7	; 0x07
    19e6:	64 85       	ldd	r22, Z+12	; 0x0c
    19e8:	75 85       	ldd	r23, Z+13	; 0x0d
    19ea:	95 01       	movw	r18, r10
    19ec:	a6 01       	movw	r20, r12
    19ee:	8b 81       	ldd	r24, Y+3	; 0x03
    19f0:	9c 81       	ldd	r25, Y+4	; 0x04
    19f2:	0e 94 42 01 	call	0x284	; 0x284 <_ZN4core3dfsEP4nodeiiii>
    19f6:	e9 81       	ldd	r30, Y+1	; 0x01
    19f8:	fa 81       	ldd	r31, Y+2	; 0x02
    19fa:	e6 80       	ldd	r14, Z+6	; 0x06
    19fc:	f7 80       	ldd	r15, Z+7	; 0x07
    19fe:	66 85       	ldd	r22, Z+14	; 0x0e
    1a00:	77 85       	ldd	r23, Z+15	; 0x0f
    1a02:	95 01       	movw	r18, r10
    1a04:	a6 01       	movw	r20, r12
    1a06:	8b 81       	ldd	r24, Y+3	; 0x03
    1a08:	9c 81       	ldd	r25, Y+4	; 0x04
    1a0a:	0e 94 42 01 	call	0x284	; 0x284 <_ZN4core3dfsEP4nodeiiii>
    1a0e:	e9 81       	ldd	r30, Y+1	; 0x01
    1a10:	fa 81       	ldd	r31, Y+2	; 0x02
    1a12:	e6 80       	ldd	r14, Z+6	; 0x06
    1a14:	f7 80       	ldd	r15, Z+7	; 0x07
    1a16:	60 89       	ldd	r22, Z+16	; 0x10
    1a18:	71 89       	ldd	r23, Z+17	; 0x11
    1a1a:	95 01       	movw	r18, r10
    1a1c:	a6 01       	movw	r20, r12
    1a1e:	8b 81       	ldd	r24, Y+3	; 0x03
    1a20:	9c 81       	ldd	r25, Y+4	; 0x04
    1a22:	0e 94 42 01 	call	0x284	; 0x284 <_ZN4core3dfsEP4nodeiiii>
    1a26:	f1 01       	movw	r30, r2
    1a28:	e6 80       	ldd	r14, Z+6	; 0x06
    1a2a:	f7 80       	ldd	r15, Z+7	; 0x07
    1a2c:	64 85       	ldd	r22, Z+12	; 0x0c
    1a2e:	75 85       	ldd	r23, Z+13	; 0x0d
    1a30:	84 01       	movw	r16, r8
    1a32:	95 01       	movw	r18, r10
    1a34:	a6 01       	movw	r20, r12
    1a36:	8b 81       	ldd	r24, Y+3	; 0x03
    1a38:	9c 81       	ldd	r25, Y+4	; 0x04
    1a3a:	0e 94 42 01 	call	0x284	; 0x284 <_ZN4core3dfsEP4nodeiiii>
    1a3e:	f1 01       	movw	r30, r2
    1a40:	86 81       	ldd	r24, Z+6	; 0x06
    1a42:	97 81       	ldd	r25, Z+7	; 0x07
    1a44:	26 85       	ldd	r18, Z+14	; 0x0e
    1a46:	37 85       	ldd	r19, Z+15	; 0x0f
    1a48:	29 83       	std	Y+1, r18	; 0x01
    1a4a:	3a 83       	std	Y+2, r19	; 0x02
    1a4c:	21 15       	cp	r18, r1
    1a4e:	31 05       	cpc	r19, r1
    1a50:	09 f4       	brne	.+2      	; 0x1a54 <__LOCK_REGION_LENGTH__+0x1654>
    1a52:	61 c0       	rjmp	.+194    	; 0x1b16 <__LOCK_REGION_LENGTH__+0x1716>
    1a54:	01 96       	adiw	r24, 0x01	; 1
    1a56:	f9 01       	movw	r30, r18
    1a58:	26 81       	ldd	r18, Z+6	; 0x06
    1a5a:	37 81       	ldd	r19, Z+7	; 0x07
    1a5c:	82 17       	cp	r24, r18
    1a5e:	93 07       	cpc	r25, r19
    1a60:	14 f4       	brge	.+4      	; 0x1a66 <__LOCK_REGION_LENGTH__+0x1666>
    1a62:	86 83       	std	Z+6, r24	; 0x06
    1a64:	97 83       	std	Z+7, r25	; 0x07
    1a66:	eb 81       	ldd	r30, Y+3	; 0x03
    1a68:	fc 81       	ldd	r31, Y+4	; 0x04
    1a6a:	26 85       	ldd	r18, Z+14	; 0x0e
    1a6c:	e9 81       	ldd	r30, Y+1	; 0x01
    1a6e:	fa 81       	ldd	r31, Y+2	; 0x02
    1a70:	80 8d       	ldd	r24, Z+24	; 0x18
    1a72:	82 17       	cp	r24, r18
    1a74:	09 f4       	brne	.+2      	; 0x1a78 <__LOCK_REGION_LENGTH__+0x1678>
    1a76:	4f c0       	rjmp	.+158    	; 0x1b16 <__LOCK_REGION_LENGTH__+0x1716>
    1a78:	eb 81       	ldd	r30, Y+3	; 0x03
    1a7a:	fc 81       	ldd	r31, Y+4	; 0x04
    1a7c:	83 89       	ldd	r24, Z+19	; 0x13
    1a7e:	94 89       	ldd	r25, Z+20	; 0x14
    1a80:	01 96       	adiw	r24, 0x01	; 1
    1a82:	83 8b       	std	Z+19, r24	; 0x13
    1a84:	94 8b       	std	Z+20, r25	; 0x14
    1a86:	e9 81       	ldd	r30, Y+1	; 0x01
    1a88:	fa 81       	ldd	r31, Y+2	; 0x02
    1a8a:	80 81       	ld	r24, Z
    1a8c:	91 81       	ldd	r25, Z+1	; 0x01
    1a8e:	c8 16       	cp	r12, r24
    1a90:	d9 06       	cpc	r13, r25
    1a92:	79 f4       	brne	.+30     	; 0x1ab2 <__LOCK_REGION_LENGTH__+0x16b2>
    1a94:	82 81       	ldd	r24, Z+2	; 0x02
    1a96:	93 81       	ldd	r25, Z+3	; 0x03
    1a98:	a8 16       	cp	r10, r24
    1a9a:	b9 06       	cpc	r11, r25
    1a9c:	51 f4       	brne	.+20     	; 0x1ab2 <__LOCK_REGION_LENGTH__+0x16b2>
    1a9e:	84 81       	ldd	r24, Z+4	; 0x04
    1aa0:	95 81       	ldd	r25, Z+5	; 0x05
    1aa2:	88 16       	cp	r8, r24
    1aa4:	99 06       	cpc	r9, r25
    1aa6:	29 f4       	brne	.+10     	; 0x1ab2 <__LOCK_REGION_LENGTH__+0x16b2>
    1aa8:	cf 01       	movw	r24, r30
    1aaa:	eb 81       	ldd	r30, Y+3	; 0x03
    1aac:	fc 81       	ldd	r31, Y+4	; 0x04
    1aae:	87 87       	std	Z+15, r24	; 0x0f
    1ab0:	90 8b       	std	Z+16, r25	; 0x10
    1ab2:	e9 81       	ldd	r30, Y+1	; 0x01
    1ab4:	fa 81       	ldd	r31, Y+2	; 0x02
    1ab6:	20 8f       	std	Z+24, r18	; 0x18
    1ab8:	e6 80       	ldd	r14, Z+6	; 0x06
    1aba:	f7 80       	ldd	r15, Z+7	; 0x07
    1abc:	62 85       	ldd	r22, Z+10	; 0x0a
    1abe:	73 85       	ldd	r23, Z+11	; 0x0b
    1ac0:	84 01       	movw	r16, r8
    1ac2:	95 01       	movw	r18, r10
    1ac4:	a6 01       	movw	r20, r12
    1ac6:	8b 81       	ldd	r24, Y+3	; 0x03
    1ac8:	9c 81       	ldd	r25, Y+4	; 0x04
    1aca:	0e 94 42 01 	call	0x284	; 0x284 <_ZN4core3dfsEP4nodeiiii>
    1ace:	e9 81       	ldd	r30, Y+1	; 0x01
    1ad0:	fa 81       	ldd	r31, Y+2	; 0x02
    1ad2:	e6 80       	ldd	r14, Z+6	; 0x06
    1ad4:	f7 80       	ldd	r15, Z+7	; 0x07
    1ad6:	64 85       	ldd	r22, Z+12	; 0x0c
    1ad8:	75 85       	ldd	r23, Z+13	; 0x0d
    1ada:	95 01       	movw	r18, r10
    1adc:	a6 01       	movw	r20, r12
    1ade:	8b 81       	ldd	r24, Y+3	; 0x03
    1ae0:	9c 81       	ldd	r25, Y+4	; 0x04
    1ae2:	0e 94 42 01 	call	0x284	; 0x284 <_ZN4core3dfsEP4nodeiiii>
    1ae6:	e9 81       	ldd	r30, Y+1	; 0x01
    1ae8:	fa 81       	ldd	r31, Y+2	; 0x02
    1aea:	e6 80       	ldd	r14, Z+6	; 0x06
    1aec:	f7 80       	ldd	r15, Z+7	; 0x07
    1aee:	66 85       	ldd	r22, Z+14	; 0x0e
    1af0:	77 85       	ldd	r23, Z+15	; 0x0f
    1af2:	95 01       	movw	r18, r10
    1af4:	a6 01       	movw	r20, r12
    1af6:	8b 81       	ldd	r24, Y+3	; 0x03
    1af8:	9c 81       	ldd	r25, Y+4	; 0x04
    1afa:	0e 94 42 01 	call	0x284	; 0x284 <_ZN4core3dfsEP4nodeiiii>
    1afe:	e9 81       	ldd	r30, Y+1	; 0x01
    1b00:	fa 81       	ldd	r31, Y+2	; 0x02
    1b02:	e6 80       	ldd	r14, Z+6	; 0x06
    1b04:	f7 80       	ldd	r15, Z+7	; 0x07
    1b06:	60 89       	ldd	r22, Z+16	; 0x10
    1b08:	71 89       	ldd	r23, Z+17	; 0x11
    1b0a:	95 01       	movw	r18, r10
    1b0c:	a6 01       	movw	r20, r12
    1b0e:	8b 81       	ldd	r24, Y+3	; 0x03
    1b10:	9c 81       	ldd	r25, Y+4	; 0x04
    1b12:	0e 94 42 01 	call	0x284	; 0x284 <_ZN4core3dfsEP4nodeiiii>
    1b16:	f1 01       	movw	r30, r2
    1b18:	e6 80       	ldd	r14, Z+6	; 0x06
    1b1a:	f7 80       	ldd	r15, Z+7	; 0x07
    1b1c:	60 89       	ldd	r22, Z+16	; 0x10
    1b1e:	71 89       	ldd	r23, Z+17	; 0x11
    1b20:	84 01       	movw	r16, r8
    1b22:	95 01       	movw	r18, r10
    1b24:	a6 01       	movw	r20, r12
    1b26:	8b 81       	ldd	r24, Y+3	; 0x03
    1b28:	9c 81       	ldd	r25, Y+4	; 0x04
    1b2a:	0e 94 42 01 	call	0x284	; 0x284 <_ZN4core3dfsEP4nodeiiii>
    1b2e:	f2 01       	movw	r30, r4
    1b30:	86 81       	ldd	r24, Z+6	; 0x06
    1b32:	97 81       	ldd	r25, Z+7	; 0x07
    1b34:	40 88       	ldd	r4, Z+16	; 0x10
    1b36:	51 88       	ldd	r5, Z+17	; 0x11
    1b38:	41 14       	cp	r4, r1
    1b3a:	51 04       	cpc	r5, r1
    1b3c:	09 f4       	brne	.+2      	; 0x1b40 <__LOCK_REGION_LENGTH__+0x1740>
    1b3e:	b2 c0       	rjmp	.+356    	; 0x1ca4 <__LOCK_REGION_LENGTH__+0x18a4>
    1b40:	01 96       	adiw	r24, 0x01	; 1
    1b42:	f2 01       	movw	r30, r4
    1b44:	26 81       	ldd	r18, Z+6	; 0x06
    1b46:	37 81       	ldd	r19, Z+7	; 0x07
    1b48:	82 17       	cp	r24, r18
    1b4a:	93 07       	cpc	r25, r19
    1b4c:	14 f4       	brge	.+4      	; 0x1b52 <__LOCK_REGION_LENGTH__+0x1752>
    1b4e:	86 83       	std	Z+6, r24	; 0x06
    1b50:	97 83       	std	Z+7, r25	; 0x07
    1b52:	eb 81       	ldd	r30, Y+3	; 0x03
    1b54:	fc 81       	ldd	r31, Y+4	; 0x04
    1b56:	26 85       	ldd	r18, Z+14	; 0x0e
    1b58:	f2 01       	movw	r30, r4
    1b5a:	80 8d       	ldd	r24, Z+24	; 0x18
    1b5c:	82 17       	cp	r24, r18
    1b5e:	09 f4       	brne	.+2      	; 0x1b62 <__LOCK_REGION_LENGTH__+0x1762>
    1b60:	a1 c0       	rjmp	.+322    	; 0x1ca4 <__LOCK_REGION_LENGTH__+0x18a4>
    1b62:	eb 81       	ldd	r30, Y+3	; 0x03
    1b64:	fc 81       	ldd	r31, Y+4	; 0x04
    1b66:	83 89       	ldd	r24, Z+19	; 0x13
    1b68:	94 89       	ldd	r25, Z+20	; 0x14
    1b6a:	01 96       	adiw	r24, 0x01	; 1
    1b6c:	83 8b       	std	Z+19, r24	; 0x13
    1b6e:	94 8b       	std	Z+20, r25	; 0x14
    1b70:	f2 01       	movw	r30, r4
    1b72:	80 81       	ld	r24, Z
    1b74:	91 81       	ldd	r25, Z+1	; 0x01
    1b76:	c8 16       	cp	r12, r24
    1b78:	d9 06       	cpc	r13, r25
    1b7a:	71 f4       	brne	.+28     	; 0x1b98 <__LOCK_REGION_LENGTH__+0x1798>
    1b7c:	82 81       	ldd	r24, Z+2	; 0x02
    1b7e:	93 81       	ldd	r25, Z+3	; 0x03
    1b80:	a8 16       	cp	r10, r24
    1b82:	b9 06       	cpc	r11, r25
    1b84:	49 f4       	brne	.+18     	; 0x1b98 <__LOCK_REGION_LENGTH__+0x1798>
    1b86:	84 81       	ldd	r24, Z+4	; 0x04
    1b88:	95 81       	ldd	r25, Z+5	; 0x05
    1b8a:	88 16       	cp	r8, r24
    1b8c:	99 06       	cpc	r9, r25
    1b8e:	21 f4       	brne	.+8      	; 0x1b98 <__LOCK_REGION_LENGTH__+0x1798>
    1b90:	eb 81       	ldd	r30, Y+3	; 0x03
    1b92:	fc 81       	ldd	r31, Y+4	; 0x04
    1b94:	47 86       	std	Z+15, r4	; 0x0f
    1b96:	50 8a       	std	Z+16, r5	; 0x10
    1b98:	f2 01       	movw	r30, r4
    1b9a:	20 8f       	std	Z+24, r18	; 0x18
    1b9c:	86 81       	ldd	r24, Z+6	; 0x06
    1b9e:	97 81       	ldd	r25, Z+7	; 0x07
    1ba0:	22 84       	ldd	r2, Z+10	; 0x0a
    1ba2:	33 84       	ldd	r3, Z+11	; 0x0b
    1ba4:	21 14       	cp	r2, r1
    1ba6:	31 04       	cpc	r3, r1
    1ba8:	09 f4       	brne	.+2      	; 0x1bac <__LOCK_REGION_LENGTH__+0x17ac>
    1baa:	5a c0       	rjmp	.+180    	; 0x1c60 <__LOCK_REGION_LENGTH__+0x1860>
    1bac:	01 96       	adiw	r24, 0x01	; 1
    1bae:	f1 01       	movw	r30, r2
    1bb0:	26 81       	ldd	r18, Z+6	; 0x06
    1bb2:	37 81       	ldd	r19, Z+7	; 0x07
    1bb4:	82 17       	cp	r24, r18
    1bb6:	93 07       	cpc	r25, r19
    1bb8:	14 f4       	brge	.+4      	; 0x1bbe <__LOCK_REGION_LENGTH__+0x17be>
    1bba:	86 83       	std	Z+6, r24	; 0x06
    1bbc:	97 83       	std	Z+7, r25	; 0x07
    1bbe:	eb 81       	ldd	r30, Y+3	; 0x03
    1bc0:	fc 81       	ldd	r31, Y+4	; 0x04
    1bc2:	26 85       	ldd	r18, Z+14	; 0x0e
    1bc4:	f1 01       	movw	r30, r2
    1bc6:	80 8d       	ldd	r24, Z+24	; 0x18
    1bc8:	82 17       	cp	r24, r18
    1bca:	09 f4       	brne	.+2      	; 0x1bce <__LOCK_REGION_LENGTH__+0x17ce>
    1bcc:	49 c0       	rjmp	.+146    	; 0x1c60 <__LOCK_REGION_LENGTH__+0x1860>
    1bce:	eb 81       	ldd	r30, Y+3	; 0x03
    1bd0:	fc 81       	ldd	r31, Y+4	; 0x04
    1bd2:	83 89       	ldd	r24, Z+19	; 0x13
    1bd4:	94 89       	ldd	r25, Z+20	; 0x14
    1bd6:	01 96       	adiw	r24, 0x01	; 1
    1bd8:	83 8b       	std	Z+19, r24	; 0x13
    1bda:	94 8b       	std	Z+20, r25	; 0x14
    1bdc:	f1 01       	movw	r30, r2
    1bde:	80 81       	ld	r24, Z
    1be0:	91 81       	ldd	r25, Z+1	; 0x01
    1be2:	c8 16       	cp	r12, r24
    1be4:	d9 06       	cpc	r13, r25
    1be6:	71 f4       	brne	.+28     	; 0x1c04 <__LOCK_REGION_LENGTH__+0x1804>
    1be8:	82 81       	ldd	r24, Z+2	; 0x02
    1bea:	93 81       	ldd	r25, Z+3	; 0x03
    1bec:	a8 16       	cp	r10, r24
    1bee:	b9 06       	cpc	r11, r25
    1bf0:	49 f4       	brne	.+18     	; 0x1c04 <__LOCK_REGION_LENGTH__+0x1804>
    1bf2:	84 81       	ldd	r24, Z+4	; 0x04
    1bf4:	95 81       	ldd	r25, Z+5	; 0x05
    1bf6:	88 16       	cp	r8, r24
    1bf8:	99 06       	cpc	r9, r25
    1bfa:	21 f4       	brne	.+8      	; 0x1c04 <__LOCK_REGION_LENGTH__+0x1804>
    1bfc:	eb 81       	ldd	r30, Y+3	; 0x03
    1bfe:	fc 81       	ldd	r31, Y+4	; 0x04
    1c00:	27 86       	std	Z+15, r2	; 0x0f
    1c02:	30 8a       	std	Z+16, r3	; 0x10
    1c04:	f1 01       	movw	r30, r2
    1c06:	20 8f       	std	Z+24, r18	; 0x18
    1c08:	e6 80       	ldd	r14, Z+6	; 0x06
    1c0a:	f7 80       	ldd	r15, Z+7	; 0x07
    1c0c:	62 85       	ldd	r22, Z+10	; 0x0a
    1c0e:	73 85       	ldd	r23, Z+11	; 0x0b
    1c10:	84 01       	movw	r16, r8
    1c12:	95 01       	movw	r18, r10
    1c14:	a6 01       	movw	r20, r12
    1c16:	8b 81       	ldd	r24, Y+3	; 0x03
    1c18:	9c 81       	ldd	r25, Y+4	; 0x04
    1c1a:	0e 94 42 01 	call	0x284	; 0x284 <_ZN4core3dfsEP4nodeiiii>
    1c1e:	f1 01       	movw	r30, r2
    1c20:	e6 80       	ldd	r14, Z+6	; 0x06
    1c22:	f7 80       	ldd	r15, Z+7	; 0x07
    1c24:	64 85       	ldd	r22, Z+12	; 0x0c
    1c26:	75 85       	ldd	r23, Z+13	; 0x0d
    1c28:	95 01       	movw	r18, r10
    1c2a:	a6 01       	movw	r20, r12
    1c2c:	8b 81       	ldd	r24, Y+3	; 0x03
    1c2e:	9c 81       	ldd	r25, Y+4	; 0x04
    1c30:	0e 94 42 01 	call	0x284	; 0x284 <_ZN4core3dfsEP4nodeiiii>
    1c34:	f1 01       	movw	r30, r2
    1c36:	e6 80       	ldd	r14, Z+6	; 0x06
    1c38:	f7 80       	ldd	r15, Z+7	; 0x07
    1c3a:	66 85       	ldd	r22, Z+14	; 0x0e
    1c3c:	77 85       	ldd	r23, Z+15	; 0x0f
    1c3e:	95 01       	movw	r18, r10
    1c40:	a6 01       	movw	r20, r12
    1c42:	8b 81       	ldd	r24, Y+3	; 0x03
    1c44:	9c 81       	ldd	r25, Y+4	; 0x04
    1c46:	0e 94 42 01 	call	0x284	; 0x284 <_ZN4core3dfsEP4nodeiiii>
    1c4a:	f1 01       	movw	r30, r2
    1c4c:	e6 80       	ldd	r14, Z+6	; 0x06
    1c4e:	f7 80       	ldd	r15, Z+7	; 0x07
    1c50:	60 89       	ldd	r22, Z+16	; 0x10
    1c52:	71 89       	ldd	r23, Z+17	; 0x11
    1c54:	95 01       	movw	r18, r10
    1c56:	a6 01       	movw	r20, r12
    1c58:	8b 81       	ldd	r24, Y+3	; 0x03
    1c5a:	9c 81       	ldd	r25, Y+4	; 0x04
    1c5c:	0e 94 42 01 	call	0x284	; 0x284 <_ZN4core3dfsEP4nodeiiii>
    1c60:	f2 01       	movw	r30, r4
    1c62:	e6 80       	ldd	r14, Z+6	; 0x06
    1c64:	f7 80       	ldd	r15, Z+7	; 0x07
    1c66:	64 85       	ldd	r22, Z+12	; 0x0c
    1c68:	75 85       	ldd	r23, Z+13	; 0x0d
    1c6a:	84 01       	movw	r16, r8
    1c6c:	95 01       	movw	r18, r10
    1c6e:	a6 01       	movw	r20, r12
    1c70:	8b 81       	ldd	r24, Y+3	; 0x03
    1c72:	9c 81       	ldd	r25, Y+4	; 0x04
    1c74:	0e 94 42 01 	call	0x284	; 0x284 <_ZN4core3dfsEP4nodeiiii>
    1c78:	f2 01       	movw	r30, r4
    1c7a:	e6 80       	ldd	r14, Z+6	; 0x06
    1c7c:	f7 80       	ldd	r15, Z+7	; 0x07
    1c7e:	66 85       	ldd	r22, Z+14	; 0x0e
    1c80:	77 85       	ldd	r23, Z+15	; 0x0f
    1c82:	95 01       	movw	r18, r10
    1c84:	a6 01       	movw	r20, r12
    1c86:	8b 81       	ldd	r24, Y+3	; 0x03
    1c88:	9c 81       	ldd	r25, Y+4	; 0x04
    1c8a:	0e 94 42 01 	call	0x284	; 0x284 <_ZN4core3dfsEP4nodeiiii>
    1c8e:	f2 01       	movw	r30, r4
    1c90:	e6 80       	ldd	r14, Z+6	; 0x06
    1c92:	f7 80       	ldd	r15, Z+7	; 0x07
    1c94:	60 89       	ldd	r22, Z+16	; 0x10
    1c96:	71 89       	ldd	r23, Z+17	; 0x11
    1c98:	95 01       	movw	r18, r10
    1c9a:	a6 01       	movw	r20, r12
    1c9c:	8b 81       	ldd	r24, Y+3	; 0x03
    1c9e:	9c 81       	ldd	r25, Y+4	; 0x04
    1ca0:	0e 94 42 01 	call	0x284	; 0x284 <_ZN4core3dfsEP4nodeiiii>
    1ca4:	f3 01       	movw	r30, r6
    1ca6:	86 81       	ldd	r24, Z+6	; 0x06
    1ca8:	97 81       	ldd	r25, Z+7	; 0x07
    1caa:	60 88       	ldd	r6, Z+16	; 0x10
    1cac:	71 88       	ldd	r7, Z+17	; 0x11
    1cae:	61 14       	cp	r6, r1
    1cb0:	71 04       	cpc	r7, r1
    1cb2:	09 f4       	brne	.+2      	; 0x1cb6 <__LOCK_REGION_LENGTH__+0x18b6>
    1cb4:	80 c5       	rjmp	.+2816   	; 0x27b6 <__LOCK_REGION_LENGTH__+0x23b6>
    1cb6:	01 96       	adiw	r24, 0x01	; 1
    1cb8:	f3 01       	movw	r30, r6
    1cba:	26 81       	ldd	r18, Z+6	; 0x06
    1cbc:	37 81       	ldd	r19, Z+7	; 0x07
    1cbe:	82 17       	cp	r24, r18
    1cc0:	93 07       	cpc	r25, r19
    1cc2:	14 f4       	brge	.+4      	; 0x1cc8 <__LOCK_REGION_LENGTH__+0x18c8>
    1cc4:	86 83       	std	Z+6, r24	; 0x06
    1cc6:	97 83       	std	Z+7, r25	; 0x07
    1cc8:	eb 81       	ldd	r30, Y+3	; 0x03
    1cca:	fc 81       	ldd	r31, Y+4	; 0x04
    1ccc:	26 85       	ldd	r18, Z+14	; 0x0e
    1cce:	f3 01       	movw	r30, r6
    1cd0:	80 8d       	ldd	r24, Z+24	; 0x18
    1cd2:	82 17       	cp	r24, r18
    1cd4:	09 f4       	brne	.+2      	; 0x1cd8 <__LOCK_REGION_LENGTH__+0x18d8>
    1cd6:	6f c5       	rjmp	.+2782   	; 0x27b6 <__LOCK_REGION_LENGTH__+0x23b6>
    1cd8:	eb 81       	ldd	r30, Y+3	; 0x03
    1cda:	fc 81       	ldd	r31, Y+4	; 0x04
    1cdc:	83 89       	ldd	r24, Z+19	; 0x13
    1cde:	94 89       	ldd	r25, Z+20	; 0x14
    1ce0:	01 96       	adiw	r24, 0x01	; 1
    1ce2:	83 8b       	std	Z+19, r24	; 0x13
    1ce4:	94 8b       	std	Z+20, r25	; 0x14
    1ce6:	f3 01       	movw	r30, r6
    1ce8:	80 81       	ld	r24, Z
    1cea:	91 81       	ldd	r25, Z+1	; 0x01
    1cec:	c8 16       	cp	r12, r24
    1cee:	d9 06       	cpc	r13, r25
    1cf0:	71 f4       	brne	.+28     	; 0x1d0e <__LOCK_REGION_LENGTH__+0x190e>
    1cf2:	82 81       	ldd	r24, Z+2	; 0x02
    1cf4:	93 81       	ldd	r25, Z+3	; 0x03
    1cf6:	a8 16       	cp	r10, r24
    1cf8:	b9 06       	cpc	r11, r25
    1cfa:	49 f4       	brne	.+18     	; 0x1d0e <__LOCK_REGION_LENGTH__+0x190e>
    1cfc:	84 81       	ldd	r24, Z+4	; 0x04
    1cfe:	95 81       	ldd	r25, Z+5	; 0x05
    1d00:	88 16       	cp	r8, r24
    1d02:	99 06       	cpc	r9, r25
    1d04:	21 f4       	brne	.+8      	; 0x1d0e <__LOCK_REGION_LENGTH__+0x190e>
    1d06:	eb 81       	ldd	r30, Y+3	; 0x03
    1d08:	fc 81       	ldd	r31, Y+4	; 0x04
    1d0a:	67 86       	std	Z+15, r6	; 0x0f
    1d0c:	70 8a       	std	Z+16, r7	; 0x10
    1d0e:	f3 01       	movw	r30, r6
    1d10:	20 8f       	std	Z+24, r18	; 0x18
    1d12:	86 81       	ldd	r24, Z+6	; 0x06
    1d14:	97 81       	ldd	r25, Z+7	; 0x07
    1d16:	42 84       	ldd	r4, Z+10	; 0x0a
    1d18:	53 84       	ldd	r5, Z+11	; 0x0b
    1d1a:	41 14       	cp	r4, r1
    1d1c:	51 04       	cpc	r5, r1
    1d1e:	09 f4       	brne	.+2      	; 0x1d22 <__LOCK_REGION_LENGTH__+0x1922>
    1d20:	62 c1       	rjmp	.+708    	; 0x1fe6 <__LOCK_REGION_LENGTH__+0x1be6>
    1d22:	01 96       	adiw	r24, 0x01	; 1
    1d24:	f2 01       	movw	r30, r4
    1d26:	26 81       	ldd	r18, Z+6	; 0x06
    1d28:	37 81       	ldd	r19, Z+7	; 0x07
    1d2a:	82 17       	cp	r24, r18
    1d2c:	93 07       	cpc	r25, r19
    1d2e:	14 f4       	brge	.+4      	; 0x1d34 <__LOCK_REGION_LENGTH__+0x1934>
    1d30:	86 83       	std	Z+6, r24	; 0x06
    1d32:	97 83       	std	Z+7, r25	; 0x07
    1d34:	eb 81       	ldd	r30, Y+3	; 0x03
    1d36:	fc 81       	ldd	r31, Y+4	; 0x04
    1d38:	26 85       	ldd	r18, Z+14	; 0x0e
    1d3a:	f2 01       	movw	r30, r4
    1d3c:	80 8d       	ldd	r24, Z+24	; 0x18
    1d3e:	82 17       	cp	r24, r18
    1d40:	09 f4       	brne	.+2      	; 0x1d44 <__LOCK_REGION_LENGTH__+0x1944>
    1d42:	51 c1       	rjmp	.+674    	; 0x1fe6 <__LOCK_REGION_LENGTH__+0x1be6>
    1d44:	eb 81       	ldd	r30, Y+3	; 0x03
    1d46:	fc 81       	ldd	r31, Y+4	; 0x04
    1d48:	83 89       	ldd	r24, Z+19	; 0x13
    1d4a:	94 89       	ldd	r25, Z+20	; 0x14
    1d4c:	01 96       	adiw	r24, 0x01	; 1
    1d4e:	83 8b       	std	Z+19, r24	; 0x13
    1d50:	94 8b       	std	Z+20, r25	; 0x14
    1d52:	f2 01       	movw	r30, r4
    1d54:	80 81       	ld	r24, Z
    1d56:	91 81       	ldd	r25, Z+1	; 0x01
    1d58:	c8 16       	cp	r12, r24
    1d5a:	d9 06       	cpc	r13, r25
    1d5c:	71 f4       	brne	.+28     	; 0x1d7a <__LOCK_REGION_LENGTH__+0x197a>
    1d5e:	82 81       	ldd	r24, Z+2	; 0x02
    1d60:	93 81       	ldd	r25, Z+3	; 0x03
    1d62:	a8 16       	cp	r10, r24
    1d64:	b9 06       	cpc	r11, r25
    1d66:	49 f4       	brne	.+18     	; 0x1d7a <__LOCK_REGION_LENGTH__+0x197a>
    1d68:	84 81       	ldd	r24, Z+4	; 0x04
    1d6a:	95 81       	ldd	r25, Z+5	; 0x05
    1d6c:	88 16       	cp	r8, r24
    1d6e:	99 06       	cpc	r9, r25
    1d70:	21 f4       	brne	.+8      	; 0x1d7a <__LOCK_REGION_LENGTH__+0x197a>
    1d72:	eb 81       	ldd	r30, Y+3	; 0x03
    1d74:	fc 81       	ldd	r31, Y+4	; 0x04
    1d76:	47 86       	std	Z+15, r4	; 0x0f
    1d78:	50 8a       	std	Z+16, r5	; 0x10
    1d7a:	f2 01       	movw	r30, r4
    1d7c:	20 8f       	std	Z+24, r18	; 0x18
    1d7e:	e6 80       	ldd	r14, Z+6	; 0x06
    1d80:	f7 80       	ldd	r15, Z+7	; 0x07
    1d82:	62 85       	ldd	r22, Z+10	; 0x0a
    1d84:	73 85       	ldd	r23, Z+11	; 0x0b
    1d86:	84 01       	movw	r16, r8
    1d88:	95 01       	movw	r18, r10
    1d8a:	a6 01       	movw	r20, r12
    1d8c:	8b 81       	ldd	r24, Y+3	; 0x03
    1d8e:	9c 81       	ldd	r25, Y+4	; 0x04
    1d90:	0e 94 42 01 	call	0x284	; 0x284 <_ZN4core3dfsEP4nodeiiii>
    1d94:	f2 01       	movw	r30, r4
    1d96:	86 81       	ldd	r24, Z+6	; 0x06
    1d98:	97 81       	ldd	r25, Z+7	; 0x07
    1d9a:	24 84       	ldd	r2, Z+12	; 0x0c
    1d9c:	35 84       	ldd	r3, Z+13	; 0x0d
    1d9e:	21 14       	cp	r2, r1
    1da0:	31 04       	cpc	r3, r1
    1da2:	09 f4       	brne	.+2      	; 0x1da6 <__LOCK_REGION_LENGTH__+0x19a6>
    1da4:	5a c0       	rjmp	.+180    	; 0x1e5a <__LOCK_REGION_LENGTH__+0x1a5a>
    1da6:	01 96       	adiw	r24, 0x01	; 1
    1da8:	f1 01       	movw	r30, r2
    1daa:	26 81       	ldd	r18, Z+6	; 0x06
    1dac:	37 81       	ldd	r19, Z+7	; 0x07
    1dae:	82 17       	cp	r24, r18
    1db0:	93 07       	cpc	r25, r19
    1db2:	14 f4       	brge	.+4      	; 0x1db8 <__LOCK_REGION_LENGTH__+0x19b8>
    1db4:	86 83       	std	Z+6, r24	; 0x06
    1db6:	97 83       	std	Z+7, r25	; 0x07
    1db8:	eb 81       	ldd	r30, Y+3	; 0x03
    1dba:	fc 81       	ldd	r31, Y+4	; 0x04
    1dbc:	26 85       	ldd	r18, Z+14	; 0x0e
    1dbe:	f1 01       	movw	r30, r2
    1dc0:	80 8d       	ldd	r24, Z+24	; 0x18
    1dc2:	82 17       	cp	r24, r18
    1dc4:	09 f4       	brne	.+2      	; 0x1dc8 <__LOCK_REGION_LENGTH__+0x19c8>
    1dc6:	49 c0       	rjmp	.+146    	; 0x1e5a <__LOCK_REGION_LENGTH__+0x1a5a>
    1dc8:	eb 81       	ldd	r30, Y+3	; 0x03
    1dca:	fc 81       	ldd	r31, Y+4	; 0x04
    1dcc:	83 89       	ldd	r24, Z+19	; 0x13
    1dce:	94 89       	ldd	r25, Z+20	; 0x14
    1dd0:	01 96       	adiw	r24, 0x01	; 1
    1dd2:	83 8b       	std	Z+19, r24	; 0x13
    1dd4:	94 8b       	std	Z+20, r25	; 0x14
    1dd6:	f1 01       	movw	r30, r2
    1dd8:	80 81       	ld	r24, Z
    1dda:	91 81       	ldd	r25, Z+1	; 0x01
    1ddc:	c8 16       	cp	r12, r24
    1dde:	d9 06       	cpc	r13, r25
    1de0:	71 f4       	brne	.+28     	; 0x1dfe <__LOCK_REGION_LENGTH__+0x19fe>
    1de2:	82 81       	ldd	r24, Z+2	; 0x02
    1de4:	93 81       	ldd	r25, Z+3	; 0x03
    1de6:	a8 16       	cp	r10, r24
    1de8:	b9 06       	cpc	r11, r25
    1dea:	49 f4       	brne	.+18     	; 0x1dfe <__LOCK_REGION_LENGTH__+0x19fe>
    1dec:	84 81       	ldd	r24, Z+4	; 0x04
    1dee:	95 81       	ldd	r25, Z+5	; 0x05
    1df0:	88 16       	cp	r8, r24
    1df2:	99 06       	cpc	r9, r25
    1df4:	21 f4       	brne	.+8      	; 0x1dfe <__LOCK_REGION_LENGTH__+0x19fe>
    1df6:	eb 81       	ldd	r30, Y+3	; 0x03
    1df8:	fc 81       	ldd	r31, Y+4	; 0x04
    1dfa:	27 86       	std	Z+15, r2	; 0x0f
    1dfc:	30 8a       	std	Z+16, r3	; 0x10
    1dfe:	f1 01       	movw	r30, r2
    1e00:	20 8f       	std	Z+24, r18	; 0x18
    1e02:	e6 80       	ldd	r14, Z+6	; 0x06
    1e04:	f7 80       	ldd	r15, Z+7	; 0x07
    1e06:	62 85       	ldd	r22, Z+10	; 0x0a
    1e08:	73 85       	ldd	r23, Z+11	; 0x0b
    1e0a:	84 01       	movw	r16, r8
    1e0c:	95 01       	movw	r18, r10
    1e0e:	a6 01       	movw	r20, r12
    1e10:	8b 81       	ldd	r24, Y+3	; 0x03
    1e12:	9c 81       	ldd	r25, Y+4	; 0x04
    1e14:	0e 94 42 01 	call	0x284	; 0x284 <_ZN4core3dfsEP4nodeiiii>
    1e18:	f1 01       	movw	r30, r2
    1e1a:	e6 80       	ldd	r14, Z+6	; 0x06
    1e1c:	f7 80       	ldd	r15, Z+7	; 0x07
    1e1e:	64 85       	ldd	r22, Z+12	; 0x0c
    1e20:	75 85       	ldd	r23, Z+13	; 0x0d
    1e22:	95 01       	movw	r18, r10
    1e24:	a6 01       	movw	r20, r12
    1e26:	8b 81       	ldd	r24, Y+3	; 0x03
    1e28:	9c 81       	ldd	r25, Y+4	; 0x04
    1e2a:	0e 94 42 01 	call	0x284	; 0x284 <_ZN4core3dfsEP4nodeiiii>
    1e2e:	f1 01       	movw	r30, r2
    1e30:	e6 80       	ldd	r14, Z+6	; 0x06
    1e32:	f7 80       	ldd	r15, Z+7	; 0x07
    1e34:	66 85       	ldd	r22, Z+14	; 0x0e
    1e36:	77 85       	ldd	r23, Z+15	; 0x0f
    1e38:	95 01       	movw	r18, r10
    1e3a:	a6 01       	movw	r20, r12
    1e3c:	8b 81       	ldd	r24, Y+3	; 0x03
    1e3e:	9c 81       	ldd	r25, Y+4	; 0x04
    1e40:	0e 94 42 01 	call	0x284	; 0x284 <_ZN4core3dfsEP4nodeiiii>
    1e44:	f1 01       	movw	r30, r2
    1e46:	e6 80       	ldd	r14, Z+6	; 0x06
    1e48:	f7 80       	ldd	r15, Z+7	; 0x07
    1e4a:	60 89       	ldd	r22, Z+16	; 0x10
    1e4c:	71 89       	ldd	r23, Z+17	; 0x11
    1e4e:	95 01       	movw	r18, r10
    1e50:	a6 01       	movw	r20, r12
    1e52:	8b 81       	ldd	r24, Y+3	; 0x03
    1e54:	9c 81       	ldd	r25, Y+4	; 0x04
    1e56:	0e 94 42 01 	call	0x284	; 0x284 <_ZN4core3dfsEP4nodeiiii>
    1e5a:	f2 01       	movw	r30, r4
    1e5c:	86 81       	ldd	r24, Z+6	; 0x06
    1e5e:	97 81       	ldd	r25, Z+7	; 0x07
    1e60:	26 84       	ldd	r2, Z+14	; 0x0e
    1e62:	37 84       	ldd	r3, Z+15	; 0x0f
    1e64:	21 14       	cp	r2, r1
    1e66:	31 04       	cpc	r3, r1
    1e68:	09 f4       	brne	.+2      	; 0x1e6c <__LOCK_REGION_LENGTH__+0x1a6c>
    1e6a:	5a c0       	rjmp	.+180    	; 0x1f20 <__LOCK_REGION_LENGTH__+0x1b20>
    1e6c:	01 96       	adiw	r24, 0x01	; 1
    1e6e:	f1 01       	movw	r30, r2
    1e70:	26 81       	ldd	r18, Z+6	; 0x06
    1e72:	37 81       	ldd	r19, Z+7	; 0x07
    1e74:	82 17       	cp	r24, r18
    1e76:	93 07       	cpc	r25, r19
    1e78:	14 f4       	brge	.+4      	; 0x1e7e <__LOCK_REGION_LENGTH__+0x1a7e>
    1e7a:	86 83       	std	Z+6, r24	; 0x06
    1e7c:	97 83       	std	Z+7, r25	; 0x07
    1e7e:	eb 81       	ldd	r30, Y+3	; 0x03
    1e80:	fc 81       	ldd	r31, Y+4	; 0x04
    1e82:	26 85       	ldd	r18, Z+14	; 0x0e
    1e84:	f1 01       	movw	r30, r2
    1e86:	80 8d       	ldd	r24, Z+24	; 0x18
    1e88:	82 17       	cp	r24, r18
    1e8a:	09 f4       	brne	.+2      	; 0x1e8e <__LOCK_REGION_LENGTH__+0x1a8e>
    1e8c:	49 c0       	rjmp	.+146    	; 0x1f20 <__LOCK_REGION_LENGTH__+0x1b20>
    1e8e:	eb 81       	ldd	r30, Y+3	; 0x03
    1e90:	fc 81       	ldd	r31, Y+4	; 0x04
    1e92:	83 89       	ldd	r24, Z+19	; 0x13
    1e94:	94 89       	ldd	r25, Z+20	; 0x14
    1e96:	01 96       	adiw	r24, 0x01	; 1
    1e98:	83 8b       	std	Z+19, r24	; 0x13
    1e9a:	94 8b       	std	Z+20, r25	; 0x14
    1e9c:	f1 01       	movw	r30, r2
    1e9e:	80 81       	ld	r24, Z
    1ea0:	91 81       	ldd	r25, Z+1	; 0x01
    1ea2:	c8 16       	cp	r12, r24
    1ea4:	d9 06       	cpc	r13, r25
    1ea6:	71 f4       	brne	.+28     	; 0x1ec4 <__LOCK_REGION_LENGTH__+0x1ac4>
    1ea8:	82 81       	ldd	r24, Z+2	; 0x02
    1eaa:	93 81       	ldd	r25, Z+3	; 0x03
    1eac:	a8 16       	cp	r10, r24
    1eae:	b9 06       	cpc	r11, r25
    1eb0:	49 f4       	brne	.+18     	; 0x1ec4 <__LOCK_REGION_LENGTH__+0x1ac4>
    1eb2:	84 81       	ldd	r24, Z+4	; 0x04
    1eb4:	95 81       	ldd	r25, Z+5	; 0x05
    1eb6:	88 16       	cp	r8, r24
    1eb8:	99 06       	cpc	r9, r25
    1eba:	21 f4       	brne	.+8      	; 0x1ec4 <__LOCK_REGION_LENGTH__+0x1ac4>
    1ebc:	eb 81       	ldd	r30, Y+3	; 0x03
    1ebe:	fc 81       	ldd	r31, Y+4	; 0x04
    1ec0:	27 86       	std	Z+15, r2	; 0x0f
    1ec2:	30 8a       	std	Z+16, r3	; 0x10
    1ec4:	f1 01       	movw	r30, r2
    1ec6:	20 8f       	std	Z+24, r18	; 0x18
    1ec8:	e6 80       	ldd	r14, Z+6	; 0x06
    1eca:	f7 80       	ldd	r15, Z+7	; 0x07
    1ecc:	62 85       	ldd	r22, Z+10	; 0x0a
    1ece:	73 85       	ldd	r23, Z+11	; 0x0b
    1ed0:	84 01       	movw	r16, r8
    1ed2:	95 01       	movw	r18, r10
    1ed4:	a6 01       	movw	r20, r12
    1ed6:	8b 81       	ldd	r24, Y+3	; 0x03
    1ed8:	9c 81       	ldd	r25, Y+4	; 0x04
    1eda:	0e 94 42 01 	call	0x284	; 0x284 <_ZN4core3dfsEP4nodeiiii>
    1ede:	f1 01       	movw	r30, r2
    1ee0:	e6 80       	ldd	r14, Z+6	; 0x06
    1ee2:	f7 80       	ldd	r15, Z+7	; 0x07
    1ee4:	64 85       	ldd	r22, Z+12	; 0x0c
    1ee6:	75 85       	ldd	r23, Z+13	; 0x0d
    1ee8:	95 01       	movw	r18, r10
    1eea:	a6 01       	movw	r20, r12
    1eec:	8b 81       	ldd	r24, Y+3	; 0x03
    1eee:	9c 81       	ldd	r25, Y+4	; 0x04
    1ef0:	0e 94 42 01 	call	0x284	; 0x284 <_ZN4core3dfsEP4nodeiiii>
    1ef4:	f1 01       	movw	r30, r2
    1ef6:	e6 80       	ldd	r14, Z+6	; 0x06
    1ef8:	f7 80       	ldd	r15, Z+7	; 0x07
    1efa:	66 85       	ldd	r22, Z+14	; 0x0e
    1efc:	77 85       	ldd	r23, Z+15	; 0x0f
    1efe:	95 01       	movw	r18, r10
    1f00:	a6 01       	movw	r20, r12
    1f02:	8b 81       	ldd	r24, Y+3	; 0x03
    1f04:	9c 81       	ldd	r25, Y+4	; 0x04
    1f06:	0e 94 42 01 	call	0x284	; 0x284 <_ZN4core3dfsEP4nodeiiii>
    1f0a:	f1 01       	movw	r30, r2
    1f0c:	e6 80       	ldd	r14, Z+6	; 0x06
    1f0e:	f7 80       	ldd	r15, Z+7	; 0x07
    1f10:	60 89       	ldd	r22, Z+16	; 0x10
    1f12:	71 89       	ldd	r23, Z+17	; 0x11
    1f14:	95 01       	movw	r18, r10
    1f16:	a6 01       	movw	r20, r12
    1f18:	8b 81       	ldd	r24, Y+3	; 0x03
    1f1a:	9c 81       	ldd	r25, Y+4	; 0x04
    1f1c:	0e 94 42 01 	call	0x284	; 0x284 <_ZN4core3dfsEP4nodeiiii>
    1f20:	f2 01       	movw	r30, r4
    1f22:	86 81       	ldd	r24, Z+6	; 0x06
    1f24:	97 81       	ldd	r25, Z+7	; 0x07
    1f26:	40 88       	ldd	r4, Z+16	; 0x10
    1f28:	51 88       	ldd	r5, Z+17	; 0x11
    1f2a:	41 14       	cp	r4, r1
    1f2c:	51 04       	cpc	r5, r1
    1f2e:	09 f4       	brne	.+2      	; 0x1f32 <__LOCK_REGION_LENGTH__+0x1b32>
    1f30:	5a c0       	rjmp	.+180    	; 0x1fe6 <__LOCK_REGION_LENGTH__+0x1be6>
    1f32:	01 96       	adiw	r24, 0x01	; 1
    1f34:	f2 01       	movw	r30, r4
    1f36:	26 81       	ldd	r18, Z+6	; 0x06
    1f38:	37 81       	ldd	r19, Z+7	; 0x07
    1f3a:	82 17       	cp	r24, r18
    1f3c:	93 07       	cpc	r25, r19
    1f3e:	14 f4       	brge	.+4      	; 0x1f44 <__LOCK_REGION_LENGTH__+0x1b44>
    1f40:	86 83       	std	Z+6, r24	; 0x06
    1f42:	97 83       	std	Z+7, r25	; 0x07
    1f44:	eb 81       	ldd	r30, Y+3	; 0x03
    1f46:	fc 81       	ldd	r31, Y+4	; 0x04
    1f48:	26 85       	ldd	r18, Z+14	; 0x0e
    1f4a:	f2 01       	movw	r30, r4
    1f4c:	80 8d       	ldd	r24, Z+24	; 0x18
    1f4e:	82 17       	cp	r24, r18
    1f50:	09 f4       	brne	.+2      	; 0x1f54 <__LOCK_REGION_LENGTH__+0x1b54>
    1f52:	49 c0       	rjmp	.+146    	; 0x1fe6 <__LOCK_REGION_LENGTH__+0x1be6>
    1f54:	eb 81       	ldd	r30, Y+3	; 0x03
    1f56:	fc 81       	ldd	r31, Y+4	; 0x04
    1f58:	83 89       	ldd	r24, Z+19	; 0x13
    1f5a:	94 89       	ldd	r25, Z+20	; 0x14
    1f5c:	01 96       	adiw	r24, 0x01	; 1
    1f5e:	83 8b       	std	Z+19, r24	; 0x13
    1f60:	94 8b       	std	Z+20, r25	; 0x14
    1f62:	f2 01       	movw	r30, r4
    1f64:	80 81       	ld	r24, Z
    1f66:	91 81       	ldd	r25, Z+1	; 0x01
    1f68:	c8 16       	cp	r12, r24
    1f6a:	d9 06       	cpc	r13, r25
    1f6c:	71 f4       	brne	.+28     	; 0x1f8a <__LOCK_REGION_LENGTH__+0x1b8a>
    1f6e:	82 81       	ldd	r24, Z+2	; 0x02
    1f70:	93 81       	ldd	r25, Z+3	; 0x03
    1f72:	a8 16       	cp	r10, r24
    1f74:	b9 06       	cpc	r11, r25
    1f76:	49 f4       	brne	.+18     	; 0x1f8a <__LOCK_REGION_LENGTH__+0x1b8a>
    1f78:	84 81       	ldd	r24, Z+4	; 0x04
    1f7a:	95 81       	ldd	r25, Z+5	; 0x05
    1f7c:	88 16       	cp	r8, r24
    1f7e:	99 06       	cpc	r9, r25
    1f80:	21 f4       	brne	.+8      	; 0x1f8a <__LOCK_REGION_LENGTH__+0x1b8a>
    1f82:	eb 81       	ldd	r30, Y+3	; 0x03
    1f84:	fc 81       	ldd	r31, Y+4	; 0x04
    1f86:	47 86       	std	Z+15, r4	; 0x0f
    1f88:	50 8a       	std	Z+16, r5	; 0x10
    1f8a:	f2 01       	movw	r30, r4
    1f8c:	20 8f       	std	Z+24, r18	; 0x18
    1f8e:	e6 80       	ldd	r14, Z+6	; 0x06
    1f90:	f7 80       	ldd	r15, Z+7	; 0x07
    1f92:	62 85       	ldd	r22, Z+10	; 0x0a
    1f94:	73 85       	ldd	r23, Z+11	; 0x0b
    1f96:	84 01       	movw	r16, r8
    1f98:	95 01       	movw	r18, r10
    1f9a:	a6 01       	movw	r20, r12
    1f9c:	8b 81       	ldd	r24, Y+3	; 0x03
    1f9e:	9c 81       	ldd	r25, Y+4	; 0x04
    1fa0:	0e 94 42 01 	call	0x284	; 0x284 <_ZN4core3dfsEP4nodeiiii>
    1fa4:	f2 01       	movw	r30, r4
    1fa6:	e6 80       	ldd	r14, Z+6	; 0x06
    1fa8:	f7 80       	ldd	r15, Z+7	; 0x07
    1faa:	64 85       	ldd	r22, Z+12	; 0x0c
    1fac:	75 85       	ldd	r23, Z+13	; 0x0d
    1fae:	95 01       	movw	r18, r10
    1fb0:	a6 01       	movw	r20, r12
    1fb2:	8b 81       	ldd	r24, Y+3	; 0x03
    1fb4:	9c 81       	ldd	r25, Y+4	; 0x04
    1fb6:	0e 94 42 01 	call	0x284	; 0x284 <_ZN4core3dfsEP4nodeiiii>
    1fba:	f2 01       	movw	r30, r4
    1fbc:	e6 80       	ldd	r14, Z+6	; 0x06
    1fbe:	f7 80       	ldd	r15, Z+7	; 0x07
    1fc0:	66 85       	ldd	r22, Z+14	; 0x0e
    1fc2:	77 85       	ldd	r23, Z+15	; 0x0f
    1fc4:	95 01       	movw	r18, r10
    1fc6:	a6 01       	movw	r20, r12
    1fc8:	8b 81       	ldd	r24, Y+3	; 0x03
    1fca:	9c 81       	ldd	r25, Y+4	; 0x04
    1fcc:	0e 94 42 01 	call	0x284	; 0x284 <_ZN4core3dfsEP4nodeiiii>
    1fd0:	f2 01       	movw	r30, r4
    1fd2:	e6 80       	ldd	r14, Z+6	; 0x06
    1fd4:	f7 80       	ldd	r15, Z+7	; 0x07
    1fd6:	60 89       	ldd	r22, Z+16	; 0x10
    1fd8:	71 89       	ldd	r23, Z+17	; 0x11
    1fda:	95 01       	movw	r18, r10
    1fdc:	a6 01       	movw	r20, r12
    1fde:	8b 81       	ldd	r24, Y+3	; 0x03
    1fe0:	9c 81       	ldd	r25, Y+4	; 0x04
    1fe2:	0e 94 42 01 	call	0x284	; 0x284 <_ZN4core3dfsEP4nodeiiii>
    1fe6:	f3 01       	movw	r30, r6
    1fe8:	86 81       	ldd	r24, Z+6	; 0x06
    1fea:	97 81       	ldd	r25, Z+7	; 0x07
    1fec:	44 84       	ldd	r4, Z+12	; 0x0c
    1fee:	55 84       	ldd	r5, Z+13	; 0x0d
    1ff0:	41 14       	cp	r4, r1
    1ff2:	51 04       	cpc	r5, r1
    1ff4:	09 f4       	brne	.+2      	; 0x1ff8 <__LOCK_REGION_LENGTH__+0x1bf8>
    1ff6:	0a c1       	rjmp	.+532    	; 0x220c <__LOCK_REGION_LENGTH__+0x1e0c>
    1ff8:	01 96       	adiw	r24, 0x01	; 1
    1ffa:	f2 01       	movw	r30, r4
    1ffc:	26 81       	ldd	r18, Z+6	; 0x06
    1ffe:	37 81       	ldd	r19, Z+7	; 0x07
    2000:	82 17       	cp	r24, r18
    2002:	93 07       	cpc	r25, r19
    2004:	14 f4       	brge	.+4      	; 0x200a <__LOCK_REGION_LENGTH__+0x1c0a>
    2006:	86 83       	std	Z+6, r24	; 0x06
    2008:	97 83       	std	Z+7, r25	; 0x07
    200a:	eb 81       	ldd	r30, Y+3	; 0x03
    200c:	fc 81       	ldd	r31, Y+4	; 0x04
    200e:	26 85       	ldd	r18, Z+14	; 0x0e
    2010:	f2 01       	movw	r30, r4
    2012:	80 8d       	ldd	r24, Z+24	; 0x18
    2014:	82 17       	cp	r24, r18
    2016:	09 f4       	brne	.+2      	; 0x201a <__LOCK_REGION_LENGTH__+0x1c1a>
    2018:	f9 c0       	rjmp	.+498    	; 0x220c <__LOCK_REGION_LENGTH__+0x1e0c>
    201a:	eb 81       	ldd	r30, Y+3	; 0x03
    201c:	fc 81       	ldd	r31, Y+4	; 0x04
    201e:	83 89       	ldd	r24, Z+19	; 0x13
    2020:	94 89       	ldd	r25, Z+20	; 0x14
    2022:	01 96       	adiw	r24, 0x01	; 1
    2024:	83 8b       	std	Z+19, r24	; 0x13
    2026:	94 8b       	std	Z+20, r25	; 0x14
    2028:	f2 01       	movw	r30, r4
    202a:	80 81       	ld	r24, Z
    202c:	91 81       	ldd	r25, Z+1	; 0x01
    202e:	c8 16       	cp	r12, r24
    2030:	d9 06       	cpc	r13, r25
    2032:	71 f4       	brne	.+28     	; 0x2050 <__LOCK_REGION_LENGTH__+0x1c50>
    2034:	82 81       	ldd	r24, Z+2	; 0x02
    2036:	93 81       	ldd	r25, Z+3	; 0x03
    2038:	a8 16       	cp	r10, r24
    203a:	b9 06       	cpc	r11, r25
    203c:	49 f4       	brne	.+18     	; 0x2050 <__LOCK_REGION_LENGTH__+0x1c50>
    203e:	84 81       	ldd	r24, Z+4	; 0x04
    2040:	95 81       	ldd	r25, Z+5	; 0x05
    2042:	88 16       	cp	r8, r24
    2044:	99 06       	cpc	r9, r25
    2046:	21 f4       	brne	.+8      	; 0x2050 <__LOCK_REGION_LENGTH__+0x1c50>
    2048:	eb 81       	ldd	r30, Y+3	; 0x03
    204a:	fc 81       	ldd	r31, Y+4	; 0x04
    204c:	47 86       	std	Z+15, r4	; 0x0f
    204e:	50 8a       	std	Z+16, r5	; 0x10
    2050:	f2 01       	movw	r30, r4
    2052:	20 8f       	std	Z+24, r18	; 0x18
    2054:	86 81       	ldd	r24, Z+6	; 0x06
    2056:	97 81       	ldd	r25, Z+7	; 0x07
    2058:	22 84       	ldd	r2, Z+10	; 0x0a
    205a:	33 84       	ldd	r3, Z+11	; 0x0b
    205c:	21 14       	cp	r2, r1
    205e:	31 04       	cpc	r3, r1
    2060:	09 f4       	brne	.+2      	; 0x2064 <__LOCK_REGION_LENGTH__+0x1c64>
    2062:	5a c0       	rjmp	.+180    	; 0x2118 <__LOCK_REGION_LENGTH__+0x1d18>
    2064:	01 96       	adiw	r24, 0x01	; 1
    2066:	f1 01       	movw	r30, r2
    2068:	26 81       	ldd	r18, Z+6	; 0x06
    206a:	37 81       	ldd	r19, Z+7	; 0x07
    206c:	82 17       	cp	r24, r18
    206e:	93 07       	cpc	r25, r19
    2070:	14 f4       	brge	.+4      	; 0x2076 <__LOCK_REGION_LENGTH__+0x1c76>
    2072:	86 83       	std	Z+6, r24	; 0x06
    2074:	97 83       	std	Z+7, r25	; 0x07
    2076:	eb 81       	ldd	r30, Y+3	; 0x03
    2078:	fc 81       	ldd	r31, Y+4	; 0x04
    207a:	26 85       	ldd	r18, Z+14	; 0x0e
    207c:	f1 01       	movw	r30, r2
    207e:	80 8d       	ldd	r24, Z+24	; 0x18
    2080:	82 17       	cp	r24, r18
    2082:	09 f4       	brne	.+2      	; 0x2086 <__LOCK_REGION_LENGTH__+0x1c86>
    2084:	49 c0       	rjmp	.+146    	; 0x2118 <__LOCK_REGION_LENGTH__+0x1d18>
    2086:	eb 81       	ldd	r30, Y+3	; 0x03
    2088:	fc 81       	ldd	r31, Y+4	; 0x04
    208a:	83 89       	ldd	r24, Z+19	; 0x13
    208c:	94 89       	ldd	r25, Z+20	; 0x14
    208e:	01 96       	adiw	r24, 0x01	; 1
    2090:	83 8b       	std	Z+19, r24	; 0x13
    2092:	94 8b       	std	Z+20, r25	; 0x14
    2094:	f1 01       	movw	r30, r2
    2096:	80 81       	ld	r24, Z
    2098:	91 81       	ldd	r25, Z+1	; 0x01
    209a:	c8 16       	cp	r12, r24
    209c:	d9 06       	cpc	r13, r25
    209e:	71 f4       	brne	.+28     	; 0x20bc <__LOCK_REGION_LENGTH__+0x1cbc>
    20a0:	82 81       	ldd	r24, Z+2	; 0x02
    20a2:	93 81       	ldd	r25, Z+3	; 0x03
    20a4:	a8 16       	cp	r10, r24
    20a6:	b9 06       	cpc	r11, r25
    20a8:	49 f4       	brne	.+18     	; 0x20bc <__LOCK_REGION_LENGTH__+0x1cbc>
    20aa:	84 81       	ldd	r24, Z+4	; 0x04
    20ac:	95 81       	ldd	r25, Z+5	; 0x05
    20ae:	88 16       	cp	r8, r24
    20b0:	99 06       	cpc	r9, r25
    20b2:	21 f4       	brne	.+8      	; 0x20bc <__LOCK_REGION_LENGTH__+0x1cbc>
    20b4:	eb 81       	ldd	r30, Y+3	; 0x03
    20b6:	fc 81       	ldd	r31, Y+4	; 0x04
    20b8:	27 86       	std	Z+15, r2	; 0x0f
    20ba:	30 8a       	std	Z+16, r3	; 0x10
    20bc:	f1 01       	movw	r30, r2
    20be:	20 8f       	std	Z+24, r18	; 0x18
    20c0:	e6 80       	ldd	r14, Z+6	; 0x06
    20c2:	f7 80       	ldd	r15, Z+7	; 0x07
    20c4:	62 85       	ldd	r22, Z+10	; 0x0a
    20c6:	73 85       	ldd	r23, Z+11	; 0x0b
    20c8:	84 01       	movw	r16, r8
    20ca:	95 01       	movw	r18, r10
    20cc:	a6 01       	movw	r20, r12
    20ce:	8b 81       	ldd	r24, Y+3	; 0x03
    20d0:	9c 81       	ldd	r25, Y+4	; 0x04
    20d2:	0e 94 42 01 	call	0x284	; 0x284 <_ZN4core3dfsEP4nodeiiii>
    20d6:	f1 01       	movw	r30, r2
    20d8:	e6 80       	ldd	r14, Z+6	; 0x06
    20da:	f7 80       	ldd	r15, Z+7	; 0x07
    20dc:	64 85       	ldd	r22, Z+12	; 0x0c
    20de:	75 85       	ldd	r23, Z+13	; 0x0d
    20e0:	95 01       	movw	r18, r10
    20e2:	a6 01       	movw	r20, r12
    20e4:	8b 81       	ldd	r24, Y+3	; 0x03
    20e6:	9c 81       	ldd	r25, Y+4	; 0x04
    20e8:	0e 94 42 01 	call	0x284	; 0x284 <_ZN4core3dfsEP4nodeiiii>
    20ec:	f1 01       	movw	r30, r2
    20ee:	e6 80       	ldd	r14, Z+6	; 0x06
    20f0:	f7 80       	ldd	r15, Z+7	; 0x07
    20f2:	66 85       	ldd	r22, Z+14	; 0x0e
    20f4:	77 85       	ldd	r23, Z+15	; 0x0f
    20f6:	95 01       	movw	r18, r10
    20f8:	a6 01       	movw	r20, r12
    20fa:	8b 81       	ldd	r24, Y+3	; 0x03
    20fc:	9c 81       	ldd	r25, Y+4	; 0x04
    20fe:	0e 94 42 01 	call	0x284	; 0x284 <_ZN4core3dfsEP4nodeiiii>
    2102:	f1 01       	movw	r30, r2
    2104:	e6 80       	ldd	r14, Z+6	; 0x06
    2106:	f7 80       	ldd	r15, Z+7	; 0x07
    2108:	60 89       	ldd	r22, Z+16	; 0x10
    210a:	71 89       	ldd	r23, Z+17	; 0x11
    210c:	95 01       	movw	r18, r10
    210e:	a6 01       	movw	r20, r12
    2110:	8b 81       	ldd	r24, Y+3	; 0x03
    2112:	9c 81       	ldd	r25, Y+4	; 0x04
    2114:	0e 94 42 01 	call	0x284	; 0x284 <_ZN4core3dfsEP4nodeiiii>
    2118:	f2 01       	movw	r30, r4
    211a:	86 81       	ldd	r24, Z+6	; 0x06
    211c:	97 81       	ldd	r25, Z+7	; 0x07
    211e:	24 84       	ldd	r2, Z+12	; 0x0c
    2120:	35 84       	ldd	r3, Z+13	; 0x0d
    2122:	21 14       	cp	r2, r1
    2124:	31 04       	cpc	r3, r1
    2126:	09 f4       	brne	.+2      	; 0x212a <__LOCK_REGION_LENGTH__+0x1d2a>
    2128:	5a c0       	rjmp	.+180    	; 0x21de <__LOCK_REGION_LENGTH__+0x1dde>
    212a:	01 96       	adiw	r24, 0x01	; 1
    212c:	f1 01       	movw	r30, r2
    212e:	26 81       	ldd	r18, Z+6	; 0x06
    2130:	37 81       	ldd	r19, Z+7	; 0x07
    2132:	82 17       	cp	r24, r18
    2134:	93 07       	cpc	r25, r19
    2136:	14 f4       	brge	.+4      	; 0x213c <__LOCK_REGION_LENGTH__+0x1d3c>
    2138:	86 83       	std	Z+6, r24	; 0x06
    213a:	97 83       	std	Z+7, r25	; 0x07
    213c:	eb 81       	ldd	r30, Y+3	; 0x03
    213e:	fc 81       	ldd	r31, Y+4	; 0x04
    2140:	26 85       	ldd	r18, Z+14	; 0x0e
    2142:	f1 01       	movw	r30, r2
    2144:	80 8d       	ldd	r24, Z+24	; 0x18
    2146:	82 17       	cp	r24, r18
    2148:	09 f4       	brne	.+2      	; 0x214c <__LOCK_REGION_LENGTH__+0x1d4c>
    214a:	49 c0       	rjmp	.+146    	; 0x21de <__LOCK_REGION_LENGTH__+0x1dde>
    214c:	eb 81       	ldd	r30, Y+3	; 0x03
    214e:	fc 81       	ldd	r31, Y+4	; 0x04
    2150:	83 89       	ldd	r24, Z+19	; 0x13
    2152:	94 89       	ldd	r25, Z+20	; 0x14
    2154:	01 96       	adiw	r24, 0x01	; 1
    2156:	83 8b       	std	Z+19, r24	; 0x13
    2158:	94 8b       	std	Z+20, r25	; 0x14
    215a:	f1 01       	movw	r30, r2
    215c:	80 81       	ld	r24, Z
    215e:	91 81       	ldd	r25, Z+1	; 0x01
    2160:	c8 16       	cp	r12, r24
    2162:	d9 06       	cpc	r13, r25
    2164:	71 f4       	brne	.+28     	; 0x2182 <__LOCK_REGION_LENGTH__+0x1d82>
    2166:	82 81       	ldd	r24, Z+2	; 0x02
    2168:	93 81       	ldd	r25, Z+3	; 0x03
    216a:	a8 16       	cp	r10, r24
    216c:	b9 06       	cpc	r11, r25
    216e:	49 f4       	brne	.+18     	; 0x2182 <__LOCK_REGION_LENGTH__+0x1d82>
    2170:	84 81       	ldd	r24, Z+4	; 0x04
    2172:	95 81       	ldd	r25, Z+5	; 0x05
    2174:	88 16       	cp	r8, r24
    2176:	99 06       	cpc	r9, r25
    2178:	21 f4       	brne	.+8      	; 0x2182 <__LOCK_REGION_LENGTH__+0x1d82>
    217a:	eb 81       	ldd	r30, Y+3	; 0x03
    217c:	fc 81       	ldd	r31, Y+4	; 0x04
    217e:	27 86       	std	Z+15, r2	; 0x0f
    2180:	30 8a       	std	Z+16, r3	; 0x10
    2182:	f1 01       	movw	r30, r2
    2184:	20 8f       	std	Z+24, r18	; 0x18
    2186:	e6 80       	ldd	r14, Z+6	; 0x06
    2188:	f7 80       	ldd	r15, Z+7	; 0x07
    218a:	62 85       	ldd	r22, Z+10	; 0x0a
    218c:	73 85       	ldd	r23, Z+11	; 0x0b
    218e:	84 01       	movw	r16, r8
    2190:	95 01       	movw	r18, r10
    2192:	a6 01       	movw	r20, r12
    2194:	8b 81       	ldd	r24, Y+3	; 0x03
    2196:	9c 81       	ldd	r25, Y+4	; 0x04
    2198:	0e 94 42 01 	call	0x284	; 0x284 <_ZN4core3dfsEP4nodeiiii>
    219c:	f1 01       	movw	r30, r2
    219e:	e6 80       	ldd	r14, Z+6	; 0x06
    21a0:	f7 80       	ldd	r15, Z+7	; 0x07
    21a2:	64 85       	ldd	r22, Z+12	; 0x0c
    21a4:	75 85       	ldd	r23, Z+13	; 0x0d
    21a6:	95 01       	movw	r18, r10
    21a8:	a6 01       	movw	r20, r12
    21aa:	8b 81       	ldd	r24, Y+3	; 0x03
    21ac:	9c 81       	ldd	r25, Y+4	; 0x04
    21ae:	0e 94 42 01 	call	0x284	; 0x284 <_ZN4core3dfsEP4nodeiiii>
    21b2:	f1 01       	movw	r30, r2
    21b4:	e6 80       	ldd	r14, Z+6	; 0x06
    21b6:	f7 80       	ldd	r15, Z+7	; 0x07
    21b8:	66 85       	ldd	r22, Z+14	; 0x0e
    21ba:	77 85       	ldd	r23, Z+15	; 0x0f
    21bc:	95 01       	movw	r18, r10
    21be:	a6 01       	movw	r20, r12
    21c0:	8b 81       	ldd	r24, Y+3	; 0x03
    21c2:	9c 81       	ldd	r25, Y+4	; 0x04
    21c4:	0e 94 42 01 	call	0x284	; 0x284 <_ZN4core3dfsEP4nodeiiii>
    21c8:	f1 01       	movw	r30, r2
    21ca:	e6 80       	ldd	r14, Z+6	; 0x06
    21cc:	f7 80       	ldd	r15, Z+7	; 0x07
    21ce:	60 89       	ldd	r22, Z+16	; 0x10
    21d0:	71 89       	ldd	r23, Z+17	; 0x11
    21d2:	95 01       	movw	r18, r10
    21d4:	a6 01       	movw	r20, r12
    21d6:	8b 81       	ldd	r24, Y+3	; 0x03
    21d8:	9c 81       	ldd	r25, Y+4	; 0x04
    21da:	0e 94 42 01 	call	0x284	; 0x284 <_ZN4core3dfsEP4nodeiiii>
    21de:	f2 01       	movw	r30, r4
    21e0:	e6 80       	ldd	r14, Z+6	; 0x06
    21e2:	f7 80       	ldd	r15, Z+7	; 0x07
    21e4:	66 85       	ldd	r22, Z+14	; 0x0e
    21e6:	77 85       	ldd	r23, Z+15	; 0x0f
    21e8:	84 01       	movw	r16, r8
    21ea:	95 01       	movw	r18, r10
    21ec:	a6 01       	movw	r20, r12
    21ee:	8b 81       	ldd	r24, Y+3	; 0x03
    21f0:	9c 81       	ldd	r25, Y+4	; 0x04
    21f2:	0e 94 42 01 	call	0x284	; 0x284 <_ZN4core3dfsEP4nodeiiii>
    21f6:	f2 01       	movw	r30, r4
    21f8:	e6 80       	ldd	r14, Z+6	; 0x06
    21fa:	f7 80       	ldd	r15, Z+7	; 0x07
    21fc:	60 89       	ldd	r22, Z+16	; 0x10
    21fe:	71 89       	ldd	r23, Z+17	; 0x11
    2200:	95 01       	movw	r18, r10
    2202:	a6 01       	movw	r20, r12
    2204:	8b 81       	ldd	r24, Y+3	; 0x03
    2206:	9c 81       	ldd	r25, Y+4	; 0x04
    2208:	0e 94 42 01 	call	0x284	; 0x284 <_ZN4core3dfsEP4nodeiiii>
    220c:	f3 01       	movw	r30, r6
    220e:	86 81       	ldd	r24, Z+6	; 0x06
    2210:	97 81       	ldd	r25, Z+7	; 0x07
    2212:	46 84       	ldd	r4, Z+14	; 0x0e
    2214:	57 84       	ldd	r5, Z+15	; 0x0f
    2216:	41 14       	cp	r4, r1
    2218:	51 04       	cpc	r5, r1
    221a:	09 f4       	brne	.+2      	; 0x221e <__LOCK_REGION_LENGTH__+0x1e1e>
    221c:	0a c1       	rjmp	.+532    	; 0x2432 <__LOCK_REGION_LENGTH__+0x2032>
    221e:	01 96       	adiw	r24, 0x01	; 1
    2220:	f2 01       	movw	r30, r4
    2222:	26 81       	ldd	r18, Z+6	; 0x06
    2224:	37 81       	ldd	r19, Z+7	; 0x07
    2226:	82 17       	cp	r24, r18
    2228:	93 07       	cpc	r25, r19
    222a:	14 f4       	brge	.+4      	; 0x2230 <__LOCK_REGION_LENGTH__+0x1e30>
    222c:	86 83       	std	Z+6, r24	; 0x06
    222e:	97 83       	std	Z+7, r25	; 0x07
    2230:	eb 81       	ldd	r30, Y+3	; 0x03
    2232:	fc 81       	ldd	r31, Y+4	; 0x04
    2234:	26 85       	ldd	r18, Z+14	; 0x0e
    2236:	f2 01       	movw	r30, r4
    2238:	80 8d       	ldd	r24, Z+24	; 0x18
    223a:	82 17       	cp	r24, r18
    223c:	09 f4       	brne	.+2      	; 0x2240 <__LOCK_REGION_LENGTH__+0x1e40>
    223e:	f9 c0       	rjmp	.+498    	; 0x2432 <__LOCK_REGION_LENGTH__+0x2032>
    2240:	eb 81       	ldd	r30, Y+3	; 0x03
    2242:	fc 81       	ldd	r31, Y+4	; 0x04
    2244:	83 89       	ldd	r24, Z+19	; 0x13
    2246:	94 89       	ldd	r25, Z+20	; 0x14
    2248:	01 96       	adiw	r24, 0x01	; 1
    224a:	83 8b       	std	Z+19, r24	; 0x13
    224c:	94 8b       	std	Z+20, r25	; 0x14
    224e:	f2 01       	movw	r30, r4
    2250:	80 81       	ld	r24, Z
    2252:	91 81       	ldd	r25, Z+1	; 0x01
    2254:	c8 16       	cp	r12, r24
    2256:	d9 06       	cpc	r13, r25
    2258:	71 f4       	brne	.+28     	; 0x2276 <__LOCK_REGION_LENGTH__+0x1e76>
    225a:	82 81       	ldd	r24, Z+2	; 0x02
    225c:	93 81       	ldd	r25, Z+3	; 0x03
    225e:	a8 16       	cp	r10, r24
    2260:	b9 06       	cpc	r11, r25
    2262:	49 f4       	brne	.+18     	; 0x2276 <__LOCK_REGION_LENGTH__+0x1e76>
    2264:	84 81       	ldd	r24, Z+4	; 0x04
    2266:	95 81       	ldd	r25, Z+5	; 0x05
    2268:	88 16       	cp	r8, r24
    226a:	99 06       	cpc	r9, r25
    226c:	21 f4       	brne	.+8      	; 0x2276 <__LOCK_REGION_LENGTH__+0x1e76>
    226e:	eb 81       	ldd	r30, Y+3	; 0x03
    2270:	fc 81       	ldd	r31, Y+4	; 0x04
    2272:	47 86       	std	Z+15, r4	; 0x0f
    2274:	50 8a       	std	Z+16, r5	; 0x10
    2276:	f2 01       	movw	r30, r4
    2278:	20 8f       	std	Z+24, r18	; 0x18
    227a:	86 81       	ldd	r24, Z+6	; 0x06
    227c:	97 81       	ldd	r25, Z+7	; 0x07
    227e:	22 84       	ldd	r2, Z+10	; 0x0a
    2280:	33 84       	ldd	r3, Z+11	; 0x0b
    2282:	21 14       	cp	r2, r1
    2284:	31 04       	cpc	r3, r1
    2286:	09 f4       	brne	.+2      	; 0x228a <__LOCK_REGION_LENGTH__+0x1e8a>
    2288:	5a c0       	rjmp	.+180    	; 0x233e <__LOCK_REGION_LENGTH__+0x1f3e>
    228a:	01 96       	adiw	r24, 0x01	; 1
    228c:	f1 01       	movw	r30, r2
    228e:	26 81       	ldd	r18, Z+6	; 0x06
    2290:	37 81       	ldd	r19, Z+7	; 0x07
    2292:	82 17       	cp	r24, r18
    2294:	93 07       	cpc	r25, r19
    2296:	14 f4       	brge	.+4      	; 0x229c <__LOCK_REGION_LENGTH__+0x1e9c>
    2298:	86 83       	std	Z+6, r24	; 0x06
    229a:	97 83       	std	Z+7, r25	; 0x07
    229c:	eb 81       	ldd	r30, Y+3	; 0x03
    229e:	fc 81       	ldd	r31, Y+4	; 0x04
    22a0:	26 85       	ldd	r18, Z+14	; 0x0e
    22a2:	f1 01       	movw	r30, r2
    22a4:	80 8d       	ldd	r24, Z+24	; 0x18
    22a6:	82 17       	cp	r24, r18
    22a8:	09 f4       	brne	.+2      	; 0x22ac <__LOCK_REGION_LENGTH__+0x1eac>
    22aa:	49 c0       	rjmp	.+146    	; 0x233e <__LOCK_REGION_LENGTH__+0x1f3e>
    22ac:	eb 81       	ldd	r30, Y+3	; 0x03
    22ae:	fc 81       	ldd	r31, Y+4	; 0x04
    22b0:	83 89       	ldd	r24, Z+19	; 0x13
    22b2:	94 89       	ldd	r25, Z+20	; 0x14
    22b4:	01 96       	adiw	r24, 0x01	; 1
    22b6:	83 8b       	std	Z+19, r24	; 0x13
    22b8:	94 8b       	std	Z+20, r25	; 0x14
    22ba:	f1 01       	movw	r30, r2
    22bc:	80 81       	ld	r24, Z
    22be:	91 81       	ldd	r25, Z+1	; 0x01
    22c0:	c8 16       	cp	r12, r24
    22c2:	d9 06       	cpc	r13, r25
    22c4:	71 f4       	brne	.+28     	; 0x22e2 <__LOCK_REGION_LENGTH__+0x1ee2>
    22c6:	82 81       	ldd	r24, Z+2	; 0x02
    22c8:	93 81       	ldd	r25, Z+3	; 0x03
    22ca:	a8 16       	cp	r10, r24
    22cc:	b9 06       	cpc	r11, r25
    22ce:	49 f4       	brne	.+18     	; 0x22e2 <__LOCK_REGION_LENGTH__+0x1ee2>
    22d0:	84 81       	ldd	r24, Z+4	; 0x04
    22d2:	95 81       	ldd	r25, Z+5	; 0x05
    22d4:	88 16       	cp	r8, r24
    22d6:	99 06       	cpc	r9, r25
    22d8:	21 f4       	brne	.+8      	; 0x22e2 <__LOCK_REGION_LENGTH__+0x1ee2>
    22da:	eb 81       	ldd	r30, Y+3	; 0x03
    22dc:	fc 81       	ldd	r31, Y+4	; 0x04
    22de:	27 86       	std	Z+15, r2	; 0x0f
    22e0:	30 8a       	std	Z+16, r3	; 0x10
    22e2:	f1 01       	movw	r30, r2
    22e4:	20 8f       	std	Z+24, r18	; 0x18
    22e6:	e6 80       	ldd	r14, Z+6	; 0x06
    22e8:	f7 80       	ldd	r15, Z+7	; 0x07
    22ea:	62 85       	ldd	r22, Z+10	; 0x0a
    22ec:	73 85       	ldd	r23, Z+11	; 0x0b
    22ee:	84 01       	movw	r16, r8
    22f0:	95 01       	movw	r18, r10
    22f2:	a6 01       	movw	r20, r12
    22f4:	8b 81       	ldd	r24, Y+3	; 0x03
    22f6:	9c 81       	ldd	r25, Y+4	; 0x04
    22f8:	0e 94 42 01 	call	0x284	; 0x284 <_ZN4core3dfsEP4nodeiiii>
    22fc:	f1 01       	movw	r30, r2
    22fe:	e6 80       	ldd	r14, Z+6	; 0x06
    2300:	f7 80       	ldd	r15, Z+7	; 0x07
    2302:	64 85       	ldd	r22, Z+12	; 0x0c
    2304:	75 85       	ldd	r23, Z+13	; 0x0d
    2306:	95 01       	movw	r18, r10
    2308:	a6 01       	movw	r20, r12
    230a:	8b 81       	ldd	r24, Y+3	; 0x03
    230c:	9c 81       	ldd	r25, Y+4	; 0x04
    230e:	0e 94 42 01 	call	0x284	; 0x284 <_ZN4core3dfsEP4nodeiiii>
    2312:	f1 01       	movw	r30, r2
    2314:	e6 80       	ldd	r14, Z+6	; 0x06
    2316:	f7 80       	ldd	r15, Z+7	; 0x07
    2318:	66 85       	ldd	r22, Z+14	; 0x0e
    231a:	77 85       	ldd	r23, Z+15	; 0x0f
    231c:	95 01       	movw	r18, r10
    231e:	a6 01       	movw	r20, r12
    2320:	8b 81       	ldd	r24, Y+3	; 0x03
    2322:	9c 81       	ldd	r25, Y+4	; 0x04
    2324:	0e 94 42 01 	call	0x284	; 0x284 <_ZN4core3dfsEP4nodeiiii>
    2328:	f1 01       	movw	r30, r2
    232a:	e6 80       	ldd	r14, Z+6	; 0x06
    232c:	f7 80       	ldd	r15, Z+7	; 0x07
    232e:	60 89       	ldd	r22, Z+16	; 0x10
    2330:	71 89       	ldd	r23, Z+17	; 0x11
    2332:	95 01       	movw	r18, r10
    2334:	a6 01       	movw	r20, r12
    2336:	8b 81       	ldd	r24, Y+3	; 0x03
    2338:	9c 81       	ldd	r25, Y+4	; 0x04
    233a:	0e 94 42 01 	call	0x284	; 0x284 <_ZN4core3dfsEP4nodeiiii>
    233e:	f2 01       	movw	r30, r4
    2340:	e6 80       	ldd	r14, Z+6	; 0x06
    2342:	f7 80       	ldd	r15, Z+7	; 0x07
    2344:	64 85       	ldd	r22, Z+12	; 0x0c
    2346:	75 85       	ldd	r23, Z+13	; 0x0d
    2348:	84 01       	movw	r16, r8
    234a:	95 01       	movw	r18, r10
    234c:	a6 01       	movw	r20, r12
    234e:	8b 81       	ldd	r24, Y+3	; 0x03
    2350:	9c 81       	ldd	r25, Y+4	; 0x04
    2352:	0e 94 42 01 	call	0x284	; 0x284 <_ZN4core3dfsEP4nodeiiii>
    2356:	f2 01       	movw	r30, r4
    2358:	e6 80       	ldd	r14, Z+6	; 0x06
    235a:	f7 80       	ldd	r15, Z+7	; 0x07
    235c:	66 85       	ldd	r22, Z+14	; 0x0e
    235e:	77 85       	ldd	r23, Z+15	; 0x0f
    2360:	95 01       	movw	r18, r10
    2362:	a6 01       	movw	r20, r12
    2364:	8b 81       	ldd	r24, Y+3	; 0x03
    2366:	9c 81       	ldd	r25, Y+4	; 0x04
    2368:	0e 94 42 01 	call	0x284	; 0x284 <_ZN4core3dfsEP4nodeiiii>
    236c:	f2 01       	movw	r30, r4
    236e:	86 81       	ldd	r24, Z+6	; 0x06
    2370:	97 81       	ldd	r25, Z+7	; 0x07
    2372:	40 88       	ldd	r4, Z+16	; 0x10
    2374:	51 88       	ldd	r5, Z+17	; 0x11
    2376:	41 14       	cp	r4, r1
    2378:	51 04       	cpc	r5, r1
    237a:	09 f4       	brne	.+2      	; 0x237e <__LOCK_REGION_LENGTH__+0x1f7e>
    237c:	5a c0       	rjmp	.+180    	; 0x2432 <__LOCK_REGION_LENGTH__+0x2032>
    237e:	01 96       	adiw	r24, 0x01	; 1
    2380:	f2 01       	movw	r30, r4
    2382:	26 81       	ldd	r18, Z+6	; 0x06
    2384:	37 81       	ldd	r19, Z+7	; 0x07
    2386:	82 17       	cp	r24, r18
    2388:	93 07       	cpc	r25, r19
    238a:	14 f4       	brge	.+4      	; 0x2390 <__LOCK_REGION_LENGTH__+0x1f90>
    238c:	86 83       	std	Z+6, r24	; 0x06
    238e:	97 83       	std	Z+7, r25	; 0x07
    2390:	eb 81       	ldd	r30, Y+3	; 0x03
    2392:	fc 81       	ldd	r31, Y+4	; 0x04
    2394:	26 85       	ldd	r18, Z+14	; 0x0e
    2396:	f2 01       	movw	r30, r4
    2398:	80 8d       	ldd	r24, Z+24	; 0x18
    239a:	82 17       	cp	r24, r18
    239c:	09 f4       	brne	.+2      	; 0x23a0 <__LOCK_REGION_LENGTH__+0x1fa0>
    239e:	49 c0       	rjmp	.+146    	; 0x2432 <__LOCK_REGION_LENGTH__+0x2032>
    23a0:	eb 81       	ldd	r30, Y+3	; 0x03
    23a2:	fc 81       	ldd	r31, Y+4	; 0x04
    23a4:	83 89       	ldd	r24, Z+19	; 0x13
    23a6:	94 89       	ldd	r25, Z+20	; 0x14
    23a8:	01 96       	adiw	r24, 0x01	; 1
    23aa:	83 8b       	std	Z+19, r24	; 0x13
    23ac:	94 8b       	std	Z+20, r25	; 0x14
    23ae:	f2 01       	movw	r30, r4
    23b0:	80 81       	ld	r24, Z
    23b2:	91 81       	ldd	r25, Z+1	; 0x01
    23b4:	c8 16       	cp	r12, r24
    23b6:	d9 06       	cpc	r13, r25
    23b8:	71 f4       	brne	.+28     	; 0x23d6 <__LOCK_REGION_LENGTH__+0x1fd6>
    23ba:	82 81       	ldd	r24, Z+2	; 0x02
    23bc:	93 81       	ldd	r25, Z+3	; 0x03
    23be:	a8 16       	cp	r10, r24
    23c0:	b9 06       	cpc	r11, r25
    23c2:	49 f4       	brne	.+18     	; 0x23d6 <__LOCK_REGION_LENGTH__+0x1fd6>
    23c4:	84 81       	ldd	r24, Z+4	; 0x04
    23c6:	95 81       	ldd	r25, Z+5	; 0x05
    23c8:	88 16       	cp	r8, r24
    23ca:	99 06       	cpc	r9, r25
    23cc:	21 f4       	brne	.+8      	; 0x23d6 <__LOCK_REGION_LENGTH__+0x1fd6>
    23ce:	eb 81       	ldd	r30, Y+3	; 0x03
    23d0:	fc 81       	ldd	r31, Y+4	; 0x04
    23d2:	47 86       	std	Z+15, r4	; 0x0f
    23d4:	50 8a       	std	Z+16, r5	; 0x10
    23d6:	f2 01       	movw	r30, r4
    23d8:	20 8f       	std	Z+24, r18	; 0x18
    23da:	e6 80       	ldd	r14, Z+6	; 0x06
    23dc:	f7 80       	ldd	r15, Z+7	; 0x07
    23de:	62 85       	ldd	r22, Z+10	; 0x0a
    23e0:	73 85       	ldd	r23, Z+11	; 0x0b
    23e2:	84 01       	movw	r16, r8
    23e4:	95 01       	movw	r18, r10
    23e6:	a6 01       	movw	r20, r12
    23e8:	8b 81       	ldd	r24, Y+3	; 0x03
    23ea:	9c 81       	ldd	r25, Y+4	; 0x04
    23ec:	0e 94 42 01 	call	0x284	; 0x284 <_ZN4core3dfsEP4nodeiiii>
    23f0:	f2 01       	movw	r30, r4
    23f2:	e6 80       	ldd	r14, Z+6	; 0x06
    23f4:	f7 80       	ldd	r15, Z+7	; 0x07
    23f6:	64 85       	ldd	r22, Z+12	; 0x0c
    23f8:	75 85       	ldd	r23, Z+13	; 0x0d
    23fa:	95 01       	movw	r18, r10
    23fc:	a6 01       	movw	r20, r12
    23fe:	8b 81       	ldd	r24, Y+3	; 0x03
    2400:	9c 81       	ldd	r25, Y+4	; 0x04
    2402:	0e 94 42 01 	call	0x284	; 0x284 <_ZN4core3dfsEP4nodeiiii>
    2406:	f2 01       	movw	r30, r4
    2408:	e6 80       	ldd	r14, Z+6	; 0x06
    240a:	f7 80       	ldd	r15, Z+7	; 0x07
    240c:	66 85       	ldd	r22, Z+14	; 0x0e
    240e:	77 85       	ldd	r23, Z+15	; 0x0f
    2410:	95 01       	movw	r18, r10
    2412:	a6 01       	movw	r20, r12
    2414:	8b 81       	ldd	r24, Y+3	; 0x03
    2416:	9c 81       	ldd	r25, Y+4	; 0x04
    2418:	0e 94 42 01 	call	0x284	; 0x284 <_ZN4core3dfsEP4nodeiiii>
    241c:	f2 01       	movw	r30, r4
    241e:	e6 80       	ldd	r14, Z+6	; 0x06
    2420:	f7 80       	ldd	r15, Z+7	; 0x07
    2422:	60 89       	ldd	r22, Z+16	; 0x10
    2424:	71 89       	ldd	r23, Z+17	; 0x11
    2426:	95 01       	movw	r18, r10
    2428:	a6 01       	movw	r20, r12
    242a:	8b 81       	ldd	r24, Y+3	; 0x03
    242c:	9c 81       	ldd	r25, Y+4	; 0x04
    242e:	0e 94 42 01 	call	0x284	; 0x284 <_ZN4core3dfsEP4nodeiiii>
    2432:	f3 01       	movw	r30, r6
    2434:	86 81       	ldd	r24, Z+6	; 0x06
    2436:	97 81       	ldd	r25, Z+7	; 0x07
    2438:	60 88       	ldd	r6, Z+16	; 0x10
    243a:	71 88       	ldd	r7, Z+17	; 0x11
    243c:	61 14       	cp	r6, r1
    243e:	71 04       	cpc	r7, r1
    2440:	09 f4       	brne	.+2      	; 0x2444 <__LOCK_REGION_LENGTH__+0x2044>
    2442:	b9 c1       	rjmp	.+882    	; 0x27b6 <__LOCK_REGION_LENGTH__+0x23b6>
    2444:	01 96       	adiw	r24, 0x01	; 1
    2446:	f3 01       	movw	r30, r6
    2448:	26 81       	ldd	r18, Z+6	; 0x06
    244a:	37 81       	ldd	r19, Z+7	; 0x07
    244c:	82 17       	cp	r24, r18
    244e:	93 07       	cpc	r25, r19
    2450:	14 f4       	brge	.+4      	; 0x2456 <__LOCK_REGION_LENGTH__+0x2056>
    2452:	86 83       	std	Z+6, r24	; 0x06
    2454:	97 83       	std	Z+7, r25	; 0x07
    2456:	eb 81       	ldd	r30, Y+3	; 0x03
    2458:	fc 81       	ldd	r31, Y+4	; 0x04
    245a:	26 85       	ldd	r18, Z+14	; 0x0e
    245c:	f3 01       	movw	r30, r6
    245e:	80 8d       	ldd	r24, Z+24	; 0x18
    2460:	82 17       	cp	r24, r18
    2462:	09 f4       	brne	.+2      	; 0x2466 <__LOCK_REGION_LENGTH__+0x2066>
    2464:	a8 c1       	rjmp	.+848    	; 0x27b6 <__LOCK_REGION_LENGTH__+0x23b6>
    2466:	eb 81       	ldd	r30, Y+3	; 0x03
    2468:	fc 81       	ldd	r31, Y+4	; 0x04
    246a:	83 89       	ldd	r24, Z+19	; 0x13
    246c:	94 89       	ldd	r25, Z+20	; 0x14
    246e:	01 96       	adiw	r24, 0x01	; 1
    2470:	83 8b       	std	Z+19, r24	; 0x13
    2472:	94 8b       	std	Z+20, r25	; 0x14
    2474:	f3 01       	movw	r30, r6
    2476:	80 81       	ld	r24, Z
    2478:	91 81       	ldd	r25, Z+1	; 0x01
    247a:	c8 16       	cp	r12, r24
    247c:	d9 06       	cpc	r13, r25
    247e:	71 f4       	brne	.+28     	; 0x249c <__LOCK_REGION_LENGTH__+0x209c>
    2480:	82 81       	ldd	r24, Z+2	; 0x02
    2482:	93 81       	ldd	r25, Z+3	; 0x03
    2484:	a8 16       	cp	r10, r24
    2486:	b9 06       	cpc	r11, r25
    2488:	49 f4       	brne	.+18     	; 0x249c <__LOCK_REGION_LENGTH__+0x209c>
    248a:	84 81       	ldd	r24, Z+4	; 0x04
    248c:	95 81       	ldd	r25, Z+5	; 0x05
    248e:	88 16       	cp	r8, r24
    2490:	99 06       	cpc	r9, r25
    2492:	21 f4       	brne	.+8      	; 0x249c <__LOCK_REGION_LENGTH__+0x209c>
    2494:	eb 81       	ldd	r30, Y+3	; 0x03
    2496:	fc 81       	ldd	r31, Y+4	; 0x04
    2498:	67 86       	std	Z+15, r6	; 0x0f
    249a:	70 8a       	std	Z+16, r7	; 0x10
    249c:	f3 01       	movw	r30, r6
    249e:	20 8f       	std	Z+24, r18	; 0x18
    24a0:	86 81       	ldd	r24, Z+6	; 0x06
    24a2:	97 81       	ldd	r25, Z+7	; 0x07
    24a4:	42 84       	ldd	r4, Z+10	; 0x0a
    24a6:	53 84       	ldd	r5, Z+11	; 0x0b
    24a8:	41 14       	cp	r4, r1
    24aa:	51 04       	cpc	r5, r1
    24ac:	09 f4       	brne	.+2      	; 0x24b0 <__LOCK_REGION_LENGTH__+0x20b0>
    24ae:	5a c0       	rjmp	.+180    	; 0x2564 <__LOCK_REGION_LENGTH__+0x2164>
    24b0:	01 96       	adiw	r24, 0x01	; 1
    24b2:	f2 01       	movw	r30, r4
    24b4:	26 81       	ldd	r18, Z+6	; 0x06
    24b6:	37 81       	ldd	r19, Z+7	; 0x07
    24b8:	82 17       	cp	r24, r18
    24ba:	93 07       	cpc	r25, r19
    24bc:	14 f4       	brge	.+4      	; 0x24c2 <__LOCK_REGION_LENGTH__+0x20c2>
    24be:	86 83       	std	Z+6, r24	; 0x06
    24c0:	97 83       	std	Z+7, r25	; 0x07
    24c2:	eb 81       	ldd	r30, Y+3	; 0x03
    24c4:	fc 81       	ldd	r31, Y+4	; 0x04
    24c6:	26 85       	ldd	r18, Z+14	; 0x0e
    24c8:	f2 01       	movw	r30, r4
    24ca:	80 8d       	ldd	r24, Z+24	; 0x18
    24cc:	82 17       	cp	r24, r18
    24ce:	09 f4       	brne	.+2      	; 0x24d2 <__LOCK_REGION_LENGTH__+0x20d2>
    24d0:	49 c0       	rjmp	.+146    	; 0x2564 <__LOCK_REGION_LENGTH__+0x2164>
    24d2:	eb 81       	ldd	r30, Y+3	; 0x03
    24d4:	fc 81       	ldd	r31, Y+4	; 0x04
    24d6:	83 89       	ldd	r24, Z+19	; 0x13
    24d8:	94 89       	ldd	r25, Z+20	; 0x14
    24da:	01 96       	adiw	r24, 0x01	; 1
    24dc:	83 8b       	std	Z+19, r24	; 0x13
    24de:	94 8b       	std	Z+20, r25	; 0x14
    24e0:	f2 01       	movw	r30, r4
    24e2:	80 81       	ld	r24, Z
    24e4:	91 81       	ldd	r25, Z+1	; 0x01
    24e6:	c8 16       	cp	r12, r24
    24e8:	d9 06       	cpc	r13, r25
    24ea:	71 f4       	brne	.+28     	; 0x2508 <__LOCK_REGION_LENGTH__+0x2108>
    24ec:	82 81       	ldd	r24, Z+2	; 0x02
    24ee:	93 81       	ldd	r25, Z+3	; 0x03
    24f0:	a8 16       	cp	r10, r24
    24f2:	b9 06       	cpc	r11, r25
    24f4:	49 f4       	brne	.+18     	; 0x2508 <__LOCK_REGION_LENGTH__+0x2108>
    24f6:	84 81       	ldd	r24, Z+4	; 0x04
    24f8:	95 81       	ldd	r25, Z+5	; 0x05
    24fa:	88 16       	cp	r8, r24
    24fc:	99 06       	cpc	r9, r25
    24fe:	21 f4       	brne	.+8      	; 0x2508 <__LOCK_REGION_LENGTH__+0x2108>
    2500:	eb 81       	ldd	r30, Y+3	; 0x03
    2502:	fc 81       	ldd	r31, Y+4	; 0x04
    2504:	47 86       	std	Z+15, r4	; 0x0f
    2506:	50 8a       	std	Z+16, r5	; 0x10
    2508:	f2 01       	movw	r30, r4
    250a:	20 8f       	std	Z+24, r18	; 0x18
    250c:	e6 80       	ldd	r14, Z+6	; 0x06
    250e:	f7 80       	ldd	r15, Z+7	; 0x07
    2510:	62 85       	ldd	r22, Z+10	; 0x0a
    2512:	73 85       	ldd	r23, Z+11	; 0x0b
    2514:	84 01       	movw	r16, r8
    2516:	95 01       	movw	r18, r10
    2518:	a6 01       	movw	r20, r12
    251a:	8b 81       	ldd	r24, Y+3	; 0x03
    251c:	9c 81       	ldd	r25, Y+4	; 0x04
    251e:	0e 94 42 01 	call	0x284	; 0x284 <_ZN4core3dfsEP4nodeiiii>
    2522:	f2 01       	movw	r30, r4
    2524:	e6 80       	ldd	r14, Z+6	; 0x06
    2526:	f7 80       	ldd	r15, Z+7	; 0x07
    2528:	64 85       	ldd	r22, Z+12	; 0x0c
    252a:	75 85       	ldd	r23, Z+13	; 0x0d
    252c:	95 01       	movw	r18, r10
    252e:	a6 01       	movw	r20, r12
    2530:	8b 81       	ldd	r24, Y+3	; 0x03
    2532:	9c 81       	ldd	r25, Y+4	; 0x04
    2534:	0e 94 42 01 	call	0x284	; 0x284 <_ZN4core3dfsEP4nodeiiii>
    2538:	f2 01       	movw	r30, r4
    253a:	e6 80       	ldd	r14, Z+6	; 0x06
    253c:	f7 80       	ldd	r15, Z+7	; 0x07
    253e:	66 85       	ldd	r22, Z+14	; 0x0e
    2540:	77 85       	ldd	r23, Z+15	; 0x0f
    2542:	95 01       	movw	r18, r10
    2544:	a6 01       	movw	r20, r12
    2546:	8b 81       	ldd	r24, Y+3	; 0x03
    2548:	9c 81       	ldd	r25, Y+4	; 0x04
    254a:	0e 94 42 01 	call	0x284	; 0x284 <_ZN4core3dfsEP4nodeiiii>
    254e:	f2 01       	movw	r30, r4
    2550:	e6 80       	ldd	r14, Z+6	; 0x06
    2552:	f7 80       	ldd	r15, Z+7	; 0x07
    2554:	60 89       	ldd	r22, Z+16	; 0x10
    2556:	71 89       	ldd	r23, Z+17	; 0x11
    2558:	95 01       	movw	r18, r10
    255a:	a6 01       	movw	r20, r12
    255c:	8b 81       	ldd	r24, Y+3	; 0x03
    255e:	9c 81       	ldd	r25, Y+4	; 0x04
    2560:	0e 94 42 01 	call	0x284	; 0x284 <_ZN4core3dfsEP4nodeiiii>
    2564:	f3 01       	movw	r30, r6
    2566:	86 81       	ldd	r24, Z+6	; 0x06
    2568:	97 81       	ldd	r25, Z+7	; 0x07
    256a:	44 84       	ldd	r4, Z+12	; 0x0c
    256c:	55 84       	ldd	r5, Z+13	; 0x0d
    256e:	41 14       	cp	r4, r1
    2570:	51 04       	cpc	r5, r1
    2572:	09 f4       	brne	.+2      	; 0x2576 <__LOCK_REGION_LENGTH__+0x2176>
    2574:	5a c0       	rjmp	.+180    	; 0x262a <__LOCK_REGION_LENGTH__+0x222a>
    2576:	01 96       	adiw	r24, 0x01	; 1
    2578:	f2 01       	movw	r30, r4
    257a:	26 81       	ldd	r18, Z+6	; 0x06
    257c:	37 81       	ldd	r19, Z+7	; 0x07
    257e:	82 17       	cp	r24, r18
    2580:	93 07       	cpc	r25, r19
    2582:	14 f4       	brge	.+4      	; 0x2588 <__LOCK_REGION_LENGTH__+0x2188>
    2584:	86 83       	std	Z+6, r24	; 0x06
    2586:	97 83       	std	Z+7, r25	; 0x07
    2588:	eb 81       	ldd	r30, Y+3	; 0x03
    258a:	fc 81       	ldd	r31, Y+4	; 0x04
    258c:	26 85       	ldd	r18, Z+14	; 0x0e
    258e:	f2 01       	movw	r30, r4
    2590:	80 8d       	ldd	r24, Z+24	; 0x18
    2592:	82 17       	cp	r24, r18
    2594:	09 f4       	brne	.+2      	; 0x2598 <__LOCK_REGION_LENGTH__+0x2198>
    2596:	49 c0       	rjmp	.+146    	; 0x262a <__LOCK_REGION_LENGTH__+0x222a>
    2598:	eb 81       	ldd	r30, Y+3	; 0x03
    259a:	fc 81       	ldd	r31, Y+4	; 0x04
    259c:	83 89       	ldd	r24, Z+19	; 0x13
    259e:	94 89       	ldd	r25, Z+20	; 0x14
    25a0:	01 96       	adiw	r24, 0x01	; 1
    25a2:	83 8b       	std	Z+19, r24	; 0x13
    25a4:	94 8b       	std	Z+20, r25	; 0x14
    25a6:	f2 01       	movw	r30, r4
    25a8:	80 81       	ld	r24, Z
    25aa:	91 81       	ldd	r25, Z+1	; 0x01
    25ac:	c8 16       	cp	r12, r24
    25ae:	d9 06       	cpc	r13, r25
    25b0:	71 f4       	brne	.+28     	; 0x25ce <__LOCK_REGION_LENGTH__+0x21ce>
    25b2:	82 81       	ldd	r24, Z+2	; 0x02
    25b4:	93 81       	ldd	r25, Z+3	; 0x03
    25b6:	a8 16       	cp	r10, r24
    25b8:	b9 06       	cpc	r11, r25
    25ba:	49 f4       	brne	.+18     	; 0x25ce <__LOCK_REGION_LENGTH__+0x21ce>
    25bc:	84 81       	ldd	r24, Z+4	; 0x04
    25be:	95 81       	ldd	r25, Z+5	; 0x05
    25c0:	88 16       	cp	r8, r24
    25c2:	99 06       	cpc	r9, r25
    25c4:	21 f4       	brne	.+8      	; 0x25ce <__LOCK_REGION_LENGTH__+0x21ce>
    25c6:	eb 81       	ldd	r30, Y+3	; 0x03
    25c8:	fc 81       	ldd	r31, Y+4	; 0x04
    25ca:	47 86       	std	Z+15, r4	; 0x0f
    25cc:	50 8a       	std	Z+16, r5	; 0x10
    25ce:	f2 01       	movw	r30, r4
    25d0:	20 8f       	std	Z+24, r18	; 0x18
    25d2:	e6 80       	ldd	r14, Z+6	; 0x06
    25d4:	f7 80       	ldd	r15, Z+7	; 0x07
    25d6:	62 85       	ldd	r22, Z+10	; 0x0a
    25d8:	73 85       	ldd	r23, Z+11	; 0x0b
    25da:	84 01       	movw	r16, r8
    25dc:	95 01       	movw	r18, r10
    25de:	a6 01       	movw	r20, r12
    25e0:	8b 81       	ldd	r24, Y+3	; 0x03
    25e2:	9c 81       	ldd	r25, Y+4	; 0x04
    25e4:	0e 94 42 01 	call	0x284	; 0x284 <_ZN4core3dfsEP4nodeiiii>
    25e8:	f2 01       	movw	r30, r4
    25ea:	e6 80       	ldd	r14, Z+6	; 0x06
    25ec:	f7 80       	ldd	r15, Z+7	; 0x07
    25ee:	64 85       	ldd	r22, Z+12	; 0x0c
    25f0:	75 85       	ldd	r23, Z+13	; 0x0d
    25f2:	95 01       	movw	r18, r10
    25f4:	a6 01       	movw	r20, r12
    25f6:	8b 81       	ldd	r24, Y+3	; 0x03
    25f8:	9c 81       	ldd	r25, Y+4	; 0x04
    25fa:	0e 94 42 01 	call	0x284	; 0x284 <_ZN4core3dfsEP4nodeiiii>
    25fe:	f2 01       	movw	r30, r4
    2600:	e6 80       	ldd	r14, Z+6	; 0x06
    2602:	f7 80       	ldd	r15, Z+7	; 0x07
    2604:	66 85       	ldd	r22, Z+14	; 0x0e
    2606:	77 85       	ldd	r23, Z+15	; 0x0f
    2608:	95 01       	movw	r18, r10
    260a:	a6 01       	movw	r20, r12
    260c:	8b 81       	ldd	r24, Y+3	; 0x03
    260e:	9c 81       	ldd	r25, Y+4	; 0x04
    2610:	0e 94 42 01 	call	0x284	; 0x284 <_ZN4core3dfsEP4nodeiiii>
    2614:	f2 01       	movw	r30, r4
    2616:	e6 80       	ldd	r14, Z+6	; 0x06
    2618:	f7 80       	ldd	r15, Z+7	; 0x07
    261a:	60 89       	ldd	r22, Z+16	; 0x10
    261c:	71 89       	ldd	r23, Z+17	; 0x11
    261e:	95 01       	movw	r18, r10
    2620:	a6 01       	movw	r20, r12
    2622:	8b 81       	ldd	r24, Y+3	; 0x03
    2624:	9c 81       	ldd	r25, Y+4	; 0x04
    2626:	0e 94 42 01 	call	0x284	; 0x284 <_ZN4core3dfsEP4nodeiiii>
    262a:	f3 01       	movw	r30, r6
    262c:	86 81       	ldd	r24, Z+6	; 0x06
    262e:	97 81       	ldd	r25, Z+7	; 0x07
    2630:	46 84       	ldd	r4, Z+14	; 0x0e
    2632:	57 84       	ldd	r5, Z+15	; 0x0f
    2634:	41 14       	cp	r4, r1
    2636:	51 04       	cpc	r5, r1
    2638:	09 f4       	brne	.+2      	; 0x263c <__LOCK_REGION_LENGTH__+0x223c>
    263a:	5a c0       	rjmp	.+180    	; 0x26f0 <__LOCK_REGION_LENGTH__+0x22f0>
    263c:	01 96       	adiw	r24, 0x01	; 1
    263e:	f2 01       	movw	r30, r4
    2640:	26 81       	ldd	r18, Z+6	; 0x06
    2642:	37 81       	ldd	r19, Z+7	; 0x07
    2644:	82 17       	cp	r24, r18
    2646:	93 07       	cpc	r25, r19
    2648:	14 f4       	brge	.+4      	; 0x264e <__LOCK_REGION_LENGTH__+0x224e>
    264a:	86 83       	std	Z+6, r24	; 0x06
    264c:	97 83       	std	Z+7, r25	; 0x07
    264e:	eb 81       	ldd	r30, Y+3	; 0x03
    2650:	fc 81       	ldd	r31, Y+4	; 0x04
    2652:	26 85       	ldd	r18, Z+14	; 0x0e
    2654:	f2 01       	movw	r30, r4
    2656:	80 8d       	ldd	r24, Z+24	; 0x18
    2658:	82 17       	cp	r24, r18
    265a:	09 f4       	brne	.+2      	; 0x265e <__LOCK_REGION_LENGTH__+0x225e>
    265c:	49 c0       	rjmp	.+146    	; 0x26f0 <__LOCK_REGION_LENGTH__+0x22f0>
    265e:	eb 81       	ldd	r30, Y+3	; 0x03
    2660:	fc 81       	ldd	r31, Y+4	; 0x04
    2662:	83 89       	ldd	r24, Z+19	; 0x13
    2664:	94 89       	ldd	r25, Z+20	; 0x14
    2666:	01 96       	adiw	r24, 0x01	; 1
    2668:	83 8b       	std	Z+19, r24	; 0x13
    266a:	94 8b       	std	Z+20, r25	; 0x14
    266c:	f2 01       	movw	r30, r4
    266e:	80 81       	ld	r24, Z
    2670:	91 81       	ldd	r25, Z+1	; 0x01
    2672:	c8 16       	cp	r12, r24
    2674:	d9 06       	cpc	r13, r25
    2676:	71 f4       	brne	.+28     	; 0x2694 <__LOCK_REGION_LENGTH__+0x2294>
    2678:	82 81       	ldd	r24, Z+2	; 0x02
    267a:	93 81       	ldd	r25, Z+3	; 0x03
    267c:	a8 16       	cp	r10, r24
    267e:	b9 06       	cpc	r11, r25
    2680:	49 f4       	brne	.+18     	; 0x2694 <__LOCK_REGION_LENGTH__+0x2294>
    2682:	84 81       	ldd	r24, Z+4	; 0x04
    2684:	95 81       	ldd	r25, Z+5	; 0x05
    2686:	88 16       	cp	r8, r24
    2688:	99 06       	cpc	r9, r25
    268a:	21 f4       	brne	.+8      	; 0x2694 <__LOCK_REGION_LENGTH__+0x2294>
    268c:	eb 81       	ldd	r30, Y+3	; 0x03
    268e:	fc 81       	ldd	r31, Y+4	; 0x04
    2690:	47 86       	std	Z+15, r4	; 0x0f
    2692:	50 8a       	std	Z+16, r5	; 0x10
    2694:	f2 01       	movw	r30, r4
    2696:	20 8f       	std	Z+24, r18	; 0x18
    2698:	e6 80       	ldd	r14, Z+6	; 0x06
    269a:	f7 80       	ldd	r15, Z+7	; 0x07
    269c:	62 85       	ldd	r22, Z+10	; 0x0a
    269e:	73 85       	ldd	r23, Z+11	; 0x0b
    26a0:	84 01       	movw	r16, r8
    26a2:	95 01       	movw	r18, r10
    26a4:	a6 01       	movw	r20, r12
    26a6:	8b 81       	ldd	r24, Y+3	; 0x03
    26a8:	9c 81       	ldd	r25, Y+4	; 0x04
    26aa:	0e 94 42 01 	call	0x284	; 0x284 <_ZN4core3dfsEP4nodeiiii>
    26ae:	f2 01       	movw	r30, r4
    26b0:	e6 80       	ldd	r14, Z+6	; 0x06
    26b2:	f7 80       	ldd	r15, Z+7	; 0x07
    26b4:	64 85       	ldd	r22, Z+12	; 0x0c
    26b6:	75 85       	ldd	r23, Z+13	; 0x0d
    26b8:	95 01       	movw	r18, r10
    26ba:	a6 01       	movw	r20, r12
    26bc:	8b 81       	ldd	r24, Y+3	; 0x03
    26be:	9c 81       	ldd	r25, Y+4	; 0x04
    26c0:	0e 94 42 01 	call	0x284	; 0x284 <_ZN4core3dfsEP4nodeiiii>
    26c4:	f2 01       	movw	r30, r4
    26c6:	e6 80       	ldd	r14, Z+6	; 0x06
    26c8:	f7 80       	ldd	r15, Z+7	; 0x07
    26ca:	66 85       	ldd	r22, Z+14	; 0x0e
    26cc:	77 85       	ldd	r23, Z+15	; 0x0f
    26ce:	95 01       	movw	r18, r10
    26d0:	a6 01       	movw	r20, r12
    26d2:	8b 81       	ldd	r24, Y+3	; 0x03
    26d4:	9c 81       	ldd	r25, Y+4	; 0x04
    26d6:	0e 94 42 01 	call	0x284	; 0x284 <_ZN4core3dfsEP4nodeiiii>
    26da:	f2 01       	movw	r30, r4
    26dc:	e6 80       	ldd	r14, Z+6	; 0x06
    26de:	f7 80       	ldd	r15, Z+7	; 0x07
    26e0:	60 89       	ldd	r22, Z+16	; 0x10
    26e2:	71 89       	ldd	r23, Z+17	; 0x11
    26e4:	95 01       	movw	r18, r10
    26e6:	a6 01       	movw	r20, r12
    26e8:	8b 81       	ldd	r24, Y+3	; 0x03
    26ea:	9c 81       	ldd	r25, Y+4	; 0x04
    26ec:	0e 94 42 01 	call	0x284	; 0x284 <_ZN4core3dfsEP4nodeiiii>
    26f0:	f3 01       	movw	r30, r6
    26f2:	86 81       	ldd	r24, Z+6	; 0x06
    26f4:	97 81       	ldd	r25, Z+7	; 0x07
    26f6:	60 88       	ldd	r6, Z+16	; 0x10
    26f8:	71 88       	ldd	r7, Z+17	; 0x11
    26fa:	61 14       	cp	r6, r1
    26fc:	71 04       	cpc	r7, r1
    26fe:	09 f4       	brne	.+2      	; 0x2702 <__LOCK_REGION_LENGTH__+0x2302>
    2700:	5a c0       	rjmp	.+180    	; 0x27b6 <__LOCK_REGION_LENGTH__+0x23b6>
    2702:	01 96       	adiw	r24, 0x01	; 1
    2704:	f3 01       	movw	r30, r6
    2706:	26 81       	ldd	r18, Z+6	; 0x06
    2708:	37 81       	ldd	r19, Z+7	; 0x07
    270a:	82 17       	cp	r24, r18
    270c:	93 07       	cpc	r25, r19
    270e:	14 f4       	brge	.+4      	; 0x2714 <__LOCK_REGION_LENGTH__+0x2314>
    2710:	86 83       	std	Z+6, r24	; 0x06
    2712:	97 83       	std	Z+7, r25	; 0x07
    2714:	eb 81       	ldd	r30, Y+3	; 0x03
    2716:	fc 81       	ldd	r31, Y+4	; 0x04
    2718:	26 85       	ldd	r18, Z+14	; 0x0e
    271a:	f3 01       	movw	r30, r6
    271c:	80 8d       	ldd	r24, Z+24	; 0x18
    271e:	82 17       	cp	r24, r18
    2720:	09 f4       	brne	.+2      	; 0x2724 <__LOCK_REGION_LENGTH__+0x2324>
    2722:	49 c0       	rjmp	.+146    	; 0x27b6 <__LOCK_REGION_LENGTH__+0x23b6>
    2724:	eb 81       	ldd	r30, Y+3	; 0x03
    2726:	fc 81       	ldd	r31, Y+4	; 0x04
    2728:	83 89       	ldd	r24, Z+19	; 0x13
    272a:	94 89       	ldd	r25, Z+20	; 0x14
    272c:	01 96       	adiw	r24, 0x01	; 1
    272e:	83 8b       	std	Z+19, r24	; 0x13
    2730:	94 8b       	std	Z+20, r25	; 0x14
    2732:	f3 01       	movw	r30, r6
    2734:	80 81       	ld	r24, Z
    2736:	91 81       	ldd	r25, Z+1	; 0x01
    2738:	c8 16       	cp	r12, r24
    273a:	d9 06       	cpc	r13, r25
    273c:	71 f4       	brne	.+28     	; 0x275a <__LOCK_REGION_LENGTH__+0x235a>
    273e:	82 81       	ldd	r24, Z+2	; 0x02
    2740:	93 81       	ldd	r25, Z+3	; 0x03
    2742:	a8 16       	cp	r10, r24
    2744:	b9 06       	cpc	r11, r25
    2746:	49 f4       	brne	.+18     	; 0x275a <__LOCK_REGION_LENGTH__+0x235a>
    2748:	84 81       	ldd	r24, Z+4	; 0x04
    274a:	95 81       	ldd	r25, Z+5	; 0x05
    274c:	88 16       	cp	r8, r24
    274e:	99 06       	cpc	r9, r25
    2750:	21 f4       	brne	.+8      	; 0x275a <__LOCK_REGION_LENGTH__+0x235a>
    2752:	eb 81       	ldd	r30, Y+3	; 0x03
    2754:	fc 81       	ldd	r31, Y+4	; 0x04
    2756:	67 86       	std	Z+15, r6	; 0x0f
    2758:	70 8a       	std	Z+16, r7	; 0x10
    275a:	f3 01       	movw	r30, r6
    275c:	20 8f       	std	Z+24, r18	; 0x18
    275e:	e6 80       	ldd	r14, Z+6	; 0x06
    2760:	f7 80       	ldd	r15, Z+7	; 0x07
    2762:	62 85       	ldd	r22, Z+10	; 0x0a
    2764:	73 85       	ldd	r23, Z+11	; 0x0b
    2766:	84 01       	movw	r16, r8
    2768:	95 01       	movw	r18, r10
    276a:	a6 01       	movw	r20, r12
    276c:	8b 81       	ldd	r24, Y+3	; 0x03
    276e:	9c 81       	ldd	r25, Y+4	; 0x04
    2770:	0e 94 42 01 	call	0x284	; 0x284 <_ZN4core3dfsEP4nodeiiii>
    2774:	f3 01       	movw	r30, r6
    2776:	e6 80       	ldd	r14, Z+6	; 0x06
    2778:	f7 80       	ldd	r15, Z+7	; 0x07
    277a:	64 85       	ldd	r22, Z+12	; 0x0c
    277c:	75 85       	ldd	r23, Z+13	; 0x0d
    277e:	95 01       	movw	r18, r10
    2780:	a6 01       	movw	r20, r12
    2782:	8b 81       	ldd	r24, Y+3	; 0x03
    2784:	9c 81       	ldd	r25, Y+4	; 0x04
    2786:	0e 94 42 01 	call	0x284	; 0x284 <_ZN4core3dfsEP4nodeiiii>
    278a:	f3 01       	movw	r30, r6
    278c:	e6 80       	ldd	r14, Z+6	; 0x06
    278e:	f7 80       	ldd	r15, Z+7	; 0x07
    2790:	66 85       	ldd	r22, Z+14	; 0x0e
    2792:	77 85       	ldd	r23, Z+15	; 0x0f
    2794:	95 01       	movw	r18, r10
    2796:	a6 01       	movw	r20, r12
    2798:	8b 81       	ldd	r24, Y+3	; 0x03
    279a:	9c 81       	ldd	r25, Y+4	; 0x04
    279c:	0e 94 42 01 	call	0x284	; 0x284 <_ZN4core3dfsEP4nodeiiii>
    27a0:	f3 01       	movw	r30, r6
    27a2:	e6 80       	ldd	r14, Z+6	; 0x06
    27a4:	f7 80       	ldd	r15, Z+7	; 0x07
    27a6:	60 89       	ldd	r22, Z+16	; 0x10
    27a8:	71 89       	ldd	r23, Z+17	; 0x11
    27aa:	95 01       	movw	r18, r10
    27ac:	a6 01       	movw	r20, r12
    27ae:	8b 81       	ldd	r24, Y+3	; 0x03
    27b0:	9c 81       	ldd	r25, Y+4	; 0x04
    27b2:	0e 94 42 01 	call	0x284	; 0x284 <_ZN4core3dfsEP4nodeiiii>
    27b6:	eb 81       	ldd	r30, Y+3	; 0x03
    27b8:	fc 81       	ldd	r31, Y+4	; 0x04
    27ba:	86 85       	ldd	r24, Z+14	; 0x0e
    27bc:	90 e0       	ldi	r25, 0x00	; 0
    27be:	01 96       	adiw	r24, 0x01	; 1
    27c0:	81 70       	andi	r24, 0x01	; 1
    27c2:	90 78       	andi	r25, 0x80	; 128
    27c4:	99 23       	and	r25, r25
    27c6:	24 f4       	brge	.+8      	; 0x27d0 <__LOCK_REGION_LENGTH__+0x23d0>
    27c8:	01 97       	sbiw	r24, 0x01	; 1
    27ca:	8e 6f       	ori	r24, 0xFE	; 254
    27cc:	9f 6f       	ori	r25, 0xFF	; 255
    27ce:	01 96       	adiw	r24, 0x01	; 1
    27d0:	eb 81       	ldd	r30, Y+3	; 0x03
    27d2:	fc 81       	ldd	r31, Y+4	; 0x04
    27d4:	86 87       	std	Z+14, r24	; 0x0e
    27d6:	87 85       	ldd	r24, Z+15	; 0x0f
    27d8:	90 89       	ldd	r25, Z+16	; 0x10
    27da:	24 96       	adiw	r28, 0x04	; 4
    27dc:	cd bf       	out	0x3d, r28	; 61
    27de:	de bf       	out	0x3e, r29	; 62
    27e0:	df 91       	pop	r29
    27e2:	cf 91       	pop	r28
    27e4:	1f 91       	pop	r17
    27e6:	0f 91       	pop	r16
    27e8:	ff 90       	pop	r15
    27ea:	ef 90       	pop	r14
    27ec:	df 90       	pop	r13
    27ee:	cf 90       	pop	r12
    27f0:	bf 90       	pop	r11
    27f2:	af 90       	pop	r10
    27f4:	9f 90       	pop	r9
    27f6:	8f 90       	pop	r8
    27f8:	7f 90       	pop	r7
    27fa:	6f 90       	pop	r6
    27fc:	5f 90       	pop	r5
    27fe:	4f 90       	pop	r4
    2800:	3f 90       	pop	r3
    2802:	2f 90       	pop	r2
    2804:	08 95       	ret

00002806 <_ZN4core5go_stEv>:
    2806:	2f 92       	push	r2
    2808:	3f 92       	push	r3
    280a:	4f 92       	push	r4
    280c:	5f 92       	push	r5
    280e:	6f 92       	push	r6
    2810:	7f 92       	push	r7
    2812:	8f 92       	push	r8
    2814:	9f 92       	push	r9
    2816:	af 92       	push	r10
    2818:	bf 92       	push	r11
    281a:	cf 92       	push	r12
    281c:	df 92       	push	r13
    281e:	ef 92       	push	r14
    2820:	ff 92       	push	r15
    2822:	0f 93       	push	r16
    2824:	1f 93       	push	r17
    2826:	cf 93       	push	r28
    2828:	df 93       	push	r29
    282a:	00 d0       	rcall	.+0      	; 0x282c <_ZN4core5go_stEv+0x26>
    282c:	1f 92       	push	r1
    282e:	cd b7       	in	r28, 0x3d	; 61
    2830:	de b7       	in	r29, 0x3e	; 62
    2832:	8b 83       	std	Y+3, r24	; 0x03
    2834:	9c 83       	std	Y+4, r25	; 0x04
    2836:	dc 01       	movw	r26, r24
    2838:	4d 90       	ld	r4, X+
    283a:	5c 90       	ld	r5, X
    283c:	11 97       	sbiw	r26, 0x01	; 1
    283e:	f2 01       	movw	r30, r4
    2840:	c0 80       	ld	r12, Z
    2842:	d1 80       	ldd	r13, Z+1	; 0x01
    2844:	a2 80       	ldd	r10, Z+2	; 0x02
    2846:	b3 80       	ldd	r11, Z+3	; 0x03
    2848:	84 80       	ldd	r8, Z+4	; 0x04
    284a:	95 80       	ldd	r9, Z+5	; 0x05
    284c:	14 96       	adiw	r26, 0x04	; 4
    284e:	8d 91       	ld	r24, X+
    2850:	9c 91       	ld	r25, X
    2852:	15 97       	sbiw	r26, 0x05	; 5
    2854:	81 30       	cpi	r24, 0x01	; 1
    2856:	91 05       	cpc	r25, r1
    2858:	71 f0       	breq	.+28     	; 0x2876 <_ZN4core5go_stEv+0x70>
    285a:	1c f4       	brge	.+6      	; 0x2862 <_ZN4core5go_stEv+0x5c>
    285c:	89 2b       	or	r24, r25
    285e:	39 f0       	breq	.+14     	; 0x286e <_ZN4core5go_stEv+0x68>
    2860:	15 c0       	rjmp	.+42     	; 0x288c <_ZN4core5go_stEv+0x86>
    2862:	82 30       	cpi	r24, 0x02	; 2
    2864:	91 05       	cpc	r25, r1
    2866:	59 f0       	breq	.+22     	; 0x287e <_ZN4core5go_stEv+0x78>
    2868:	03 97       	sbiw	r24, 0x03	; 3
    286a:	69 f0       	breq	.+26     	; 0x2886 <_ZN4core5go_stEv+0x80>
    286c:	0f c0       	rjmp	.+30     	; 0x288c <_ZN4core5go_stEv+0x86>
    286e:	f1 e0       	ldi	r31, 0x01	; 1
    2870:	cf 1a       	sub	r12, r31
    2872:	d1 08       	sbc	r13, r1
    2874:	0b c0       	rjmp	.+22     	; 0x288c <_ZN4core5go_stEv+0x86>
    2876:	2f ef       	ldi	r18, 0xFF	; 255
    2878:	a2 1a       	sub	r10, r18
    287a:	b2 0a       	sbc	r11, r18
    287c:	07 c0       	rjmp	.+14     	; 0x288c <_ZN4core5go_stEv+0x86>
    287e:	3f ef       	ldi	r19, 0xFF	; 255
    2880:	c3 1a       	sub	r12, r19
    2882:	d3 0a       	sbc	r13, r19
    2884:	03 c0       	rjmp	.+6      	; 0x288c <_ZN4core5go_stEv+0x86>
    2886:	81 e0       	ldi	r24, 0x01	; 1
    2888:	a8 1a       	sub	r10, r24
    288a:	b1 08       	sbc	r11, r1
    288c:	ab 81       	ldd	r26, Y+3	; 0x03
    288e:	bc 81       	ldd	r27, Y+4	; 0x04
    2890:	53 96       	adiw	r26, 0x13	; 19
    2892:	1d 92       	st	X+, r1
    2894:	1c 92       	st	X, r1
    2896:	54 97       	sbiw	r26, 0x14	; 20
    2898:	1f 96       	adiw	r26, 0x0f	; 15
    289a:	1d 92       	st	X+, r1
    289c:	1c 92       	st	X, r1
    289e:	50 97       	sbiw	r26, 0x10	; 16
    28a0:	12 96       	adiw	r26, 0x02	; 2
    28a2:	6d 90       	ld	r6, X+
    28a4:	7c 90       	ld	r7, X
    28a6:	13 97       	sbiw	r26, 0x03	; 3
    28a8:	f3 01       	movw	r30, r6
    28aa:	86 81       	ldd	r24, Z+6	; 0x06
    28ac:	97 81       	ldd	r25, Z+7	; 0x07
    28ae:	61 14       	cp	r6, r1
    28b0:	71 04       	cpc	r7, r1
    28b2:	11 f4       	brne	.+4      	; 0x28b8 <_ZN4core5go_stEv+0xb2>
    28b4:	0c 94 f7 1c 	jmp	0x39ee	; 0x39ee <_ZN4core5go_stEv+0x11e8>
    28b8:	9c 01       	movw	r18, r24
    28ba:	2f 5f       	subi	r18, 0xFF	; 255
    28bc:	3f 4f       	sbci	r19, 0xFF	; 255
    28be:	28 17       	cp	r18, r24
    28c0:	39 07       	cpc	r19, r25
    28c2:	14 f4       	brge	.+4      	; 0x28c8 <_ZN4core5go_stEv+0xc2>
    28c4:	26 83       	std	Z+6, r18	; 0x06
    28c6:	37 83       	std	Z+7, r19	; 0x07
    28c8:	ab 81       	ldd	r26, Y+3	; 0x03
    28ca:	bc 81       	ldd	r27, Y+4	; 0x04
    28cc:	1e 96       	adiw	r26, 0x0e	; 14
    28ce:	2c 91       	ld	r18, X
    28d0:	1e 97       	sbiw	r26, 0x0e	; 14
    28d2:	f3 01       	movw	r30, r6
    28d4:	80 8d       	ldd	r24, Z+24	; 0x18
    28d6:	82 17       	cp	r24, r18
    28d8:	11 f4       	brne	.+4      	; 0x28de <_ZN4core5go_stEv+0xd8>
    28da:	0c 94 f7 1c 	jmp	0x39ee	; 0x39ee <_ZN4core5go_stEv+0x11e8>
    28de:	53 96       	adiw	r26, 0x13	; 19
    28e0:	8d 91       	ld	r24, X+
    28e2:	9c 91       	ld	r25, X
    28e4:	54 97       	sbiw	r26, 0x14	; 20
    28e6:	01 96       	adiw	r24, 0x01	; 1
    28e8:	53 96       	adiw	r26, 0x13	; 19
    28ea:	8d 93       	st	X+, r24
    28ec:	9c 93       	st	X, r25
    28ee:	54 97       	sbiw	r26, 0x14	; 20
    28f0:	80 81       	ld	r24, Z
    28f2:	91 81       	ldd	r25, Z+1	; 0x01
    28f4:	c8 16       	cp	r12, r24
    28f6:	d9 06       	cpc	r13, r25
    28f8:	71 f4       	brne	.+28     	; 0x2916 <_ZN4core5go_stEv+0x110>
    28fa:	82 81       	ldd	r24, Z+2	; 0x02
    28fc:	93 81       	ldd	r25, Z+3	; 0x03
    28fe:	a8 16       	cp	r10, r24
    2900:	b9 06       	cpc	r11, r25
    2902:	49 f4       	brne	.+18     	; 0x2916 <_ZN4core5go_stEv+0x110>
    2904:	84 81       	ldd	r24, Z+4	; 0x04
    2906:	95 81       	ldd	r25, Z+5	; 0x05
    2908:	88 16       	cp	r8, r24
    290a:	99 06       	cpc	r9, r25
    290c:	21 f4       	brne	.+8      	; 0x2916 <_ZN4core5go_stEv+0x110>
    290e:	1f 96       	adiw	r26, 0x0f	; 15
    2910:	6d 92       	st	X+, r6
    2912:	7c 92       	st	X, r7
    2914:	50 97       	sbiw	r26, 0x10	; 16
    2916:	d3 01       	movw	r26, r6
    2918:	58 96       	adiw	r26, 0x18	; 24
    291a:	2c 93       	st	X, r18
    291c:	58 97       	sbiw	r26, 0x18	; 24
    291e:	16 96       	adiw	r26, 0x06	; 6
    2920:	8d 91       	ld	r24, X+
    2922:	9c 91       	ld	r25, X
    2924:	17 97       	sbiw	r26, 0x07	; 7
    2926:	1a 96       	adiw	r26, 0x0a	; 10
    2928:	2d 90       	ld	r2, X+
    292a:	3c 90       	ld	r3, X
    292c:	1b 97       	sbiw	r26, 0x0b	; 11
    292e:	21 14       	cp	r2, r1
    2930:	31 04       	cpc	r3, r1
    2932:	09 f4       	brne	.+2      	; 0x2936 <_ZN4core5go_stEv+0x130>
    2934:	11 c2       	rjmp	.+1058   	; 0x2d58 <_ZN4core5go_stEv+0x552>
    2936:	01 96       	adiw	r24, 0x01	; 1
    2938:	f1 01       	movw	r30, r2
    293a:	26 81       	ldd	r18, Z+6	; 0x06
    293c:	37 81       	ldd	r19, Z+7	; 0x07
    293e:	82 17       	cp	r24, r18
    2940:	93 07       	cpc	r25, r19
    2942:	14 f4       	brge	.+4      	; 0x2948 <_ZN4core5go_stEv+0x142>
    2944:	86 83       	std	Z+6, r24	; 0x06
    2946:	97 83       	std	Z+7, r25	; 0x07
    2948:	ab 81       	ldd	r26, Y+3	; 0x03
    294a:	bc 81       	ldd	r27, Y+4	; 0x04
    294c:	1e 96       	adiw	r26, 0x0e	; 14
    294e:	2c 91       	ld	r18, X
    2950:	1e 97       	sbiw	r26, 0x0e	; 14
    2952:	f1 01       	movw	r30, r2
    2954:	80 8d       	ldd	r24, Z+24	; 0x18
    2956:	82 17       	cp	r24, r18
    2958:	09 f4       	brne	.+2      	; 0x295c <_ZN4core5go_stEv+0x156>
    295a:	fe c1       	rjmp	.+1020   	; 0x2d58 <_ZN4core5go_stEv+0x552>
    295c:	53 96       	adiw	r26, 0x13	; 19
    295e:	8d 91       	ld	r24, X+
    2960:	9c 91       	ld	r25, X
    2962:	54 97       	sbiw	r26, 0x14	; 20
    2964:	01 96       	adiw	r24, 0x01	; 1
    2966:	53 96       	adiw	r26, 0x13	; 19
    2968:	8d 93       	st	X+, r24
    296a:	9c 93       	st	X, r25
    296c:	54 97       	sbiw	r26, 0x14	; 20
    296e:	80 81       	ld	r24, Z
    2970:	91 81       	ldd	r25, Z+1	; 0x01
    2972:	c8 16       	cp	r12, r24
    2974:	d9 06       	cpc	r13, r25
    2976:	71 f4       	brne	.+28     	; 0x2994 <_ZN4core5go_stEv+0x18e>
    2978:	82 81       	ldd	r24, Z+2	; 0x02
    297a:	93 81       	ldd	r25, Z+3	; 0x03
    297c:	a8 16       	cp	r10, r24
    297e:	b9 06       	cpc	r11, r25
    2980:	49 f4       	brne	.+18     	; 0x2994 <_ZN4core5go_stEv+0x18e>
    2982:	84 81       	ldd	r24, Z+4	; 0x04
    2984:	95 81       	ldd	r25, Z+5	; 0x05
    2986:	88 16       	cp	r8, r24
    2988:	99 06       	cpc	r9, r25
    298a:	21 f4       	brne	.+8      	; 0x2994 <_ZN4core5go_stEv+0x18e>
    298c:	1f 96       	adiw	r26, 0x0f	; 15
    298e:	2d 92       	st	X+, r2
    2990:	3c 92       	st	X, r3
    2992:	50 97       	sbiw	r26, 0x10	; 16
    2994:	d1 01       	movw	r26, r2
    2996:	58 96       	adiw	r26, 0x18	; 24
    2998:	2c 93       	st	X, r18
    299a:	58 97       	sbiw	r26, 0x18	; 24
    299c:	16 96       	adiw	r26, 0x06	; 6
    299e:	8d 91       	ld	r24, X+
    29a0:	9c 91       	ld	r25, X
    29a2:	17 97       	sbiw	r26, 0x07	; 7
    29a4:	1a 96       	adiw	r26, 0x0a	; 10
    29a6:	ed 91       	ld	r30, X+
    29a8:	fc 91       	ld	r31, X
    29aa:	1b 97       	sbiw	r26, 0x0b	; 11
    29ac:	e9 83       	std	Y+1, r30	; 0x01
    29ae:	fa 83       	std	Y+2, r31	; 0x02
    29b0:	30 97       	sbiw	r30, 0x00	; 0
    29b2:	09 f4       	brne	.+2      	; 0x29b6 <_ZN4core5go_stEv+0x1b0>
    29b4:	6b c0       	rjmp	.+214    	; 0x2a8c <_ZN4core5go_stEv+0x286>
    29b6:	01 96       	adiw	r24, 0x01	; 1
    29b8:	26 81       	ldd	r18, Z+6	; 0x06
    29ba:	37 81       	ldd	r19, Z+7	; 0x07
    29bc:	82 17       	cp	r24, r18
    29be:	93 07       	cpc	r25, r19
    29c0:	14 f4       	brge	.+4      	; 0x29c6 <_ZN4core5go_stEv+0x1c0>
    29c2:	86 83       	std	Z+6, r24	; 0x06
    29c4:	97 83       	std	Z+7, r25	; 0x07
    29c6:	ab 81       	ldd	r26, Y+3	; 0x03
    29c8:	bc 81       	ldd	r27, Y+4	; 0x04
    29ca:	1e 96       	adiw	r26, 0x0e	; 14
    29cc:	2c 91       	ld	r18, X
    29ce:	1e 97       	sbiw	r26, 0x0e	; 14
    29d0:	e9 81       	ldd	r30, Y+1	; 0x01
    29d2:	fa 81       	ldd	r31, Y+2	; 0x02
    29d4:	80 8d       	ldd	r24, Z+24	; 0x18
    29d6:	82 17       	cp	r24, r18
    29d8:	09 f4       	brne	.+2      	; 0x29dc <_ZN4core5go_stEv+0x1d6>
    29da:	58 c0       	rjmp	.+176    	; 0x2a8c <_ZN4core5go_stEv+0x286>
    29dc:	53 96       	adiw	r26, 0x13	; 19
    29de:	8d 91       	ld	r24, X+
    29e0:	9c 91       	ld	r25, X
    29e2:	54 97       	sbiw	r26, 0x14	; 20
    29e4:	01 96       	adiw	r24, 0x01	; 1
    29e6:	53 96       	adiw	r26, 0x13	; 19
    29e8:	8d 93       	st	X+, r24
    29ea:	9c 93       	st	X, r25
    29ec:	54 97       	sbiw	r26, 0x14	; 20
    29ee:	80 81       	ld	r24, Z
    29f0:	91 81       	ldd	r25, Z+1	; 0x01
    29f2:	c8 16       	cp	r12, r24
    29f4:	d9 06       	cpc	r13, r25
    29f6:	71 f4       	brne	.+28     	; 0x2a14 <_ZN4core5go_stEv+0x20e>
    29f8:	82 81       	ldd	r24, Z+2	; 0x02
    29fa:	93 81       	ldd	r25, Z+3	; 0x03
    29fc:	a8 16       	cp	r10, r24
    29fe:	b9 06       	cpc	r11, r25
    2a00:	49 f4       	brne	.+18     	; 0x2a14 <_ZN4core5go_stEv+0x20e>
    2a02:	84 81       	ldd	r24, Z+4	; 0x04
    2a04:	95 81       	ldd	r25, Z+5	; 0x05
    2a06:	88 16       	cp	r8, r24
    2a08:	99 06       	cpc	r9, r25
    2a0a:	21 f4       	brne	.+8      	; 0x2a14 <_ZN4core5go_stEv+0x20e>
    2a0c:	1f 96       	adiw	r26, 0x0f	; 15
    2a0e:	ed 93       	st	X+, r30
    2a10:	fc 93       	st	X, r31
    2a12:	50 97       	sbiw	r26, 0x10	; 16
    2a14:	a9 81       	ldd	r26, Y+1	; 0x01
    2a16:	ba 81       	ldd	r27, Y+2	; 0x02
    2a18:	58 96       	adiw	r26, 0x18	; 24
    2a1a:	2c 93       	st	X, r18
    2a1c:	58 97       	sbiw	r26, 0x18	; 24
    2a1e:	16 96       	adiw	r26, 0x06	; 6
    2a20:	ed 90       	ld	r14, X+
    2a22:	fc 90       	ld	r15, X
    2a24:	17 97       	sbiw	r26, 0x07	; 7
    2a26:	1a 96       	adiw	r26, 0x0a	; 10
    2a28:	6d 91       	ld	r22, X+
    2a2a:	7c 91       	ld	r23, X
    2a2c:	1b 97       	sbiw	r26, 0x0b	; 11
    2a2e:	84 01       	movw	r16, r8
    2a30:	95 01       	movw	r18, r10
    2a32:	a6 01       	movw	r20, r12
    2a34:	8b 81       	ldd	r24, Y+3	; 0x03
    2a36:	9c 81       	ldd	r25, Y+4	; 0x04
    2a38:	0e 94 42 01 	call	0x284	; 0x284 <_ZN4core3dfsEP4nodeiiii>
    2a3c:	e9 81       	ldd	r30, Y+1	; 0x01
    2a3e:	fa 81       	ldd	r31, Y+2	; 0x02
    2a40:	e6 80       	ldd	r14, Z+6	; 0x06
    2a42:	f7 80       	ldd	r15, Z+7	; 0x07
    2a44:	64 85       	ldd	r22, Z+12	; 0x0c
    2a46:	75 85       	ldd	r23, Z+13	; 0x0d
    2a48:	95 01       	movw	r18, r10
    2a4a:	a6 01       	movw	r20, r12
    2a4c:	8b 81       	ldd	r24, Y+3	; 0x03
    2a4e:	9c 81       	ldd	r25, Y+4	; 0x04
    2a50:	0e 94 42 01 	call	0x284	; 0x284 <_ZN4core3dfsEP4nodeiiii>
    2a54:	a9 81       	ldd	r26, Y+1	; 0x01
    2a56:	ba 81       	ldd	r27, Y+2	; 0x02
    2a58:	16 96       	adiw	r26, 0x06	; 6
    2a5a:	ed 90       	ld	r14, X+
    2a5c:	fc 90       	ld	r15, X
    2a5e:	17 97       	sbiw	r26, 0x07	; 7
    2a60:	1e 96       	adiw	r26, 0x0e	; 14
    2a62:	6d 91       	ld	r22, X+
    2a64:	7c 91       	ld	r23, X
    2a66:	1f 97       	sbiw	r26, 0x0f	; 15
    2a68:	95 01       	movw	r18, r10
    2a6a:	a6 01       	movw	r20, r12
    2a6c:	8b 81       	ldd	r24, Y+3	; 0x03
    2a6e:	9c 81       	ldd	r25, Y+4	; 0x04
    2a70:	0e 94 42 01 	call	0x284	; 0x284 <_ZN4core3dfsEP4nodeiiii>
    2a74:	e9 81       	ldd	r30, Y+1	; 0x01
    2a76:	fa 81       	ldd	r31, Y+2	; 0x02
    2a78:	e6 80       	ldd	r14, Z+6	; 0x06
    2a7a:	f7 80       	ldd	r15, Z+7	; 0x07
    2a7c:	60 89       	ldd	r22, Z+16	; 0x10
    2a7e:	71 89       	ldd	r23, Z+17	; 0x11
    2a80:	95 01       	movw	r18, r10
    2a82:	a6 01       	movw	r20, r12
    2a84:	8b 81       	ldd	r24, Y+3	; 0x03
    2a86:	9c 81       	ldd	r25, Y+4	; 0x04
    2a88:	0e 94 42 01 	call	0x284	; 0x284 <_ZN4core3dfsEP4nodeiiii>
    2a8c:	d1 01       	movw	r26, r2
    2a8e:	16 96       	adiw	r26, 0x06	; 6
    2a90:	8d 91       	ld	r24, X+
    2a92:	9c 91       	ld	r25, X
    2a94:	17 97       	sbiw	r26, 0x07	; 7
    2a96:	1c 96       	adiw	r26, 0x0c	; 12
    2a98:	ed 91       	ld	r30, X+
    2a9a:	fc 91       	ld	r31, X
    2a9c:	1d 97       	sbiw	r26, 0x0d	; 13
    2a9e:	e9 83       	std	Y+1, r30	; 0x01
    2aa0:	fa 83       	std	Y+2, r31	; 0x02
    2aa2:	30 97       	sbiw	r30, 0x00	; 0
    2aa4:	09 f4       	brne	.+2      	; 0x2aa8 <_ZN4core5go_stEv+0x2a2>
    2aa6:	6b c0       	rjmp	.+214    	; 0x2b7e <_ZN4core5go_stEv+0x378>
    2aa8:	01 96       	adiw	r24, 0x01	; 1
    2aaa:	26 81       	ldd	r18, Z+6	; 0x06
    2aac:	37 81       	ldd	r19, Z+7	; 0x07
    2aae:	82 17       	cp	r24, r18
    2ab0:	93 07       	cpc	r25, r19
    2ab2:	14 f4       	brge	.+4      	; 0x2ab8 <_ZN4core5go_stEv+0x2b2>
    2ab4:	86 83       	std	Z+6, r24	; 0x06
    2ab6:	97 83       	std	Z+7, r25	; 0x07
    2ab8:	ab 81       	ldd	r26, Y+3	; 0x03
    2aba:	bc 81       	ldd	r27, Y+4	; 0x04
    2abc:	1e 96       	adiw	r26, 0x0e	; 14
    2abe:	2c 91       	ld	r18, X
    2ac0:	1e 97       	sbiw	r26, 0x0e	; 14
    2ac2:	e9 81       	ldd	r30, Y+1	; 0x01
    2ac4:	fa 81       	ldd	r31, Y+2	; 0x02
    2ac6:	80 8d       	ldd	r24, Z+24	; 0x18
    2ac8:	82 17       	cp	r24, r18
    2aca:	09 f4       	brne	.+2      	; 0x2ace <_ZN4core5go_stEv+0x2c8>
    2acc:	58 c0       	rjmp	.+176    	; 0x2b7e <_ZN4core5go_stEv+0x378>
    2ace:	53 96       	adiw	r26, 0x13	; 19
    2ad0:	8d 91       	ld	r24, X+
    2ad2:	9c 91       	ld	r25, X
    2ad4:	54 97       	sbiw	r26, 0x14	; 20
    2ad6:	01 96       	adiw	r24, 0x01	; 1
    2ad8:	53 96       	adiw	r26, 0x13	; 19
    2ada:	8d 93       	st	X+, r24
    2adc:	9c 93       	st	X, r25
    2ade:	54 97       	sbiw	r26, 0x14	; 20
    2ae0:	80 81       	ld	r24, Z
    2ae2:	91 81       	ldd	r25, Z+1	; 0x01
    2ae4:	c8 16       	cp	r12, r24
    2ae6:	d9 06       	cpc	r13, r25
    2ae8:	71 f4       	brne	.+28     	; 0x2b06 <_ZN4core5go_stEv+0x300>
    2aea:	82 81       	ldd	r24, Z+2	; 0x02
    2aec:	93 81       	ldd	r25, Z+3	; 0x03
    2aee:	a8 16       	cp	r10, r24
    2af0:	b9 06       	cpc	r11, r25
    2af2:	49 f4       	brne	.+18     	; 0x2b06 <_ZN4core5go_stEv+0x300>
    2af4:	84 81       	ldd	r24, Z+4	; 0x04
    2af6:	95 81       	ldd	r25, Z+5	; 0x05
    2af8:	88 16       	cp	r8, r24
    2afa:	99 06       	cpc	r9, r25
    2afc:	21 f4       	brne	.+8      	; 0x2b06 <_ZN4core5go_stEv+0x300>
    2afe:	1f 96       	adiw	r26, 0x0f	; 15
    2b00:	ed 93       	st	X+, r30
    2b02:	fc 93       	st	X, r31
    2b04:	50 97       	sbiw	r26, 0x10	; 16
    2b06:	a9 81       	ldd	r26, Y+1	; 0x01
    2b08:	ba 81       	ldd	r27, Y+2	; 0x02
    2b0a:	58 96       	adiw	r26, 0x18	; 24
    2b0c:	2c 93       	st	X, r18
    2b0e:	58 97       	sbiw	r26, 0x18	; 24
    2b10:	16 96       	adiw	r26, 0x06	; 6
    2b12:	ed 90       	ld	r14, X+
    2b14:	fc 90       	ld	r15, X
    2b16:	17 97       	sbiw	r26, 0x07	; 7
    2b18:	1a 96       	adiw	r26, 0x0a	; 10
    2b1a:	6d 91       	ld	r22, X+
    2b1c:	7c 91       	ld	r23, X
    2b1e:	1b 97       	sbiw	r26, 0x0b	; 11
    2b20:	84 01       	movw	r16, r8
    2b22:	95 01       	movw	r18, r10
    2b24:	a6 01       	movw	r20, r12
    2b26:	8b 81       	ldd	r24, Y+3	; 0x03
    2b28:	9c 81       	ldd	r25, Y+4	; 0x04
    2b2a:	0e 94 42 01 	call	0x284	; 0x284 <_ZN4core3dfsEP4nodeiiii>
    2b2e:	e9 81       	ldd	r30, Y+1	; 0x01
    2b30:	fa 81       	ldd	r31, Y+2	; 0x02
    2b32:	e6 80       	ldd	r14, Z+6	; 0x06
    2b34:	f7 80       	ldd	r15, Z+7	; 0x07
    2b36:	64 85       	ldd	r22, Z+12	; 0x0c
    2b38:	75 85       	ldd	r23, Z+13	; 0x0d
    2b3a:	95 01       	movw	r18, r10
    2b3c:	a6 01       	movw	r20, r12
    2b3e:	8b 81       	ldd	r24, Y+3	; 0x03
    2b40:	9c 81       	ldd	r25, Y+4	; 0x04
    2b42:	0e 94 42 01 	call	0x284	; 0x284 <_ZN4core3dfsEP4nodeiiii>
    2b46:	a9 81       	ldd	r26, Y+1	; 0x01
    2b48:	ba 81       	ldd	r27, Y+2	; 0x02
    2b4a:	16 96       	adiw	r26, 0x06	; 6
    2b4c:	ed 90       	ld	r14, X+
    2b4e:	fc 90       	ld	r15, X
    2b50:	17 97       	sbiw	r26, 0x07	; 7
    2b52:	1e 96       	adiw	r26, 0x0e	; 14
    2b54:	6d 91       	ld	r22, X+
    2b56:	7c 91       	ld	r23, X
    2b58:	1f 97       	sbiw	r26, 0x0f	; 15
    2b5a:	95 01       	movw	r18, r10
    2b5c:	a6 01       	movw	r20, r12
    2b5e:	8b 81       	ldd	r24, Y+3	; 0x03
    2b60:	9c 81       	ldd	r25, Y+4	; 0x04
    2b62:	0e 94 42 01 	call	0x284	; 0x284 <_ZN4core3dfsEP4nodeiiii>
    2b66:	e9 81       	ldd	r30, Y+1	; 0x01
    2b68:	fa 81       	ldd	r31, Y+2	; 0x02
    2b6a:	e6 80       	ldd	r14, Z+6	; 0x06
    2b6c:	f7 80       	ldd	r15, Z+7	; 0x07
    2b6e:	60 89       	ldd	r22, Z+16	; 0x10
    2b70:	71 89       	ldd	r23, Z+17	; 0x11
    2b72:	95 01       	movw	r18, r10
    2b74:	a6 01       	movw	r20, r12
    2b76:	8b 81       	ldd	r24, Y+3	; 0x03
    2b78:	9c 81       	ldd	r25, Y+4	; 0x04
    2b7a:	0e 94 42 01 	call	0x284	; 0x284 <_ZN4core3dfsEP4nodeiiii>
    2b7e:	d1 01       	movw	r26, r2
    2b80:	16 96       	adiw	r26, 0x06	; 6
    2b82:	8d 91       	ld	r24, X+
    2b84:	9c 91       	ld	r25, X
    2b86:	17 97       	sbiw	r26, 0x07	; 7
    2b88:	1e 96       	adiw	r26, 0x0e	; 14
    2b8a:	ed 91       	ld	r30, X+
    2b8c:	fc 91       	ld	r31, X
    2b8e:	1f 97       	sbiw	r26, 0x0f	; 15
    2b90:	e9 83       	std	Y+1, r30	; 0x01
    2b92:	fa 83       	std	Y+2, r31	; 0x02
    2b94:	30 97       	sbiw	r30, 0x00	; 0
    2b96:	09 f4       	brne	.+2      	; 0x2b9a <_ZN4core5go_stEv+0x394>
    2b98:	6b c0       	rjmp	.+214    	; 0x2c70 <_ZN4core5go_stEv+0x46a>
    2b9a:	01 96       	adiw	r24, 0x01	; 1
    2b9c:	26 81       	ldd	r18, Z+6	; 0x06
    2b9e:	37 81       	ldd	r19, Z+7	; 0x07
    2ba0:	82 17       	cp	r24, r18
    2ba2:	93 07       	cpc	r25, r19
    2ba4:	14 f4       	brge	.+4      	; 0x2baa <_ZN4core5go_stEv+0x3a4>
    2ba6:	86 83       	std	Z+6, r24	; 0x06
    2ba8:	97 83       	std	Z+7, r25	; 0x07
    2baa:	ab 81       	ldd	r26, Y+3	; 0x03
    2bac:	bc 81       	ldd	r27, Y+4	; 0x04
    2bae:	1e 96       	adiw	r26, 0x0e	; 14
    2bb0:	2c 91       	ld	r18, X
    2bb2:	1e 97       	sbiw	r26, 0x0e	; 14
    2bb4:	e9 81       	ldd	r30, Y+1	; 0x01
    2bb6:	fa 81       	ldd	r31, Y+2	; 0x02
    2bb8:	80 8d       	ldd	r24, Z+24	; 0x18
    2bba:	82 17       	cp	r24, r18
    2bbc:	09 f4       	brne	.+2      	; 0x2bc0 <_ZN4core5go_stEv+0x3ba>
    2bbe:	58 c0       	rjmp	.+176    	; 0x2c70 <_ZN4core5go_stEv+0x46a>
    2bc0:	53 96       	adiw	r26, 0x13	; 19
    2bc2:	8d 91       	ld	r24, X+
    2bc4:	9c 91       	ld	r25, X
    2bc6:	54 97       	sbiw	r26, 0x14	; 20
    2bc8:	01 96       	adiw	r24, 0x01	; 1
    2bca:	53 96       	adiw	r26, 0x13	; 19
    2bcc:	8d 93       	st	X+, r24
    2bce:	9c 93       	st	X, r25
    2bd0:	54 97       	sbiw	r26, 0x14	; 20
    2bd2:	80 81       	ld	r24, Z
    2bd4:	91 81       	ldd	r25, Z+1	; 0x01
    2bd6:	c8 16       	cp	r12, r24
    2bd8:	d9 06       	cpc	r13, r25
    2bda:	71 f4       	brne	.+28     	; 0x2bf8 <_ZN4core5go_stEv+0x3f2>
    2bdc:	82 81       	ldd	r24, Z+2	; 0x02
    2bde:	93 81       	ldd	r25, Z+3	; 0x03
    2be0:	a8 16       	cp	r10, r24
    2be2:	b9 06       	cpc	r11, r25
    2be4:	49 f4       	brne	.+18     	; 0x2bf8 <_ZN4core5go_stEv+0x3f2>
    2be6:	84 81       	ldd	r24, Z+4	; 0x04
    2be8:	95 81       	ldd	r25, Z+5	; 0x05
    2bea:	88 16       	cp	r8, r24
    2bec:	99 06       	cpc	r9, r25
    2bee:	21 f4       	brne	.+8      	; 0x2bf8 <_ZN4core5go_stEv+0x3f2>
    2bf0:	1f 96       	adiw	r26, 0x0f	; 15
    2bf2:	ed 93       	st	X+, r30
    2bf4:	fc 93       	st	X, r31
    2bf6:	50 97       	sbiw	r26, 0x10	; 16
    2bf8:	a9 81       	ldd	r26, Y+1	; 0x01
    2bfa:	ba 81       	ldd	r27, Y+2	; 0x02
    2bfc:	58 96       	adiw	r26, 0x18	; 24
    2bfe:	2c 93       	st	X, r18
    2c00:	58 97       	sbiw	r26, 0x18	; 24
    2c02:	16 96       	adiw	r26, 0x06	; 6
    2c04:	ed 90       	ld	r14, X+
    2c06:	fc 90       	ld	r15, X
    2c08:	17 97       	sbiw	r26, 0x07	; 7
    2c0a:	1a 96       	adiw	r26, 0x0a	; 10
    2c0c:	6d 91       	ld	r22, X+
    2c0e:	7c 91       	ld	r23, X
    2c10:	1b 97       	sbiw	r26, 0x0b	; 11
    2c12:	84 01       	movw	r16, r8
    2c14:	95 01       	movw	r18, r10
    2c16:	a6 01       	movw	r20, r12
    2c18:	8b 81       	ldd	r24, Y+3	; 0x03
    2c1a:	9c 81       	ldd	r25, Y+4	; 0x04
    2c1c:	0e 94 42 01 	call	0x284	; 0x284 <_ZN4core3dfsEP4nodeiiii>
    2c20:	e9 81       	ldd	r30, Y+1	; 0x01
    2c22:	fa 81       	ldd	r31, Y+2	; 0x02
    2c24:	e6 80       	ldd	r14, Z+6	; 0x06
    2c26:	f7 80       	ldd	r15, Z+7	; 0x07
    2c28:	64 85       	ldd	r22, Z+12	; 0x0c
    2c2a:	75 85       	ldd	r23, Z+13	; 0x0d
    2c2c:	95 01       	movw	r18, r10
    2c2e:	a6 01       	movw	r20, r12
    2c30:	8b 81       	ldd	r24, Y+3	; 0x03
    2c32:	9c 81       	ldd	r25, Y+4	; 0x04
    2c34:	0e 94 42 01 	call	0x284	; 0x284 <_ZN4core3dfsEP4nodeiiii>
    2c38:	a9 81       	ldd	r26, Y+1	; 0x01
    2c3a:	ba 81       	ldd	r27, Y+2	; 0x02
    2c3c:	16 96       	adiw	r26, 0x06	; 6
    2c3e:	ed 90       	ld	r14, X+
    2c40:	fc 90       	ld	r15, X
    2c42:	17 97       	sbiw	r26, 0x07	; 7
    2c44:	1e 96       	adiw	r26, 0x0e	; 14
    2c46:	6d 91       	ld	r22, X+
    2c48:	7c 91       	ld	r23, X
    2c4a:	1f 97       	sbiw	r26, 0x0f	; 15
    2c4c:	95 01       	movw	r18, r10
    2c4e:	a6 01       	movw	r20, r12
    2c50:	8b 81       	ldd	r24, Y+3	; 0x03
    2c52:	9c 81       	ldd	r25, Y+4	; 0x04
    2c54:	0e 94 42 01 	call	0x284	; 0x284 <_ZN4core3dfsEP4nodeiiii>
    2c58:	e9 81       	ldd	r30, Y+1	; 0x01
    2c5a:	fa 81       	ldd	r31, Y+2	; 0x02
    2c5c:	e6 80       	ldd	r14, Z+6	; 0x06
    2c5e:	f7 80       	ldd	r15, Z+7	; 0x07
    2c60:	60 89       	ldd	r22, Z+16	; 0x10
    2c62:	71 89       	ldd	r23, Z+17	; 0x11
    2c64:	95 01       	movw	r18, r10
    2c66:	a6 01       	movw	r20, r12
    2c68:	8b 81       	ldd	r24, Y+3	; 0x03
    2c6a:	9c 81       	ldd	r25, Y+4	; 0x04
    2c6c:	0e 94 42 01 	call	0x284	; 0x284 <_ZN4core3dfsEP4nodeiiii>
    2c70:	d1 01       	movw	r26, r2
    2c72:	16 96       	adiw	r26, 0x06	; 6
    2c74:	8d 91       	ld	r24, X+
    2c76:	9c 91       	ld	r25, X
    2c78:	17 97       	sbiw	r26, 0x07	; 7
    2c7a:	50 96       	adiw	r26, 0x10	; 16
    2c7c:	2d 90       	ld	r2, X+
    2c7e:	3c 90       	ld	r3, X
    2c80:	51 97       	sbiw	r26, 0x11	; 17
    2c82:	21 14       	cp	r2, r1
    2c84:	31 04       	cpc	r3, r1
    2c86:	09 f4       	brne	.+2      	; 0x2c8a <_ZN4core5go_stEv+0x484>
    2c88:	67 c0       	rjmp	.+206    	; 0x2d58 <_ZN4core5go_stEv+0x552>
    2c8a:	01 96       	adiw	r24, 0x01	; 1
    2c8c:	f1 01       	movw	r30, r2
    2c8e:	26 81       	ldd	r18, Z+6	; 0x06
    2c90:	37 81       	ldd	r19, Z+7	; 0x07
    2c92:	82 17       	cp	r24, r18
    2c94:	93 07       	cpc	r25, r19
    2c96:	14 f4       	brge	.+4      	; 0x2c9c <_ZN4core5go_stEv+0x496>
    2c98:	86 83       	std	Z+6, r24	; 0x06
    2c9a:	97 83       	std	Z+7, r25	; 0x07
    2c9c:	ab 81       	ldd	r26, Y+3	; 0x03
    2c9e:	bc 81       	ldd	r27, Y+4	; 0x04
    2ca0:	1e 96       	adiw	r26, 0x0e	; 14
    2ca2:	2c 91       	ld	r18, X
    2ca4:	1e 97       	sbiw	r26, 0x0e	; 14
    2ca6:	f1 01       	movw	r30, r2
    2ca8:	80 8d       	ldd	r24, Z+24	; 0x18
    2caa:	82 17       	cp	r24, r18
    2cac:	09 f4       	brne	.+2      	; 0x2cb0 <_ZN4core5go_stEv+0x4aa>
    2cae:	54 c0       	rjmp	.+168    	; 0x2d58 <_ZN4core5go_stEv+0x552>
    2cb0:	53 96       	adiw	r26, 0x13	; 19
    2cb2:	8d 91       	ld	r24, X+
    2cb4:	9c 91       	ld	r25, X
    2cb6:	54 97       	sbiw	r26, 0x14	; 20
    2cb8:	01 96       	adiw	r24, 0x01	; 1
    2cba:	53 96       	adiw	r26, 0x13	; 19
    2cbc:	8d 93       	st	X+, r24
    2cbe:	9c 93       	st	X, r25
    2cc0:	54 97       	sbiw	r26, 0x14	; 20
    2cc2:	80 81       	ld	r24, Z
    2cc4:	91 81       	ldd	r25, Z+1	; 0x01
    2cc6:	c8 16       	cp	r12, r24
    2cc8:	d9 06       	cpc	r13, r25
    2cca:	71 f4       	brne	.+28     	; 0x2ce8 <_ZN4core5go_stEv+0x4e2>
    2ccc:	82 81       	ldd	r24, Z+2	; 0x02
    2cce:	93 81       	ldd	r25, Z+3	; 0x03
    2cd0:	a8 16       	cp	r10, r24
    2cd2:	b9 06       	cpc	r11, r25
    2cd4:	49 f4       	brne	.+18     	; 0x2ce8 <_ZN4core5go_stEv+0x4e2>
    2cd6:	84 81       	ldd	r24, Z+4	; 0x04
    2cd8:	95 81       	ldd	r25, Z+5	; 0x05
    2cda:	88 16       	cp	r8, r24
    2cdc:	99 06       	cpc	r9, r25
    2cde:	21 f4       	brne	.+8      	; 0x2ce8 <_ZN4core5go_stEv+0x4e2>
    2ce0:	1f 96       	adiw	r26, 0x0f	; 15
    2ce2:	2d 92       	st	X+, r2
    2ce4:	3c 92       	st	X, r3
    2ce6:	50 97       	sbiw	r26, 0x10	; 16
    2ce8:	d1 01       	movw	r26, r2
    2cea:	58 96       	adiw	r26, 0x18	; 24
    2cec:	2c 93       	st	X, r18
    2cee:	58 97       	sbiw	r26, 0x18	; 24
    2cf0:	16 96       	adiw	r26, 0x06	; 6
    2cf2:	ed 90       	ld	r14, X+
    2cf4:	fc 90       	ld	r15, X
    2cf6:	17 97       	sbiw	r26, 0x07	; 7
    2cf8:	1a 96       	adiw	r26, 0x0a	; 10
    2cfa:	6d 91       	ld	r22, X+
    2cfc:	7c 91       	ld	r23, X
    2cfe:	1b 97       	sbiw	r26, 0x0b	; 11
    2d00:	84 01       	movw	r16, r8
    2d02:	95 01       	movw	r18, r10
    2d04:	a6 01       	movw	r20, r12
    2d06:	8b 81       	ldd	r24, Y+3	; 0x03
    2d08:	9c 81       	ldd	r25, Y+4	; 0x04
    2d0a:	0e 94 42 01 	call	0x284	; 0x284 <_ZN4core3dfsEP4nodeiiii>
    2d0e:	f1 01       	movw	r30, r2
    2d10:	e6 80       	ldd	r14, Z+6	; 0x06
    2d12:	f7 80       	ldd	r15, Z+7	; 0x07
    2d14:	64 85       	ldd	r22, Z+12	; 0x0c
    2d16:	75 85       	ldd	r23, Z+13	; 0x0d
    2d18:	95 01       	movw	r18, r10
    2d1a:	a6 01       	movw	r20, r12
    2d1c:	8b 81       	ldd	r24, Y+3	; 0x03
    2d1e:	9c 81       	ldd	r25, Y+4	; 0x04
    2d20:	0e 94 42 01 	call	0x284	; 0x284 <_ZN4core3dfsEP4nodeiiii>
    2d24:	d1 01       	movw	r26, r2
    2d26:	16 96       	adiw	r26, 0x06	; 6
    2d28:	ed 90       	ld	r14, X+
    2d2a:	fc 90       	ld	r15, X
    2d2c:	17 97       	sbiw	r26, 0x07	; 7
    2d2e:	1e 96       	adiw	r26, 0x0e	; 14
    2d30:	6d 91       	ld	r22, X+
    2d32:	7c 91       	ld	r23, X
    2d34:	1f 97       	sbiw	r26, 0x0f	; 15
    2d36:	95 01       	movw	r18, r10
    2d38:	a6 01       	movw	r20, r12
    2d3a:	8b 81       	ldd	r24, Y+3	; 0x03
    2d3c:	9c 81       	ldd	r25, Y+4	; 0x04
    2d3e:	0e 94 42 01 	call	0x284	; 0x284 <_ZN4core3dfsEP4nodeiiii>
    2d42:	f1 01       	movw	r30, r2
    2d44:	e6 80       	ldd	r14, Z+6	; 0x06
    2d46:	f7 80       	ldd	r15, Z+7	; 0x07
    2d48:	60 89       	ldd	r22, Z+16	; 0x10
    2d4a:	71 89       	ldd	r23, Z+17	; 0x11
    2d4c:	95 01       	movw	r18, r10
    2d4e:	a6 01       	movw	r20, r12
    2d50:	8b 81       	ldd	r24, Y+3	; 0x03
    2d52:	9c 81       	ldd	r25, Y+4	; 0x04
    2d54:	0e 94 42 01 	call	0x284	; 0x284 <_ZN4core3dfsEP4nodeiiii>
    2d58:	d3 01       	movw	r26, r6
    2d5a:	16 96       	adiw	r26, 0x06	; 6
    2d5c:	8d 91       	ld	r24, X+
    2d5e:	9c 91       	ld	r25, X
    2d60:	17 97       	sbiw	r26, 0x07	; 7
    2d62:	1c 96       	adiw	r26, 0x0c	; 12
    2d64:	2d 90       	ld	r2, X+
    2d66:	3c 90       	ld	r3, X
    2d68:	1d 97       	sbiw	r26, 0x0d	; 13
    2d6a:	21 14       	cp	r2, r1
    2d6c:	31 04       	cpc	r3, r1
    2d6e:	09 f4       	brne	.+2      	; 0x2d72 <_ZN4core5go_stEv+0x56c>
    2d70:	11 c2       	rjmp	.+1058   	; 0x3194 <_ZN4core5go_stEv+0x98e>
    2d72:	01 96       	adiw	r24, 0x01	; 1
    2d74:	f1 01       	movw	r30, r2
    2d76:	26 81       	ldd	r18, Z+6	; 0x06
    2d78:	37 81       	ldd	r19, Z+7	; 0x07
    2d7a:	82 17       	cp	r24, r18
    2d7c:	93 07       	cpc	r25, r19
    2d7e:	14 f4       	brge	.+4      	; 0x2d84 <_ZN4core5go_stEv+0x57e>
    2d80:	86 83       	std	Z+6, r24	; 0x06
    2d82:	97 83       	std	Z+7, r25	; 0x07
    2d84:	ab 81       	ldd	r26, Y+3	; 0x03
    2d86:	bc 81       	ldd	r27, Y+4	; 0x04
    2d88:	1e 96       	adiw	r26, 0x0e	; 14
    2d8a:	2c 91       	ld	r18, X
    2d8c:	1e 97       	sbiw	r26, 0x0e	; 14
    2d8e:	f1 01       	movw	r30, r2
    2d90:	80 8d       	ldd	r24, Z+24	; 0x18
    2d92:	82 17       	cp	r24, r18
    2d94:	09 f4       	brne	.+2      	; 0x2d98 <_ZN4core5go_stEv+0x592>
    2d96:	fe c1       	rjmp	.+1020   	; 0x3194 <_ZN4core5go_stEv+0x98e>
    2d98:	53 96       	adiw	r26, 0x13	; 19
    2d9a:	8d 91       	ld	r24, X+
    2d9c:	9c 91       	ld	r25, X
    2d9e:	54 97       	sbiw	r26, 0x14	; 20
    2da0:	01 96       	adiw	r24, 0x01	; 1
    2da2:	53 96       	adiw	r26, 0x13	; 19
    2da4:	8d 93       	st	X+, r24
    2da6:	9c 93       	st	X, r25
    2da8:	54 97       	sbiw	r26, 0x14	; 20
    2daa:	80 81       	ld	r24, Z
    2dac:	91 81       	ldd	r25, Z+1	; 0x01
    2dae:	c8 16       	cp	r12, r24
    2db0:	d9 06       	cpc	r13, r25
    2db2:	71 f4       	brne	.+28     	; 0x2dd0 <_ZN4core5go_stEv+0x5ca>
    2db4:	82 81       	ldd	r24, Z+2	; 0x02
    2db6:	93 81       	ldd	r25, Z+3	; 0x03
    2db8:	a8 16       	cp	r10, r24
    2dba:	b9 06       	cpc	r11, r25
    2dbc:	49 f4       	brne	.+18     	; 0x2dd0 <_ZN4core5go_stEv+0x5ca>
    2dbe:	84 81       	ldd	r24, Z+4	; 0x04
    2dc0:	95 81       	ldd	r25, Z+5	; 0x05
    2dc2:	88 16       	cp	r8, r24
    2dc4:	99 06       	cpc	r9, r25
    2dc6:	21 f4       	brne	.+8      	; 0x2dd0 <_ZN4core5go_stEv+0x5ca>
    2dc8:	1f 96       	adiw	r26, 0x0f	; 15
    2dca:	2d 92       	st	X+, r2
    2dcc:	3c 92       	st	X, r3
    2dce:	50 97       	sbiw	r26, 0x10	; 16
    2dd0:	d1 01       	movw	r26, r2
    2dd2:	58 96       	adiw	r26, 0x18	; 24
    2dd4:	2c 93       	st	X, r18
    2dd6:	58 97       	sbiw	r26, 0x18	; 24
    2dd8:	16 96       	adiw	r26, 0x06	; 6
    2dda:	8d 91       	ld	r24, X+
    2ddc:	9c 91       	ld	r25, X
    2dde:	17 97       	sbiw	r26, 0x07	; 7
    2de0:	1a 96       	adiw	r26, 0x0a	; 10
    2de2:	ed 91       	ld	r30, X+
    2de4:	fc 91       	ld	r31, X
    2de6:	1b 97       	sbiw	r26, 0x0b	; 11
    2de8:	e9 83       	std	Y+1, r30	; 0x01
    2dea:	fa 83       	std	Y+2, r31	; 0x02
    2dec:	30 97       	sbiw	r30, 0x00	; 0
    2dee:	09 f4       	brne	.+2      	; 0x2df2 <_ZN4core5go_stEv+0x5ec>
    2df0:	6b c0       	rjmp	.+214    	; 0x2ec8 <_ZN4core5go_stEv+0x6c2>
    2df2:	01 96       	adiw	r24, 0x01	; 1
    2df4:	26 81       	ldd	r18, Z+6	; 0x06
    2df6:	37 81       	ldd	r19, Z+7	; 0x07
    2df8:	82 17       	cp	r24, r18
    2dfa:	93 07       	cpc	r25, r19
    2dfc:	14 f4       	brge	.+4      	; 0x2e02 <_ZN4core5go_stEv+0x5fc>
    2dfe:	86 83       	std	Z+6, r24	; 0x06
    2e00:	97 83       	std	Z+7, r25	; 0x07
    2e02:	ab 81       	ldd	r26, Y+3	; 0x03
    2e04:	bc 81       	ldd	r27, Y+4	; 0x04
    2e06:	1e 96       	adiw	r26, 0x0e	; 14
    2e08:	2c 91       	ld	r18, X
    2e0a:	1e 97       	sbiw	r26, 0x0e	; 14
    2e0c:	e9 81       	ldd	r30, Y+1	; 0x01
    2e0e:	fa 81       	ldd	r31, Y+2	; 0x02
    2e10:	80 8d       	ldd	r24, Z+24	; 0x18
    2e12:	82 17       	cp	r24, r18
    2e14:	09 f4       	brne	.+2      	; 0x2e18 <_ZN4core5go_stEv+0x612>
    2e16:	58 c0       	rjmp	.+176    	; 0x2ec8 <_ZN4core5go_stEv+0x6c2>
    2e18:	53 96       	adiw	r26, 0x13	; 19
    2e1a:	8d 91       	ld	r24, X+
    2e1c:	9c 91       	ld	r25, X
    2e1e:	54 97       	sbiw	r26, 0x14	; 20
    2e20:	01 96       	adiw	r24, 0x01	; 1
    2e22:	53 96       	adiw	r26, 0x13	; 19
    2e24:	8d 93       	st	X+, r24
    2e26:	9c 93       	st	X, r25
    2e28:	54 97       	sbiw	r26, 0x14	; 20
    2e2a:	80 81       	ld	r24, Z
    2e2c:	91 81       	ldd	r25, Z+1	; 0x01
    2e2e:	c8 16       	cp	r12, r24
    2e30:	d9 06       	cpc	r13, r25
    2e32:	71 f4       	brne	.+28     	; 0x2e50 <_ZN4core5go_stEv+0x64a>
    2e34:	82 81       	ldd	r24, Z+2	; 0x02
    2e36:	93 81       	ldd	r25, Z+3	; 0x03
    2e38:	a8 16       	cp	r10, r24
    2e3a:	b9 06       	cpc	r11, r25
    2e3c:	49 f4       	brne	.+18     	; 0x2e50 <_ZN4core5go_stEv+0x64a>
    2e3e:	84 81       	ldd	r24, Z+4	; 0x04
    2e40:	95 81       	ldd	r25, Z+5	; 0x05
    2e42:	88 16       	cp	r8, r24
    2e44:	99 06       	cpc	r9, r25
    2e46:	21 f4       	brne	.+8      	; 0x2e50 <_ZN4core5go_stEv+0x64a>
    2e48:	1f 96       	adiw	r26, 0x0f	; 15
    2e4a:	ed 93       	st	X+, r30
    2e4c:	fc 93       	st	X, r31
    2e4e:	50 97       	sbiw	r26, 0x10	; 16
    2e50:	a9 81       	ldd	r26, Y+1	; 0x01
    2e52:	ba 81       	ldd	r27, Y+2	; 0x02
    2e54:	58 96       	adiw	r26, 0x18	; 24
    2e56:	2c 93       	st	X, r18
    2e58:	58 97       	sbiw	r26, 0x18	; 24
    2e5a:	16 96       	adiw	r26, 0x06	; 6
    2e5c:	ed 90       	ld	r14, X+
    2e5e:	fc 90       	ld	r15, X
    2e60:	17 97       	sbiw	r26, 0x07	; 7
    2e62:	1a 96       	adiw	r26, 0x0a	; 10
    2e64:	6d 91       	ld	r22, X+
    2e66:	7c 91       	ld	r23, X
    2e68:	1b 97       	sbiw	r26, 0x0b	; 11
    2e6a:	84 01       	movw	r16, r8
    2e6c:	95 01       	movw	r18, r10
    2e6e:	a6 01       	movw	r20, r12
    2e70:	8b 81       	ldd	r24, Y+3	; 0x03
    2e72:	9c 81       	ldd	r25, Y+4	; 0x04
    2e74:	0e 94 42 01 	call	0x284	; 0x284 <_ZN4core3dfsEP4nodeiiii>
    2e78:	e9 81       	ldd	r30, Y+1	; 0x01
    2e7a:	fa 81       	ldd	r31, Y+2	; 0x02
    2e7c:	e6 80       	ldd	r14, Z+6	; 0x06
    2e7e:	f7 80       	ldd	r15, Z+7	; 0x07
    2e80:	64 85       	ldd	r22, Z+12	; 0x0c
    2e82:	75 85       	ldd	r23, Z+13	; 0x0d
    2e84:	95 01       	movw	r18, r10
    2e86:	a6 01       	movw	r20, r12
    2e88:	8b 81       	ldd	r24, Y+3	; 0x03
    2e8a:	9c 81       	ldd	r25, Y+4	; 0x04
    2e8c:	0e 94 42 01 	call	0x284	; 0x284 <_ZN4core3dfsEP4nodeiiii>
    2e90:	a9 81       	ldd	r26, Y+1	; 0x01
    2e92:	ba 81       	ldd	r27, Y+2	; 0x02
    2e94:	16 96       	adiw	r26, 0x06	; 6
    2e96:	ed 90       	ld	r14, X+
    2e98:	fc 90       	ld	r15, X
    2e9a:	17 97       	sbiw	r26, 0x07	; 7
    2e9c:	1e 96       	adiw	r26, 0x0e	; 14
    2e9e:	6d 91       	ld	r22, X+
    2ea0:	7c 91       	ld	r23, X
    2ea2:	1f 97       	sbiw	r26, 0x0f	; 15
    2ea4:	95 01       	movw	r18, r10
    2ea6:	a6 01       	movw	r20, r12
    2ea8:	8b 81       	ldd	r24, Y+3	; 0x03
    2eaa:	9c 81       	ldd	r25, Y+4	; 0x04
    2eac:	0e 94 42 01 	call	0x284	; 0x284 <_ZN4core3dfsEP4nodeiiii>
    2eb0:	e9 81       	ldd	r30, Y+1	; 0x01
    2eb2:	fa 81       	ldd	r31, Y+2	; 0x02
    2eb4:	e6 80       	ldd	r14, Z+6	; 0x06
    2eb6:	f7 80       	ldd	r15, Z+7	; 0x07
    2eb8:	60 89       	ldd	r22, Z+16	; 0x10
    2eba:	71 89       	ldd	r23, Z+17	; 0x11
    2ebc:	95 01       	movw	r18, r10
    2ebe:	a6 01       	movw	r20, r12
    2ec0:	8b 81       	ldd	r24, Y+3	; 0x03
    2ec2:	9c 81       	ldd	r25, Y+4	; 0x04
    2ec4:	0e 94 42 01 	call	0x284	; 0x284 <_ZN4core3dfsEP4nodeiiii>
    2ec8:	d1 01       	movw	r26, r2
    2eca:	16 96       	adiw	r26, 0x06	; 6
    2ecc:	8d 91       	ld	r24, X+
    2ece:	9c 91       	ld	r25, X
    2ed0:	17 97       	sbiw	r26, 0x07	; 7
    2ed2:	1c 96       	adiw	r26, 0x0c	; 12
    2ed4:	ed 91       	ld	r30, X+
    2ed6:	fc 91       	ld	r31, X
    2ed8:	1d 97       	sbiw	r26, 0x0d	; 13
    2eda:	e9 83       	std	Y+1, r30	; 0x01
    2edc:	fa 83       	std	Y+2, r31	; 0x02
    2ede:	30 97       	sbiw	r30, 0x00	; 0
    2ee0:	09 f4       	brne	.+2      	; 0x2ee4 <_ZN4core5go_stEv+0x6de>
    2ee2:	6b c0       	rjmp	.+214    	; 0x2fba <_ZN4core5go_stEv+0x7b4>
    2ee4:	01 96       	adiw	r24, 0x01	; 1
    2ee6:	26 81       	ldd	r18, Z+6	; 0x06
    2ee8:	37 81       	ldd	r19, Z+7	; 0x07
    2eea:	82 17       	cp	r24, r18
    2eec:	93 07       	cpc	r25, r19
    2eee:	14 f4       	brge	.+4      	; 0x2ef4 <_ZN4core5go_stEv+0x6ee>
    2ef0:	86 83       	std	Z+6, r24	; 0x06
    2ef2:	97 83       	std	Z+7, r25	; 0x07
    2ef4:	ab 81       	ldd	r26, Y+3	; 0x03
    2ef6:	bc 81       	ldd	r27, Y+4	; 0x04
    2ef8:	1e 96       	adiw	r26, 0x0e	; 14
    2efa:	2c 91       	ld	r18, X
    2efc:	1e 97       	sbiw	r26, 0x0e	; 14
    2efe:	e9 81       	ldd	r30, Y+1	; 0x01
    2f00:	fa 81       	ldd	r31, Y+2	; 0x02
    2f02:	80 8d       	ldd	r24, Z+24	; 0x18
    2f04:	82 17       	cp	r24, r18
    2f06:	09 f4       	brne	.+2      	; 0x2f0a <_ZN4core5go_stEv+0x704>
    2f08:	58 c0       	rjmp	.+176    	; 0x2fba <_ZN4core5go_stEv+0x7b4>
    2f0a:	53 96       	adiw	r26, 0x13	; 19
    2f0c:	8d 91       	ld	r24, X+
    2f0e:	9c 91       	ld	r25, X
    2f10:	54 97       	sbiw	r26, 0x14	; 20
    2f12:	01 96       	adiw	r24, 0x01	; 1
    2f14:	53 96       	adiw	r26, 0x13	; 19
    2f16:	8d 93       	st	X+, r24
    2f18:	9c 93       	st	X, r25
    2f1a:	54 97       	sbiw	r26, 0x14	; 20
    2f1c:	80 81       	ld	r24, Z
    2f1e:	91 81       	ldd	r25, Z+1	; 0x01
    2f20:	c8 16       	cp	r12, r24
    2f22:	d9 06       	cpc	r13, r25
    2f24:	71 f4       	brne	.+28     	; 0x2f42 <_ZN4core5go_stEv+0x73c>
    2f26:	82 81       	ldd	r24, Z+2	; 0x02
    2f28:	93 81       	ldd	r25, Z+3	; 0x03
    2f2a:	a8 16       	cp	r10, r24
    2f2c:	b9 06       	cpc	r11, r25
    2f2e:	49 f4       	brne	.+18     	; 0x2f42 <_ZN4core5go_stEv+0x73c>
    2f30:	84 81       	ldd	r24, Z+4	; 0x04
    2f32:	95 81       	ldd	r25, Z+5	; 0x05
    2f34:	88 16       	cp	r8, r24
    2f36:	99 06       	cpc	r9, r25
    2f38:	21 f4       	brne	.+8      	; 0x2f42 <_ZN4core5go_stEv+0x73c>
    2f3a:	1f 96       	adiw	r26, 0x0f	; 15
    2f3c:	ed 93       	st	X+, r30
    2f3e:	fc 93       	st	X, r31
    2f40:	50 97       	sbiw	r26, 0x10	; 16
    2f42:	a9 81       	ldd	r26, Y+1	; 0x01
    2f44:	ba 81       	ldd	r27, Y+2	; 0x02
    2f46:	58 96       	adiw	r26, 0x18	; 24
    2f48:	2c 93       	st	X, r18
    2f4a:	58 97       	sbiw	r26, 0x18	; 24
    2f4c:	16 96       	adiw	r26, 0x06	; 6
    2f4e:	ed 90       	ld	r14, X+
    2f50:	fc 90       	ld	r15, X
    2f52:	17 97       	sbiw	r26, 0x07	; 7
    2f54:	1a 96       	adiw	r26, 0x0a	; 10
    2f56:	6d 91       	ld	r22, X+
    2f58:	7c 91       	ld	r23, X
    2f5a:	1b 97       	sbiw	r26, 0x0b	; 11
    2f5c:	84 01       	movw	r16, r8
    2f5e:	95 01       	movw	r18, r10
    2f60:	a6 01       	movw	r20, r12
    2f62:	8b 81       	ldd	r24, Y+3	; 0x03
    2f64:	9c 81       	ldd	r25, Y+4	; 0x04
    2f66:	0e 94 42 01 	call	0x284	; 0x284 <_ZN4core3dfsEP4nodeiiii>
    2f6a:	e9 81       	ldd	r30, Y+1	; 0x01
    2f6c:	fa 81       	ldd	r31, Y+2	; 0x02
    2f6e:	e6 80       	ldd	r14, Z+6	; 0x06
    2f70:	f7 80       	ldd	r15, Z+7	; 0x07
    2f72:	64 85       	ldd	r22, Z+12	; 0x0c
    2f74:	75 85       	ldd	r23, Z+13	; 0x0d
    2f76:	95 01       	movw	r18, r10
    2f78:	a6 01       	movw	r20, r12
    2f7a:	8b 81       	ldd	r24, Y+3	; 0x03
    2f7c:	9c 81       	ldd	r25, Y+4	; 0x04
    2f7e:	0e 94 42 01 	call	0x284	; 0x284 <_ZN4core3dfsEP4nodeiiii>
    2f82:	a9 81       	ldd	r26, Y+1	; 0x01
    2f84:	ba 81       	ldd	r27, Y+2	; 0x02
    2f86:	16 96       	adiw	r26, 0x06	; 6
    2f88:	ed 90       	ld	r14, X+
    2f8a:	fc 90       	ld	r15, X
    2f8c:	17 97       	sbiw	r26, 0x07	; 7
    2f8e:	1e 96       	adiw	r26, 0x0e	; 14
    2f90:	6d 91       	ld	r22, X+
    2f92:	7c 91       	ld	r23, X
    2f94:	1f 97       	sbiw	r26, 0x0f	; 15
    2f96:	95 01       	movw	r18, r10
    2f98:	a6 01       	movw	r20, r12
    2f9a:	8b 81       	ldd	r24, Y+3	; 0x03
    2f9c:	9c 81       	ldd	r25, Y+4	; 0x04
    2f9e:	0e 94 42 01 	call	0x284	; 0x284 <_ZN4core3dfsEP4nodeiiii>
    2fa2:	e9 81       	ldd	r30, Y+1	; 0x01
    2fa4:	fa 81       	ldd	r31, Y+2	; 0x02
    2fa6:	e6 80       	ldd	r14, Z+6	; 0x06
    2fa8:	f7 80       	ldd	r15, Z+7	; 0x07
    2faa:	60 89       	ldd	r22, Z+16	; 0x10
    2fac:	71 89       	ldd	r23, Z+17	; 0x11
    2fae:	95 01       	movw	r18, r10
    2fb0:	a6 01       	movw	r20, r12
    2fb2:	8b 81       	ldd	r24, Y+3	; 0x03
    2fb4:	9c 81       	ldd	r25, Y+4	; 0x04
    2fb6:	0e 94 42 01 	call	0x284	; 0x284 <_ZN4core3dfsEP4nodeiiii>
    2fba:	d1 01       	movw	r26, r2
    2fbc:	16 96       	adiw	r26, 0x06	; 6
    2fbe:	8d 91       	ld	r24, X+
    2fc0:	9c 91       	ld	r25, X
    2fc2:	17 97       	sbiw	r26, 0x07	; 7
    2fc4:	1e 96       	adiw	r26, 0x0e	; 14
    2fc6:	ed 91       	ld	r30, X+
    2fc8:	fc 91       	ld	r31, X
    2fca:	1f 97       	sbiw	r26, 0x0f	; 15
    2fcc:	e9 83       	std	Y+1, r30	; 0x01
    2fce:	fa 83       	std	Y+2, r31	; 0x02
    2fd0:	30 97       	sbiw	r30, 0x00	; 0
    2fd2:	09 f4       	brne	.+2      	; 0x2fd6 <_ZN4core5go_stEv+0x7d0>
    2fd4:	6b c0       	rjmp	.+214    	; 0x30ac <_ZN4core5go_stEv+0x8a6>
    2fd6:	01 96       	adiw	r24, 0x01	; 1
    2fd8:	26 81       	ldd	r18, Z+6	; 0x06
    2fda:	37 81       	ldd	r19, Z+7	; 0x07
    2fdc:	82 17       	cp	r24, r18
    2fde:	93 07       	cpc	r25, r19
    2fe0:	14 f4       	brge	.+4      	; 0x2fe6 <_ZN4core5go_stEv+0x7e0>
    2fe2:	86 83       	std	Z+6, r24	; 0x06
    2fe4:	97 83       	std	Z+7, r25	; 0x07
    2fe6:	ab 81       	ldd	r26, Y+3	; 0x03
    2fe8:	bc 81       	ldd	r27, Y+4	; 0x04
    2fea:	1e 96       	adiw	r26, 0x0e	; 14
    2fec:	2c 91       	ld	r18, X
    2fee:	1e 97       	sbiw	r26, 0x0e	; 14
    2ff0:	e9 81       	ldd	r30, Y+1	; 0x01
    2ff2:	fa 81       	ldd	r31, Y+2	; 0x02
    2ff4:	80 8d       	ldd	r24, Z+24	; 0x18
    2ff6:	82 17       	cp	r24, r18
    2ff8:	09 f4       	brne	.+2      	; 0x2ffc <_ZN4core5go_stEv+0x7f6>
    2ffa:	58 c0       	rjmp	.+176    	; 0x30ac <_ZN4core5go_stEv+0x8a6>
    2ffc:	53 96       	adiw	r26, 0x13	; 19
    2ffe:	8d 91       	ld	r24, X+
    3000:	9c 91       	ld	r25, X
    3002:	54 97       	sbiw	r26, 0x14	; 20
    3004:	01 96       	adiw	r24, 0x01	; 1
    3006:	53 96       	adiw	r26, 0x13	; 19
    3008:	8d 93       	st	X+, r24
    300a:	9c 93       	st	X, r25
    300c:	54 97       	sbiw	r26, 0x14	; 20
    300e:	80 81       	ld	r24, Z
    3010:	91 81       	ldd	r25, Z+1	; 0x01
    3012:	c8 16       	cp	r12, r24
    3014:	d9 06       	cpc	r13, r25
    3016:	71 f4       	brne	.+28     	; 0x3034 <_ZN4core5go_stEv+0x82e>
    3018:	82 81       	ldd	r24, Z+2	; 0x02
    301a:	93 81       	ldd	r25, Z+3	; 0x03
    301c:	a8 16       	cp	r10, r24
    301e:	b9 06       	cpc	r11, r25
    3020:	49 f4       	brne	.+18     	; 0x3034 <_ZN4core5go_stEv+0x82e>
    3022:	84 81       	ldd	r24, Z+4	; 0x04
    3024:	95 81       	ldd	r25, Z+5	; 0x05
    3026:	88 16       	cp	r8, r24
    3028:	99 06       	cpc	r9, r25
    302a:	21 f4       	brne	.+8      	; 0x3034 <_ZN4core5go_stEv+0x82e>
    302c:	1f 96       	adiw	r26, 0x0f	; 15
    302e:	ed 93       	st	X+, r30
    3030:	fc 93       	st	X, r31
    3032:	50 97       	sbiw	r26, 0x10	; 16
    3034:	a9 81       	ldd	r26, Y+1	; 0x01
    3036:	ba 81       	ldd	r27, Y+2	; 0x02
    3038:	58 96       	adiw	r26, 0x18	; 24
    303a:	2c 93       	st	X, r18
    303c:	58 97       	sbiw	r26, 0x18	; 24
    303e:	16 96       	adiw	r26, 0x06	; 6
    3040:	ed 90       	ld	r14, X+
    3042:	fc 90       	ld	r15, X
    3044:	17 97       	sbiw	r26, 0x07	; 7
    3046:	1a 96       	adiw	r26, 0x0a	; 10
    3048:	6d 91       	ld	r22, X+
    304a:	7c 91       	ld	r23, X
    304c:	1b 97       	sbiw	r26, 0x0b	; 11
    304e:	84 01       	movw	r16, r8
    3050:	95 01       	movw	r18, r10
    3052:	a6 01       	movw	r20, r12
    3054:	8b 81       	ldd	r24, Y+3	; 0x03
    3056:	9c 81       	ldd	r25, Y+4	; 0x04
    3058:	0e 94 42 01 	call	0x284	; 0x284 <_ZN4core3dfsEP4nodeiiii>
    305c:	e9 81       	ldd	r30, Y+1	; 0x01
    305e:	fa 81       	ldd	r31, Y+2	; 0x02
    3060:	e6 80       	ldd	r14, Z+6	; 0x06
    3062:	f7 80       	ldd	r15, Z+7	; 0x07
    3064:	64 85       	ldd	r22, Z+12	; 0x0c
    3066:	75 85       	ldd	r23, Z+13	; 0x0d
    3068:	95 01       	movw	r18, r10
    306a:	a6 01       	movw	r20, r12
    306c:	8b 81       	ldd	r24, Y+3	; 0x03
    306e:	9c 81       	ldd	r25, Y+4	; 0x04
    3070:	0e 94 42 01 	call	0x284	; 0x284 <_ZN4core3dfsEP4nodeiiii>
    3074:	a9 81       	ldd	r26, Y+1	; 0x01
    3076:	ba 81       	ldd	r27, Y+2	; 0x02
    3078:	16 96       	adiw	r26, 0x06	; 6
    307a:	ed 90       	ld	r14, X+
    307c:	fc 90       	ld	r15, X
    307e:	17 97       	sbiw	r26, 0x07	; 7
    3080:	1e 96       	adiw	r26, 0x0e	; 14
    3082:	6d 91       	ld	r22, X+
    3084:	7c 91       	ld	r23, X
    3086:	1f 97       	sbiw	r26, 0x0f	; 15
    3088:	95 01       	movw	r18, r10
    308a:	a6 01       	movw	r20, r12
    308c:	8b 81       	ldd	r24, Y+3	; 0x03
    308e:	9c 81       	ldd	r25, Y+4	; 0x04
    3090:	0e 94 42 01 	call	0x284	; 0x284 <_ZN4core3dfsEP4nodeiiii>
    3094:	e9 81       	ldd	r30, Y+1	; 0x01
    3096:	fa 81       	ldd	r31, Y+2	; 0x02
    3098:	e6 80       	ldd	r14, Z+6	; 0x06
    309a:	f7 80       	ldd	r15, Z+7	; 0x07
    309c:	60 89       	ldd	r22, Z+16	; 0x10
    309e:	71 89       	ldd	r23, Z+17	; 0x11
    30a0:	95 01       	movw	r18, r10
    30a2:	a6 01       	movw	r20, r12
    30a4:	8b 81       	ldd	r24, Y+3	; 0x03
    30a6:	9c 81       	ldd	r25, Y+4	; 0x04
    30a8:	0e 94 42 01 	call	0x284	; 0x284 <_ZN4core3dfsEP4nodeiiii>
    30ac:	d1 01       	movw	r26, r2
    30ae:	16 96       	adiw	r26, 0x06	; 6
    30b0:	8d 91       	ld	r24, X+
    30b2:	9c 91       	ld	r25, X
    30b4:	17 97       	sbiw	r26, 0x07	; 7
    30b6:	50 96       	adiw	r26, 0x10	; 16
    30b8:	2d 90       	ld	r2, X+
    30ba:	3c 90       	ld	r3, X
    30bc:	51 97       	sbiw	r26, 0x11	; 17
    30be:	21 14       	cp	r2, r1
    30c0:	31 04       	cpc	r3, r1
    30c2:	09 f4       	brne	.+2      	; 0x30c6 <_ZN4core5go_stEv+0x8c0>
    30c4:	67 c0       	rjmp	.+206    	; 0x3194 <_ZN4core5go_stEv+0x98e>
    30c6:	01 96       	adiw	r24, 0x01	; 1
    30c8:	f1 01       	movw	r30, r2
    30ca:	26 81       	ldd	r18, Z+6	; 0x06
    30cc:	37 81       	ldd	r19, Z+7	; 0x07
    30ce:	82 17       	cp	r24, r18
    30d0:	93 07       	cpc	r25, r19
    30d2:	14 f4       	brge	.+4      	; 0x30d8 <_ZN4core5go_stEv+0x8d2>
    30d4:	86 83       	std	Z+6, r24	; 0x06
    30d6:	97 83       	std	Z+7, r25	; 0x07
    30d8:	ab 81       	ldd	r26, Y+3	; 0x03
    30da:	bc 81       	ldd	r27, Y+4	; 0x04
    30dc:	1e 96       	adiw	r26, 0x0e	; 14
    30de:	2c 91       	ld	r18, X
    30e0:	1e 97       	sbiw	r26, 0x0e	; 14
    30e2:	f1 01       	movw	r30, r2
    30e4:	80 8d       	ldd	r24, Z+24	; 0x18
    30e6:	82 17       	cp	r24, r18
    30e8:	09 f4       	brne	.+2      	; 0x30ec <_ZN4core5go_stEv+0x8e6>
    30ea:	54 c0       	rjmp	.+168    	; 0x3194 <_ZN4core5go_stEv+0x98e>
    30ec:	53 96       	adiw	r26, 0x13	; 19
    30ee:	8d 91       	ld	r24, X+
    30f0:	9c 91       	ld	r25, X
    30f2:	54 97       	sbiw	r26, 0x14	; 20
    30f4:	01 96       	adiw	r24, 0x01	; 1
    30f6:	53 96       	adiw	r26, 0x13	; 19
    30f8:	8d 93       	st	X+, r24
    30fa:	9c 93       	st	X, r25
    30fc:	54 97       	sbiw	r26, 0x14	; 20
    30fe:	80 81       	ld	r24, Z
    3100:	91 81       	ldd	r25, Z+1	; 0x01
    3102:	c8 16       	cp	r12, r24
    3104:	d9 06       	cpc	r13, r25
    3106:	71 f4       	brne	.+28     	; 0x3124 <_ZN4core5go_stEv+0x91e>
    3108:	82 81       	ldd	r24, Z+2	; 0x02
    310a:	93 81       	ldd	r25, Z+3	; 0x03
    310c:	a8 16       	cp	r10, r24
    310e:	b9 06       	cpc	r11, r25
    3110:	49 f4       	brne	.+18     	; 0x3124 <_ZN4core5go_stEv+0x91e>
    3112:	84 81       	ldd	r24, Z+4	; 0x04
    3114:	95 81       	ldd	r25, Z+5	; 0x05
    3116:	88 16       	cp	r8, r24
    3118:	99 06       	cpc	r9, r25
    311a:	21 f4       	brne	.+8      	; 0x3124 <_ZN4core5go_stEv+0x91e>
    311c:	1f 96       	adiw	r26, 0x0f	; 15
    311e:	2d 92       	st	X+, r2
    3120:	3c 92       	st	X, r3
    3122:	50 97       	sbiw	r26, 0x10	; 16
    3124:	d1 01       	movw	r26, r2
    3126:	58 96       	adiw	r26, 0x18	; 24
    3128:	2c 93       	st	X, r18
    312a:	58 97       	sbiw	r26, 0x18	; 24
    312c:	16 96       	adiw	r26, 0x06	; 6
    312e:	ed 90       	ld	r14, X+
    3130:	fc 90       	ld	r15, X
    3132:	17 97       	sbiw	r26, 0x07	; 7
    3134:	1a 96       	adiw	r26, 0x0a	; 10
    3136:	6d 91       	ld	r22, X+
    3138:	7c 91       	ld	r23, X
    313a:	1b 97       	sbiw	r26, 0x0b	; 11
    313c:	84 01       	movw	r16, r8
    313e:	95 01       	movw	r18, r10
    3140:	a6 01       	movw	r20, r12
    3142:	8b 81       	ldd	r24, Y+3	; 0x03
    3144:	9c 81       	ldd	r25, Y+4	; 0x04
    3146:	0e 94 42 01 	call	0x284	; 0x284 <_ZN4core3dfsEP4nodeiiii>
    314a:	f1 01       	movw	r30, r2
    314c:	e6 80       	ldd	r14, Z+6	; 0x06
    314e:	f7 80       	ldd	r15, Z+7	; 0x07
    3150:	64 85       	ldd	r22, Z+12	; 0x0c
    3152:	75 85       	ldd	r23, Z+13	; 0x0d
    3154:	95 01       	movw	r18, r10
    3156:	a6 01       	movw	r20, r12
    3158:	8b 81       	ldd	r24, Y+3	; 0x03
    315a:	9c 81       	ldd	r25, Y+4	; 0x04
    315c:	0e 94 42 01 	call	0x284	; 0x284 <_ZN4core3dfsEP4nodeiiii>
    3160:	d1 01       	movw	r26, r2
    3162:	16 96       	adiw	r26, 0x06	; 6
    3164:	ed 90       	ld	r14, X+
    3166:	fc 90       	ld	r15, X
    3168:	17 97       	sbiw	r26, 0x07	; 7
    316a:	1e 96       	adiw	r26, 0x0e	; 14
    316c:	6d 91       	ld	r22, X+
    316e:	7c 91       	ld	r23, X
    3170:	1f 97       	sbiw	r26, 0x0f	; 15
    3172:	95 01       	movw	r18, r10
    3174:	a6 01       	movw	r20, r12
    3176:	8b 81       	ldd	r24, Y+3	; 0x03
    3178:	9c 81       	ldd	r25, Y+4	; 0x04
    317a:	0e 94 42 01 	call	0x284	; 0x284 <_ZN4core3dfsEP4nodeiiii>
    317e:	f1 01       	movw	r30, r2
    3180:	e6 80       	ldd	r14, Z+6	; 0x06
    3182:	f7 80       	ldd	r15, Z+7	; 0x07
    3184:	60 89       	ldd	r22, Z+16	; 0x10
    3186:	71 89       	ldd	r23, Z+17	; 0x11
    3188:	95 01       	movw	r18, r10
    318a:	a6 01       	movw	r20, r12
    318c:	8b 81       	ldd	r24, Y+3	; 0x03
    318e:	9c 81       	ldd	r25, Y+4	; 0x04
    3190:	0e 94 42 01 	call	0x284	; 0x284 <_ZN4core3dfsEP4nodeiiii>
    3194:	d3 01       	movw	r26, r6
    3196:	16 96       	adiw	r26, 0x06	; 6
    3198:	8d 91       	ld	r24, X+
    319a:	9c 91       	ld	r25, X
    319c:	17 97       	sbiw	r26, 0x07	; 7
    319e:	1e 96       	adiw	r26, 0x0e	; 14
    31a0:	2d 90       	ld	r2, X+
    31a2:	3c 90       	ld	r3, X
    31a4:	1f 97       	sbiw	r26, 0x0f	; 15
    31a6:	21 14       	cp	r2, r1
    31a8:	31 04       	cpc	r3, r1
    31aa:	09 f4       	brne	.+2      	; 0x31ae <_ZN4core5go_stEv+0x9a8>
    31ac:	11 c2       	rjmp	.+1058   	; 0x35d0 <_ZN4core5go_stEv+0xdca>
    31ae:	01 96       	adiw	r24, 0x01	; 1
    31b0:	f1 01       	movw	r30, r2
    31b2:	26 81       	ldd	r18, Z+6	; 0x06
    31b4:	37 81       	ldd	r19, Z+7	; 0x07
    31b6:	82 17       	cp	r24, r18
    31b8:	93 07       	cpc	r25, r19
    31ba:	14 f4       	brge	.+4      	; 0x31c0 <_ZN4core5go_stEv+0x9ba>
    31bc:	86 83       	std	Z+6, r24	; 0x06
    31be:	97 83       	std	Z+7, r25	; 0x07
    31c0:	ab 81       	ldd	r26, Y+3	; 0x03
    31c2:	bc 81       	ldd	r27, Y+4	; 0x04
    31c4:	1e 96       	adiw	r26, 0x0e	; 14
    31c6:	2c 91       	ld	r18, X
    31c8:	1e 97       	sbiw	r26, 0x0e	; 14
    31ca:	f1 01       	movw	r30, r2
    31cc:	80 8d       	ldd	r24, Z+24	; 0x18
    31ce:	82 17       	cp	r24, r18
    31d0:	09 f4       	brne	.+2      	; 0x31d4 <_ZN4core5go_stEv+0x9ce>
    31d2:	fe c1       	rjmp	.+1020   	; 0x35d0 <_ZN4core5go_stEv+0xdca>
    31d4:	53 96       	adiw	r26, 0x13	; 19
    31d6:	8d 91       	ld	r24, X+
    31d8:	9c 91       	ld	r25, X
    31da:	54 97       	sbiw	r26, 0x14	; 20
    31dc:	01 96       	adiw	r24, 0x01	; 1
    31de:	53 96       	adiw	r26, 0x13	; 19
    31e0:	8d 93       	st	X+, r24
    31e2:	9c 93       	st	X, r25
    31e4:	54 97       	sbiw	r26, 0x14	; 20
    31e6:	80 81       	ld	r24, Z
    31e8:	91 81       	ldd	r25, Z+1	; 0x01
    31ea:	c8 16       	cp	r12, r24
    31ec:	d9 06       	cpc	r13, r25
    31ee:	71 f4       	brne	.+28     	; 0x320c <_ZN4core5go_stEv+0xa06>
    31f0:	82 81       	ldd	r24, Z+2	; 0x02
    31f2:	93 81       	ldd	r25, Z+3	; 0x03
    31f4:	a8 16       	cp	r10, r24
    31f6:	b9 06       	cpc	r11, r25
    31f8:	49 f4       	brne	.+18     	; 0x320c <_ZN4core5go_stEv+0xa06>
    31fa:	84 81       	ldd	r24, Z+4	; 0x04
    31fc:	95 81       	ldd	r25, Z+5	; 0x05
    31fe:	88 16       	cp	r8, r24
    3200:	99 06       	cpc	r9, r25
    3202:	21 f4       	brne	.+8      	; 0x320c <_ZN4core5go_stEv+0xa06>
    3204:	1f 96       	adiw	r26, 0x0f	; 15
    3206:	2d 92       	st	X+, r2
    3208:	3c 92       	st	X, r3
    320a:	50 97       	sbiw	r26, 0x10	; 16
    320c:	d1 01       	movw	r26, r2
    320e:	58 96       	adiw	r26, 0x18	; 24
    3210:	2c 93       	st	X, r18
    3212:	58 97       	sbiw	r26, 0x18	; 24
    3214:	16 96       	adiw	r26, 0x06	; 6
    3216:	8d 91       	ld	r24, X+
    3218:	9c 91       	ld	r25, X
    321a:	17 97       	sbiw	r26, 0x07	; 7
    321c:	1a 96       	adiw	r26, 0x0a	; 10
    321e:	ed 91       	ld	r30, X+
    3220:	fc 91       	ld	r31, X
    3222:	1b 97       	sbiw	r26, 0x0b	; 11
    3224:	e9 83       	std	Y+1, r30	; 0x01
    3226:	fa 83       	std	Y+2, r31	; 0x02
    3228:	30 97       	sbiw	r30, 0x00	; 0
    322a:	09 f4       	brne	.+2      	; 0x322e <_ZN4core5go_stEv+0xa28>
    322c:	6b c0       	rjmp	.+214    	; 0x3304 <_ZN4core5go_stEv+0xafe>
    322e:	01 96       	adiw	r24, 0x01	; 1
    3230:	26 81       	ldd	r18, Z+6	; 0x06
    3232:	37 81       	ldd	r19, Z+7	; 0x07
    3234:	82 17       	cp	r24, r18
    3236:	93 07       	cpc	r25, r19
    3238:	14 f4       	brge	.+4      	; 0x323e <_ZN4core5go_stEv+0xa38>
    323a:	86 83       	std	Z+6, r24	; 0x06
    323c:	97 83       	std	Z+7, r25	; 0x07
    323e:	ab 81       	ldd	r26, Y+3	; 0x03
    3240:	bc 81       	ldd	r27, Y+4	; 0x04
    3242:	1e 96       	adiw	r26, 0x0e	; 14
    3244:	2c 91       	ld	r18, X
    3246:	1e 97       	sbiw	r26, 0x0e	; 14
    3248:	e9 81       	ldd	r30, Y+1	; 0x01
    324a:	fa 81       	ldd	r31, Y+2	; 0x02
    324c:	80 8d       	ldd	r24, Z+24	; 0x18
    324e:	82 17       	cp	r24, r18
    3250:	09 f4       	brne	.+2      	; 0x3254 <_ZN4core5go_stEv+0xa4e>
    3252:	58 c0       	rjmp	.+176    	; 0x3304 <_ZN4core5go_stEv+0xafe>
    3254:	53 96       	adiw	r26, 0x13	; 19
    3256:	8d 91       	ld	r24, X+
    3258:	9c 91       	ld	r25, X
    325a:	54 97       	sbiw	r26, 0x14	; 20
    325c:	01 96       	adiw	r24, 0x01	; 1
    325e:	53 96       	adiw	r26, 0x13	; 19
    3260:	8d 93       	st	X+, r24
    3262:	9c 93       	st	X, r25
    3264:	54 97       	sbiw	r26, 0x14	; 20
    3266:	80 81       	ld	r24, Z
    3268:	91 81       	ldd	r25, Z+1	; 0x01
    326a:	c8 16       	cp	r12, r24
    326c:	d9 06       	cpc	r13, r25
    326e:	71 f4       	brne	.+28     	; 0x328c <_ZN4core5go_stEv+0xa86>
    3270:	82 81       	ldd	r24, Z+2	; 0x02
    3272:	93 81       	ldd	r25, Z+3	; 0x03
    3274:	a8 16       	cp	r10, r24
    3276:	b9 06       	cpc	r11, r25
    3278:	49 f4       	brne	.+18     	; 0x328c <_ZN4core5go_stEv+0xa86>
    327a:	84 81       	ldd	r24, Z+4	; 0x04
    327c:	95 81       	ldd	r25, Z+5	; 0x05
    327e:	88 16       	cp	r8, r24
    3280:	99 06       	cpc	r9, r25
    3282:	21 f4       	brne	.+8      	; 0x328c <_ZN4core5go_stEv+0xa86>
    3284:	1f 96       	adiw	r26, 0x0f	; 15
    3286:	ed 93       	st	X+, r30
    3288:	fc 93       	st	X, r31
    328a:	50 97       	sbiw	r26, 0x10	; 16
    328c:	a9 81       	ldd	r26, Y+1	; 0x01
    328e:	ba 81       	ldd	r27, Y+2	; 0x02
    3290:	58 96       	adiw	r26, 0x18	; 24
    3292:	2c 93       	st	X, r18
    3294:	58 97       	sbiw	r26, 0x18	; 24
    3296:	16 96       	adiw	r26, 0x06	; 6
    3298:	ed 90       	ld	r14, X+
    329a:	fc 90       	ld	r15, X
    329c:	17 97       	sbiw	r26, 0x07	; 7
    329e:	1a 96       	adiw	r26, 0x0a	; 10
    32a0:	6d 91       	ld	r22, X+
    32a2:	7c 91       	ld	r23, X
    32a4:	1b 97       	sbiw	r26, 0x0b	; 11
    32a6:	84 01       	movw	r16, r8
    32a8:	95 01       	movw	r18, r10
    32aa:	a6 01       	movw	r20, r12
    32ac:	8b 81       	ldd	r24, Y+3	; 0x03
    32ae:	9c 81       	ldd	r25, Y+4	; 0x04
    32b0:	0e 94 42 01 	call	0x284	; 0x284 <_ZN4core3dfsEP4nodeiiii>
    32b4:	e9 81       	ldd	r30, Y+1	; 0x01
    32b6:	fa 81       	ldd	r31, Y+2	; 0x02
    32b8:	e6 80       	ldd	r14, Z+6	; 0x06
    32ba:	f7 80       	ldd	r15, Z+7	; 0x07
    32bc:	64 85       	ldd	r22, Z+12	; 0x0c
    32be:	75 85       	ldd	r23, Z+13	; 0x0d
    32c0:	95 01       	movw	r18, r10
    32c2:	a6 01       	movw	r20, r12
    32c4:	8b 81       	ldd	r24, Y+3	; 0x03
    32c6:	9c 81       	ldd	r25, Y+4	; 0x04
    32c8:	0e 94 42 01 	call	0x284	; 0x284 <_ZN4core3dfsEP4nodeiiii>
    32cc:	a9 81       	ldd	r26, Y+1	; 0x01
    32ce:	ba 81       	ldd	r27, Y+2	; 0x02
    32d0:	16 96       	adiw	r26, 0x06	; 6
    32d2:	ed 90       	ld	r14, X+
    32d4:	fc 90       	ld	r15, X
    32d6:	17 97       	sbiw	r26, 0x07	; 7
    32d8:	1e 96       	adiw	r26, 0x0e	; 14
    32da:	6d 91       	ld	r22, X+
    32dc:	7c 91       	ld	r23, X
    32de:	1f 97       	sbiw	r26, 0x0f	; 15
    32e0:	95 01       	movw	r18, r10
    32e2:	a6 01       	movw	r20, r12
    32e4:	8b 81       	ldd	r24, Y+3	; 0x03
    32e6:	9c 81       	ldd	r25, Y+4	; 0x04
    32e8:	0e 94 42 01 	call	0x284	; 0x284 <_ZN4core3dfsEP4nodeiiii>
    32ec:	e9 81       	ldd	r30, Y+1	; 0x01
    32ee:	fa 81       	ldd	r31, Y+2	; 0x02
    32f0:	e6 80       	ldd	r14, Z+6	; 0x06
    32f2:	f7 80       	ldd	r15, Z+7	; 0x07
    32f4:	60 89       	ldd	r22, Z+16	; 0x10
    32f6:	71 89       	ldd	r23, Z+17	; 0x11
    32f8:	95 01       	movw	r18, r10
    32fa:	a6 01       	movw	r20, r12
    32fc:	8b 81       	ldd	r24, Y+3	; 0x03
    32fe:	9c 81       	ldd	r25, Y+4	; 0x04
    3300:	0e 94 42 01 	call	0x284	; 0x284 <_ZN4core3dfsEP4nodeiiii>
    3304:	d1 01       	movw	r26, r2
    3306:	16 96       	adiw	r26, 0x06	; 6
    3308:	8d 91       	ld	r24, X+
    330a:	9c 91       	ld	r25, X
    330c:	17 97       	sbiw	r26, 0x07	; 7
    330e:	1c 96       	adiw	r26, 0x0c	; 12
    3310:	ed 91       	ld	r30, X+
    3312:	fc 91       	ld	r31, X
    3314:	1d 97       	sbiw	r26, 0x0d	; 13
    3316:	e9 83       	std	Y+1, r30	; 0x01
    3318:	fa 83       	std	Y+2, r31	; 0x02
    331a:	30 97       	sbiw	r30, 0x00	; 0
    331c:	09 f4       	brne	.+2      	; 0x3320 <_ZN4core5go_stEv+0xb1a>
    331e:	6b c0       	rjmp	.+214    	; 0x33f6 <_ZN4core5go_stEv+0xbf0>
    3320:	01 96       	adiw	r24, 0x01	; 1
    3322:	26 81       	ldd	r18, Z+6	; 0x06
    3324:	37 81       	ldd	r19, Z+7	; 0x07
    3326:	82 17       	cp	r24, r18
    3328:	93 07       	cpc	r25, r19
    332a:	14 f4       	brge	.+4      	; 0x3330 <_ZN4core5go_stEv+0xb2a>
    332c:	86 83       	std	Z+6, r24	; 0x06
    332e:	97 83       	std	Z+7, r25	; 0x07
    3330:	ab 81       	ldd	r26, Y+3	; 0x03
    3332:	bc 81       	ldd	r27, Y+4	; 0x04
    3334:	1e 96       	adiw	r26, 0x0e	; 14
    3336:	2c 91       	ld	r18, X
    3338:	1e 97       	sbiw	r26, 0x0e	; 14
    333a:	e9 81       	ldd	r30, Y+1	; 0x01
    333c:	fa 81       	ldd	r31, Y+2	; 0x02
    333e:	80 8d       	ldd	r24, Z+24	; 0x18
    3340:	82 17       	cp	r24, r18
    3342:	09 f4       	brne	.+2      	; 0x3346 <_ZN4core5go_stEv+0xb40>
    3344:	58 c0       	rjmp	.+176    	; 0x33f6 <_ZN4core5go_stEv+0xbf0>
    3346:	53 96       	adiw	r26, 0x13	; 19
    3348:	8d 91       	ld	r24, X+
    334a:	9c 91       	ld	r25, X
    334c:	54 97       	sbiw	r26, 0x14	; 20
    334e:	01 96       	adiw	r24, 0x01	; 1
    3350:	53 96       	adiw	r26, 0x13	; 19
    3352:	8d 93       	st	X+, r24
    3354:	9c 93       	st	X, r25
    3356:	54 97       	sbiw	r26, 0x14	; 20
    3358:	80 81       	ld	r24, Z
    335a:	91 81       	ldd	r25, Z+1	; 0x01
    335c:	c8 16       	cp	r12, r24
    335e:	d9 06       	cpc	r13, r25
    3360:	71 f4       	brne	.+28     	; 0x337e <_ZN4core5go_stEv+0xb78>
    3362:	82 81       	ldd	r24, Z+2	; 0x02
    3364:	93 81       	ldd	r25, Z+3	; 0x03
    3366:	a8 16       	cp	r10, r24
    3368:	b9 06       	cpc	r11, r25
    336a:	49 f4       	brne	.+18     	; 0x337e <_ZN4core5go_stEv+0xb78>
    336c:	84 81       	ldd	r24, Z+4	; 0x04
    336e:	95 81       	ldd	r25, Z+5	; 0x05
    3370:	88 16       	cp	r8, r24
    3372:	99 06       	cpc	r9, r25
    3374:	21 f4       	brne	.+8      	; 0x337e <_ZN4core5go_stEv+0xb78>
    3376:	1f 96       	adiw	r26, 0x0f	; 15
    3378:	ed 93       	st	X+, r30
    337a:	fc 93       	st	X, r31
    337c:	50 97       	sbiw	r26, 0x10	; 16
    337e:	a9 81       	ldd	r26, Y+1	; 0x01
    3380:	ba 81       	ldd	r27, Y+2	; 0x02
    3382:	58 96       	adiw	r26, 0x18	; 24
    3384:	2c 93       	st	X, r18
    3386:	58 97       	sbiw	r26, 0x18	; 24
    3388:	16 96       	adiw	r26, 0x06	; 6
    338a:	ed 90       	ld	r14, X+
    338c:	fc 90       	ld	r15, X
    338e:	17 97       	sbiw	r26, 0x07	; 7
    3390:	1a 96       	adiw	r26, 0x0a	; 10
    3392:	6d 91       	ld	r22, X+
    3394:	7c 91       	ld	r23, X
    3396:	1b 97       	sbiw	r26, 0x0b	; 11
    3398:	84 01       	movw	r16, r8
    339a:	95 01       	movw	r18, r10
    339c:	a6 01       	movw	r20, r12
    339e:	8b 81       	ldd	r24, Y+3	; 0x03
    33a0:	9c 81       	ldd	r25, Y+4	; 0x04
    33a2:	0e 94 42 01 	call	0x284	; 0x284 <_ZN4core3dfsEP4nodeiiii>
    33a6:	e9 81       	ldd	r30, Y+1	; 0x01
    33a8:	fa 81       	ldd	r31, Y+2	; 0x02
    33aa:	e6 80       	ldd	r14, Z+6	; 0x06
    33ac:	f7 80       	ldd	r15, Z+7	; 0x07
    33ae:	64 85       	ldd	r22, Z+12	; 0x0c
    33b0:	75 85       	ldd	r23, Z+13	; 0x0d
    33b2:	95 01       	movw	r18, r10
    33b4:	a6 01       	movw	r20, r12
    33b6:	8b 81       	ldd	r24, Y+3	; 0x03
    33b8:	9c 81       	ldd	r25, Y+4	; 0x04
    33ba:	0e 94 42 01 	call	0x284	; 0x284 <_ZN4core3dfsEP4nodeiiii>
    33be:	a9 81       	ldd	r26, Y+1	; 0x01
    33c0:	ba 81       	ldd	r27, Y+2	; 0x02
    33c2:	16 96       	adiw	r26, 0x06	; 6
    33c4:	ed 90       	ld	r14, X+
    33c6:	fc 90       	ld	r15, X
    33c8:	17 97       	sbiw	r26, 0x07	; 7
    33ca:	1e 96       	adiw	r26, 0x0e	; 14
    33cc:	6d 91       	ld	r22, X+
    33ce:	7c 91       	ld	r23, X
    33d0:	1f 97       	sbiw	r26, 0x0f	; 15
    33d2:	95 01       	movw	r18, r10
    33d4:	a6 01       	movw	r20, r12
    33d6:	8b 81       	ldd	r24, Y+3	; 0x03
    33d8:	9c 81       	ldd	r25, Y+4	; 0x04
    33da:	0e 94 42 01 	call	0x284	; 0x284 <_ZN4core3dfsEP4nodeiiii>
    33de:	e9 81       	ldd	r30, Y+1	; 0x01
    33e0:	fa 81       	ldd	r31, Y+2	; 0x02
    33e2:	e6 80       	ldd	r14, Z+6	; 0x06
    33e4:	f7 80       	ldd	r15, Z+7	; 0x07
    33e6:	60 89       	ldd	r22, Z+16	; 0x10
    33e8:	71 89       	ldd	r23, Z+17	; 0x11
    33ea:	95 01       	movw	r18, r10
    33ec:	a6 01       	movw	r20, r12
    33ee:	8b 81       	ldd	r24, Y+3	; 0x03
    33f0:	9c 81       	ldd	r25, Y+4	; 0x04
    33f2:	0e 94 42 01 	call	0x284	; 0x284 <_ZN4core3dfsEP4nodeiiii>
    33f6:	d1 01       	movw	r26, r2
    33f8:	16 96       	adiw	r26, 0x06	; 6
    33fa:	8d 91       	ld	r24, X+
    33fc:	9c 91       	ld	r25, X
    33fe:	17 97       	sbiw	r26, 0x07	; 7
    3400:	1e 96       	adiw	r26, 0x0e	; 14
    3402:	ed 91       	ld	r30, X+
    3404:	fc 91       	ld	r31, X
    3406:	1f 97       	sbiw	r26, 0x0f	; 15
    3408:	e9 83       	std	Y+1, r30	; 0x01
    340a:	fa 83       	std	Y+2, r31	; 0x02
    340c:	30 97       	sbiw	r30, 0x00	; 0
    340e:	09 f4       	brne	.+2      	; 0x3412 <_ZN4core5go_stEv+0xc0c>
    3410:	6b c0       	rjmp	.+214    	; 0x34e8 <_ZN4core5go_stEv+0xce2>
    3412:	01 96       	adiw	r24, 0x01	; 1
    3414:	26 81       	ldd	r18, Z+6	; 0x06
    3416:	37 81       	ldd	r19, Z+7	; 0x07
    3418:	82 17       	cp	r24, r18
    341a:	93 07       	cpc	r25, r19
    341c:	14 f4       	brge	.+4      	; 0x3422 <_ZN4core5go_stEv+0xc1c>
    341e:	86 83       	std	Z+6, r24	; 0x06
    3420:	97 83       	std	Z+7, r25	; 0x07
    3422:	ab 81       	ldd	r26, Y+3	; 0x03
    3424:	bc 81       	ldd	r27, Y+4	; 0x04
    3426:	1e 96       	adiw	r26, 0x0e	; 14
    3428:	2c 91       	ld	r18, X
    342a:	1e 97       	sbiw	r26, 0x0e	; 14
    342c:	e9 81       	ldd	r30, Y+1	; 0x01
    342e:	fa 81       	ldd	r31, Y+2	; 0x02
    3430:	80 8d       	ldd	r24, Z+24	; 0x18
    3432:	82 17       	cp	r24, r18
    3434:	09 f4       	brne	.+2      	; 0x3438 <_ZN4core5go_stEv+0xc32>
    3436:	58 c0       	rjmp	.+176    	; 0x34e8 <_ZN4core5go_stEv+0xce2>
    3438:	53 96       	adiw	r26, 0x13	; 19
    343a:	8d 91       	ld	r24, X+
    343c:	9c 91       	ld	r25, X
    343e:	54 97       	sbiw	r26, 0x14	; 20
    3440:	01 96       	adiw	r24, 0x01	; 1
    3442:	53 96       	adiw	r26, 0x13	; 19
    3444:	8d 93       	st	X+, r24
    3446:	9c 93       	st	X, r25
    3448:	54 97       	sbiw	r26, 0x14	; 20
    344a:	80 81       	ld	r24, Z
    344c:	91 81       	ldd	r25, Z+1	; 0x01
    344e:	c8 16       	cp	r12, r24
    3450:	d9 06       	cpc	r13, r25
    3452:	71 f4       	brne	.+28     	; 0x3470 <_ZN4core5go_stEv+0xc6a>
    3454:	82 81       	ldd	r24, Z+2	; 0x02
    3456:	93 81       	ldd	r25, Z+3	; 0x03
    3458:	a8 16       	cp	r10, r24
    345a:	b9 06       	cpc	r11, r25
    345c:	49 f4       	brne	.+18     	; 0x3470 <_ZN4core5go_stEv+0xc6a>
    345e:	84 81       	ldd	r24, Z+4	; 0x04
    3460:	95 81       	ldd	r25, Z+5	; 0x05
    3462:	88 16       	cp	r8, r24
    3464:	99 06       	cpc	r9, r25
    3466:	21 f4       	brne	.+8      	; 0x3470 <_ZN4core5go_stEv+0xc6a>
    3468:	1f 96       	adiw	r26, 0x0f	; 15
    346a:	ed 93       	st	X+, r30
    346c:	fc 93       	st	X, r31
    346e:	50 97       	sbiw	r26, 0x10	; 16
    3470:	a9 81       	ldd	r26, Y+1	; 0x01
    3472:	ba 81       	ldd	r27, Y+2	; 0x02
    3474:	58 96       	adiw	r26, 0x18	; 24
    3476:	2c 93       	st	X, r18
    3478:	58 97       	sbiw	r26, 0x18	; 24
    347a:	16 96       	adiw	r26, 0x06	; 6
    347c:	ed 90       	ld	r14, X+
    347e:	fc 90       	ld	r15, X
    3480:	17 97       	sbiw	r26, 0x07	; 7
    3482:	1a 96       	adiw	r26, 0x0a	; 10
    3484:	6d 91       	ld	r22, X+
    3486:	7c 91       	ld	r23, X
    3488:	1b 97       	sbiw	r26, 0x0b	; 11
    348a:	84 01       	movw	r16, r8
    348c:	95 01       	movw	r18, r10
    348e:	a6 01       	movw	r20, r12
    3490:	8b 81       	ldd	r24, Y+3	; 0x03
    3492:	9c 81       	ldd	r25, Y+4	; 0x04
    3494:	0e 94 42 01 	call	0x284	; 0x284 <_ZN4core3dfsEP4nodeiiii>
    3498:	e9 81       	ldd	r30, Y+1	; 0x01
    349a:	fa 81       	ldd	r31, Y+2	; 0x02
    349c:	e6 80       	ldd	r14, Z+6	; 0x06
    349e:	f7 80       	ldd	r15, Z+7	; 0x07
    34a0:	64 85       	ldd	r22, Z+12	; 0x0c
    34a2:	75 85       	ldd	r23, Z+13	; 0x0d
    34a4:	95 01       	movw	r18, r10
    34a6:	a6 01       	movw	r20, r12
    34a8:	8b 81       	ldd	r24, Y+3	; 0x03
    34aa:	9c 81       	ldd	r25, Y+4	; 0x04
    34ac:	0e 94 42 01 	call	0x284	; 0x284 <_ZN4core3dfsEP4nodeiiii>
    34b0:	a9 81       	ldd	r26, Y+1	; 0x01
    34b2:	ba 81       	ldd	r27, Y+2	; 0x02
    34b4:	16 96       	adiw	r26, 0x06	; 6
    34b6:	ed 90       	ld	r14, X+
    34b8:	fc 90       	ld	r15, X
    34ba:	17 97       	sbiw	r26, 0x07	; 7
    34bc:	1e 96       	adiw	r26, 0x0e	; 14
    34be:	6d 91       	ld	r22, X+
    34c0:	7c 91       	ld	r23, X
    34c2:	1f 97       	sbiw	r26, 0x0f	; 15
    34c4:	95 01       	movw	r18, r10
    34c6:	a6 01       	movw	r20, r12
    34c8:	8b 81       	ldd	r24, Y+3	; 0x03
    34ca:	9c 81       	ldd	r25, Y+4	; 0x04
    34cc:	0e 94 42 01 	call	0x284	; 0x284 <_ZN4core3dfsEP4nodeiiii>
    34d0:	e9 81       	ldd	r30, Y+1	; 0x01
    34d2:	fa 81       	ldd	r31, Y+2	; 0x02
    34d4:	e6 80       	ldd	r14, Z+6	; 0x06
    34d6:	f7 80       	ldd	r15, Z+7	; 0x07
    34d8:	60 89       	ldd	r22, Z+16	; 0x10
    34da:	71 89       	ldd	r23, Z+17	; 0x11
    34dc:	95 01       	movw	r18, r10
    34de:	a6 01       	movw	r20, r12
    34e0:	8b 81       	ldd	r24, Y+3	; 0x03
    34e2:	9c 81       	ldd	r25, Y+4	; 0x04
    34e4:	0e 94 42 01 	call	0x284	; 0x284 <_ZN4core3dfsEP4nodeiiii>
    34e8:	d1 01       	movw	r26, r2
    34ea:	16 96       	adiw	r26, 0x06	; 6
    34ec:	8d 91       	ld	r24, X+
    34ee:	9c 91       	ld	r25, X
    34f0:	17 97       	sbiw	r26, 0x07	; 7
    34f2:	50 96       	adiw	r26, 0x10	; 16
    34f4:	2d 90       	ld	r2, X+
    34f6:	3c 90       	ld	r3, X
    34f8:	51 97       	sbiw	r26, 0x11	; 17
    34fa:	21 14       	cp	r2, r1
    34fc:	31 04       	cpc	r3, r1
    34fe:	09 f4       	brne	.+2      	; 0x3502 <_ZN4core5go_stEv+0xcfc>
    3500:	67 c0       	rjmp	.+206    	; 0x35d0 <_ZN4core5go_stEv+0xdca>
    3502:	01 96       	adiw	r24, 0x01	; 1
    3504:	f1 01       	movw	r30, r2
    3506:	26 81       	ldd	r18, Z+6	; 0x06
    3508:	37 81       	ldd	r19, Z+7	; 0x07
    350a:	82 17       	cp	r24, r18
    350c:	93 07       	cpc	r25, r19
    350e:	14 f4       	brge	.+4      	; 0x3514 <_ZN4core5go_stEv+0xd0e>
    3510:	86 83       	std	Z+6, r24	; 0x06
    3512:	97 83       	std	Z+7, r25	; 0x07
    3514:	ab 81       	ldd	r26, Y+3	; 0x03
    3516:	bc 81       	ldd	r27, Y+4	; 0x04
    3518:	1e 96       	adiw	r26, 0x0e	; 14
    351a:	2c 91       	ld	r18, X
    351c:	1e 97       	sbiw	r26, 0x0e	; 14
    351e:	f1 01       	movw	r30, r2
    3520:	80 8d       	ldd	r24, Z+24	; 0x18
    3522:	82 17       	cp	r24, r18
    3524:	09 f4       	brne	.+2      	; 0x3528 <_ZN4core5go_stEv+0xd22>
    3526:	54 c0       	rjmp	.+168    	; 0x35d0 <_ZN4core5go_stEv+0xdca>
    3528:	53 96       	adiw	r26, 0x13	; 19
    352a:	8d 91       	ld	r24, X+
    352c:	9c 91       	ld	r25, X
    352e:	54 97       	sbiw	r26, 0x14	; 20
    3530:	01 96       	adiw	r24, 0x01	; 1
    3532:	53 96       	adiw	r26, 0x13	; 19
    3534:	8d 93       	st	X+, r24
    3536:	9c 93       	st	X, r25
    3538:	54 97       	sbiw	r26, 0x14	; 20
    353a:	80 81       	ld	r24, Z
    353c:	91 81       	ldd	r25, Z+1	; 0x01
    353e:	c8 16       	cp	r12, r24
    3540:	d9 06       	cpc	r13, r25
    3542:	71 f4       	brne	.+28     	; 0x3560 <_ZN4core5go_stEv+0xd5a>
    3544:	82 81       	ldd	r24, Z+2	; 0x02
    3546:	93 81       	ldd	r25, Z+3	; 0x03
    3548:	a8 16       	cp	r10, r24
    354a:	b9 06       	cpc	r11, r25
    354c:	49 f4       	brne	.+18     	; 0x3560 <_ZN4core5go_stEv+0xd5a>
    354e:	84 81       	ldd	r24, Z+4	; 0x04
    3550:	95 81       	ldd	r25, Z+5	; 0x05
    3552:	88 16       	cp	r8, r24
    3554:	99 06       	cpc	r9, r25
    3556:	21 f4       	brne	.+8      	; 0x3560 <_ZN4core5go_stEv+0xd5a>
    3558:	1f 96       	adiw	r26, 0x0f	; 15
    355a:	2d 92       	st	X+, r2
    355c:	3c 92       	st	X, r3
    355e:	50 97       	sbiw	r26, 0x10	; 16
    3560:	d1 01       	movw	r26, r2
    3562:	58 96       	adiw	r26, 0x18	; 24
    3564:	2c 93       	st	X, r18
    3566:	58 97       	sbiw	r26, 0x18	; 24
    3568:	16 96       	adiw	r26, 0x06	; 6
    356a:	ed 90       	ld	r14, X+
    356c:	fc 90       	ld	r15, X
    356e:	17 97       	sbiw	r26, 0x07	; 7
    3570:	1a 96       	adiw	r26, 0x0a	; 10
    3572:	6d 91       	ld	r22, X+
    3574:	7c 91       	ld	r23, X
    3576:	1b 97       	sbiw	r26, 0x0b	; 11
    3578:	84 01       	movw	r16, r8
    357a:	95 01       	movw	r18, r10
    357c:	a6 01       	movw	r20, r12
    357e:	8b 81       	ldd	r24, Y+3	; 0x03
    3580:	9c 81       	ldd	r25, Y+4	; 0x04
    3582:	0e 94 42 01 	call	0x284	; 0x284 <_ZN4core3dfsEP4nodeiiii>
    3586:	f1 01       	movw	r30, r2
    3588:	e6 80       	ldd	r14, Z+6	; 0x06
    358a:	f7 80       	ldd	r15, Z+7	; 0x07
    358c:	64 85       	ldd	r22, Z+12	; 0x0c
    358e:	75 85       	ldd	r23, Z+13	; 0x0d
    3590:	95 01       	movw	r18, r10
    3592:	a6 01       	movw	r20, r12
    3594:	8b 81       	ldd	r24, Y+3	; 0x03
    3596:	9c 81       	ldd	r25, Y+4	; 0x04
    3598:	0e 94 42 01 	call	0x284	; 0x284 <_ZN4core3dfsEP4nodeiiii>
    359c:	d1 01       	movw	r26, r2
    359e:	16 96       	adiw	r26, 0x06	; 6
    35a0:	ed 90       	ld	r14, X+
    35a2:	fc 90       	ld	r15, X
    35a4:	17 97       	sbiw	r26, 0x07	; 7
    35a6:	1e 96       	adiw	r26, 0x0e	; 14
    35a8:	6d 91       	ld	r22, X+
    35aa:	7c 91       	ld	r23, X
    35ac:	1f 97       	sbiw	r26, 0x0f	; 15
    35ae:	95 01       	movw	r18, r10
    35b0:	a6 01       	movw	r20, r12
    35b2:	8b 81       	ldd	r24, Y+3	; 0x03
    35b4:	9c 81       	ldd	r25, Y+4	; 0x04
    35b6:	0e 94 42 01 	call	0x284	; 0x284 <_ZN4core3dfsEP4nodeiiii>
    35ba:	f1 01       	movw	r30, r2
    35bc:	e6 80       	ldd	r14, Z+6	; 0x06
    35be:	f7 80       	ldd	r15, Z+7	; 0x07
    35c0:	60 89       	ldd	r22, Z+16	; 0x10
    35c2:	71 89       	ldd	r23, Z+17	; 0x11
    35c4:	95 01       	movw	r18, r10
    35c6:	a6 01       	movw	r20, r12
    35c8:	8b 81       	ldd	r24, Y+3	; 0x03
    35ca:	9c 81       	ldd	r25, Y+4	; 0x04
    35cc:	0e 94 42 01 	call	0x284	; 0x284 <_ZN4core3dfsEP4nodeiiii>
    35d0:	d3 01       	movw	r26, r6
    35d2:	16 96       	adiw	r26, 0x06	; 6
    35d4:	8d 91       	ld	r24, X+
    35d6:	9c 91       	ld	r25, X
    35d8:	17 97       	sbiw	r26, 0x07	; 7
    35da:	50 96       	adiw	r26, 0x10	; 16
    35dc:	6d 90       	ld	r6, X+
    35de:	7c 90       	ld	r7, X
    35e0:	51 97       	sbiw	r26, 0x11	; 17
    35e2:	61 14       	cp	r6, r1
    35e4:	71 04       	cpc	r7, r1
    35e6:	09 f4       	brne	.+2      	; 0x35ea <_ZN4core5go_stEv+0xde4>
    35e8:	02 c2       	rjmp	.+1028   	; 0x39ee <_ZN4core5go_stEv+0x11e8>
    35ea:	01 96       	adiw	r24, 0x01	; 1
    35ec:	f3 01       	movw	r30, r6
    35ee:	26 81       	ldd	r18, Z+6	; 0x06
    35f0:	37 81       	ldd	r19, Z+7	; 0x07
    35f2:	82 17       	cp	r24, r18
    35f4:	93 07       	cpc	r25, r19
    35f6:	14 f4       	brge	.+4      	; 0x35fc <_ZN4core5go_stEv+0xdf6>
    35f8:	86 83       	std	Z+6, r24	; 0x06
    35fa:	97 83       	std	Z+7, r25	; 0x07
    35fc:	ab 81       	ldd	r26, Y+3	; 0x03
    35fe:	bc 81       	ldd	r27, Y+4	; 0x04
    3600:	1e 96       	adiw	r26, 0x0e	; 14
    3602:	2c 91       	ld	r18, X
    3604:	1e 97       	sbiw	r26, 0x0e	; 14
    3606:	f3 01       	movw	r30, r6
    3608:	80 8d       	ldd	r24, Z+24	; 0x18
    360a:	82 17       	cp	r24, r18
    360c:	09 f4       	brne	.+2      	; 0x3610 <_ZN4core5go_stEv+0xe0a>
    360e:	ef c1       	rjmp	.+990    	; 0x39ee <_ZN4core5go_stEv+0x11e8>
    3610:	53 96       	adiw	r26, 0x13	; 19
    3612:	8d 91       	ld	r24, X+
    3614:	9c 91       	ld	r25, X
    3616:	54 97       	sbiw	r26, 0x14	; 20
    3618:	01 96       	adiw	r24, 0x01	; 1
    361a:	53 96       	adiw	r26, 0x13	; 19
    361c:	8d 93       	st	X+, r24
    361e:	9c 93       	st	X, r25
    3620:	54 97       	sbiw	r26, 0x14	; 20
    3622:	80 81       	ld	r24, Z
    3624:	91 81       	ldd	r25, Z+1	; 0x01
    3626:	c8 16       	cp	r12, r24
    3628:	d9 06       	cpc	r13, r25
    362a:	71 f4       	brne	.+28     	; 0x3648 <_ZN4core5go_stEv+0xe42>
    362c:	82 81       	ldd	r24, Z+2	; 0x02
    362e:	93 81       	ldd	r25, Z+3	; 0x03
    3630:	a8 16       	cp	r10, r24
    3632:	b9 06       	cpc	r11, r25
    3634:	49 f4       	brne	.+18     	; 0x3648 <_ZN4core5go_stEv+0xe42>
    3636:	84 81       	ldd	r24, Z+4	; 0x04
    3638:	95 81       	ldd	r25, Z+5	; 0x05
    363a:	88 16       	cp	r8, r24
    363c:	99 06       	cpc	r9, r25
    363e:	21 f4       	brne	.+8      	; 0x3648 <_ZN4core5go_stEv+0xe42>
    3640:	1f 96       	adiw	r26, 0x0f	; 15
    3642:	6d 92       	st	X+, r6
    3644:	7c 92       	st	X, r7
    3646:	50 97       	sbiw	r26, 0x10	; 16
    3648:	d3 01       	movw	r26, r6
    364a:	58 96       	adiw	r26, 0x18	; 24
    364c:	2c 93       	st	X, r18
    364e:	58 97       	sbiw	r26, 0x18	; 24
    3650:	16 96       	adiw	r26, 0x06	; 6
    3652:	8d 91       	ld	r24, X+
    3654:	9c 91       	ld	r25, X
    3656:	17 97       	sbiw	r26, 0x07	; 7
    3658:	1a 96       	adiw	r26, 0x0a	; 10
    365a:	2d 90       	ld	r2, X+
    365c:	3c 90       	ld	r3, X
    365e:	1b 97       	sbiw	r26, 0x0b	; 11
    3660:	21 14       	cp	r2, r1
    3662:	31 04       	cpc	r3, r1
    3664:	09 f4       	brne	.+2      	; 0x3668 <_ZN4core5go_stEv+0xe62>
    3666:	67 c0       	rjmp	.+206    	; 0x3736 <_ZN4core5go_stEv+0xf30>
    3668:	01 96       	adiw	r24, 0x01	; 1
    366a:	f1 01       	movw	r30, r2
    366c:	26 81       	ldd	r18, Z+6	; 0x06
    366e:	37 81       	ldd	r19, Z+7	; 0x07
    3670:	82 17       	cp	r24, r18
    3672:	93 07       	cpc	r25, r19
    3674:	14 f4       	brge	.+4      	; 0x367a <_ZN4core5go_stEv+0xe74>
    3676:	86 83       	std	Z+6, r24	; 0x06
    3678:	97 83       	std	Z+7, r25	; 0x07
    367a:	ab 81       	ldd	r26, Y+3	; 0x03
    367c:	bc 81       	ldd	r27, Y+4	; 0x04
    367e:	1e 96       	adiw	r26, 0x0e	; 14
    3680:	2c 91       	ld	r18, X
    3682:	1e 97       	sbiw	r26, 0x0e	; 14
    3684:	f1 01       	movw	r30, r2
    3686:	80 8d       	ldd	r24, Z+24	; 0x18
    3688:	82 17       	cp	r24, r18
    368a:	09 f4       	brne	.+2      	; 0x368e <_ZN4core5go_stEv+0xe88>
    368c:	54 c0       	rjmp	.+168    	; 0x3736 <_ZN4core5go_stEv+0xf30>
    368e:	53 96       	adiw	r26, 0x13	; 19
    3690:	8d 91       	ld	r24, X+
    3692:	9c 91       	ld	r25, X
    3694:	54 97       	sbiw	r26, 0x14	; 20
    3696:	01 96       	adiw	r24, 0x01	; 1
    3698:	53 96       	adiw	r26, 0x13	; 19
    369a:	8d 93       	st	X+, r24
    369c:	9c 93       	st	X, r25
    369e:	54 97       	sbiw	r26, 0x14	; 20
    36a0:	80 81       	ld	r24, Z
    36a2:	91 81       	ldd	r25, Z+1	; 0x01
    36a4:	c8 16       	cp	r12, r24
    36a6:	d9 06       	cpc	r13, r25
    36a8:	71 f4       	brne	.+28     	; 0x36c6 <_ZN4core5go_stEv+0xec0>
    36aa:	82 81       	ldd	r24, Z+2	; 0x02
    36ac:	93 81       	ldd	r25, Z+3	; 0x03
    36ae:	a8 16       	cp	r10, r24
    36b0:	b9 06       	cpc	r11, r25
    36b2:	49 f4       	brne	.+18     	; 0x36c6 <_ZN4core5go_stEv+0xec0>
    36b4:	84 81       	ldd	r24, Z+4	; 0x04
    36b6:	95 81       	ldd	r25, Z+5	; 0x05
    36b8:	88 16       	cp	r8, r24
    36ba:	99 06       	cpc	r9, r25
    36bc:	21 f4       	brne	.+8      	; 0x36c6 <_ZN4core5go_stEv+0xec0>
    36be:	1f 96       	adiw	r26, 0x0f	; 15
    36c0:	2d 92       	st	X+, r2
    36c2:	3c 92       	st	X, r3
    36c4:	50 97       	sbiw	r26, 0x10	; 16
    36c6:	d1 01       	movw	r26, r2
    36c8:	58 96       	adiw	r26, 0x18	; 24
    36ca:	2c 93       	st	X, r18
    36cc:	58 97       	sbiw	r26, 0x18	; 24
    36ce:	16 96       	adiw	r26, 0x06	; 6
    36d0:	ed 90       	ld	r14, X+
    36d2:	fc 90       	ld	r15, X
    36d4:	17 97       	sbiw	r26, 0x07	; 7
    36d6:	1a 96       	adiw	r26, 0x0a	; 10
    36d8:	6d 91       	ld	r22, X+
    36da:	7c 91       	ld	r23, X
    36dc:	1b 97       	sbiw	r26, 0x0b	; 11
    36de:	84 01       	movw	r16, r8
    36e0:	95 01       	movw	r18, r10
    36e2:	a6 01       	movw	r20, r12
    36e4:	8b 81       	ldd	r24, Y+3	; 0x03
    36e6:	9c 81       	ldd	r25, Y+4	; 0x04
    36e8:	0e 94 42 01 	call	0x284	; 0x284 <_ZN4core3dfsEP4nodeiiii>
    36ec:	f1 01       	movw	r30, r2
    36ee:	e6 80       	ldd	r14, Z+6	; 0x06
    36f0:	f7 80       	ldd	r15, Z+7	; 0x07
    36f2:	64 85       	ldd	r22, Z+12	; 0x0c
    36f4:	75 85       	ldd	r23, Z+13	; 0x0d
    36f6:	95 01       	movw	r18, r10
    36f8:	a6 01       	movw	r20, r12
    36fa:	8b 81       	ldd	r24, Y+3	; 0x03
    36fc:	9c 81       	ldd	r25, Y+4	; 0x04
    36fe:	0e 94 42 01 	call	0x284	; 0x284 <_ZN4core3dfsEP4nodeiiii>
    3702:	d1 01       	movw	r26, r2
    3704:	16 96       	adiw	r26, 0x06	; 6
    3706:	ed 90       	ld	r14, X+
    3708:	fc 90       	ld	r15, X
    370a:	17 97       	sbiw	r26, 0x07	; 7
    370c:	1e 96       	adiw	r26, 0x0e	; 14
    370e:	6d 91       	ld	r22, X+
    3710:	7c 91       	ld	r23, X
    3712:	1f 97       	sbiw	r26, 0x0f	; 15
    3714:	95 01       	movw	r18, r10
    3716:	a6 01       	movw	r20, r12
    3718:	8b 81       	ldd	r24, Y+3	; 0x03
    371a:	9c 81       	ldd	r25, Y+4	; 0x04
    371c:	0e 94 42 01 	call	0x284	; 0x284 <_ZN4core3dfsEP4nodeiiii>
    3720:	f1 01       	movw	r30, r2
    3722:	e6 80       	ldd	r14, Z+6	; 0x06
    3724:	f7 80       	ldd	r15, Z+7	; 0x07
    3726:	60 89       	ldd	r22, Z+16	; 0x10
    3728:	71 89       	ldd	r23, Z+17	; 0x11
    372a:	95 01       	movw	r18, r10
    372c:	a6 01       	movw	r20, r12
    372e:	8b 81       	ldd	r24, Y+3	; 0x03
    3730:	9c 81       	ldd	r25, Y+4	; 0x04
    3732:	0e 94 42 01 	call	0x284	; 0x284 <_ZN4core3dfsEP4nodeiiii>
    3736:	d3 01       	movw	r26, r6
    3738:	16 96       	adiw	r26, 0x06	; 6
    373a:	8d 91       	ld	r24, X+
    373c:	9c 91       	ld	r25, X
    373e:	17 97       	sbiw	r26, 0x07	; 7
    3740:	1c 96       	adiw	r26, 0x0c	; 12
    3742:	2d 90       	ld	r2, X+
    3744:	3c 90       	ld	r3, X
    3746:	1d 97       	sbiw	r26, 0x0d	; 13
    3748:	21 14       	cp	r2, r1
    374a:	31 04       	cpc	r3, r1
    374c:	09 f4       	brne	.+2      	; 0x3750 <_ZN4core5go_stEv+0xf4a>
    374e:	67 c0       	rjmp	.+206    	; 0x381e <_ZN4core5go_stEv+0x1018>
    3750:	01 96       	adiw	r24, 0x01	; 1
    3752:	f1 01       	movw	r30, r2
    3754:	26 81       	ldd	r18, Z+6	; 0x06
    3756:	37 81       	ldd	r19, Z+7	; 0x07
    3758:	82 17       	cp	r24, r18
    375a:	93 07       	cpc	r25, r19
    375c:	14 f4       	brge	.+4      	; 0x3762 <_ZN4core5go_stEv+0xf5c>
    375e:	86 83       	std	Z+6, r24	; 0x06
    3760:	97 83       	std	Z+7, r25	; 0x07
    3762:	ab 81       	ldd	r26, Y+3	; 0x03
    3764:	bc 81       	ldd	r27, Y+4	; 0x04
    3766:	1e 96       	adiw	r26, 0x0e	; 14
    3768:	2c 91       	ld	r18, X
    376a:	1e 97       	sbiw	r26, 0x0e	; 14
    376c:	f1 01       	movw	r30, r2
    376e:	80 8d       	ldd	r24, Z+24	; 0x18
    3770:	82 17       	cp	r24, r18
    3772:	09 f4       	brne	.+2      	; 0x3776 <_ZN4core5go_stEv+0xf70>
    3774:	54 c0       	rjmp	.+168    	; 0x381e <_ZN4core5go_stEv+0x1018>
    3776:	53 96       	adiw	r26, 0x13	; 19
    3778:	8d 91       	ld	r24, X+
    377a:	9c 91       	ld	r25, X
    377c:	54 97       	sbiw	r26, 0x14	; 20
    377e:	01 96       	adiw	r24, 0x01	; 1
    3780:	53 96       	adiw	r26, 0x13	; 19
    3782:	8d 93       	st	X+, r24
    3784:	9c 93       	st	X, r25
    3786:	54 97       	sbiw	r26, 0x14	; 20
    3788:	80 81       	ld	r24, Z
    378a:	91 81       	ldd	r25, Z+1	; 0x01
    378c:	c8 16       	cp	r12, r24
    378e:	d9 06       	cpc	r13, r25
    3790:	71 f4       	brne	.+28     	; 0x37ae <_ZN4core5go_stEv+0xfa8>
    3792:	82 81       	ldd	r24, Z+2	; 0x02
    3794:	93 81       	ldd	r25, Z+3	; 0x03
    3796:	a8 16       	cp	r10, r24
    3798:	b9 06       	cpc	r11, r25
    379a:	49 f4       	brne	.+18     	; 0x37ae <_ZN4core5go_stEv+0xfa8>
    379c:	84 81       	ldd	r24, Z+4	; 0x04
    379e:	95 81       	ldd	r25, Z+5	; 0x05
    37a0:	88 16       	cp	r8, r24
    37a2:	99 06       	cpc	r9, r25
    37a4:	21 f4       	brne	.+8      	; 0x37ae <_ZN4core5go_stEv+0xfa8>
    37a6:	1f 96       	adiw	r26, 0x0f	; 15
    37a8:	2d 92       	st	X+, r2
    37aa:	3c 92       	st	X, r3
    37ac:	50 97       	sbiw	r26, 0x10	; 16
    37ae:	d1 01       	movw	r26, r2
    37b0:	58 96       	adiw	r26, 0x18	; 24
    37b2:	2c 93       	st	X, r18
    37b4:	58 97       	sbiw	r26, 0x18	; 24
    37b6:	16 96       	adiw	r26, 0x06	; 6
    37b8:	ed 90       	ld	r14, X+
    37ba:	fc 90       	ld	r15, X
    37bc:	17 97       	sbiw	r26, 0x07	; 7
    37be:	1a 96       	adiw	r26, 0x0a	; 10
    37c0:	6d 91       	ld	r22, X+
    37c2:	7c 91       	ld	r23, X
    37c4:	1b 97       	sbiw	r26, 0x0b	; 11
    37c6:	84 01       	movw	r16, r8
    37c8:	95 01       	movw	r18, r10
    37ca:	a6 01       	movw	r20, r12
    37cc:	8b 81       	ldd	r24, Y+3	; 0x03
    37ce:	9c 81       	ldd	r25, Y+4	; 0x04
    37d0:	0e 94 42 01 	call	0x284	; 0x284 <_ZN4core3dfsEP4nodeiiii>
    37d4:	f1 01       	movw	r30, r2
    37d6:	e6 80       	ldd	r14, Z+6	; 0x06
    37d8:	f7 80       	ldd	r15, Z+7	; 0x07
    37da:	64 85       	ldd	r22, Z+12	; 0x0c
    37dc:	75 85       	ldd	r23, Z+13	; 0x0d
    37de:	95 01       	movw	r18, r10
    37e0:	a6 01       	movw	r20, r12
    37e2:	8b 81       	ldd	r24, Y+3	; 0x03
    37e4:	9c 81       	ldd	r25, Y+4	; 0x04
    37e6:	0e 94 42 01 	call	0x284	; 0x284 <_ZN4core3dfsEP4nodeiiii>
    37ea:	d1 01       	movw	r26, r2
    37ec:	16 96       	adiw	r26, 0x06	; 6
    37ee:	ed 90       	ld	r14, X+
    37f0:	fc 90       	ld	r15, X
    37f2:	17 97       	sbiw	r26, 0x07	; 7
    37f4:	1e 96       	adiw	r26, 0x0e	; 14
    37f6:	6d 91       	ld	r22, X+
    37f8:	7c 91       	ld	r23, X
    37fa:	1f 97       	sbiw	r26, 0x0f	; 15
    37fc:	95 01       	movw	r18, r10
    37fe:	a6 01       	movw	r20, r12
    3800:	8b 81       	ldd	r24, Y+3	; 0x03
    3802:	9c 81       	ldd	r25, Y+4	; 0x04
    3804:	0e 94 42 01 	call	0x284	; 0x284 <_ZN4core3dfsEP4nodeiiii>
    3808:	f1 01       	movw	r30, r2
    380a:	e6 80       	ldd	r14, Z+6	; 0x06
    380c:	f7 80       	ldd	r15, Z+7	; 0x07
    380e:	60 89       	ldd	r22, Z+16	; 0x10
    3810:	71 89       	ldd	r23, Z+17	; 0x11
    3812:	95 01       	movw	r18, r10
    3814:	a6 01       	movw	r20, r12
    3816:	8b 81       	ldd	r24, Y+3	; 0x03
    3818:	9c 81       	ldd	r25, Y+4	; 0x04
    381a:	0e 94 42 01 	call	0x284	; 0x284 <_ZN4core3dfsEP4nodeiiii>
    381e:	d3 01       	movw	r26, r6
    3820:	16 96       	adiw	r26, 0x06	; 6
    3822:	8d 91       	ld	r24, X+
    3824:	9c 91       	ld	r25, X
    3826:	17 97       	sbiw	r26, 0x07	; 7
    3828:	1e 96       	adiw	r26, 0x0e	; 14
    382a:	2d 90       	ld	r2, X+
    382c:	3c 90       	ld	r3, X
    382e:	1f 97       	sbiw	r26, 0x0f	; 15
    3830:	21 14       	cp	r2, r1
    3832:	31 04       	cpc	r3, r1
    3834:	09 f4       	brne	.+2      	; 0x3838 <_ZN4core5go_stEv+0x1032>
    3836:	67 c0       	rjmp	.+206    	; 0x3906 <_ZN4core5go_stEv+0x1100>
    3838:	01 96       	adiw	r24, 0x01	; 1
    383a:	f1 01       	movw	r30, r2
    383c:	26 81       	ldd	r18, Z+6	; 0x06
    383e:	37 81       	ldd	r19, Z+7	; 0x07
    3840:	82 17       	cp	r24, r18
    3842:	93 07       	cpc	r25, r19
    3844:	14 f4       	brge	.+4      	; 0x384a <_ZN4core5go_stEv+0x1044>
    3846:	86 83       	std	Z+6, r24	; 0x06
    3848:	97 83       	std	Z+7, r25	; 0x07
    384a:	ab 81       	ldd	r26, Y+3	; 0x03
    384c:	bc 81       	ldd	r27, Y+4	; 0x04
    384e:	1e 96       	adiw	r26, 0x0e	; 14
    3850:	2c 91       	ld	r18, X
    3852:	1e 97       	sbiw	r26, 0x0e	; 14
    3854:	f1 01       	movw	r30, r2
    3856:	80 8d       	ldd	r24, Z+24	; 0x18
    3858:	82 17       	cp	r24, r18
    385a:	09 f4       	brne	.+2      	; 0x385e <_ZN4core5go_stEv+0x1058>
    385c:	54 c0       	rjmp	.+168    	; 0x3906 <_ZN4core5go_stEv+0x1100>
    385e:	53 96       	adiw	r26, 0x13	; 19
    3860:	8d 91       	ld	r24, X+
    3862:	9c 91       	ld	r25, X
    3864:	54 97       	sbiw	r26, 0x14	; 20
    3866:	01 96       	adiw	r24, 0x01	; 1
    3868:	53 96       	adiw	r26, 0x13	; 19
    386a:	8d 93       	st	X+, r24
    386c:	9c 93       	st	X, r25
    386e:	54 97       	sbiw	r26, 0x14	; 20
    3870:	80 81       	ld	r24, Z
    3872:	91 81       	ldd	r25, Z+1	; 0x01
    3874:	c8 16       	cp	r12, r24
    3876:	d9 06       	cpc	r13, r25
    3878:	71 f4       	brne	.+28     	; 0x3896 <_ZN4core5go_stEv+0x1090>
    387a:	82 81       	ldd	r24, Z+2	; 0x02
    387c:	93 81       	ldd	r25, Z+3	; 0x03
    387e:	a8 16       	cp	r10, r24
    3880:	b9 06       	cpc	r11, r25
    3882:	49 f4       	brne	.+18     	; 0x3896 <_ZN4core5go_stEv+0x1090>
    3884:	84 81       	ldd	r24, Z+4	; 0x04
    3886:	95 81       	ldd	r25, Z+5	; 0x05
    3888:	88 16       	cp	r8, r24
    388a:	99 06       	cpc	r9, r25
    388c:	21 f4       	brne	.+8      	; 0x3896 <_ZN4core5go_stEv+0x1090>
    388e:	1f 96       	adiw	r26, 0x0f	; 15
    3890:	2d 92       	st	X+, r2
    3892:	3c 92       	st	X, r3
    3894:	50 97       	sbiw	r26, 0x10	; 16
    3896:	d1 01       	movw	r26, r2
    3898:	58 96       	adiw	r26, 0x18	; 24
    389a:	2c 93       	st	X, r18
    389c:	58 97       	sbiw	r26, 0x18	; 24
    389e:	16 96       	adiw	r26, 0x06	; 6
    38a0:	ed 90       	ld	r14, X+
    38a2:	fc 90       	ld	r15, X
    38a4:	17 97       	sbiw	r26, 0x07	; 7
    38a6:	1a 96       	adiw	r26, 0x0a	; 10
    38a8:	6d 91       	ld	r22, X+
    38aa:	7c 91       	ld	r23, X
    38ac:	1b 97       	sbiw	r26, 0x0b	; 11
    38ae:	84 01       	movw	r16, r8
    38b0:	95 01       	movw	r18, r10
    38b2:	a6 01       	movw	r20, r12
    38b4:	8b 81       	ldd	r24, Y+3	; 0x03
    38b6:	9c 81       	ldd	r25, Y+4	; 0x04
    38b8:	0e 94 42 01 	call	0x284	; 0x284 <_ZN4core3dfsEP4nodeiiii>
    38bc:	f1 01       	movw	r30, r2
    38be:	e6 80       	ldd	r14, Z+6	; 0x06
    38c0:	f7 80       	ldd	r15, Z+7	; 0x07
    38c2:	64 85       	ldd	r22, Z+12	; 0x0c
    38c4:	75 85       	ldd	r23, Z+13	; 0x0d
    38c6:	95 01       	movw	r18, r10
    38c8:	a6 01       	movw	r20, r12
    38ca:	8b 81       	ldd	r24, Y+3	; 0x03
    38cc:	9c 81       	ldd	r25, Y+4	; 0x04
    38ce:	0e 94 42 01 	call	0x284	; 0x284 <_ZN4core3dfsEP4nodeiiii>
    38d2:	d1 01       	movw	r26, r2
    38d4:	16 96       	adiw	r26, 0x06	; 6
    38d6:	ed 90       	ld	r14, X+
    38d8:	fc 90       	ld	r15, X
    38da:	17 97       	sbiw	r26, 0x07	; 7
    38dc:	1e 96       	adiw	r26, 0x0e	; 14
    38de:	6d 91       	ld	r22, X+
    38e0:	7c 91       	ld	r23, X
    38e2:	1f 97       	sbiw	r26, 0x0f	; 15
    38e4:	95 01       	movw	r18, r10
    38e6:	a6 01       	movw	r20, r12
    38e8:	8b 81       	ldd	r24, Y+3	; 0x03
    38ea:	9c 81       	ldd	r25, Y+4	; 0x04
    38ec:	0e 94 42 01 	call	0x284	; 0x284 <_ZN4core3dfsEP4nodeiiii>
    38f0:	f1 01       	movw	r30, r2
    38f2:	e6 80       	ldd	r14, Z+6	; 0x06
    38f4:	f7 80       	ldd	r15, Z+7	; 0x07
    38f6:	60 89       	ldd	r22, Z+16	; 0x10
    38f8:	71 89       	ldd	r23, Z+17	; 0x11
    38fa:	95 01       	movw	r18, r10
    38fc:	a6 01       	movw	r20, r12
    38fe:	8b 81       	ldd	r24, Y+3	; 0x03
    3900:	9c 81       	ldd	r25, Y+4	; 0x04
    3902:	0e 94 42 01 	call	0x284	; 0x284 <_ZN4core3dfsEP4nodeiiii>
    3906:	d3 01       	movw	r26, r6
    3908:	16 96       	adiw	r26, 0x06	; 6
    390a:	8d 91       	ld	r24, X+
    390c:	9c 91       	ld	r25, X
    390e:	17 97       	sbiw	r26, 0x07	; 7
    3910:	50 96       	adiw	r26, 0x10	; 16
    3912:	6d 90       	ld	r6, X+
    3914:	7c 90       	ld	r7, X
    3916:	51 97       	sbiw	r26, 0x11	; 17
    3918:	61 14       	cp	r6, r1
    391a:	71 04       	cpc	r7, r1
    391c:	09 f4       	brne	.+2      	; 0x3920 <_ZN4core5go_stEv+0x111a>
    391e:	67 c0       	rjmp	.+206    	; 0x39ee <_ZN4core5go_stEv+0x11e8>
    3920:	01 96       	adiw	r24, 0x01	; 1
    3922:	f3 01       	movw	r30, r6
    3924:	26 81       	ldd	r18, Z+6	; 0x06
    3926:	37 81       	ldd	r19, Z+7	; 0x07
    3928:	82 17       	cp	r24, r18
    392a:	93 07       	cpc	r25, r19
    392c:	14 f4       	brge	.+4      	; 0x3932 <_ZN4core5go_stEv+0x112c>
    392e:	86 83       	std	Z+6, r24	; 0x06
    3930:	97 83       	std	Z+7, r25	; 0x07
    3932:	ab 81       	ldd	r26, Y+3	; 0x03
    3934:	bc 81       	ldd	r27, Y+4	; 0x04
    3936:	1e 96       	adiw	r26, 0x0e	; 14
    3938:	2c 91       	ld	r18, X
    393a:	1e 97       	sbiw	r26, 0x0e	; 14
    393c:	f3 01       	movw	r30, r6
    393e:	80 8d       	ldd	r24, Z+24	; 0x18
    3940:	82 17       	cp	r24, r18
    3942:	09 f4       	brne	.+2      	; 0x3946 <_ZN4core5go_stEv+0x1140>
    3944:	54 c0       	rjmp	.+168    	; 0x39ee <_ZN4core5go_stEv+0x11e8>
    3946:	53 96       	adiw	r26, 0x13	; 19
    3948:	8d 91       	ld	r24, X+
    394a:	9c 91       	ld	r25, X
    394c:	54 97       	sbiw	r26, 0x14	; 20
    394e:	01 96       	adiw	r24, 0x01	; 1
    3950:	53 96       	adiw	r26, 0x13	; 19
    3952:	8d 93       	st	X+, r24
    3954:	9c 93       	st	X, r25
    3956:	54 97       	sbiw	r26, 0x14	; 20
    3958:	80 81       	ld	r24, Z
    395a:	91 81       	ldd	r25, Z+1	; 0x01
    395c:	c8 16       	cp	r12, r24
    395e:	d9 06       	cpc	r13, r25
    3960:	71 f4       	brne	.+28     	; 0x397e <_ZN4core5go_stEv+0x1178>
    3962:	82 81       	ldd	r24, Z+2	; 0x02
    3964:	93 81       	ldd	r25, Z+3	; 0x03
    3966:	a8 16       	cp	r10, r24
    3968:	b9 06       	cpc	r11, r25
    396a:	49 f4       	brne	.+18     	; 0x397e <_ZN4core5go_stEv+0x1178>
    396c:	84 81       	ldd	r24, Z+4	; 0x04
    396e:	95 81       	ldd	r25, Z+5	; 0x05
    3970:	88 16       	cp	r8, r24
    3972:	99 06       	cpc	r9, r25
    3974:	21 f4       	brne	.+8      	; 0x397e <_ZN4core5go_stEv+0x1178>
    3976:	1f 96       	adiw	r26, 0x0f	; 15
    3978:	6d 92       	st	X+, r6
    397a:	7c 92       	st	X, r7
    397c:	50 97       	sbiw	r26, 0x10	; 16
    397e:	d3 01       	movw	r26, r6
    3980:	58 96       	adiw	r26, 0x18	; 24
    3982:	2c 93       	st	X, r18
    3984:	58 97       	sbiw	r26, 0x18	; 24
    3986:	16 96       	adiw	r26, 0x06	; 6
    3988:	ed 90       	ld	r14, X+
    398a:	fc 90       	ld	r15, X
    398c:	17 97       	sbiw	r26, 0x07	; 7
    398e:	1a 96       	adiw	r26, 0x0a	; 10
    3990:	6d 91       	ld	r22, X+
    3992:	7c 91       	ld	r23, X
    3994:	1b 97       	sbiw	r26, 0x0b	; 11
    3996:	84 01       	movw	r16, r8
    3998:	95 01       	movw	r18, r10
    399a:	a6 01       	movw	r20, r12
    399c:	8b 81       	ldd	r24, Y+3	; 0x03
    399e:	9c 81       	ldd	r25, Y+4	; 0x04
    39a0:	0e 94 42 01 	call	0x284	; 0x284 <_ZN4core3dfsEP4nodeiiii>
    39a4:	f3 01       	movw	r30, r6
    39a6:	e6 80       	ldd	r14, Z+6	; 0x06
    39a8:	f7 80       	ldd	r15, Z+7	; 0x07
    39aa:	64 85       	ldd	r22, Z+12	; 0x0c
    39ac:	75 85       	ldd	r23, Z+13	; 0x0d
    39ae:	95 01       	movw	r18, r10
    39b0:	a6 01       	movw	r20, r12
    39b2:	8b 81       	ldd	r24, Y+3	; 0x03
    39b4:	9c 81       	ldd	r25, Y+4	; 0x04
    39b6:	0e 94 42 01 	call	0x284	; 0x284 <_ZN4core3dfsEP4nodeiiii>
    39ba:	d3 01       	movw	r26, r6
    39bc:	16 96       	adiw	r26, 0x06	; 6
    39be:	ed 90       	ld	r14, X+
    39c0:	fc 90       	ld	r15, X
    39c2:	17 97       	sbiw	r26, 0x07	; 7
    39c4:	1e 96       	adiw	r26, 0x0e	; 14
    39c6:	6d 91       	ld	r22, X+
    39c8:	7c 91       	ld	r23, X
    39ca:	1f 97       	sbiw	r26, 0x0f	; 15
    39cc:	95 01       	movw	r18, r10
    39ce:	a6 01       	movw	r20, r12
    39d0:	8b 81       	ldd	r24, Y+3	; 0x03
    39d2:	9c 81       	ldd	r25, Y+4	; 0x04
    39d4:	0e 94 42 01 	call	0x284	; 0x284 <_ZN4core3dfsEP4nodeiiii>
    39d8:	f3 01       	movw	r30, r6
    39da:	e6 80       	ldd	r14, Z+6	; 0x06
    39dc:	f7 80       	ldd	r15, Z+7	; 0x07
    39de:	60 89       	ldd	r22, Z+16	; 0x10
    39e0:	71 89       	ldd	r23, Z+17	; 0x11
    39e2:	95 01       	movw	r18, r10
    39e4:	a6 01       	movw	r20, r12
    39e6:	8b 81       	ldd	r24, Y+3	; 0x03
    39e8:	9c 81       	ldd	r25, Y+4	; 0x04
    39ea:	0e 94 42 01 	call	0x284	; 0x284 <_ZN4core3dfsEP4nodeiiii>
    39ee:	ab 81       	ldd	r26, Y+3	; 0x03
    39f0:	bc 81       	ldd	r27, Y+4	; 0x04
    39f2:	1e 96       	adiw	r26, 0x0e	; 14
    39f4:	8c 91       	ld	r24, X
    39f6:	90 e0       	ldi	r25, 0x00	; 0
    39f8:	01 96       	adiw	r24, 0x01	; 1
    39fa:	81 70       	andi	r24, 0x01	; 1
    39fc:	90 78       	andi	r25, 0x80	; 128
    39fe:	99 23       	and	r25, r25
    3a00:	24 f4       	brge	.+8      	; 0x3a0a <_ZN4core5go_stEv+0x1204>
    3a02:	01 97       	sbiw	r24, 0x01	; 1
    3a04:	8e 6f       	ori	r24, 0xFE	; 254
    3a06:	9f 6f       	ori	r25, 0xFF	; 255
    3a08:	01 96       	adiw	r24, 0x01	; 1
    3a0a:	eb 81       	ldd	r30, Y+3	; 0x03
    3a0c:	fc 81       	ldd	r31, Y+4	; 0x04
    3a0e:	86 87       	std	Z+14, r24	; 0x0e
    3a10:	07 84       	ldd	r0, Z+15	; 0x0f
    3a12:	f0 89       	ldd	r31, Z+16	; 0x10
    3a14:	e0 2d       	mov	r30, r0
    3a16:	30 97       	sbiw	r30, 0x00	; 0
    3a18:	09 f0       	breq	.+2      	; 0x3a1c <_ZN4core5go_stEv+0x1216>
    3a1a:	58 c0       	rjmp	.+176    	; 0x3acc <_ZN4core5go_stEv+0x12c6>
    3a1c:	a7 ec       	ldi	r26, 0xC7	; 199
    3a1e:	b2 e2       	ldi	r27, 0x22	; 34
    3a20:	14 96       	adiw	r26, 0x04	; 4
    3a22:	2d 91       	ld	r18, X+
    3a24:	3c 91       	ld	r19, X
    3a26:	15 97       	sbiw	r26, 0x05	; 5
    3a28:	8d 91       	ld	r24, X+
    3a2a:	9c 91       	ld	r25, X
    3a2c:	01 97       	sbiw	r24, 0x01	; 1
    3a2e:	28 17       	cp	r18, r24
    3a30:	39 07       	cpc	r19, r25
    3a32:	74 f4       	brge	.+28     	; 0x3a50 <_ZN4core5go_stEv+0x124a>
    3a34:	2f 5f       	subi	r18, 0xFF	; 255
    3a36:	3f 4f       	sbci	r19, 0xFF	; 255
    3a38:	20 93 cb 22 	sts	0x22CB, r18	; 0x8022cb <mall+0x4>
    3a3c:	30 93 cc 22 	sts	0x22CC, r19	; 0x8022cc <mall+0x5>
    3a40:	8c e1       	ldi	r24, 0x1C	; 28
    3a42:	82 9f       	mul	r24, r18
    3a44:	f0 01       	movw	r30, r0
    3a46:	83 9f       	mul	r24, r19
    3a48:	f0 0d       	add	r31, r0
    3a4a:	11 24       	eor	r1, r1
    3a4c:	e3 53       	subi	r30, 0x33	; 51
    3a4e:	fd 4d       	sbci	r31, 0xDD	; 221
    3a50:	c0 82       	st	Z, r12
    3a52:	d1 82       	std	Z+1, r13	; 0x01
    3a54:	a2 82       	std	Z+2, r10	; 0x02
    3a56:	b3 82       	std	Z+3, r11	; 0x03
    3a58:	84 82       	std	Z+4, r8	; 0x04
    3a5a:	95 82       	std	Z+5, r9	; 0x05
    3a5c:	d2 01       	movw	r26, r4
    3a5e:	1a 96       	adiw	r26, 0x0a	; 10
    3a60:	8d 91       	ld	r24, X+
    3a62:	9c 91       	ld	r25, X
    3a64:	1b 97       	sbiw	r26, 0x0b	; 11
    3a66:	89 2b       	or	r24, r25
    3a68:	d9 f0       	breq	.+54     	; 0x3aa0 <_ZN4core5go_stEv+0x129a>
    3a6a:	1c 96       	adiw	r26, 0x0c	; 12
    3a6c:	8d 91       	ld	r24, X+
    3a6e:	9c 91       	ld	r25, X
    3a70:	1d 97       	sbiw	r26, 0x0d	; 13
    3a72:	89 2b       	or	r24, r25
    3a74:	79 f0       	breq	.+30     	; 0x3a94 <_ZN4core5go_stEv+0x128e>
    3a76:	1e 96       	adiw	r26, 0x0e	; 14
    3a78:	8d 91       	ld	r24, X+
    3a7a:	9c 91       	ld	r25, X
    3a7c:	1f 97       	sbiw	r26, 0x0f	; 15
    3a7e:	89 2b       	or	r24, r25
    3a80:	61 f0       	breq	.+24     	; 0x3a9a <_ZN4core5go_stEv+0x1294>
    3a82:	50 96       	adiw	r26, 0x10	; 16
    3a84:	8d 91       	ld	r24, X+
    3a86:	9c 91       	ld	r25, X
    3a88:	51 97       	sbiw	r26, 0x11	; 17
    3a8a:	89 2b       	or	r24, r25
    3a8c:	91 f4       	brne	.+36     	; 0x3ab2 <_ZN4core5go_stEv+0x12ac>
    3a8e:	a3 e0       	ldi	r26, 0x03	; 3
    3a90:	b0 e0       	ldi	r27, 0x00	; 0
    3a92:	08 c0       	rjmp	.+16     	; 0x3aa4 <_ZN4core5go_stEv+0x129e>
    3a94:	a1 e0       	ldi	r26, 0x01	; 1
    3a96:	b0 e0       	ldi	r27, 0x00	; 0
    3a98:	05 c0       	rjmp	.+10     	; 0x3aa4 <_ZN4core5go_stEv+0x129e>
    3a9a:	a2 e0       	ldi	r26, 0x02	; 2
    3a9c:	b0 e0       	ldi	r27, 0x00	; 0
    3a9e:	02 c0       	rjmp	.+4      	; 0x3aa4 <_ZN4core5go_stEv+0x129e>
    3aa0:	a0 e0       	ldi	r26, 0x00	; 0
    3aa2:	b0 e0       	ldi	r27, 0x00	; 0
    3aa4:	15 96       	adiw	r26, 0x05	; 5
    3aa6:	aa 0f       	add	r26, r26
    3aa8:	bb 1f       	adc	r27, r27
    3aaa:	a4 0d       	add	r26, r4
    3aac:	b5 1d       	adc	r27, r5
    3aae:	ed 93       	st	X+, r30
    3ab0:	fc 93       	st	X, r31
    3ab2:	d2 01       	movw	r26, r4
    3ab4:	16 96       	adiw	r26, 0x06	; 6
    3ab6:	8d 91       	ld	r24, X+
    3ab8:	9c 91       	ld	r25, X
    3aba:	17 97       	sbiw	r26, 0x07	; 7
    3abc:	01 96       	adiw	r24, 0x01	; 1
    3abe:	86 83       	std	Z+6, r24	; 0x06
    3ac0:	97 83       	std	Z+7, r25	; 0x07
    3ac2:	42 8a       	std	Z+18, r4	; 0x12
    3ac4:	53 8a       	std	Z+19, r5	; 0x13
    3ac6:	42 86       	std	Z+10, r4	; 0x0a
    3ac8:	53 86       	std	Z+11, r5	; 0x0b
    3aca:	ff c0       	rjmp	.+510    	; 0x3cca <_ZN4core5go_stEv+0x14c4>
    3acc:	d2 01       	movw	r26, r4
    3ace:	1a 96       	adiw	r26, 0x0a	; 10
    3ad0:	8d 91       	ld	r24, X+
    3ad2:	9c 91       	ld	r25, X
    3ad4:	1b 97       	sbiw	r26, 0x0b	; 11
    3ad6:	e8 17       	cp	r30, r24
    3ad8:	f9 07       	cpc	r31, r25
    3ada:	09 f4       	brne	.+2      	; 0x3ade <_ZN4core5go_stEv+0x12d8>
    3adc:	f6 c0       	rjmp	.+492    	; 0x3cca <_ZN4core5go_stEv+0x14c4>
    3ade:	1c 96       	adiw	r26, 0x0c	; 12
    3ae0:	2d 91       	ld	r18, X+
    3ae2:	3c 91       	ld	r19, X
    3ae4:	1d 97       	sbiw	r26, 0x0d	; 13
    3ae6:	e2 17       	cp	r30, r18
    3ae8:	f3 07       	cpc	r31, r19
    3aea:	09 f4       	brne	.+2      	; 0x3aee <_ZN4core5go_stEv+0x12e8>
    3aec:	ee c0       	rjmp	.+476    	; 0x3cca <_ZN4core5go_stEv+0x14c4>
    3aee:	1e 96       	adiw	r26, 0x0e	; 14
    3af0:	2d 91       	ld	r18, X+
    3af2:	3c 91       	ld	r19, X
    3af4:	1f 97       	sbiw	r26, 0x0f	; 15
    3af6:	e2 17       	cp	r30, r18
    3af8:	f3 07       	cpc	r31, r19
    3afa:	09 f4       	brne	.+2      	; 0x3afe <_ZN4core5go_stEv+0x12f8>
    3afc:	e6 c0       	rjmp	.+460    	; 0x3cca <_ZN4core5go_stEv+0x14c4>
    3afe:	50 96       	adiw	r26, 0x10	; 16
    3b00:	2d 91       	ld	r18, X+
    3b02:	3c 91       	ld	r19, X
    3b04:	51 97       	sbiw	r26, 0x11	; 17
    3b06:	e2 17       	cp	r30, r18
    3b08:	f3 07       	cpc	r31, r19
    3b0a:	09 f4       	brne	.+2      	; 0x3b0e <_ZN4core5go_stEv+0x1308>
    3b0c:	de c0       	rjmp	.+444    	; 0x3cca <_ZN4core5go_stEv+0x14c4>
    3b0e:	89 2b       	or	r24, r25
    3b10:	c1 f0       	breq	.+48     	; 0x3b42 <_ZN4core5go_stEv+0x133c>
    3b12:	1c 96       	adiw	r26, 0x0c	; 12
    3b14:	8d 91       	ld	r24, X+
    3b16:	9c 91       	ld	r25, X
    3b18:	1d 97       	sbiw	r26, 0x0d	; 13
    3b1a:	89 2b       	or	r24, r25
    3b1c:	61 f0       	breq	.+24     	; 0x3b36 <_ZN4core5go_stEv+0x1330>
    3b1e:	1e 96       	adiw	r26, 0x0e	; 14
    3b20:	8d 91       	ld	r24, X+
    3b22:	9c 91       	ld	r25, X
    3b24:	1f 97       	sbiw	r26, 0x0f	; 15
    3b26:	89 2b       	or	r24, r25
    3b28:	49 f0       	breq	.+18     	; 0x3b3c <_ZN4core5go_stEv+0x1336>
    3b2a:	c9 01       	movw	r24, r18
    3b2c:	89 2b       	or	r24, r25
    3b2e:	99 f4       	brne	.+38     	; 0x3b56 <_ZN4core5go_stEv+0x1350>
    3b30:	83 e0       	ldi	r24, 0x03	; 3
    3b32:	90 e0       	ldi	r25, 0x00	; 0
    3b34:	08 c0       	rjmp	.+16     	; 0x3b46 <_ZN4core5go_stEv+0x1340>
    3b36:	81 e0       	ldi	r24, 0x01	; 1
    3b38:	90 e0       	ldi	r25, 0x00	; 0
    3b3a:	05 c0       	rjmp	.+10     	; 0x3b46 <_ZN4core5go_stEv+0x1340>
    3b3c:	82 e0       	ldi	r24, 0x02	; 2
    3b3e:	90 e0       	ldi	r25, 0x00	; 0
    3b40:	02 c0       	rjmp	.+4      	; 0x3b46 <_ZN4core5go_stEv+0x1340>
    3b42:	80 e0       	ldi	r24, 0x00	; 0
    3b44:	90 e0       	ldi	r25, 0x00	; 0
    3b46:	dc 01       	movw	r26, r24
    3b48:	15 96       	adiw	r26, 0x05	; 5
    3b4a:	aa 0f       	add	r26, r26
    3b4c:	bb 1f       	adc	r27, r27
    3b4e:	a4 0d       	add	r26, r4
    3b50:	b5 1d       	adc	r27, r5
    3b52:	ed 93       	st	X+, r30
    3b54:	fc 93       	st	X, r31
    3b56:	82 85       	ldd	r24, Z+10	; 0x0a
    3b58:	93 85       	ldd	r25, Z+11	; 0x0b
    3b5a:	48 16       	cp	r4, r24
    3b5c:	59 06       	cpc	r5, r25
    3b5e:	71 f1       	breq	.+92     	; 0x3bbc <_ZN4core5go_stEv+0x13b6>
    3b60:	24 85       	ldd	r18, Z+12	; 0x0c
    3b62:	35 85       	ldd	r19, Z+13	; 0x0d
    3b64:	42 16       	cp	r4, r18
    3b66:	53 06       	cpc	r5, r19
    3b68:	49 f1       	breq	.+82     	; 0x3bbc <_ZN4core5go_stEv+0x13b6>
    3b6a:	26 85       	ldd	r18, Z+14	; 0x0e
    3b6c:	37 85       	ldd	r19, Z+15	; 0x0f
    3b6e:	42 16       	cp	r4, r18
    3b70:	53 06       	cpc	r5, r19
    3b72:	21 f1       	breq	.+72     	; 0x3bbc <_ZN4core5go_stEv+0x13b6>
    3b74:	20 89       	ldd	r18, Z+16	; 0x10
    3b76:	31 89       	ldd	r19, Z+17	; 0x11
    3b78:	42 16       	cp	r4, r18
    3b7a:	53 06       	cpc	r5, r19
    3b7c:	f9 f0       	breq	.+62     	; 0x3bbc <_ZN4core5go_stEv+0x13b6>
    3b7e:	89 2b       	or	r24, r25
    3b80:	a1 f0       	breq	.+40     	; 0x3baa <_ZN4core5go_stEv+0x13a4>
    3b82:	84 85       	ldd	r24, Z+12	; 0x0c
    3b84:	95 85       	ldd	r25, Z+13	; 0x0d
    3b86:	89 2b       	or	r24, r25
    3b88:	51 f0       	breq	.+20     	; 0x3b9e <_ZN4core5go_stEv+0x1398>
    3b8a:	86 85       	ldd	r24, Z+14	; 0x0e
    3b8c:	97 85       	ldd	r25, Z+15	; 0x0f
    3b8e:	89 2b       	or	r24, r25
    3b90:	49 f0       	breq	.+18     	; 0x3ba4 <_ZN4core5go_stEv+0x139e>
    3b92:	c9 01       	movw	r24, r18
    3b94:	89 2b       	or	r24, r25
    3b96:	91 f4       	brne	.+36     	; 0x3bbc <_ZN4core5go_stEv+0x13b6>
    3b98:	83 e0       	ldi	r24, 0x03	; 3
    3b9a:	90 e0       	ldi	r25, 0x00	; 0
    3b9c:	08 c0       	rjmp	.+16     	; 0x3bae <_ZN4core5go_stEv+0x13a8>
    3b9e:	81 e0       	ldi	r24, 0x01	; 1
    3ba0:	90 e0       	ldi	r25, 0x00	; 0
    3ba2:	05 c0       	rjmp	.+10     	; 0x3bae <_ZN4core5go_stEv+0x13a8>
    3ba4:	82 e0       	ldi	r24, 0x02	; 2
    3ba6:	90 e0       	ldi	r25, 0x00	; 0
    3ba8:	02 c0       	rjmp	.+4      	; 0x3bae <_ZN4core5go_stEv+0x13a8>
    3baa:	80 e0       	ldi	r24, 0x00	; 0
    3bac:	90 e0       	ldi	r25, 0x00	; 0
    3bae:	05 96       	adiw	r24, 0x05	; 5
    3bb0:	88 0f       	add	r24, r24
    3bb2:	99 1f       	adc	r25, r25
    3bb4:	e8 0f       	add	r30, r24
    3bb6:	f9 1f       	adc	r31, r25
    3bb8:	40 82       	st	Z, r4
    3bba:	51 82       	std	Z+1, r5	; 0x01
    3bbc:	eb 81       	ldd	r30, Y+3	; 0x03
    3bbe:	fc 81       	ldd	r31, Y+4	; 0x04
    3bc0:	13 8a       	std	Z+19, r1	; 0x13
    3bc2:	14 8a       	std	Z+20, r1	; 0x14
    3bc4:	17 86       	std	Z+15, r1	; 0x0f
    3bc6:	10 8a       	std	Z+16, r1	; 0x10
    3bc8:	62 80       	ldd	r6, Z+2	; 0x02
    3bca:	73 80       	ldd	r7, Z+3	; 0x03
    3bcc:	d3 01       	movw	r26, r6
    3bce:	16 96       	adiw	r26, 0x06	; 6
    3bd0:	8d 91       	ld	r24, X+
    3bd2:	9c 91       	ld	r25, X
    3bd4:	17 97       	sbiw	r26, 0x07	; 7
    3bd6:	61 14       	cp	r6, r1
    3bd8:	71 04       	cpc	r7, r1
    3bda:	09 f4       	brne	.+2      	; 0x3bde <_ZN4core5go_stEv+0x13d8>
    3bdc:	65 c0       	rjmp	.+202    	; 0x3ca8 <_ZN4core5go_stEv+0x14a2>
    3bde:	9c 01       	movw	r18, r24
    3be0:	2f 5f       	subi	r18, 0xFF	; 255
    3be2:	3f 4f       	sbci	r19, 0xFF	; 255
    3be4:	28 17       	cp	r18, r24
    3be6:	39 07       	cpc	r19, r25
    3be8:	24 f4       	brge	.+8      	; 0x3bf2 <_ZN4core5go_stEv+0x13ec>
    3bea:	16 96       	adiw	r26, 0x06	; 6
    3bec:	2d 93       	st	X+, r18
    3bee:	3c 93       	st	X, r19
    3bf0:	17 97       	sbiw	r26, 0x07	; 7
    3bf2:	eb 81       	ldd	r30, Y+3	; 0x03
    3bf4:	fc 81       	ldd	r31, Y+4	; 0x04
    3bf6:	26 85       	ldd	r18, Z+14	; 0x0e
    3bf8:	d3 01       	movw	r26, r6
    3bfa:	58 96       	adiw	r26, 0x18	; 24
    3bfc:	8c 91       	ld	r24, X
    3bfe:	58 97       	sbiw	r26, 0x18	; 24
    3c00:	82 17       	cp	r24, r18
    3c02:	09 f4       	brne	.+2      	; 0x3c06 <_ZN4core5go_stEv+0x1400>
    3c04:	51 c0       	rjmp	.+162    	; 0x3ca8 <_ZN4core5go_stEv+0x14a2>
    3c06:	83 89       	ldd	r24, Z+19	; 0x13
    3c08:	94 89       	ldd	r25, Z+20	; 0x14
    3c0a:	01 96       	adiw	r24, 0x01	; 1
    3c0c:	83 8b       	std	Z+19, r24	; 0x13
    3c0e:	94 8b       	std	Z+20, r25	; 0x14
    3c10:	8d 91       	ld	r24, X+
    3c12:	9c 91       	ld	r25, X
    3c14:	11 97       	sbiw	r26, 0x01	; 1
    3c16:	c8 16       	cp	r12, r24
    3c18:	d9 06       	cpc	r13, r25
    3c1a:	81 f4       	brne	.+32     	; 0x3c3c <_ZN4core5go_stEv+0x1436>
    3c1c:	12 96       	adiw	r26, 0x02	; 2
    3c1e:	8d 91       	ld	r24, X+
    3c20:	9c 91       	ld	r25, X
    3c22:	13 97       	sbiw	r26, 0x03	; 3
    3c24:	a8 16       	cp	r10, r24
    3c26:	b9 06       	cpc	r11, r25
    3c28:	49 f4       	brne	.+18     	; 0x3c3c <_ZN4core5go_stEv+0x1436>
    3c2a:	14 96       	adiw	r26, 0x04	; 4
    3c2c:	8d 91       	ld	r24, X+
    3c2e:	9c 91       	ld	r25, X
    3c30:	15 97       	sbiw	r26, 0x05	; 5
    3c32:	88 16       	cp	r8, r24
    3c34:	99 06       	cpc	r9, r25
    3c36:	11 f4       	brne	.+4      	; 0x3c3c <_ZN4core5go_stEv+0x1436>
    3c38:	67 86       	std	Z+15, r6	; 0x0f
    3c3a:	70 8a       	std	Z+16, r7	; 0x10
    3c3c:	f3 01       	movw	r30, r6
    3c3e:	20 8f       	std	Z+24, r18	; 0x18
    3c40:	e6 80       	ldd	r14, Z+6	; 0x06
    3c42:	f7 80       	ldd	r15, Z+7	; 0x07
    3c44:	62 85       	ldd	r22, Z+10	; 0x0a
    3c46:	73 85       	ldd	r23, Z+11	; 0x0b
    3c48:	84 01       	movw	r16, r8
    3c4a:	95 01       	movw	r18, r10
    3c4c:	a6 01       	movw	r20, r12
    3c4e:	8b 81       	ldd	r24, Y+3	; 0x03
    3c50:	9c 81       	ldd	r25, Y+4	; 0x04
    3c52:	0e 94 42 01 	call	0x284	; 0x284 <_ZN4core3dfsEP4nodeiiii>
    3c56:	d3 01       	movw	r26, r6
    3c58:	16 96       	adiw	r26, 0x06	; 6
    3c5a:	ed 90       	ld	r14, X+
    3c5c:	fc 90       	ld	r15, X
    3c5e:	17 97       	sbiw	r26, 0x07	; 7
    3c60:	1c 96       	adiw	r26, 0x0c	; 12
    3c62:	6d 91       	ld	r22, X+
    3c64:	7c 91       	ld	r23, X
    3c66:	1d 97       	sbiw	r26, 0x0d	; 13
    3c68:	95 01       	movw	r18, r10
    3c6a:	a6 01       	movw	r20, r12
    3c6c:	8b 81       	ldd	r24, Y+3	; 0x03
    3c6e:	9c 81       	ldd	r25, Y+4	; 0x04
    3c70:	0e 94 42 01 	call	0x284	; 0x284 <_ZN4core3dfsEP4nodeiiii>
    3c74:	f3 01       	movw	r30, r6
    3c76:	e6 80       	ldd	r14, Z+6	; 0x06
    3c78:	f7 80       	ldd	r15, Z+7	; 0x07
    3c7a:	66 85       	ldd	r22, Z+14	; 0x0e
    3c7c:	77 85       	ldd	r23, Z+15	; 0x0f
    3c7e:	95 01       	movw	r18, r10
    3c80:	a6 01       	movw	r20, r12
    3c82:	8b 81       	ldd	r24, Y+3	; 0x03
    3c84:	9c 81       	ldd	r25, Y+4	; 0x04
    3c86:	0e 94 42 01 	call	0x284	; 0x284 <_ZN4core3dfsEP4nodeiiii>
    3c8a:	d3 01       	movw	r26, r6
    3c8c:	16 96       	adiw	r26, 0x06	; 6
    3c8e:	ed 90       	ld	r14, X+
    3c90:	fc 90       	ld	r15, X
    3c92:	17 97       	sbiw	r26, 0x07	; 7
    3c94:	50 96       	adiw	r26, 0x10	; 16
    3c96:	6d 91       	ld	r22, X+
    3c98:	7c 91       	ld	r23, X
    3c9a:	51 97       	sbiw	r26, 0x11	; 17
    3c9c:	95 01       	movw	r18, r10
    3c9e:	a6 01       	movw	r20, r12
    3ca0:	8b 81       	ldd	r24, Y+3	; 0x03
    3ca2:	9c 81       	ldd	r25, Y+4	; 0x04
    3ca4:	0e 94 42 01 	call	0x284	; 0x284 <_ZN4core3dfsEP4nodeiiii>
    3ca8:	eb 81       	ldd	r30, Y+3	; 0x03
    3caa:	fc 81       	ldd	r31, Y+4	; 0x04
    3cac:	86 85       	ldd	r24, Z+14	; 0x0e
    3cae:	90 e0       	ldi	r25, 0x00	; 0
    3cb0:	01 96       	adiw	r24, 0x01	; 1
    3cb2:	81 70       	andi	r24, 0x01	; 1
    3cb4:	90 78       	andi	r25, 0x80	; 128
    3cb6:	99 23       	and	r25, r25
    3cb8:	24 f4       	brge	.+8      	; 0x3cc2 <_ZN4core5go_stEv+0x14bc>
    3cba:	01 97       	sbiw	r24, 0x01	; 1
    3cbc:	8e 6f       	ori	r24, 0xFE	; 254
    3cbe:	9f 6f       	ori	r25, 0xFF	; 255
    3cc0:	01 96       	adiw	r24, 0x01	; 1
    3cc2:	ab 81       	ldd	r26, Y+3	; 0x03
    3cc4:	bc 81       	ldd	r27, Y+4	; 0x04
    3cc6:	1e 96       	adiw	r26, 0x0e	; 14
    3cc8:	8c 93       	st	X, r24
    3cca:	eb 81       	ldd	r30, Y+3	; 0x03
    3ccc:	fc 81       	ldd	r31, Y+4	; 0x04
    3cce:	13 8a       	std	Z+19, r1	; 0x13
    3cd0:	14 8a       	std	Z+20, r1	; 0x14
    3cd2:	17 86       	std	Z+15, r1	; 0x0f
    3cd4:	10 8a       	std	Z+16, r1	; 0x10
    3cd6:	62 80       	ldd	r6, Z+2	; 0x02
    3cd8:	73 80       	ldd	r7, Z+3	; 0x03
    3cda:	d3 01       	movw	r26, r6
    3cdc:	16 96       	adiw	r26, 0x06	; 6
    3cde:	8d 91       	ld	r24, X+
    3ce0:	9c 91       	ld	r25, X
    3ce2:	17 97       	sbiw	r26, 0x07	; 7
    3ce4:	61 14       	cp	r6, r1
    3ce6:	71 04       	cpc	r7, r1
    3ce8:	11 f4       	brne	.+4      	; 0x3cee <_ZN4core5go_stEv+0x14e8>
    3cea:	0c 94 a8 26 	jmp	0x4d50	; 0x4d50 <__stack+0xd51>
    3cee:	9c 01       	movw	r18, r24
    3cf0:	2f 5f       	subi	r18, 0xFF	; 255
    3cf2:	3f 4f       	sbci	r19, 0xFF	; 255
    3cf4:	28 17       	cp	r18, r24
    3cf6:	39 07       	cpc	r19, r25
    3cf8:	24 f4       	brge	.+8      	; 0x3d02 <_ZN4core5go_stEv+0x14fc>
    3cfa:	16 96       	adiw	r26, 0x06	; 6
    3cfc:	2d 93       	st	X+, r18
    3cfe:	3c 93       	st	X, r19
    3d00:	17 97       	sbiw	r26, 0x07	; 7
    3d02:	eb 81       	ldd	r30, Y+3	; 0x03
    3d04:	fc 81       	ldd	r31, Y+4	; 0x04
    3d06:	26 85       	ldd	r18, Z+14	; 0x0e
    3d08:	d3 01       	movw	r26, r6
    3d0a:	58 96       	adiw	r26, 0x18	; 24
    3d0c:	8c 91       	ld	r24, X
    3d0e:	58 97       	sbiw	r26, 0x18	; 24
    3d10:	82 17       	cp	r24, r18
    3d12:	11 f4       	brne	.+4      	; 0x3d18 <_ZN4core5go_stEv+0x1512>
    3d14:	0c 94 a8 26 	jmp	0x4d50	; 0x4d50 <__stack+0xd51>
    3d18:	83 89       	ldd	r24, Z+19	; 0x13
    3d1a:	94 89       	ldd	r25, Z+20	; 0x14
    3d1c:	01 96       	adiw	r24, 0x01	; 1
    3d1e:	83 8b       	std	Z+19, r24	; 0x13
    3d20:	94 8b       	std	Z+20, r25	; 0x14
    3d22:	8d 91       	ld	r24, X+
    3d24:	9c 91       	ld	r25, X
    3d26:	11 97       	sbiw	r26, 0x01	; 1
    3d28:	c8 16       	cp	r12, r24
    3d2a:	d9 06       	cpc	r13, r25
    3d2c:	81 f4       	brne	.+32     	; 0x3d4e <_ZN4core5go_stEv+0x1548>
    3d2e:	12 96       	adiw	r26, 0x02	; 2
    3d30:	8d 91       	ld	r24, X+
    3d32:	9c 91       	ld	r25, X
    3d34:	13 97       	sbiw	r26, 0x03	; 3
    3d36:	a8 16       	cp	r10, r24
    3d38:	b9 06       	cpc	r11, r25
    3d3a:	49 f4       	brne	.+18     	; 0x3d4e <_ZN4core5go_stEv+0x1548>
    3d3c:	14 96       	adiw	r26, 0x04	; 4
    3d3e:	8d 91       	ld	r24, X+
    3d40:	9c 91       	ld	r25, X
    3d42:	15 97       	sbiw	r26, 0x05	; 5
    3d44:	88 16       	cp	r8, r24
    3d46:	99 06       	cpc	r9, r25
    3d48:	11 f4       	brne	.+4      	; 0x3d4e <_ZN4core5go_stEv+0x1548>
    3d4a:	67 86       	std	Z+15, r6	; 0x0f
    3d4c:	70 8a       	std	Z+16, r7	; 0x10
    3d4e:	f3 01       	movw	r30, r6
    3d50:	20 8f       	std	Z+24, r18	; 0x18
    3d52:	86 81       	ldd	r24, Z+6	; 0x06
    3d54:	97 81       	ldd	r25, Z+7	; 0x07
    3d56:	42 84       	ldd	r4, Z+10	; 0x0a
    3d58:	53 84       	ldd	r5, Z+11	; 0x0b
    3d5a:	41 14       	cp	r4, r1
    3d5c:	51 04       	cpc	r5, r1
    3d5e:	09 f4       	brne	.+2      	; 0x3d62 <_ZN4core5go_stEv+0x155c>
    3d60:	f7 c1       	rjmp	.+1006   	; 0x4150 <__stack+0x151>
    3d62:	01 96       	adiw	r24, 0x01	; 1
    3d64:	d2 01       	movw	r26, r4
    3d66:	16 96       	adiw	r26, 0x06	; 6
    3d68:	2d 91       	ld	r18, X+
    3d6a:	3c 91       	ld	r19, X
    3d6c:	17 97       	sbiw	r26, 0x07	; 7
    3d6e:	82 17       	cp	r24, r18
    3d70:	93 07       	cpc	r25, r19
    3d72:	24 f4       	brge	.+8      	; 0x3d7c <_ZN4core5go_stEv+0x1576>
    3d74:	16 96       	adiw	r26, 0x06	; 6
    3d76:	8d 93       	st	X+, r24
    3d78:	9c 93       	st	X, r25
    3d7a:	17 97       	sbiw	r26, 0x07	; 7
    3d7c:	eb 81       	ldd	r30, Y+3	; 0x03
    3d7e:	fc 81       	ldd	r31, Y+4	; 0x04
    3d80:	26 85       	ldd	r18, Z+14	; 0x0e
    3d82:	d2 01       	movw	r26, r4
    3d84:	58 96       	adiw	r26, 0x18	; 24
    3d86:	8c 91       	ld	r24, X
    3d88:	58 97       	sbiw	r26, 0x18	; 24
    3d8a:	82 17       	cp	r24, r18
    3d8c:	09 f4       	brne	.+2      	; 0x3d90 <_ZN4core5go_stEv+0x158a>
    3d8e:	e0 c1       	rjmp	.+960    	; 0x4150 <__stack+0x151>
    3d90:	83 89       	ldd	r24, Z+19	; 0x13
    3d92:	94 89       	ldd	r25, Z+20	; 0x14
    3d94:	01 96       	adiw	r24, 0x01	; 1
    3d96:	83 8b       	std	Z+19, r24	; 0x13
    3d98:	94 8b       	std	Z+20, r25	; 0x14
    3d9a:	8d 91       	ld	r24, X+
    3d9c:	9c 91       	ld	r25, X
    3d9e:	11 97       	sbiw	r26, 0x01	; 1
    3da0:	c8 16       	cp	r12, r24
    3da2:	d9 06       	cpc	r13, r25
    3da4:	81 f4       	brne	.+32     	; 0x3dc6 <_ZN4core5go_stEv+0x15c0>
    3da6:	12 96       	adiw	r26, 0x02	; 2
    3da8:	8d 91       	ld	r24, X+
    3daa:	9c 91       	ld	r25, X
    3dac:	13 97       	sbiw	r26, 0x03	; 3
    3dae:	a8 16       	cp	r10, r24
    3db0:	b9 06       	cpc	r11, r25
    3db2:	49 f4       	brne	.+18     	; 0x3dc6 <_ZN4core5go_stEv+0x15c0>
    3db4:	14 96       	adiw	r26, 0x04	; 4
    3db6:	8d 91       	ld	r24, X+
    3db8:	9c 91       	ld	r25, X
    3dba:	15 97       	sbiw	r26, 0x05	; 5
    3dbc:	88 16       	cp	r8, r24
    3dbe:	99 06       	cpc	r9, r25
    3dc0:	11 f4       	brne	.+4      	; 0x3dc6 <_ZN4core5go_stEv+0x15c0>
    3dc2:	47 86       	std	Z+15, r4	; 0x0f
    3dc4:	50 8a       	std	Z+16, r5	; 0x10
    3dc6:	f2 01       	movw	r30, r4
    3dc8:	20 8f       	std	Z+24, r18	; 0x18
    3dca:	86 81       	ldd	r24, Z+6	; 0x06
    3dcc:	97 81       	ldd	r25, Z+7	; 0x07
    3dce:	22 84       	ldd	r2, Z+10	; 0x0a
    3dd0:	33 84       	ldd	r3, Z+11	; 0x0b
    3dd2:	21 14       	cp	r2, r1
    3dd4:	31 04       	cpc	r3, r1
    3dd6:	09 f4       	brne	.+2      	; 0x3dda <_ZN4core5go_stEv+0x15d4>
    3dd8:	68 c0       	rjmp	.+208    	; 0x3eaa <_ZN4core5go_stEv+0x16a4>
    3dda:	01 96       	adiw	r24, 0x01	; 1
    3ddc:	d1 01       	movw	r26, r2
    3dde:	16 96       	adiw	r26, 0x06	; 6
    3de0:	2d 91       	ld	r18, X+
    3de2:	3c 91       	ld	r19, X
    3de4:	17 97       	sbiw	r26, 0x07	; 7
    3de6:	82 17       	cp	r24, r18
    3de8:	93 07       	cpc	r25, r19
    3dea:	24 f4       	brge	.+8      	; 0x3df4 <_ZN4core5go_stEv+0x15ee>
    3dec:	16 96       	adiw	r26, 0x06	; 6
    3dee:	8d 93       	st	X+, r24
    3df0:	9c 93       	st	X, r25
    3df2:	17 97       	sbiw	r26, 0x07	; 7
    3df4:	eb 81       	ldd	r30, Y+3	; 0x03
    3df6:	fc 81       	ldd	r31, Y+4	; 0x04
    3df8:	26 85       	ldd	r18, Z+14	; 0x0e
    3dfa:	d1 01       	movw	r26, r2
    3dfc:	58 96       	adiw	r26, 0x18	; 24
    3dfe:	8c 91       	ld	r24, X
    3e00:	58 97       	sbiw	r26, 0x18	; 24
    3e02:	82 17       	cp	r24, r18
    3e04:	09 f4       	brne	.+2      	; 0x3e08 <_ZN4core5go_stEv+0x1602>
    3e06:	51 c0       	rjmp	.+162    	; 0x3eaa <_ZN4core5go_stEv+0x16a4>
    3e08:	83 89       	ldd	r24, Z+19	; 0x13
    3e0a:	94 89       	ldd	r25, Z+20	; 0x14
    3e0c:	01 96       	adiw	r24, 0x01	; 1
    3e0e:	83 8b       	std	Z+19, r24	; 0x13
    3e10:	94 8b       	std	Z+20, r25	; 0x14
    3e12:	8d 91       	ld	r24, X+
    3e14:	9c 91       	ld	r25, X
    3e16:	11 97       	sbiw	r26, 0x01	; 1
    3e18:	c8 16       	cp	r12, r24
    3e1a:	d9 06       	cpc	r13, r25
    3e1c:	81 f4       	brne	.+32     	; 0x3e3e <_ZN4core5go_stEv+0x1638>
    3e1e:	12 96       	adiw	r26, 0x02	; 2
    3e20:	8d 91       	ld	r24, X+
    3e22:	9c 91       	ld	r25, X
    3e24:	13 97       	sbiw	r26, 0x03	; 3
    3e26:	a8 16       	cp	r10, r24
    3e28:	b9 06       	cpc	r11, r25
    3e2a:	49 f4       	brne	.+18     	; 0x3e3e <_ZN4core5go_stEv+0x1638>
    3e2c:	14 96       	adiw	r26, 0x04	; 4
    3e2e:	8d 91       	ld	r24, X+
    3e30:	9c 91       	ld	r25, X
    3e32:	15 97       	sbiw	r26, 0x05	; 5
    3e34:	88 16       	cp	r8, r24
    3e36:	99 06       	cpc	r9, r25
    3e38:	11 f4       	brne	.+4      	; 0x3e3e <_ZN4core5go_stEv+0x1638>
    3e3a:	27 86       	std	Z+15, r2	; 0x0f
    3e3c:	30 8a       	std	Z+16, r3	; 0x10
    3e3e:	f1 01       	movw	r30, r2
    3e40:	20 8f       	std	Z+24, r18	; 0x18
    3e42:	e6 80       	ldd	r14, Z+6	; 0x06
    3e44:	f7 80       	ldd	r15, Z+7	; 0x07
    3e46:	62 85       	ldd	r22, Z+10	; 0x0a
    3e48:	73 85       	ldd	r23, Z+11	; 0x0b
    3e4a:	84 01       	movw	r16, r8
    3e4c:	95 01       	movw	r18, r10
    3e4e:	a6 01       	movw	r20, r12
    3e50:	8b 81       	ldd	r24, Y+3	; 0x03
    3e52:	9c 81       	ldd	r25, Y+4	; 0x04
    3e54:	0e 94 42 01 	call	0x284	; 0x284 <_ZN4core3dfsEP4nodeiiii>
    3e58:	d1 01       	movw	r26, r2
    3e5a:	16 96       	adiw	r26, 0x06	; 6
    3e5c:	ed 90       	ld	r14, X+
    3e5e:	fc 90       	ld	r15, X
    3e60:	17 97       	sbiw	r26, 0x07	; 7
    3e62:	1c 96       	adiw	r26, 0x0c	; 12
    3e64:	6d 91       	ld	r22, X+
    3e66:	7c 91       	ld	r23, X
    3e68:	1d 97       	sbiw	r26, 0x0d	; 13
    3e6a:	95 01       	movw	r18, r10
    3e6c:	a6 01       	movw	r20, r12
    3e6e:	8b 81       	ldd	r24, Y+3	; 0x03
    3e70:	9c 81       	ldd	r25, Y+4	; 0x04
    3e72:	0e 94 42 01 	call	0x284	; 0x284 <_ZN4core3dfsEP4nodeiiii>
    3e76:	f1 01       	movw	r30, r2
    3e78:	e6 80       	ldd	r14, Z+6	; 0x06
    3e7a:	f7 80       	ldd	r15, Z+7	; 0x07
    3e7c:	66 85       	ldd	r22, Z+14	; 0x0e
    3e7e:	77 85       	ldd	r23, Z+15	; 0x0f
    3e80:	95 01       	movw	r18, r10
    3e82:	a6 01       	movw	r20, r12
    3e84:	8b 81       	ldd	r24, Y+3	; 0x03
    3e86:	9c 81       	ldd	r25, Y+4	; 0x04
    3e88:	0e 94 42 01 	call	0x284	; 0x284 <_ZN4core3dfsEP4nodeiiii>
    3e8c:	d1 01       	movw	r26, r2
    3e8e:	16 96       	adiw	r26, 0x06	; 6
    3e90:	ed 90       	ld	r14, X+
    3e92:	fc 90       	ld	r15, X
    3e94:	17 97       	sbiw	r26, 0x07	; 7
    3e96:	50 96       	adiw	r26, 0x10	; 16
    3e98:	6d 91       	ld	r22, X+
    3e9a:	7c 91       	ld	r23, X
    3e9c:	51 97       	sbiw	r26, 0x11	; 17
    3e9e:	95 01       	movw	r18, r10
    3ea0:	a6 01       	movw	r20, r12
    3ea2:	8b 81       	ldd	r24, Y+3	; 0x03
    3ea4:	9c 81       	ldd	r25, Y+4	; 0x04
    3ea6:	0e 94 42 01 	call	0x284	; 0x284 <_ZN4core3dfsEP4nodeiiii>
    3eaa:	f2 01       	movw	r30, r4
    3eac:	86 81       	ldd	r24, Z+6	; 0x06
    3eae:	97 81       	ldd	r25, Z+7	; 0x07
    3eb0:	24 84       	ldd	r2, Z+12	; 0x0c
    3eb2:	35 84       	ldd	r3, Z+13	; 0x0d
    3eb4:	21 14       	cp	r2, r1
    3eb6:	31 04       	cpc	r3, r1
    3eb8:	09 f4       	brne	.+2      	; 0x3ebc <_ZN4core5go_stEv+0x16b6>
    3eba:	68 c0       	rjmp	.+208    	; 0x3f8c <_ZN4core5go_stEv+0x1786>
    3ebc:	01 96       	adiw	r24, 0x01	; 1
    3ebe:	d1 01       	movw	r26, r2
    3ec0:	16 96       	adiw	r26, 0x06	; 6
    3ec2:	2d 91       	ld	r18, X+
    3ec4:	3c 91       	ld	r19, X
    3ec6:	17 97       	sbiw	r26, 0x07	; 7
    3ec8:	82 17       	cp	r24, r18
    3eca:	93 07       	cpc	r25, r19
    3ecc:	24 f4       	brge	.+8      	; 0x3ed6 <_ZN4core5go_stEv+0x16d0>
    3ece:	16 96       	adiw	r26, 0x06	; 6
    3ed0:	8d 93       	st	X+, r24
    3ed2:	9c 93       	st	X, r25
    3ed4:	17 97       	sbiw	r26, 0x07	; 7
    3ed6:	eb 81       	ldd	r30, Y+3	; 0x03
    3ed8:	fc 81       	ldd	r31, Y+4	; 0x04
    3eda:	26 85       	ldd	r18, Z+14	; 0x0e
    3edc:	d1 01       	movw	r26, r2
    3ede:	58 96       	adiw	r26, 0x18	; 24
    3ee0:	8c 91       	ld	r24, X
    3ee2:	58 97       	sbiw	r26, 0x18	; 24
    3ee4:	82 17       	cp	r24, r18
    3ee6:	09 f4       	brne	.+2      	; 0x3eea <_ZN4core5go_stEv+0x16e4>
    3ee8:	51 c0       	rjmp	.+162    	; 0x3f8c <_ZN4core5go_stEv+0x1786>
    3eea:	83 89       	ldd	r24, Z+19	; 0x13
    3eec:	94 89       	ldd	r25, Z+20	; 0x14
    3eee:	01 96       	adiw	r24, 0x01	; 1
    3ef0:	83 8b       	std	Z+19, r24	; 0x13
    3ef2:	94 8b       	std	Z+20, r25	; 0x14
    3ef4:	8d 91       	ld	r24, X+
    3ef6:	9c 91       	ld	r25, X
    3ef8:	11 97       	sbiw	r26, 0x01	; 1
    3efa:	c8 16       	cp	r12, r24
    3efc:	d9 06       	cpc	r13, r25
    3efe:	81 f4       	brne	.+32     	; 0x3f20 <_ZN4core5go_stEv+0x171a>
    3f00:	12 96       	adiw	r26, 0x02	; 2
    3f02:	8d 91       	ld	r24, X+
    3f04:	9c 91       	ld	r25, X
    3f06:	13 97       	sbiw	r26, 0x03	; 3
    3f08:	a8 16       	cp	r10, r24
    3f0a:	b9 06       	cpc	r11, r25
    3f0c:	49 f4       	brne	.+18     	; 0x3f20 <_ZN4core5go_stEv+0x171a>
    3f0e:	14 96       	adiw	r26, 0x04	; 4
    3f10:	8d 91       	ld	r24, X+
    3f12:	9c 91       	ld	r25, X
    3f14:	15 97       	sbiw	r26, 0x05	; 5
    3f16:	88 16       	cp	r8, r24
    3f18:	99 06       	cpc	r9, r25
    3f1a:	11 f4       	brne	.+4      	; 0x3f20 <_ZN4core5go_stEv+0x171a>
    3f1c:	27 86       	std	Z+15, r2	; 0x0f
    3f1e:	30 8a       	std	Z+16, r3	; 0x10
    3f20:	f1 01       	movw	r30, r2
    3f22:	20 8f       	std	Z+24, r18	; 0x18
    3f24:	e6 80       	ldd	r14, Z+6	; 0x06
    3f26:	f7 80       	ldd	r15, Z+7	; 0x07
    3f28:	62 85       	ldd	r22, Z+10	; 0x0a
    3f2a:	73 85       	ldd	r23, Z+11	; 0x0b
    3f2c:	84 01       	movw	r16, r8
    3f2e:	95 01       	movw	r18, r10
    3f30:	a6 01       	movw	r20, r12
    3f32:	8b 81       	ldd	r24, Y+3	; 0x03
    3f34:	9c 81       	ldd	r25, Y+4	; 0x04
    3f36:	0e 94 42 01 	call	0x284	; 0x284 <_ZN4core3dfsEP4nodeiiii>
    3f3a:	d1 01       	movw	r26, r2
    3f3c:	16 96       	adiw	r26, 0x06	; 6
    3f3e:	ed 90       	ld	r14, X+
    3f40:	fc 90       	ld	r15, X
    3f42:	17 97       	sbiw	r26, 0x07	; 7
    3f44:	1c 96       	adiw	r26, 0x0c	; 12
    3f46:	6d 91       	ld	r22, X+
    3f48:	7c 91       	ld	r23, X
    3f4a:	1d 97       	sbiw	r26, 0x0d	; 13
    3f4c:	95 01       	movw	r18, r10
    3f4e:	a6 01       	movw	r20, r12
    3f50:	8b 81       	ldd	r24, Y+3	; 0x03
    3f52:	9c 81       	ldd	r25, Y+4	; 0x04
    3f54:	0e 94 42 01 	call	0x284	; 0x284 <_ZN4core3dfsEP4nodeiiii>
    3f58:	f1 01       	movw	r30, r2
    3f5a:	e6 80       	ldd	r14, Z+6	; 0x06
    3f5c:	f7 80       	ldd	r15, Z+7	; 0x07
    3f5e:	66 85       	ldd	r22, Z+14	; 0x0e
    3f60:	77 85       	ldd	r23, Z+15	; 0x0f
    3f62:	95 01       	movw	r18, r10
    3f64:	a6 01       	movw	r20, r12
    3f66:	8b 81       	ldd	r24, Y+3	; 0x03
    3f68:	9c 81       	ldd	r25, Y+4	; 0x04
    3f6a:	0e 94 42 01 	call	0x284	; 0x284 <_ZN4core3dfsEP4nodeiiii>
    3f6e:	d1 01       	movw	r26, r2
    3f70:	16 96       	adiw	r26, 0x06	; 6
    3f72:	ed 90       	ld	r14, X+
    3f74:	fc 90       	ld	r15, X
    3f76:	17 97       	sbiw	r26, 0x07	; 7
    3f78:	50 96       	adiw	r26, 0x10	; 16
    3f7a:	6d 91       	ld	r22, X+
    3f7c:	7c 91       	ld	r23, X
    3f7e:	51 97       	sbiw	r26, 0x11	; 17
    3f80:	95 01       	movw	r18, r10
    3f82:	a6 01       	movw	r20, r12
    3f84:	8b 81       	ldd	r24, Y+3	; 0x03
    3f86:	9c 81       	ldd	r25, Y+4	; 0x04
    3f88:	0e 94 42 01 	call	0x284	; 0x284 <_ZN4core3dfsEP4nodeiiii>
    3f8c:	f2 01       	movw	r30, r4
    3f8e:	86 81       	ldd	r24, Z+6	; 0x06
    3f90:	97 81       	ldd	r25, Z+7	; 0x07
    3f92:	26 84       	ldd	r2, Z+14	; 0x0e
    3f94:	37 84       	ldd	r3, Z+15	; 0x0f
    3f96:	21 14       	cp	r2, r1
    3f98:	31 04       	cpc	r3, r1
    3f9a:	09 f4       	brne	.+2      	; 0x3f9e <_ZN4core5go_stEv+0x1798>
    3f9c:	68 c0       	rjmp	.+208    	; 0x406e <__stack+0x6f>
    3f9e:	01 96       	adiw	r24, 0x01	; 1
    3fa0:	d1 01       	movw	r26, r2
    3fa2:	16 96       	adiw	r26, 0x06	; 6
    3fa4:	2d 91       	ld	r18, X+
    3fa6:	3c 91       	ld	r19, X
    3fa8:	17 97       	sbiw	r26, 0x07	; 7
    3faa:	82 17       	cp	r24, r18
    3fac:	93 07       	cpc	r25, r19
    3fae:	24 f4       	brge	.+8      	; 0x3fb8 <_ZN4core5go_stEv+0x17b2>
    3fb0:	16 96       	adiw	r26, 0x06	; 6
    3fb2:	8d 93       	st	X+, r24
    3fb4:	9c 93       	st	X, r25
    3fb6:	17 97       	sbiw	r26, 0x07	; 7
    3fb8:	eb 81       	ldd	r30, Y+3	; 0x03
    3fba:	fc 81       	ldd	r31, Y+4	; 0x04
    3fbc:	26 85       	ldd	r18, Z+14	; 0x0e
    3fbe:	d1 01       	movw	r26, r2
    3fc0:	58 96       	adiw	r26, 0x18	; 24
    3fc2:	8c 91       	ld	r24, X
    3fc4:	58 97       	sbiw	r26, 0x18	; 24
    3fc6:	82 17       	cp	r24, r18
    3fc8:	09 f4       	brne	.+2      	; 0x3fcc <_ZN4core5go_stEv+0x17c6>
    3fca:	51 c0       	rjmp	.+162    	; 0x406e <__stack+0x6f>
    3fcc:	83 89       	ldd	r24, Z+19	; 0x13
    3fce:	94 89       	ldd	r25, Z+20	; 0x14
    3fd0:	01 96       	adiw	r24, 0x01	; 1
    3fd2:	83 8b       	std	Z+19, r24	; 0x13
    3fd4:	94 8b       	std	Z+20, r25	; 0x14
    3fd6:	8d 91       	ld	r24, X+
    3fd8:	9c 91       	ld	r25, X
    3fda:	11 97       	sbiw	r26, 0x01	; 1
    3fdc:	c8 16       	cp	r12, r24
    3fde:	d9 06       	cpc	r13, r25
    3fe0:	81 f4       	brne	.+32     	; 0x4002 <__stack+0x3>
    3fe2:	12 96       	adiw	r26, 0x02	; 2
    3fe4:	8d 91       	ld	r24, X+
    3fe6:	9c 91       	ld	r25, X
    3fe8:	13 97       	sbiw	r26, 0x03	; 3
    3fea:	a8 16       	cp	r10, r24
    3fec:	b9 06       	cpc	r11, r25
    3fee:	49 f4       	brne	.+18     	; 0x4002 <__stack+0x3>
    3ff0:	14 96       	adiw	r26, 0x04	; 4
    3ff2:	8d 91       	ld	r24, X+
    3ff4:	9c 91       	ld	r25, X
    3ff6:	15 97       	sbiw	r26, 0x05	; 5
    3ff8:	88 16       	cp	r8, r24
    3ffa:	99 06       	cpc	r9, r25
    3ffc:	11 f4       	brne	.+4      	; 0x4002 <__stack+0x3>
    3ffe:	27 86       	std	Z+15, r2	; 0x0f
    4000:	30 8a       	std	Z+16, r3	; 0x10
    4002:	f1 01       	movw	r30, r2
    4004:	20 8f       	std	Z+24, r18	; 0x18
    4006:	e6 80       	ldd	r14, Z+6	; 0x06
    4008:	f7 80       	ldd	r15, Z+7	; 0x07
    400a:	62 85       	ldd	r22, Z+10	; 0x0a
    400c:	73 85       	ldd	r23, Z+11	; 0x0b
    400e:	84 01       	movw	r16, r8
    4010:	95 01       	movw	r18, r10
    4012:	a6 01       	movw	r20, r12
    4014:	8b 81       	ldd	r24, Y+3	; 0x03
    4016:	9c 81       	ldd	r25, Y+4	; 0x04
    4018:	0e 94 42 01 	call	0x284	; 0x284 <_ZN4core3dfsEP4nodeiiii>
    401c:	d1 01       	movw	r26, r2
    401e:	16 96       	adiw	r26, 0x06	; 6
    4020:	ed 90       	ld	r14, X+
    4022:	fc 90       	ld	r15, X
    4024:	17 97       	sbiw	r26, 0x07	; 7
    4026:	1c 96       	adiw	r26, 0x0c	; 12
    4028:	6d 91       	ld	r22, X+
    402a:	7c 91       	ld	r23, X
    402c:	1d 97       	sbiw	r26, 0x0d	; 13
    402e:	95 01       	movw	r18, r10
    4030:	a6 01       	movw	r20, r12
    4032:	8b 81       	ldd	r24, Y+3	; 0x03
    4034:	9c 81       	ldd	r25, Y+4	; 0x04
    4036:	0e 94 42 01 	call	0x284	; 0x284 <_ZN4core3dfsEP4nodeiiii>
    403a:	f1 01       	movw	r30, r2
    403c:	e6 80       	ldd	r14, Z+6	; 0x06
    403e:	f7 80       	ldd	r15, Z+7	; 0x07
    4040:	66 85       	ldd	r22, Z+14	; 0x0e
    4042:	77 85       	ldd	r23, Z+15	; 0x0f
    4044:	95 01       	movw	r18, r10
    4046:	a6 01       	movw	r20, r12
    4048:	8b 81       	ldd	r24, Y+3	; 0x03
    404a:	9c 81       	ldd	r25, Y+4	; 0x04
    404c:	0e 94 42 01 	call	0x284	; 0x284 <_ZN4core3dfsEP4nodeiiii>
    4050:	d1 01       	movw	r26, r2
    4052:	16 96       	adiw	r26, 0x06	; 6
    4054:	ed 90       	ld	r14, X+
    4056:	fc 90       	ld	r15, X
    4058:	17 97       	sbiw	r26, 0x07	; 7
    405a:	50 96       	adiw	r26, 0x10	; 16
    405c:	6d 91       	ld	r22, X+
    405e:	7c 91       	ld	r23, X
    4060:	51 97       	sbiw	r26, 0x11	; 17
    4062:	95 01       	movw	r18, r10
    4064:	a6 01       	movw	r20, r12
    4066:	8b 81       	ldd	r24, Y+3	; 0x03
    4068:	9c 81       	ldd	r25, Y+4	; 0x04
    406a:	0e 94 42 01 	call	0x284	; 0x284 <_ZN4core3dfsEP4nodeiiii>
    406e:	f2 01       	movw	r30, r4
    4070:	86 81       	ldd	r24, Z+6	; 0x06
    4072:	97 81       	ldd	r25, Z+7	; 0x07
    4074:	40 88       	ldd	r4, Z+16	; 0x10
    4076:	51 88       	ldd	r5, Z+17	; 0x11
    4078:	41 14       	cp	r4, r1
    407a:	51 04       	cpc	r5, r1
    407c:	09 f4       	brne	.+2      	; 0x4080 <__stack+0x81>
    407e:	68 c0       	rjmp	.+208    	; 0x4150 <__stack+0x151>
    4080:	01 96       	adiw	r24, 0x01	; 1
    4082:	d2 01       	movw	r26, r4
    4084:	16 96       	adiw	r26, 0x06	; 6
    4086:	2d 91       	ld	r18, X+
    4088:	3c 91       	ld	r19, X
    408a:	17 97       	sbiw	r26, 0x07	; 7
    408c:	82 17       	cp	r24, r18
    408e:	93 07       	cpc	r25, r19
    4090:	24 f4       	brge	.+8      	; 0x409a <__stack+0x9b>
    4092:	16 96       	adiw	r26, 0x06	; 6
    4094:	8d 93       	st	X+, r24
    4096:	9c 93       	st	X, r25
    4098:	17 97       	sbiw	r26, 0x07	; 7
    409a:	eb 81       	ldd	r30, Y+3	; 0x03
    409c:	fc 81       	ldd	r31, Y+4	; 0x04
    409e:	26 85       	ldd	r18, Z+14	; 0x0e
    40a0:	d2 01       	movw	r26, r4
    40a2:	58 96       	adiw	r26, 0x18	; 24
    40a4:	8c 91       	ld	r24, X
    40a6:	58 97       	sbiw	r26, 0x18	; 24
    40a8:	82 17       	cp	r24, r18
    40aa:	09 f4       	brne	.+2      	; 0x40ae <__stack+0xaf>
    40ac:	51 c0       	rjmp	.+162    	; 0x4150 <__stack+0x151>
    40ae:	83 89       	ldd	r24, Z+19	; 0x13
    40b0:	94 89       	ldd	r25, Z+20	; 0x14
    40b2:	01 96       	adiw	r24, 0x01	; 1
    40b4:	83 8b       	std	Z+19, r24	; 0x13
    40b6:	94 8b       	std	Z+20, r25	; 0x14
    40b8:	8d 91       	ld	r24, X+
    40ba:	9c 91       	ld	r25, X
    40bc:	11 97       	sbiw	r26, 0x01	; 1
    40be:	c8 16       	cp	r12, r24
    40c0:	d9 06       	cpc	r13, r25
    40c2:	81 f4       	brne	.+32     	; 0x40e4 <__stack+0xe5>
    40c4:	12 96       	adiw	r26, 0x02	; 2
    40c6:	8d 91       	ld	r24, X+
    40c8:	9c 91       	ld	r25, X
    40ca:	13 97       	sbiw	r26, 0x03	; 3
    40cc:	a8 16       	cp	r10, r24
    40ce:	b9 06       	cpc	r11, r25
    40d0:	49 f4       	brne	.+18     	; 0x40e4 <__stack+0xe5>
    40d2:	14 96       	adiw	r26, 0x04	; 4
    40d4:	8d 91       	ld	r24, X+
    40d6:	9c 91       	ld	r25, X
    40d8:	15 97       	sbiw	r26, 0x05	; 5
    40da:	88 16       	cp	r8, r24
    40dc:	99 06       	cpc	r9, r25
    40de:	11 f4       	brne	.+4      	; 0x40e4 <__stack+0xe5>
    40e0:	47 86       	std	Z+15, r4	; 0x0f
    40e2:	50 8a       	std	Z+16, r5	; 0x10
    40e4:	f2 01       	movw	r30, r4
    40e6:	20 8f       	std	Z+24, r18	; 0x18
    40e8:	e6 80       	ldd	r14, Z+6	; 0x06
    40ea:	f7 80       	ldd	r15, Z+7	; 0x07
    40ec:	62 85       	ldd	r22, Z+10	; 0x0a
    40ee:	73 85       	ldd	r23, Z+11	; 0x0b
    40f0:	84 01       	movw	r16, r8
    40f2:	95 01       	movw	r18, r10
    40f4:	a6 01       	movw	r20, r12
    40f6:	8b 81       	ldd	r24, Y+3	; 0x03
    40f8:	9c 81       	ldd	r25, Y+4	; 0x04
    40fa:	0e 94 42 01 	call	0x284	; 0x284 <_ZN4core3dfsEP4nodeiiii>
    40fe:	d2 01       	movw	r26, r4
    4100:	16 96       	adiw	r26, 0x06	; 6
    4102:	ed 90       	ld	r14, X+
    4104:	fc 90       	ld	r15, X
    4106:	17 97       	sbiw	r26, 0x07	; 7
    4108:	1c 96       	adiw	r26, 0x0c	; 12
    410a:	6d 91       	ld	r22, X+
    410c:	7c 91       	ld	r23, X
    410e:	1d 97       	sbiw	r26, 0x0d	; 13
    4110:	95 01       	movw	r18, r10
    4112:	a6 01       	movw	r20, r12
    4114:	8b 81       	ldd	r24, Y+3	; 0x03
    4116:	9c 81       	ldd	r25, Y+4	; 0x04
    4118:	0e 94 42 01 	call	0x284	; 0x284 <_ZN4core3dfsEP4nodeiiii>
    411c:	f2 01       	movw	r30, r4
    411e:	e6 80       	ldd	r14, Z+6	; 0x06
    4120:	f7 80       	ldd	r15, Z+7	; 0x07
    4122:	66 85       	ldd	r22, Z+14	; 0x0e
    4124:	77 85       	ldd	r23, Z+15	; 0x0f
    4126:	95 01       	movw	r18, r10
    4128:	a6 01       	movw	r20, r12
    412a:	8b 81       	ldd	r24, Y+3	; 0x03
    412c:	9c 81       	ldd	r25, Y+4	; 0x04
    412e:	0e 94 42 01 	call	0x284	; 0x284 <_ZN4core3dfsEP4nodeiiii>
    4132:	d2 01       	movw	r26, r4
    4134:	16 96       	adiw	r26, 0x06	; 6
    4136:	ed 90       	ld	r14, X+
    4138:	fc 90       	ld	r15, X
    413a:	17 97       	sbiw	r26, 0x07	; 7
    413c:	50 96       	adiw	r26, 0x10	; 16
    413e:	6d 91       	ld	r22, X+
    4140:	7c 91       	ld	r23, X
    4142:	51 97       	sbiw	r26, 0x11	; 17
    4144:	95 01       	movw	r18, r10
    4146:	a6 01       	movw	r20, r12
    4148:	8b 81       	ldd	r24, Y+3	; 0x03
    414a:	9c 81       	ldd	r25, Y+4	; 0x04
    414c:	0e 94 42 01 	call	0x284	; 0x284 <_ZN4core3dfsEP4nodeiiii>
    4150:	f3 01       	movw	r30, r6
    4152:	86 81       	ldd	r24, Z+6	; 0x06
    4154:	97 81       	ldd	r25, Z+7	; 0x07
    4156:	44 84       	ldd	r4, Z+12	; 0x0c
    4158:	55 84       	ldd	r5, Z+13	; 0x0d
    415a:	41 14       	cp	r4, r1
    415c:	51 04       	cpc	r5, r1
    415e:	09 f4       	brne	.+2      	; 0x4162 <__stack+0x163>
    4160:	f7 c1       	rjmp	.+1006   	; 0x4550 <__stack+0x551>
    4162:	01 96       	adiw	r24, 0x01	; 1
    4164:	d2 01       	movw	r26, r4
    4166:	16 96       	adiw	r26, 0x06	; 6
    4168:	2d 91       	ld	r18, X+
    416a:	3c 91       	ld	r19, X
    416c:	17 97       	sbiw	r26, 0x07	; 7
    416e:	82 17       	cp	r24, r18
    4170:	93 07       	cpc	r25, r19
    4172:	24 f4       	brge	.+8      	; 0x417c <__stack+0x17d>
    4174:	16 96       	adiw	r26, 0x06	; 6
    4176:	8d 93       	st	X+, r24
    4178:	9c 93       	st	X, r25
    417a:	17 97       	sbiw	r26, 0x07	; 7
    417c:	eb 81       	ldd	r30, Y+3	; 0x03
    417e:	fc 81       	ldd	r31, Y+4	; 0x04
    4180:	26 85       	ldd	r18, Z+14	; 0x0e
    4182:	d2 01       	movw	r26, r4
    4184:	58 96       	adiw	r26, 0x18	; 24
    4186:	8c 91       	ld	r24, X
    4188:	58 97       	sbiw	r26, 0x18	; 24
    418a:	82 17       	cp	r24, r18
    418c:	09 f4       	brne	.+2      	; 0x4190 <__stack+0x191>
    418e:	e0 c1       	rjmp	.+960    	; 0x4550 <__stack+0x551>
    4190:	83 89       	ldd	r24, Z+19	; 0x13
    4192:	94 89       	ldd	r25, Z+20	; 0x14
    4194:	01 96       	adiw	r24, 0x01	; 1
    4196:	83 8b       	std	Z+19, r24	; 0x13
    4198:	94 8b       	std	Z+20, r25	; 0x14
    419a:	8d 91       	ld	r24, X+
    419c:	9c 91       	ld	r25, X
    419e:	11 97       	sbiw	r26, 0x01	; 1
    41a0:	c8 16       	cp	r12, r24
    41a2:	d9 06       	cpc	r13, r25
    41a4:	81 f4       	brne	.+32     	; 0x41c6 <__stack+0x1c7>
    41a6:	12 96       	adiw	r26, 0x02	; 2
    41a8:	8d 91       	ld	r24, X+
    41aa:	9c 91       	ld	r25, X
    41ac:	13 97       	sbiw	r26, 0x03	; 3
    41ae:	a8 16       	cp	r10, r24
    41b0:	b9 06       	cpc	r11, r25
    41b2:	49 f4       	brne	.+18     	; 0x41c6 <__stack+0x1c7>
    41b4:	14 96       	adiw	r26, 0x04	; 4
    41b6:	8d 91       	ld	r24, X+
    41b8:	9c 91       	ld	r25, X
    41ba:	15 97       	sbiw	r26, 0x05	; 5
    41bc:	88 16       	cp	r8, r24
    41be:	99 06       	cpc	r9, r25
    41c0:	11 f4       	brne	.+4      	; 0x41c6 <__stack+0x1c7>
    41c2:	47 86       	std	Z+15, r4	; 0x0f
    41c4:	50 8a       	std	Z+16, r5	; 0x10
    41c6:	f2 01       	movw	r30, r4
    41c8:	20 8f       	std	Z+24, r18	; 0x18
    41ca:	86 81       	ldd	r24, Z+6	; 0x06
    41cc:	97 81       	ldd	r25, Z+7	; 0x07
    41ce:	22 84       	ldd	r2, Z+10	; 0x0a
    41d0:	33 84       	ldd	r3, Z+11	; 0x0b
    41d2:	21 14       	cp	r2, r1
    41d4:	31 04       	cpc	r3, r1
    41d6:	09 f4       	brne	.+2      	; 0x41da <__stack+0x1db>
    41d8:	68 c0       	rjmp	.+208    	; 0x42aa <__stack+0x2ab>
    41da:	01 96       	adiw	r24, 0x01	; 1
    41dc:	d1 01       	movw	r26, r2
    41de:	16 96       	adiw	r26, 0x06	; 6
    41e0:	2d 91       	ld	r18, X+
    41e2:	3c 91       	ld	r19, X
    41e4:	17 97       	sbiw	r26, 0x07	; 7
    41e6:	82 17       	cp	r24, r18
    41e8:	93 07       	cpc	r25, r19
    41ea:	24 f4       	brge	.+8      	; 0x41f4 <__stack+0x1f5>
    41ec:	16 96       	adiw	r26, 0x06	; 6
    41ee:	8d 93       	st	X+, r24
    41f0:	9c 93       	st	X, r25
    41f2:	17 97       	sbiw	r26, 0x07	; 7
    41f4:	eb 81       	ldd	r30, Y+3	; 0x03
    41f6:	fc 81       	ldd	r31, Y+4	; 0x04
    41f8:	26 85       	ldd	r18, Z+14	; 0x0e
    41fa:	d1 01       	movw	r26, r2
    41fc:	58 96       	adiw	r26, 0x18	; 24
    41fe:	8c 91       	ld	r24, X
    4200:	58 97       	sbiw	r26, 0x18	; 24
    4202:	82 17       	cp	r24, r18
    4204:	09 f4       	brne	.+2      	; 0x4208 <__stack+0x209>
    4206:	51 c0       	rjmp	.+162    	; 0x42aa <__stack+0x2ab>
    4208:	83 89       	ldd	r24, Z+19	; 0x13
    420a:	94 89       	ldd	r25, Z+20	; 0x14
    420c:	01 96       	adiw	r24, 0x01	; 1
    420e:	83 8b       	std	Z+19, r24	; 0x13
    4210:	94 8b       	std	Z+20, r25	; 0x14
    4212:	8d 91       	ld	r24, X+
    4214:	9c 91       	ld	r25, X
    4216:	11 97       	sbiw	r26, 0x01	; 1
    4218:	c8 16       	cp	r12, r24
    421a:	d9 06       	cpc	r13, r25
    421c:	81 f4       	brne	.+32     	; 0x423e <__stack+0x23f>
    421e:	12 96       	adiw	r26, 0x02	; 2
    4220:	8d 91       	ld	r24, X+
    4222:	9c 91       	ld	r25, X
    4224:	13 97       	sbiw	r26, 0x03	; 3
    4226:	a8 16       	cp	r10, r24
    4228:	b9 06       	cpc	r11, r25
    422a:	49 f4       	brne	.+18     	; 0x423e <__stack+0x23f>
    422c:	14 96       	adiw	r26, 0x04	; 4
    422e:	8d 91       	ld	r24, X+
    4230:	9c 91       	ld	r25, X
    4232:	15 97       	sbiw	r26, 0x05	; 5
    4234:	88 16       	cp	r8, r24
    4236:	99 06       	cpc	r9, r25
    4238:	11 f4       	brne	.+4      	; 0x423e <__stack+0x23f>
    423a:	27 86       	std	Z+15, r2	; 0x0f
    423c:	30 8a       	std	Z+16, r3	; 0x10
    423e:	f1 01       	movw	r30, r2
    4240:	20 8f       	std	Z+24, r18	; 0x18
    4242:	e6 80       	ldd	r14, Z+6	; 0x06
    4244:	f7 80       	ldd	r15, Z+7	; 0x07
    4246:	62 85       	ldd	r22, Z+10	; 0x0a
    4248:	73 85       	ldd	r23, Z+11	; 0x0b
    424a:	84 01       	movw	r16, r8
    424c:	95 01       	movw	r18, r10
    424e:	a6 01       	movw	r20, r12
    4250:	8b 81       	ldd	r24, Y+3	; 0x03
    4252:	9c 81       	ldd	r25, Y+4	; 0x04
    4254:	0e 94 42 01 	call	0x284	; 0x284 <_ZN4core3dfsEP4nodeiiii>
    4258:	d1 01       	movw	r26, r2
    425a:	16 96       	adiw	r26, 0x06	; 6
    425c:	ed 90       	ld	r14, X+
    425e:	fc 90       	ld	r15, X
    4260:	17 97       	sbiw	r26, 0x07	; 7
    4262:	1c 96       	adiw	r26, 0x0c	; 12
    4264:	6d 91       	ld	r22, X+
    4266:	7c 91       	ld	r23, X
    4268:	1d 97       	sbiw	r26, 0x0d	; 13
    426a:	95 01       	movw	r18, r10
    426c:	a6 01       	movw	r20, r12
    426e:	8b 81       	ldd	r24, Y+3	; 0x03
    4270:	9c 81       	ldd	r25, Y+4	; 0x04
    4272:	0e 94 42 01 	call	0x284	; 0x284 <_ZN4core3dfsEP4nodeiiii>
    4276:	f1 01       	movw	r30, r2
    4278:	e6 80       	ldd	r14, Z+6	; 0x06
    427a:	f7 80       	ldd	r15, Z+7	; 0x07
    427c:	66 85       	ldd	r22, Z+14	; 0x0e
    427e:	77 85       	ldd	r23, Z+15	; 0x0f
    4280:	95 01       	movw	r18, r10
    4282:	a6 01       	movw	r20, r12
    4284:	8b 81       	ldd	r24, Y+3	; 0x03
    4286:	9c 81       	ldd	r25, Y+4	; 0x04
    4288:	0e 94 42 01 	call	0x284	; 0x284 <_ZN4core3dfsEP4nodeiiii>
    428c:	d1 01       	movw	r26, r2
    428e:	16 96       	adiw	r26, 0x06	; 6
    4290:	ed 90       	ld	r14, X+
    4292:	fc 90       	ld	r15, X
    4294:	17 97       	sbiw	r26, 0x07	; 7
    4296:	50 96       	adiw	r26, 0x10	; 16
    4298:	6d 91       	ld	r22, X+
    429a:	7c 91       	ld	r23, X
    429c:	51 97       	sbiw	r26, 0x11	; 17
    429e:	95 01       	movw	r18, r10
    42a0:	a6 01       	movw	r20, r12
    42a2:	8b 81       	ldd	r24, Y+3	; 0x03
    42a4:	9c 81       	ldd	r25, Y+4	; 0x04
    42a6:	0e 94 42 01 	call	0x284	; 0x284 <_ZN4core3dfsEP4nodeiiii>
    42aa:	f2 01       	movw	r30, r4
    42ac:	86 81       	ldd	r24, Z+6	; 0x06
    42ae:	97 81       	ldd	r25, Z+7	; 0x07
    42b0:	24 84       	ldd	r2, Z+12	; 0x0c
    42b2:	35 84       	ldd	r3, Z+13	; 0x0d
    42b4:	21 14       	cp	r2, r1
    42b6:	31 04       	cpc	r3, r1
    42b8:	09 f4       	brne	.+2      	; 0x42bc <__stack+0x2bd>
    42ba:	68 c0       	rjmp	.+208    	; 0x438c <__stack+0x38d>
    42bc:	01 96       	adiw	r24, 0x01	; 1
    42be:	d1 01       	movw	r26, r2
    42c0:	16 96       	adiw	r26, 0x06	; 6
    42c2:	2d 91       	ld	r18, X+
    42c4:	3c 91       	ld	r19, X
    42c6:	17 97       	sbiw	r26, 0x07	; 7
    42c8:	82 17       	cp	r24, r18
    42ca:	93 07       	cpc	r25, r19
    42cc:	24 f4       	brge	.+8      	; 0x42d6 <__stack+0x2d7>
    42ce:	16 96       	adiw	r26, 0x06	; 6
    42d0:	8d 93       	st	X+, r24
    42d2:	9c 93       	st	X, r25
    42d4:	17 97       	sbiw	r26, 0x07	; 7
    42d6:	eb 81       	ldd	r30, Y+3	; 0x03
    42d8:	fc 81       	ldd	r31, Y+4	; 0x04
    42da:	26 85       	ldd	r18, Z+14	; 0x0e
    42dc:	d1 01       	movw	r26, r2
    42de:	58 96       	adiw	r26, 0x18	; 24
    42e0:	8c 91       	ld	r24, X
    42e2:	58 97       	sbiw	r26, 0x18	; 24
    42e4:	82 17       	cp	r24, r18
    42e6:	09 f4       	brne	.+2      	; 0x42ea <__stack+0x2eb>
    42e8:	51 c0       	rjmp	.+162    	; 0x438c <__stack+0x38d>
    42ea:	83 89       	ldd	r24, Z+19	; 0x13
    42ec:	94 89       	ldd	r25, Z+20	; 0x14
    42ee:	01 96       	adiw	r24, 0x01	; 1
    42f0:	83 8b       	std	Z+19, r24	; 0x13
    42f2:	94 8b       	std	Z+20, r25	; 0x14
    42f4:	8d 91       	ld	r24, X+
    42f6:	9c 91       	ld	r25, X
    42f8:	11 97       	sbiw	r26, 0x01	; 1
    42fa:	c8 16       	cp	r12, r24
    42fc:	d9 06       	cpc	r13, r25
    42fe:	81 f4       	brne	.+32     	; 0x4320 <__stack+0x321>
    4300:	12 96       	adiw	r26, 0x02	; 2
    4302:	8d 91       	ld	r24, X+
    4304:	9c 91       	ld	r25, X
    4306:	13 97       	sbiw	r26, 0x03	; 3
    4308:	a8 16       	cp	r10, r24
    430a:	b9 06       	cpc	r11, r25
    430c:	49 f4       	brne	.+18     	; 0x4320 <__stack+0x321>
    430e:	14 96       	adiw	r26, 0x04	; 4
    4310:	8d 91       	ld	r24, X+
    4312:	9c 91       	ld	r25, X
    4314:	15 97       	sbiw	r26, 0x05	; 5
    4316:	88 16       	cp	r8, r24
    4318:	99 06       	cpc	r9, r25
    431a:	11 f4       	brne	.+4      	; 0x4320 <__stack+0x321>
    431c:	27 86       	std	Z+15, r2	; 0x0f
    431e:	30 8a       	std	Z+16, r3	; 0x10
    4320:	f1 01       	movw	r30, r2
    4322:	20 8f       	std	Z+24, r18	; 0x18
    4324:	e6 80       	ldd	r14, Z+6	; 0x06
    4326:	f7 80       	ldd	r15, Z+7	; 0x07
    4328:	62 85       	ldd	r22, Z+10	; 0x0a
    432a:	73 85       	ldd	r23, Z+11	; 0x0b
    432c:	84 01       	movw	r16, r8
    432e:	95 01       	movw	r18, r10
    4330:	a6 01       	movw	r20, r12
    4332:	8b 81       	ldd	r24, Y+3	; 0x03
    4334:	9c 81       	ldd	r25, Y+4	; 0x04
    4336:	0e 94 42 01 	call	0x284	; 0x284 <_ZN4core3dfsEP4nodeiiii>
    433a:	d1 01       	movw	r26, r2
    433c:	16 96       	adiw	r26, 0x06	; 6
    433e:	ed 90       	ld	r14, X+
    4340:	fc 90       	ld	r15, X
    4342:	17 97       	sbiw	r26, 0x07	; 7
    4344:	1c 96       	adiw	r26, 0x0c	; 12
    4346:	6d 91       	ld	r22, X+
    4348:	7c 91       	ld	r23, X
    434a:	1d 97       	sbiw	r26, 0x0d	; 13
    434c:	95 01       	movw	r18, r10
    434e:	a6 01       	movw	r20, r12
    4350:	8b 81       	ldd	r24, Y+3	; 0x03
    4352:	9c 81       	ldd	r25, Y+4	; 0x04
    4354:	0e 94 42 01 	call	0x284	; 0x284 <_ZN4core3dfsEP4nodeiiii>
    4358:	f1 01       	movw	r30, r2
    435a:	e6 80       	ldd	r14, Z+6	; 0x06
    435c:	f7 80       	ldd	r15, Z+7	; 0x07
    435e:	66 85       	ldd	r22, Z+14	; 0x0e
    4360:	77 85       	ldd	r23, Z+15	; 0x0f
    4362:	95 01       	movw	r18, r10
    4364:	a6 01       	movw	r20, r12
    4366:	8b 81       	ldd	r24, Y+3	; 0x03
    4368:	9c 81       	ldd	r25, Y+4	; 0x04
    436a:	0e 94 42 01 	call	0x284	; 0x284 <_ZN4core3dfsEP4nodeiiii>
    436e:	d1 01       	movw	r26, r2
    4370:	16 96       	adiw	r26, 0x06	; 6
    4372:	ed 90       	ld	r14, X+
    4374:	fc 90       	ld	r15, X
    4376:	17 97       	sbiw	r26, 0x07	; 7
    4378:	50 96       	adiw	r26, 0x10	; 16
    437a:	6d 91       	ld	r22, X+
    437c:	7c 91       	ld	r23, X
    437e:	51 97       	sbiw	r26, 0x11	; 17
    4380:	95 01       	movw	r18, r10
    4382:	a6 01       	movw	r20, r12
    4384:	8b 81       	ldd	r24, Y+3	; 0x03
    4386:	9c 81       	ldd	r25, Y+4	; 0x04
    4388:	0e 94 42 01 	call	0x284	; 0x284 <_ZN4core3dfsEP4nodeiiii>
    438c:	f2 01       	movw	r30, r4
    438e:	86 81       	ldd	r24, Z+6	; 0x06
    4390:	97 81       	ldd	r25, Z+7	; 0x07
    4392:	26 84       	ldd	r2, Z+14	; 0x0e
    4394:	37 84       	ldd	r3, Z+15	; 0x0f
    4396:	21 14       	cp	r2, r1
    4398:	31 04       	cpc	r3, r1
    439a:	09 f4       	brne	.+2      	; 0x439e <__stack+0x39f>
    439c:	68 c0       	rjmp	.+208    	; 0x446e <__stack+0x46f>
    439e:	01 96       	adiw	r24, 0x01	; 1
    43a0:	d1 01       	movw	r26, r2
    43a2:	16 96       	adiw	r26, 0x06	; 6
    43a4:	2d 91       	ld	r18, X+
    43a6:	3c 91       	ld	r19, X
    43a8:	17 97       	sbiw	r26, 0x07	; 7
    43aa:	82 17       	cp	r24, r18
    43ac:	93 07       	cpc	r25, r19
    43ae:	24 f4       	brge	.+8      	; 0x43b8 <__stack+0x3b9>
    43b0:	16 96       	adiw	r26, 0x06	; 6
    43b2:	8d 93       	st	X+, r24
    43b4:	9c 93       	st	X, r25
    43b6:	17 97       	sbiw	r26, 0x07	; 7
    43b8:	eb 81       	ldd	r30, Y+3	; 0x03
    43ba:	fc 81       	ldd	r31, Y+4	; 0x04
    43bc:	26 85       	ldd	r18, Z+14	; 0x0e
    43be:	d1 01       	movw	r26, r2
    43c0:	58 96       	adiw	r26, 0x18	; 24
    43c2:	8c 91       	ld	r24, X
    43c4:	58 97       	sbiw	r26, 0x18	; 24
    43c6:	82 17       	cp	r24, r18
    43c8:	09 f4       	brne	.+2      	; 0x43cc <__stack+0x3cd>
    43ca:	51 c0       	rjmp	.+162    	; 0x446e <__stack+0x46f>
    43cc:	83 89       	ldd	r24, Z+19	; 0x13
    43ce:	94 89       	ldd	r25, Z+20	; 0x14
    43d0:	01 96       	adiw	r24, 0x01	; 1
    43d2:	83 8b       	std	Z+19, r24	; 0x13
    43d4:	94 8b       	std	Z+20, r25	; 0x14
    43d6:	8d 91       	ld	r24, X+
    43d8:	9c 91       	ld	r25, X
    43da:	11 97       	sbiw	r26, 0x01	; 1
    43dc:	c8 16       	cp	r12, r24
    43de:	d9 06       	cpc	r13, r25
    43e0:	81 f4       	brne	.+32     	; 0x4402 <__stack+0x403>
    43e2:	12 96       	adiw	r26, 0x02	; 2
    43e4:	8d 91       	ld	r24, X+
    43e6:	9c 91       	ld	r25, X
    43e8:	13 97       	sbiw	r26, 0x03	; 3
    43ea:	a8 16       	cp	r10, r24
    43ec:	b9 06       	cpc	r11, r25
    43ee:	49 f4       	brne	.+18     	; 0x4402 <__stack+0x403>
    43f0:	14 96       	adiw	r26, 0x04	; 4
    43f2:	8d 91       	ld	r24, X+
    43f4:	9c 91       	ld	r25, X
    43f6:	15 97       	sbiw	r26, 0x05	; 5
    43f8:	88 16       	cp	r8, r24
    43fa:	99 06       	cpc	r9, r25
    43fc:	11 f4       	brne	.+4      	; 0x4402 <__stack+0x403>
    43fe:	27 86       	std	Z+15, r2	; 0x0f
    4400:	30 8a       	std	Z+16, r3	; 0x10
    4402:	f1 01       	movw	r30, r2
    4404:	20 8f       	std	Z+24, r18	; 0x18
    4406:	e6 80       	ldd	r14, Z+6	; 0x06
    4408:	f7 80       	ldd	r15, Z+7	; 0x07
    440a:	62 85       	ldd	r22, Z+10	; 0x0a
    440c:	73 85       	ldd	r23, Z+11	; 0x0b
    440e:	84 01       	movw	r16, r8
    4410:	95 01       	movw	r18, r10
    4412:	a6 01       	movw	r20, r12
    4414:	8b 81       	ldd	r24, Y+3	; 0x03
    4416:	9c 81       	ldd	r25, Y+4	; 0x04
    4418:	0e 94 42 01 	call	0x284	; 0x284 <_ZN4core3dfsEP4nodeiiii>
    441c:	d1 01       	movw	r26, r2
    441e:	16 96       	adiw	r26, 0x06	; 6
    4420:	ed 90       	ld	r14, X+
    4422:	fc 90       	ld	r15, X
    4424:	17 97       	sbiw	r26, 0x07	; 7
    4426:	1c 96       	adiw	r26, 0x0c	; 12
    4428:	6d 91       	ld	r22, X+
    442a:	7c 91       	ld	r23, X
    442c:	1d 97       	sbiw	r26, 0x0d	; 13
    442e:	95 01       	movw	r18, r10
    4430:	a6 01       	movw	r20, r12
    4432:	8b 81       	ldd	r24, Y+3	; 0x03
    4434:	9c 81       	ldd	r25, Y+4	; 0x04
    4436:	0e 94 42 01 	call	0x284	; 0x284 <_ZN4core3dfsEP4nodeiiii>
    443a:	f1 01       	movw	r30, r2
    443c:	e6 80       	ldd	r14, Z+6	; 0x06
    443e:	f7 80       	ldd	r15, Z+7	; 0x07
    4440:	66 85       	ldd	r22, Z+14	; 0x0e
    4442:	77 85       	ldd	r23, Z+15	; 0x0f
    4444:	95 01       	movw	r18, r10
    4446:	a6 01       	movw	r20, r12
    4448:	8b 81       	ldd	r24, Y+3	; 0x03
    444a:	9c 81       	ldd	r25, Y+4	; 0x04
    444c:	0e 94 42 01 	call	0x284	; 0x284 <_ZN4core3dfsEP4nodeiiii>
    4450:	d1 01       	movw	r26, r2
    4452:	16 96       	adiw	r26, 0x06	; 6
    4454:	ed 90       	ld	r14, X+
    4456:	fc 90       	ld	r15, X
    4458:	17 97       	sbiw	r26, 0x07	; 7
    445a:	50 96       	adiw	r26, 0x10	; 16
    445c:	6d 91       	ld	r22, X+
    445e:	7c 91       	ld	r23, X
    4460:	51 97       	sbiw	r26, 0x11	; 17
    4462:	95 01       	movw	r18, r10
    4464:	a6 01       	movw	r20, r12
    4466:	8b 81       	ldd	r24, Y+3	; 0x03
    4468:	9c 81       	ldd	r25, Y+4	; 0x04
    446a:	0e 94 42 01 	call	0x284	; 0x284 <_ZN4core3dfsEP4nodeiiii>
    446e:	f2 01       	movw	r30, r4
    4470:	86 81       	ldd	r24, Z+6	; 0x06
    4472:	97 81       	ldd	r25, Z+7	; 0x07
    4474:	40 88       	ldd	r4, Z+16	; 0x10
    4476:	51 88       	ldd	r5, Z+17	; 0x11
    4478:	41 14       	cp	r4, r1
    447a:	51 04       	cpc	r5, r1
    447c:	09 f4       	brne	.+2      	; 0x4480 <__stack+0x481>
    447e:	68 c0       	rjmp	.+208    	; 0x4550 <__stack+0x551>
    4480:	01 96       	adiw	r24, 0x01	; 1
    4482:	d2 01       	movw	r26, r4
    4484:	16 96       	adiw	r26, 0x06	; 6
    4486:	2d 91       	ld	r18, X+
    4488:	3c 91       	ld	r19, X
    448a:	17 97       	sbiw	r26, 0x07	; 7
    448c:	82 17       	cp	r24, r18
    448e:	93 07       	cpc	r25, r19
    4490:	24 f4       	brge	.+8      	; 0x449a <__stack+0x49b>
    4492:	16 96       	adiw	r26, 0x06	; 6
    4494:	8d 93       	st	X+, r24
    4496:	9c 93       	st	X, r25
    4498:	17 97       	sbiw	r26, 0x07	; 7
    449a:	eb 81       	ldd	r30, Y+3	; 0x03
    449c:	fc 81       	ldd	r31, Y+4	; 0x04
    449e:	26 85       	ldd	r18, Z+14	; 0x0e
    44a0:	d2 01       	movw	r26, r4
    44a2:	58 96       	adiw	r26, 0x18	; 24
    44a4:	8c 91       	ld	r24, X
    44a6:	58 97       	sbiw	r26, 0x18	; 24
    44a8:	82 17       	cp	r24, r18
    44aa:	09 f4       	brne	.+2      	; 0x44ae <__stack+0x4af>
    44ac:	51 c0       	rjmp	.+162    	; 0x4550 <__stack+0x551>
    44ae:	83 89       	ldd	r24, Z+19	; 0x13
    44b0:	94 89       	ldd	r25, Z+20	; 0x14
    44b2:	01 96       	adiw	r24, 0x01	; 1
    44b4:	83 8b       	std	Z+19, r24	; 0x13
    44b6:	94 8b       	std	Z+20, r25	; 0x14
    44b8:	8d 91       	ld	r24, X+
    44ba:	9c 91       	ld	r25, X
    44bc:	11 97       	sbiw	r26, 0x01	; 1
    44be:	c8 16       	cp	r12, r24
    44c0:	d9 06       	cpc	r13, r25
    44c2:	81 f4       	brne	.+32     	; 0x44e4 <__stack+0x4e5>
    44c4:	12 96       	adiw	r26, 0x02	; 2
    44c6:	8d 91       	ld	r24, X+
    44c8:	9c 91       	ld	r25, X
    44ca:	13 97       	sbiw	r26, 0x03	; 3
    44cc:	a8 16       	cp	r10, r24
    44ce:	b9 06       	cpc	r11, r25
    44d0:	49 f4       	brne	.+18     	; 0x44e4 <__stack+0x4e5>
    44d2:	14 96       	adiw	r26, 0x04	; 4
    44d4:	8d 91       	ld	r24, X+
    44d6:	9c 91       	ld	r25, X
    44d8:	15 97       	sbiw	r26, 0x05	; 5
    44da:	88 16       	cp	r8, r24
    44dc:	99 06       	cpc	r9, r25
    44de:	11 f4       	brne	.+4      	; 0x44e4 <__stack+0x4e5>
    44e0:	47 86       	std	Z+15, r4	; 0x0f
    44e2:	50 8a       	std	Z+16, r5	; 0x10
    44e4:	f2 01       	movw	r30, r4
    44e6:	20 8f       	std	Z+24, r18	; 0x18
    44e8:	e6 80       	ldd	r14, Z+6	; 0x06
    44ea:	f7 80       	ldd	r15, Z+7	; 0x07
    44ec:	62 85       	ldd	r22, Z+10	; 0x0a
    44ee:	73 85       	ldd	r23, Z+11	; 0x0b
    44f0:	84 01       	movw	r16, r8
    44f2:	95 01       	movw	r18, r10
    44f4:	a6 01       	movw	r20, r12
    44f6:	8b 81       	ldd	r24, Y+3	; 0x03
    44f8:	9c 81       	ldd	r25, Y+4	; 0x04
    44fa:	0e 94 42 01 	call	0x284	; 0x284 <_ZN4core3dfsEP4nodeiiii>
    44fe:	d2 01       	movw	r26, r4
    4500:	16 96       	adiw	r26, 0x06	; 6
    4502:	ed 90       	ld	r14, X+
    4504:	fc 90       	ld	r15, X
    4506:	17 97       	sbiw	r26, 0x07	; 7
    4508:	1c 96       	adiw	r26, 0x0c	; 12
    450a:	6d 91       	ld	r22, X+
    450c:	7c 91       	ld	r23, X
    450e:	1d 97       	sbiw	r26, 0x0d	; 13
    4510:	95 01       	movw	r18, r10
    4512:	a6 01       	movw	r20, r12
    4514:	8b 81       	ldd	r24, Y+3	; 0x03
    4516:	9c 81       	ldd	r25, Y+4	; 0x04
    4518:	0e 94 42 01 	call	0x284	; 0x284 <_ZN4core3dfsEP4nodeiiii>
    451c:	f2 01       	movw	r30, r4
    451e:	e6 80       	ldd	r14, Z+6	; 0x06
    4520:	f7 80       	ldd	r15, Z+7	; 0x07
    4522:	66 85       	ldd	r22, Z+14	; 0x0e
    4524:	77 85       	ldd	r23, Z+15	; 0x0f
    4526:	95 01       	movw	r18, r10
    4528:	a6 01       	movw	r20, r12
    452a:	8b 81       	ldd	r24, Y+3	; 0x03
    452c:	9c 81       	ldd	r25, Y+4	; 0x04
    452e:	0e 94 42 01 	call	0x284	; 0x284 <_ZN4core3dfsEP4nodeiiii>
    4532:	d2 01       	movw	r26, r4
    4534:	16 96       	adiw	r26, 0x06	; 6
    4536:	ed 90       	ld	r14, X+
    4538:	fc 90       	ld	r15, X
    453a:	17 97       	sbiw	r26, 0x07	; 7
    453c:	50 96       	adiw	r26, 0x10	; 16
    453e:	6d 91       	ld	r22, X+
    4540:	7c 91       	ld	r23, X
    4542:	51 97       	sbiw	r26, 0x11	; 17
    4544:	95 01       	movw	r18, r10
    4546:	a6 01       	movw	r20, r12
    4548:	8b 81       	ldd	r24, Y+3	; 0x03
    454a:	9c 81       	ldd	r25, Y+4	; 0x04
    454c:	0e 94 42 01 	call	0x284	; 0x284 <_ZN4core3dfsEP4nodeiiii>
    4550:	f3 01       	movw	r30, r6
    4552:	86 81       	ldd	r24, Z+6	; 0x06
    4554:	97 81       	ldd	r25, Z+7	; 0x07
    4556:	46 84       	ldd	r4, Z+14	; 0x0e
    4558:	57 84       	ldd	r5, Z+15	; 0x0f
    455a:	41 14       	cp	r4, r1
    455c:	51 04       	cpc	r5, r1
    455e:	09 f4       	brne	.+2      	; 0x4562 <__stack+0x563>
    4560:	f7 c1       	rjmp	.+1006   	; 0x4950 <__stack+0x951>
    4562:	01 96       	adiw	r24, 0x01	; 1
    4564:	d2 01       	movw	r26, r4
    4566:	16 96       	adiw	r26, 0x06	; 6
    4568:	2d 91       	ld	r18, X+
    456a:	3c 91       	ld	r19, X
    456c:	17 97       	sbiw	r26, 0x07	; 7
    456e:	82 17       	cp	r24, r18
    4570:	93 07       	cpc	r25, r19
    4572:	24 f4       	brge	.+8      	; 0x457c <__stack+0x57d>
    4574:	16 96       	adiw	r26, 0x06	; 6
    4576:	8d 93       	st	X+, r24
    4578:	9c 93       	st	X, r25
    457a:	17 97       	sbiw	r26, 0x07	; 7
    457c:	eb 81       	ldd	r30, Y+3	; 0x03
    457e:	fc 81       	ldd	r31, Y+4	; 0x04
    4580:	26 85       	ldd	r18, Z+14	; 0x0e
    4582:	d2 01       	movw	r26, r4
    4584:	58 96       	adiw	r26, 0x18	; 24
    4586:	8c 91       	ld	r24, X
    4588:	58 97       	sbiw	r26, 0x18	; 24
    458a:	82 17       	cp	r24, r18
    458c:	09 f4       	brne	.+2      	; 0x4590 <__stack+0x591>
    458e:	e0 c1       	rjmp	.+960    	; 0x4950 <__stack+0x951>
    4590:	83 89       	ldd	r24, Z+19	; 0x13
    4592:	94 89       	ldd	r25, Z+20	; 0x14
    4594:	01 96       	adiw	r24, 0x01	; 1
    4596:	83 8b       	std	Z+19, r24	; 0x13
    4598:	94 8b       	std	Z+20, r25	; 0x14
    459a:	8d 91       	ld	r24, X+
    459c:	9c 91       	ld	r25, X
    459e:	11 97       	sbiw	r26, 0x01	; 1
    45a0:	c8 16       	cp	r12, r24
    45a2:	d9 06       	cpc	r13, r25
    45a4:	81 f4       	brne	.+32     	; 0x45c6 <__stack+0x5c7>
    45a6:	12 96       	adiw	r26, 0x02	; 2
    45a8:	8d 91       	ld	r24, X+
    45aa:	9c 91       	ld	r25, X
    45ac:	13 97       	sbiw	r26, 0x03	; 3
    45ae:	a8 16       	cp	r10, r24
    45b0:	b9 06       	cpc	r11, r25
    45b2:	49 f4       	brne	.+18     	; 0x45c6 <__stack+0x5c7>
    45b4:	14 96       	adiw	r26, 0x04	; 4
    45b6:	8d 91       	ld	r24, X+
    45b8:	9c 91       	ld	r25, X
    45ba:	15 97       	sbiw	r26, 0x05	; 5
    45bc:	88 16       	cp	r8, r24
    45be:	99 06       	cpc	r9, r25
    45c0:	11 f4       	brne	.+4      	; 0x45c6 <__stack+0x5c7>
    45c2:	47 86       	std	Z+15, r4	; 0x0f
    45c4:	50 8a       	std	Z+16, r5	; 0x10
    45c6:	f2 01       	movw	r30, r4
    45c8:	20 8f       	std	Z+24, r18	; 0x18
    45ca:	86 81       	ldd	r24, Z+6	; 0x06
    45cc:	97 81       	ldd	r25, Z+7	; 0x07
    45ce:	22 84       	ldd	r2, Z+10	; 0x0a
    45d0:	33 84       	ldd	r3, Z+11	; 0x0b
    45d2:	21 14       	cp	r2, r1
    45d4:	31 04       	cpc	r3, r1
    45d6:	09 f4       	brne	.+2      	; 0x45da <__stack+0x5db>
    45d8:	68 c0       	rjmp	.+208    	; 0x46aa <__stack+0x6ab>
    45da:	01 96       	adiw	r24, 0x01	; 1
    45dc:	d1 01       	movw	r26, r2
    45de:	16 96       	adiw	r26, 0x06	; 6
    45e0:	2d 91       	ld	r18, X+
    45e2:	3c 91       	ld	r19, X
    45e4:	17 97       	sbiw	r26, 0x07	; 7
    45e6:	82 17       	cp	r24, r18
    45e8:	93 07       	cpc	r25, r19
    45ea:	24 f4       	brge	.+8      	; 0x45f4 <__stack+0x5f5>
    45ec:	16 96       	adiw	r26, 0x06	; 6
    45ee:	8d 93       	st	X+, r24
    45f0:	9c 93       	st	X, r25
    45f2:	17 97       	sbiw	r26, 0x07	; 7
    45f4:	eb 81       	ldd	r30, Y+3	; 0x03
    45f6:	fc 81       	ldd	r31, Y+4	; 0x04
    45f8:	26 85       	ldd	r18, Z+14	; 0x0e
    45fa:	d1 01       	movw	r26, r2
    45fc:	58 96       	adiw	r26, 0x18	; 24
    45fe:	8c 91       	ld	r24, X
    4600:	58 97       	sbiw	r26, 0x18	; 24
    4602:	82 17       	cp	r24, r18
    4604:	09 f4       	brne	.+2      	; 0x4608 <__stack+0x609>
    4606:	51 c0       	rjmp	.+162    	; 0x46aa <__stack+0x6ab>
    4608:	83 89       	ldd	r24, Z+19	; 0x13
    460a:	94 89       	ldd	r25, Z+20	; 0x14
    460c:	01 96       	adiw	r24, 0x01	; 1
    460e:	83 8b       	std	Z+19, r24	; 0x13
    4610:	94 8b       	std	Z+20, r25	; 0x14
    4612:	8d 91       	ld	r24, X+
    4614:	9c 91       	ld	r25, X
    4616:	11 97       	sbiw	r26, 0x01	; 1
    4618:	c8 16       	cp	r12, r24
    461a:	d9 06       	cpc	r13, r25
    461c:	81 f4       	brne	.+32     	; 0x463e <__stack+0x63f>
    461e:	12 96       	adiw	r26, 0x02	; 2
    4620:	8d 91       	ld	r24, X+
    4622:	9c 91       	ld	r25, X
    4624:	13 97       	sbiw	r26, 0x03	; 3
    4626:	a8 16       	cp	r10, r24
    4628:	b9 06       	cpc	r11, r25
    462a:	49 f4       	brne	.+18     	; 0x463e <__stack+0x63f>
    462c:	14 96       	adiw	r26, 0x04	; 4
    462e:	8d 91       	ld	r24, X+
    4630:	9c 91       	ld	r25, X
    4632:	15 97       	sbiw	r26, 0x05	; 5
    4634:	88 16       	cp	r8, r24
    4636:	99 06       	cpc	r9, r25
    4638:	11 f4       	brne	.+4      	; 0x463e <__stack+0x63f>
    463a:	27 86       	std	Z+15, r2	; 0x0f
    463c:	30 8a       	std	Z+16, r3	; 0x10
    463e:	f1 01       	movw	r30, r2
    4640:	20 8f       	std	Z+24, r18	; 0x18
    4642:	e6 80       	ldd	r14, Z+6	; 0x06
    4644:	f7 80       	ldd	r15, Z+7	; 0x07
    4646:	62 85       	ldd	r22, Z+10	; 0x0a
    4648:	73 85       	ldd	r23, Z+11	; 0x0b
    464a:	84 01       	movw	r16, r8
    464c:	95 01       	movw	r18, r10
    464e:	a6 01       	movw	r20, r12
    4650:	8b 81       	ldd	r24, Y+3	; 0x03
    4652:	9c 81       	ldd	r25, Y+4	; 0x04
    4654:	0e 94 42 01 	call	0x284	; 0x284 <_ZN4core3dfsEP4nodeiiii>
    4658:	d1 01       	movw	r26, r2
    465a:	16 96       	adiw	r26, 0x06	; 6
    465c:	ed 90       	ld	r14, X+
    465e:	fc 90       	ld	r15, X
    4660:	17 97       	sbiw	r26, 0x07	; 7
    4662:	1c 96       	adiw	r26, 0x0c	; 12
    4664:	6d 91       	ld	r22, X+
    4666:	7c 91       	ld	r23, X
    4668:	1d 97       	sbiw	r26, 0x0d	; 13
    466a:	95 01       	movw	r18, r10
    466c:	a6 01       	movw	r20, r12
    466e:	8b 81       	ldd	r24, Y+3	; 0x03
    4670:	9c 81       	ldd	r25, Y+4	; 0x04
    4672:	0e 94 42 01 	call	0x284	; 0x284 <_ZN4core3dfsEP4nodeiiii>
    4676:	f1 01       	movw	r30, r2
    4678:	e6 80       	ldd	r14, Z+6	; 0x06
    467a:	f7 80       	ldd	r15, Z+7	; 0x07
    467c:	66 85       	ldd	r22, Z+14	; 0x0e
    467e:	77 85       	ldd	r23, Z+15	; 0x0f
    4680:	95 01       	movw	r18, r10
    4682:	a6 01       	movw	r20, r12
    4684:	8b 81       	ldd	r24, Y+3	; 0x03
    4686:	9c 81       	ldd	r25, Y+4	; 0x04
    4688:	0e 94 42 01 	call	0x284	; 0x284 <_ZN4core3dfsEP4nodeiiii>
    468c:	d1 01       	movw	r26, r2
    468e:	16 96       	adiw	r26, 0x06	; 6
    4690:	ed 90       	ld	r14, X+
    4692:	fc 90       	ld	r15, X
    4694:	17 97       	sbiw	r26, 0x07	; 7
    4696:	50 96       	adiw	r26, 0x10	; 16
    4698:	6d 91       	ld	r22, X+
    469a:	7c 91       	ld	r23, X
    469c:	51 97       	sbiw	r26, 0x11	; 17
    469e:	95 01       	movw	r18, r10
    46a0:	a6 01       	movw	r20, r12
    46a2:	8b 81       	ldd	r24, Y+3	; 0x03
    46a4:	9c 81       	ldd	r25, Y+4	; 0x04
    46a6:	0e 94 42 01 	call	0x284	; 0x284 <_ZN4core3dfsEP4nodeiiii>
    46aa:	f2 01       	movw	r30, r4
    46ac:	86 81       	ldd	r24, Z+6	; 0x06
    46ae:	97 81       	ldd	r25, Z+7	; 0x07
    46b0:	24 84       	ldd	r2, Z+12	; 0x0c
    46b2:	35 84       	ldd	r3, Z+13	; 0x0d
    46b4:	21 14       	cp	r2, r1
    46b6:	31 04       	cpc	r3, r1
    46b8:	09 f4       	brne	.+2      	; 0x46bc <__stack+0x6bd>
    46ba:	68 c0       	rjmp	.+208    	; 0x478c <__stack+0x78d>
    46bc:	01 96       	adiw	r24, 0x01	; 1
    46be:	d1 01       	movw	r26, r2
    46c0:	16 96       	adiw	r26, 0x06	; 6
    46c2:	2d 91       	ld	r18, X+
    46c4:	3c 91       	ld	r19, X
    46c6:	17 97       	sbiw	r26, 0x07	; 7
    46c8:	82 17       	cp	r24, r18
    46ca:	93 07       	cpc	r25, r19
    46cc:	24 f4       	brge	.+8      	; 0x46d6 <__stack+0x6d7>
    46ce:	16 96       	adiw	r26, 0x06	; 6
    46d0:	8d 93       	st	X+, r24
    46d2:	9c 93       	st	X, r25
    46d4:	17 97       	sbiw	r26, 0x07	; 7
    46d6:	eb 81       	ldd	r30, Y+3	; 0x03
    46d8:	fc 81       	ldd	r31, Y+4	; 0x04
    46da:	26 85       	ldd	r18, Z+14	; 0x0e
    46dc:	d1 01       	movw	r26, r2
    46de:	58 96       	adiw	r26, 0x18	; 24
    46e0:	8c 91       	ld	r24, X
    46e2:	58 97       	sbiw	r26, 0x18	; 24
    46e4:	82 17       	cp	r24, r18
    46e6:	09 f4       	brne	.+2      	; 0x46ea <__stack+0x6eb>
    46e8:	51 c0       	rjmp	.+162    	; 0x478c <__stack+0x78d>
    46ea:	83 89       	ldd	r24, Z+19	; 0x13
    46ec:	94 89       	ldd	r25, Z+20	; 0x14
    46ee:	01 96       	adiw	r24, 0x01	; 1
    46f0:	83 8b       	std	Z+19, r24	; 0x13
    46f2:	94 8b       	std	Z+20, r25	; 0x14
    46f4:	8d 91       	ld	r24, X+
    46f6:	9c 91       	ld	r25, X
    46f8:	11 97       	sbiw	r26, 0x01	; 1
    46fa:	c8 16       	cp	r12, r24
    46fc:	d9 06       	cpc	r13, r25
    46fe:	81 f4       	brne	.+32     	; 0x4720 <__stack+0x721>
    4700:	12 96       	adiw	r26, 0x02	; 2
    4702:	8d 91       	ld	r24, X+
    4704:	9c 91       	ld	r25, X
    4706:	13 97       	sbiw	r26, 0x03	; 3
    4708:	a8 16       	cp	r10, r24
    470a:	b9 06       	cpc	r11, r25
    470c:	49 f4       	brne	.+18     	; 0x4720 <__stack+0x721>
    470e:	14 96       	adiw	r26, 0x04	; 4
    4710:	8d 91       	ld	r24, X+
    4712:	9c 91       	ld	r25, X
    4714:	15 97       	sbiw	r26, 0x05	; 5
    4716:	88 16       	cp	r8, r24
    4718:	99 06       	cpc	r9, r25
    471a:	11 f4       	brne	.+4      	; 0x4720 <__stack+0x721>
    471c:	27 86       	std	Z+15, r2	; 0x0f
    471e:	30 8a       	std	Z+16, r3	; 0x10
    4720:	f1 01       	movw	r30, r2
    4722:	20 8f       	std	Z+24, r18	; 0x18
    4724:	e6 80       	ldd	r14, Z+6	; 0x06
    4726:	f7 80       	ldd	r15, Z+7	; 0x07
    4728:	62 85       	ldd	r22, Z+10	; 0x0a
    472a:	73 85       	ldd	r23, Z+11	; 0x0b
    472c:	84 01       	movw	r16, r8
    472e:	95 01       	movw	r18, r10
    4730:	a6 01       	movw	r20, r12
    4732:	8b 81       	ldd	r24, Y+3	; 0x03
    4734:	9c 81       	ldd	r25, Y+4	; 0x04
    4736:	0e 94 42 01 	call	0x284	; 0x284 <_ZN4core3dfsEP4nodeiiii>
    473a:	d1 01       	movw	r26, r2
    473c:	16 96       	adiw	r26, 0x06	; 6
    473e:	ed 90       	ld	r14, X+
    4740:	fc 90       	ld	r15, X
    4742:	17 97       	sbiw	r26, 0x07	; 7
    4744:	1c 96       	adiw	r26, 0x0c	; 12
    4746:	6d 91       	ld	r22, X+
    4748:	7c 91       	ld	r23, X
    474a:	1d 97       	sbiw	r26, 0x0d	; 13
    474c:	95 01       	movw	r18, r10
    474e:	a6 01       	movw	r20, r12
    4750:	8b 81       	ldd	r24, Y+3	; 0x03
    4752:	9c 81       	ldd	r25, Y+4	; 0x04
    4754:	0e 94 42 01 	call	0x284	; 0x284 <_ZN4core3dfsEP4nodeiiii>
    4758:	f1 01       	movw	r30, r2
    475a:	e6 80       	ldd	r14, Z+6	; 0x06
    475c:	f7 80       	ldd	r15, Z+7	; 0x07
    475e:	66 85       	ldd	r22, Z+14	; 0x0e
    4760:	77 85       	ldd	r23, Z+15	; 0x0f
    4762:	95 01       	movw	r18, r10
    4764:	a6 01       	movw	r20, r12
    4766:	8b 81       	ldd	r24, Y+3	; 0x03
    4768:	9c 81       	ldd	r25, Y+4	; 0x04
    476a:	0e 94 42 01 	call	0x284	; 0x284 <_ZN4core3dfsEP4nodeiiii>
    476e:	d1 01       	movw	r26, r2
    4770:	16 96       	adiw	r26, 0x06	; 6
    4772:	ed 90       	ld	r14, X+
    4774:	fc 90       	ld	r15, X
    4776:	17 97       	sbiw	r26, 0x07	; 7
    4778:	50 96       	adiw	r26, 0x10	; 16
    477a:	6d 91       	ld	r22, X+
    477c:	7c 91       	ld	r23, X
    477e:	51 97       	sbiw	r26, 0x11	; 17
    4780:	95 01       	movw	r18, r10
    4782:	a6 01       	movw	r20, r12
    4784:	8b 81       	ldd	r24, Y+3	; 0x03
    4786:	9c 81       	ldd	r25, Y+4	; 0x04
    4788:	0e 94 42 01 	call	0x284	; 0x284 <_ZN4core3dfsEP4nodeiiii>
    478c:	f2 01       	movw	r30, r4
    478e:	86 81       	ldd	r24, Z+6	; 0x06
    4790:	97 81       	ldd	r25, Z+7	; 0x07
    4792:	26 84       	ldd	r2, Z+14	; 0x0e
    4794:	37 84       	ldd	r3, Z+15	; 0x0f
    4796:	21 14       	cp	r2, r1
    4798:	31 04       	cpc	r3, r1
    479a:	09 f4       	brne	.+2      	; 0x479e <__stack+0x79f>
    479c:	68 c0       	rjmp	.+208    	; 0x486e <__stack+0x86f>
    479e:	01 96       	adiw	r24, 0x01	; 1
    47a0:	d1 01       	movw	r26, r2
    47a2:	16 96       	adiw	r26, 0x06	; 6
    47a4:	2d 91       	ld	r18, X+
    47a6:	3c 91       	ld	r19, X
    47a8:	17 97       	sbiw	r26, 0x07	; 7
    47aa:	82 17       	cp	r24, r18
    47ac:	93 07       	cpc	r25, r19
    47ae:	24 f4       	brge	.+8      	; 0x47b8 <__stack+0x7b9>
    47b0:	16 96       	adiw	r26, 0x06	; 6
    47b2:	8d 93       	st	X+, r24
    47b4:	9c 93       	st	X, r25
    47b6:	17 97       	sbiw	r26, 0x07	; 7
    47b8:	eb 81       	ldd	r30, Y+3	; 0x03
    47ba:	fc 81       	ldd	r31, Y+4	; 0x04
    47bc:	26 85       	ldd	r18, Z+14	; 0x0e
    47be:	d1 01       	movw	r26, r2
    47c0:	58 96       	adiw	r26, 0x18	; 24
    47c2:	8c 91       	ld	r24, X
    47c4:	58 97       	sbiw	r26, 0x18	; 24
    47c6:	82 17       	cp	r24, r18
    47c8:	09 f4       	brne	.+2      	; 0x47cc <__stack+0x7cd>
    47ca:	51 c0       	rjmp	.+162    	; 0x486e <__stack+0x86f>
    47cc:	83 89       	ldd	r24, Z+19	; 0x13
    47ce:	94 89       	ldd	r25, Z+20	; 0x14
    47d0:	01 96       	adiw	r24, 0x01	; 1
    47d2:	83 8b       	std	Z+19, r24	; 0x13
    47d4:	94 8b       	std	Z+20, r25	; 0x14
    47d6:	8d 91       	ld	r24, X+
    47d8:	9c 91       	ld	r25, X
    47da:	11 97       	sbiw	r26, 0x01	; 1
    47dc:	c8 16       	cp	r12, r24
    47de:	d9 06       	cpc	r13, r25
    47e0:	81 f4       	brne	.+32     	; 0x4802 <__stack+0x803>
    47e2:	12 96       	adiw	r26, 0x02	; 2
    47e4:	8d 91       	ld	r24, X+
    47e6:	9c 91       	ld	r25, X
    47e8:	13 97       	sbiw	r26, 0x03	; 3
    47ea:	a8 16       	cp	r10, r24
    47ec:	b9 06       	cpc	r11, r25
    47ee:	49 f4       	brne	.+18     	; 0x4802 <__stack+0x803>
    47f0:	14 96       	adiw	r26, 0x04	; 4
    47f2:	8d 91       	ld	r24, X+
    47f4:	9c 91       	ld	r25, X
    47f6:	15 97       	sbiw	r26, 0x05	; 5
    47f8:	88 16       	cp	r8, r24
    47fa:	99 06       	cpc	r9, r25
    47fc:	11 f4       	brne	.+4      	; 0x4802 <__stack+0x803>
    47fe:	27 86       	std	Z+15, r2	; 0x0f
    4800:	30 8a       	std	Z+16, r3	; 0x10
    4802:	f1 01       	movw	r30, r2
    4804:	20 8f       	std	Z+24, r18	; 0x18
    4806:	e6 80       	ldd	r14, Z+6	; 0x06
    4808:	f7 80       	ldd	r15, Z+7	; 0x07
    480a:	62 85       	ldd	r22, Z+10	; 0x0a
    480c:	73 85       	ldd	r23, Z+11	; 0x0b
    480e:	84 01       	movw	r16, r8
    4810:	95 01       	movw	r18, r10
    4812:	a6 01       	movw	r20, r12
    4814:	8b 81       	ldd	r24, Y+3	; 0x03
    4816:	9c 81       	ldd	r25, Y+4	; 0x04
    4818:	0e 94 42 01 	call	0x284	; 0x284 <_ZN4core3dfsEP4nodeiiii>
    481c:	d1 01       	movw	r26, r2
    481e:	16 96       	adiw	r26, 0x06	; 6
    4820:	ed 90       	ld	r14, X+
    4822:	fc 90       	ld	r15, X
    4824:	17 97       	sbiw	r26, 0x07	; 7
    4826:	1c 96       	adiw	r26, 0x0c	; 12
    4828:	6d 91       	ld	r22, X+
    482a:	7c 91       	ld	r23, X
    482c:	1d 97       	sbiw	r26, 0x0d	; 13
    482e:	95 01       	movw	r18, r10
    4830:	a6 01       	movw	r20, r12
    4832:	8b 81       	ldd	r24, Y+3	; 0x03
    4834:	9c 81       	ldd	r25, Y+4	; 0x04
    4836:	0e 94 42 01 	call	0x284	; 0x284 <_ZN4core3dfsEP4nodeiiii>
    483a:	f1 01       	movw	r30, r2
    483c:	e6 80       	ldd	r14, Z+6	; 0x06
    483e:	f7 80       	ldd	r15, Z+7	; 0x07
    4840:	66 85       	ldd	r22, Z+14	; 0x0e
    4842:	77 85       	ldd	r23, Z+15	; 0x0f
    4844:	95 01       	movw	r18, r10
    4846:	a6 01       	movw	r20, r12
    4848:	8b 81       	ldd	r24, Y+3	; 0x03
    484a:	9c 81       	ldd	r25, Y+4	; 0x04
    484c:	0e 94 42 01 	call	0x284	; 0x284 <_ZN4core3dfsEP4nodeiiii>
    4850:	d1 01       	movw	r26, r2
    4852:	16 96       	adiw	r26, 0x06	; 6
    4854:	ed 90       	ld	r14, X+
    4856:	fc 90       	ld	r15, X
    4858:	17 97       	sbiw	r26, 0x07	; 7
    485a:	50 96       	adiw	r26, 0x10	; 16
    485c:	6d 91       	ld	r22, X+
    485e:	7c 91       	ld	r23, X
    4860:	51 97       	sbiw	r26, 0x11	; 17
    4862:	95 01       	movw	r18, r10
    4864:	a6 01       	movw	r20, r12
    4866:	8b 81       	ldd	r24, Y+3	; 0x03
    4868:	9c 81       	ldd	r25, Y+4	; 0x04
    486a:	0e 94 42 01 	call	0x284	; 0x284 <_ZN4core3dfsEP4nodeiiii>
    486e:	f2 01       	movw	r30, r4
    4870:	86 81       	ldd	r24, Z+6	; 0x06
    4872:	97 81       	ldd	r25, Z+7	; 0x07
    4874:	40 88       	ldd	r4, Z+16	; 0x10
    4876:	51 88       	ldd	r5, Z+17	; 0x11
    4878:	41 14       	cp	r4, r1
    487a:	51 04       	cpc	r5, r1
    487c:	09 f4       	brne	.+2      	; 0x4880 <__stack+0x881>
    487e:	68 c0       	rjmp	.+208    	; 0x4950 <__stack+0x951>
    4880:	01 96       	adiw	r24, 0x01	; 1
    4882:	d2 01       	movw	r26, r4
    4884:	16 96       	adiw	r26, 0x06	; 6
    4886:	2d 91       	ld	r18, X+
    4888:	3c 91       	ld	r19, X
    488a:	17 97       	sbiw	r26, 0x07	; 7
    488c:	82 17       	cp	r24, r18
    488e:	93 07       	cpc	r25, r19
    4890:	24 f4       	brge	.+8      	; 0x489a <__stack+0x89b>
    4892:	16 96       	adiw	r26, 0x06	; 6
    4894:	8d 93       	st	X+, r24
    4896:	9c 93       	st	X, r25
    4898:	17 97       	sbiw	r26, 0x07	; 7
    489a:	eb 81       	ldd	r30, Y+3	; 0x03
    489c:	fc 81       	ldd	r31, Y+4	; 0x04
    489e:	26 85       	ldd	r18, Z+14	; 0x0e
    48a0:	d2 01       	movw	r26, r4
    48a2:	58 96       	adiw	r26, 0x18	; 24
    48a4:	8c 91       	ld	r24, X
    48a6:	58 97       	sbiw	r26, 0x18	; 24
    48a8:	82 17       	cp	r24, r18
    48aa:	09 f4       	brne	.+2      	; 0x48ae <__stack+0x8af>
    48ac:	51 c0       	rjmp	.+162    	; 0x4950 <__stack+0x951>
    48ae:	83 89       	ldd	r24, Z+19	; 0x13
    48b0:	94 89       	ldd	r25, Z+20	; 0x14
    48b2:	01 96       	adiw	r24, 0x01	; 1
    48b4:	83 8b       	std	Z+19, r24	; 0x13
    48b6:	94 8b       	std	Z+20, r25	; 0x14
    48b8:	8d 91       	ld	r24, X+
    48ba:	9c 91       	ld	r25, X
    48bc:	11 97       	sbiw	r26, 0x01	; 1
    48be:	c8 16       	cp	r12, r24
    48c0:	d9 06       	cpc	r13, r25
    48c2:	81 f4       	brne	.+32     	; 0x48e4 <__stack+0x8e5>
    48c4:	12 96       	adiw	r26, 0x02	; 2
    48c6:	8d 91       	ld	r24, X+
    48c8:	9c 91       	ld	r25, X
    48ca:	13 97       	sbiw	r26, 0x03	; 3
    48cc:	a8 16       	cp	r10, r24
    48ce:	b9 06       	cpc	r11, r25
    48d0:	49 f4       	brne	.+18     	; 0x48e4 <__stack+0x8e5>
    48d2:	14 96       	adiw	r26, 0x04	; 4
    48d4:	8d 91       	ld	r24, X+
    48d6:	9c 91       	ld	r25, X
    48d8:	15 97       	sbiw	r26, 0x05	; 5
    48da:	88 16       	cp	r8, r24
    48dc:	99 06       	cpc	r9, r25
    48de:	11 f4       	brne	.+4      	; 0x48e4 <__stack+0x8e5>
    48e0:	47 86       	std	Z+15, r4	; 0x0f
    48e2:	50 8a       	std	Z+16, r5	; 0x10
    48e4:	f2 01       	movw	r30, r4
    48e6:	20 8f       	std	Z+24, r18	; 0x18
    48e8:	e6 80       	ldd	r14, Z+6	; 0x06
    48ea:	f7 80       	ldd	r15, Z+7	; 0x07
    48ec:	62 85       	ldd	r22, Z+10	; 0x0a
    48ee:	73 85       	ldd	r23, Z+11	; 0x0b
    48f0:	84 01       	movw	r16, r8
    48f2:	95 01       	movw	r18, r10
    48f4:	a6 01       	movw	r20, r12
    48f6:	8b 81       	ldd	r24, Y+3	; 0x03
    48f8:	9c 81       	ldd	r25, Y+4	; 0x04
    48fa:	0e 94 42 01 	call	0x284	; 0x284 <_ZN4core3dfsEP4nodeiiii>
    48fe:	d2 01       	movw	r26, r4
    4900:	16 96       	adiw	r26, 0x06	; 6
    4902:	ed 90       	ld	r14, X+
    4904:	fc 90       	ld	r15, X
    4906:	17 97       	sbiw	r26, 0x07	; 7
    4908:	1c 96       	adiw	r26, 0x0c	; 12
    490a:	6d 91       	ld	r22, X+
    490c:	7c 91       	ld	r23, X
    490e:	1d 97       	sbiw	r26, 0x0d	; 13
    4910:	95 01       	movw	r18, r10
    4912:	a6 01       	movw	r20, r12
    4914:	8b 81       	ldd	r24, Y+3	; 0x03
    4916:	9c 81       	ldd	r25, Y+4	; 0x04
    4918:	0e 94 42 01 	call	0x284	; 0x284 <_ZN4core3dfsEP4nodeiiii>
    491c:	f2 01       	movw	r30, r4
    491e:	e6 80       	ldd	r14, Z+6	; 0x06
    4920:	f7 80       	ldd	r15, Z+7	; 0x07
    4922:	66 85       	ldd	r22, Z+14	; 0x0e
    4924:	77 85       	ldd	r23, Z+15	; 0x0f
    4926:	95 01       	movw	r18, r10
    4928:	a6 01       	movw	r20, r12
    492a:	8b 81       	ldd	r24, Y+3	; 0x03
    492c:	9c 81       	ldd	r25, Y+4	; 0x04
    492e:	0e 94 42 01 	call	0x284	; 0x284 <_ZN4core3dfsEP4nodeiiii>
    4932:	d2 01       	movw	r26, r4
    4934:	16 96       	adiw	r26, 0x06	; 6
    4936:	ed 90       	ld	r14, X+
    4938:	fc 90       	ld	r15, X
    493a:	17 97       	sbiw	r26, 0x07	; 7
    493c:	50 96       	adiw	r26, 0x10	; 16
    493e:	6d 91       	ld	r22, X+
    4940:	7c 91       	ld	r23, X
    4942:	51 97       	sbiw	r26, 0x11	; 17
    4944:	95 01       	movw	r18, r10
    4946:	a6 01       	movw	r20, r12
    4948:	8b 81       	ldd	r24, Y+3	; 0x03
    494a:	9c 81       	ldd	r25, Y+4	; 0x04
    494c:	0e 94 42 01 	call	0x284	; 0x284 <_ZN4core3dfsEP4nodeiiii>
    4950:	f3 01       	movw	r30, r6
    4952:	86 81       	ldd	r24, Z+6	; 0x06
    4954:	97 81       	ldd	r25, Z+7	; 0x07
    4956:	60 88       	ldd	r6, Z+16	; 0x10
    4958:	71 88       	ldd	r7, Z+17	; 0x11
    495a:	61 14       	cp	r6, r1
    495c:	71 04       	cpc	r7, r1
    495e:	09 f4       	brne	.+2      	; 0x4962 <__stack+0x963>
    4960:	f7 c1       	rjmp	.+1006   	; 0x4d50 <__stack+0xd51>
    4962:	01 96       	adiw	r24, 0x01	; 1
    4964:	d3 01       	movw	r26, r6
    4966:	16 96       	adiw	r26, 0x06	; 6
    4968:	2d 91       	ld	r18, X+
    496a:	3c 91       	ld	r19, X
    496c:	17 97       	sbiw	r26, 0x07	; 7
    496e:	82 17       	cp	r24, r18
    4970:	93 07       	cpc	r25, r19
    4972:	24 f4       	brge	.+8      	; 0x497c <__stack+0x97d>
    4974:	16 96       	adiw	r26, 0x06	; 6
    4976:	8d 93       	st	X+, r24
    4978:	9c 93       	st	X, r25
    497a:	17 97       	sbiw	r26, 0x07	; 7
    497c:	eb 81       	ldd	r30, Y+3	; 0x03
    497e:	fc 81       	ldd	r31, Y+4	; 0x04
    4980:	26 85       	ldd	r18, Z+14	; 0x0e
    4982:	d3 01       	movw	r26, r6
    4984:	58 96       	adiw	r26, 0x18	; 24
    4986:	8c 91       	ld	r24, X
    4988:	58 97       	sbiw	r26, 0x18	; 24
    498a:	82 17       	cp	r24, r18
    498c:	09 f4       	brne	.+2      	; 0x4990 <__stack+0x991>
    498e:	e0 c1       	rjmp	.+960    	; 0x4d50 <__stack+0xd51>
    4990:	83 89       	ldd	r24, Z+19	; 0x13
    4992:	94 89       	ldd	r25, Z+20	; 0x14
    4994:	01 96       	adiw	r24, 0x01	; 1
    4996:	83 8b       	std	Z+19, r24	; 0x13
    4998:	94 8b       	std	Z+20, r25	; 0x14
    499a:	8d 91       	ld	r24, X+
    499c:	9c 91       	ld	r25, X
    499e:	11 97       	sbiw	r26, 0x01	; 1
    49a0:	c8 16       	cp	r12, r24
    49a2:	d9 06       	cpc	r13, r25
    49a4:	81 f4       	brne	.+32     	; 0x49c6 <__stack+0x9c7>
    49a6:	12 96       	adiw	r26, 0x02	; 2
    49a8:	8d 91       	ld	r24, X+
    49aa:	9c 91       	ld	r25, X
    49ac:	13 97       	sbiw	r26, 0x03	; 3
    49ae:	a8 16       	cp	r10, r24
    49b0:	b9 06       	cpc	r11, r25
    49b2:	49 f4       	brne	.+18     	; 0x49c6 <__stack+0x9c7>
    49b4:	14 96       	adiw	r26, 0x04	; 4
    49b6:	8d 91       	ld	r24, X+
    49b8:	9c 91       	ld	r25, X
    49ba:	15 97       	sbiw	r26, 0x05	; 5
    49bc:	88 16       	cp	r8, r24
    49be:	99 06       	cpc	r9, r25
    49c0:	11 f4       	brne	.+4      	; 0x49c6 <__stack+0x9c7>
    49c2:	67 86       	std	Z+15, r6	; 0x0f
    49c4:	70 8a       	std	Z+16, r7	; 0x10
    49c6:	f3 01       	movw	r30, r6
    49c8:	20 8f       	std	Z+24, r18	; 0x18
    49ca:	86 81       	ldd	r24, Z+6	; 0x06
    49cc:	97 81       	ldd	r25, Z+7	; 0x07
    49ce:	42 84       	ldd	r4, Z+10	; 0x0a
    49d0:	53 84       	ldd	r5, Z+11	; 0x0b
    49d2:	41 14       	cp	r4, r1
    49d4:	51 04       	cpc	r5, r1
    49d6:	09 f4       	brne	.+2      	; 0x49da <__stack+0x9db>
    49d8:	68 c0       	rjmp	.+208    	; 0x4aaa <__stack+0xaab>
    49da:	01 96       	adiw	r24, 0x01	; 1
    49dc:	d2 01       	movw	r26, r4
    49de:	16 96       	adiw	r26, 0x06	; 6
    49e0:	2d 91       	ld	r18, X+
    49e2:	3c 91       	ld	r19, X
    49e4:	17 97       	sbiw	r26, 0x07	; 7
    49e6:	82 17       	cp	r24, r18
    49e8:	93 07       	cpc	r25, r19
    49ea:	24 f4       	brge	.+8      	; 0x49f4 <__stack+0x9f5>
    49ec:	16 96       	adiw	r26, 0x06	; 6
    49ee:	8d 93       	st	X+, r24
    49f0:	9c 93       	st	X, r25
    49f2:	17 97       	sbiw	r26, 0x07	; 7
    49f4:	eb 81       	ldd	r30, Y+3	; 0x03
    49f6:	fc 81       	ldd	r31, Y+4	; 0x04
    49f8:	26 85       	ldd	r18, Z+14	; 0x0e
    49fa:	d2 01       	movw	r26, r4
    49fc:	58 96       	adiw	r26, 0x18	; 24
    49fe:	8c 91       	ld	r24, X
    4a00:	58 97       	sbiw	r26, 0x18	; 24
    4a02:	82 17       	cp	r24, r18
    4a04:	09 f4       	brne	.+2      	; 0x4a08 <__stack+0xa09>
    4a06:	51 c0       	rjmp	.+162    	; 0x4aaa <__stack+0xaab>
    4a08:	83 89       	ldd	r24, Z+19	; 0x13
    4a0a:	94 89       	ldd	r25, Z+20	; 0x14
    4a0c:	01 96       	adiw	r24, 0x01	; 1
    4a0e:	83 8b       	std	Z+19, r24	; 0x13
    4a10:	94 8b       	std	Z+20, r25	; 0x14
    4a12:	8d 91       	ld	r24, X+
    4a14:	9c 91       	ld	r25, X
    4a16:	11 97       	sbiw	r26, 0x01	; 1
    4a18:	c8 16       	cp	r12, r24
    4a1a:	d9 06       	cpc	r13, r25
    4a1c:	81 f4       	brne	.+32     	; 0x4a3e <__stack+0xa3f>
    4a1e:	12 96       	adiw	r26, 0x02	; 2
    4a20:	8d 91       	ld	r24, X+
    4a22:	9c 91       	ld	r25, X
    4a24:	13 97       	sbiw	r26, 0x03	; 3
    4a26:	a8 16       	cp	r10, r24
    4a28:	b9 06       	cpc	r11, r25
    4a2a:	49 f4       	brne	.+18     	; 0x4a3e <__stack+0xa3f>
    4a2c:	14 96       	adiw	r26, 0x04	; 4
    4a2e:	8d 91       	ld	r24, X+
    4a30:	9c 91       	ld	r25, X
    4a32:	15 97       	sbiw	r26, 0x05	; 5
    4a34:	88 16       	cp	r8, r24
    4a36:	99 06       	cpc	r9, r25
    4a38:	11 f4       	brne	.+4      	; 0x4a3e <__stack+0xa3f>
    4a3a:	47 86       	std	Z+15, r4	; 0x0f
    4a3c:	50 8a       	std	Z+16, r5	; 0x10
    4a3e:	f2 01       	movw	r30, r4
    4a40:	20 8f       	std	Z+24, r18	; 0x18
    4a42:	e6 80       	ldd	r14, Z+6	; 0x06
    4a44:	f7 80       	ldd	r15, Z+7	; 0x07
    4a46:	62 85       	ldd	r22, Z+10	; 0x0a
    4a48:	73 85       	ldd	r23, Z+11	; 0x0b
    4a4a:	84 01       	movw	r16, r8
    4a4c:	95 01       	movw	r18, r10
    4a4e:	a6 01       	movw	r20, r12
    4a50:	8b 81       	ldd	r24, Y+3	; 0x03
    4a52:	9c 81       	ldd	r25, Y+4	; 0x04
    4a54:	0e 94 42 01 	call	0x284	; 0x284 <_ZN4core3dfsEP4nodeiiii>
    4a58:	d2 01       	movw	r26, r4
    4a5a:	16 96       	adiw	r26, 0x06	; 6
    4a5c:	ed 90       	ld	r14, X+
    4a5e:	fc 90       	ld	r15, X
    4a60:	17 97       	sbiw	r26, 0x07	; 7
    4a62:	1c 96       	adiw	r26, 0x0c	; 12
    4a64:	6d 91       	ld	r22, X+
    4a66:	7c 91       	ld	r23, X
    4a68:	1d 97       	sbiw	r26, 0x0d	; 13
    4a6a:	95 01       	movw	r18, r10
    4a6c:	a6 01       	movw	r20, r12
    4a6e:	8b 81       	ldd	r24, Y+3	; 0x03
    4a70:	9c 81       	ldd	r25, Y+4	; 0x04
    4a72:	0e 94 42 01 	call	0x284	; 0x284 <_ZN4core3dfsEP4nodeiiii>
    4a76:	f2 01       	movw	r30, r4
    4a78:	e6 80       	ldd	r14, Z+6	; 0x06
    4a7a:	f7 80       	ldd	r15, Z+7	; 0x07
    4a7c:	66 85       	ldd	r22, Z+14	; 0x0e
    4a7e:	77 85       	ldd	r23, Z+15	; 0x0f
    4a80:	95 01       	movw	r18, r10
    4a82:	a6 01       	movw	r20, r12
    4a84:	8b 81       	ldd	r24, Y+3	; 0x03
    4a86:	9c 81       	ldd	r25, Y+4	; 0x04
    4a88:	0e 94 42 01 	call	0x284	; 0x284 <_ZN4core3dfsEP4nodeiiii>
    4a8c:	d2 01       	movw	r26, r4
    4a8e:	16 96       	adiw	r26, 0x06	; 6
    4a90:	ed 90       	ld	r14, X+
    4a92:	fc 90       	ld	r15, X
    4a94:	17 97       	sbiw	r26, 0x07	; 7
    4a96:	50 96       	adiw	r26, 0x10	; 16
    4a98:	6d 91       	ld	r22, X+
    4a9a:	7c 91       	ld	r23, X
    4a9c:	51 97       	sbiw	r26, 0x11	; 17
    4a9e:	95 01       	movw	r18, r10
    4aa0:	a6 01       	movw	r20, r12
    4aa2:	8b 81       	ldd	r24, Y+3	; 0x03
    4aa4:	9c 81       	ldd	r25, Y+4	; 0x04
    4aa6:	0e 94 42 01 	call	0x284	; 0x284 <_ZN4core3dfsEP4nodeiiii>
    4aaa:	f3 01       	movw	r30, r6
    4aac:	86 81       	ldd	r24, Z+6	; 0x06
    4aae:	97 81       	ldd	r25, Z+7	; 0x07
    4ab0:	44 84       	ldd	r4, Z+12	; 0x0c
    4ab2:	55 84       	ldd	r5, Z+13	; 0x0d
    4ab4:	41 14       	cp	r4, r1
    4ab6:	51 04       	cpc	r5, r1
    4ab8:	09 f4       	brne	.+2      	; 0x4abc <__stack+0xabd>
    4aba:	68 c0       	rjmp	.+208    	; 0x4b8c <__stack+0xb8d>
    4abc:	01 96       	adiw	r24, 0x01	; 1
    4abe:	d2 01       	movw	r26, r4
    4ac0:	16 96       	adiw	r26, 0x06	; 6
    4ac2:	2d 91       	ld	r18, X+
    4ac4:	3c 91       	ld	r19, X
    4ac6:	17 97       	sbiw	r26, 0x07	; 7
    4ac8:	82 17       	cp	r24, r18
    4aca:	93 07       	cpc	r25, r19
    4acc:	24 f4       	brge	.+8      	; 0x4ad6 <__stack+0xad7>
    4ace:	16 96       	adiw	r26, 0x06	; 6
    4ad0:	8d 93       	st	X+, r24
    4ad2:	9c 93       	st	X, r25
    4ad4:	17 97       	sbiw	r26, 0x07	; 7
    4ad6:	eb 81       	ldd	r30, Y+3	; 0x03
    4ad8:	fc 81       	ldd	r31, Y+4	; 0x04
    4ada:	26 85       	ldd	r18, Z+14	; 0x0e
    4adc:	d2 01       	movw	r26, r4
    4ade:	58 96       	adiw	r26, 0x18	; 24
    4ae0:	8c 91       	ld	r24, X
    4ae2:	58 97       	sbiw	r26, 0x18	; 24
    4ae4:	82 17       	cp	r24, r18
    4ae6:	09 f4       	brne	.+2      	; 0x4aea <__stack+0xaeb>
    4ae8:	51 c0       	rjmp	.+162    	; 0x4b8c <__stack+0xb8d>
    4aea:	83 89       	ldd	r24, Z+19	; 0x13
    4aec:	94 89       	ldd	r25, Z+20	; 0x14
    4aee:	01 96       	adiw	r24, 0x01	; 1
    4af0:	83 8b       	std	Z+19, r24	; 0x13
    4af2:	94 8b       	std	Z+20, r25	; 0x14
    4af4:	8d 91       	ld	r24, X+
    4af6:	9c 91       	ld	r25, X
    4af8:	11 97       	sbiw	r26, 0x01	; 1
    4afa:	c8 16       	cp	r12, r24
    4afc:	d9 06       	cpc	r13, r25
    4afe:	81 f4       	brne	.+32     	; 0x4b20 <__stack+0xb21>
    4b00:	12 96       	adiw	r26, 0x02	; 2
    4b02:	8d 91       	ld	r24, X+
    4b04:	9c 91       	ld	r25, X
    4b06:	13 97       	sbiw	r26, 0x03	; 3
    4b08:	a8 16       	cp	r10, r24
    4b0a:	b9 06       	cpc	r11, r25
    4b0c:	49 f4       	brne	.+18     	; 0x4b20 <__stack+0xb21>
    4b0e:	14 96       	adiw	r26, 0x04	; 4
    4b10:	8d 91       	ld	r24, X+
    4b12:	9c 91       	ld	r25, X
    4b14:	15 97       	sbiw	r26, 0x05	; 5
    4b16:	88 16       	cp	r8, r24
    4b18:	99 06       	cpc	r9, r25
    4b1a:	11 f4       	brne	.+4      	; 0x4b20 <__stack+0xb21>
    4b1c:	47 86       	std	Z+15, r4	; 0x0f
    4b1e:	50 8a       	std	Z+16, r5	; 0x10
    4b20:	f2 01       	movw	r30, r4
    4b22:	20 8f       	std	Z+24, r18	; 0x18
    4b24:	e6 80       	ldd	r14, Z+6	; 0x06
    4b26:	f7 80       	ldd	r15, Z+7	; 0x07
    4b28:	62 85       	ldd	r22, Z+10	; 0x0a
    4b2a:	73 85       	ldd	r23, Z+11	; 0x0b
    4b2c:	84 01       	movw	r16, r8
    4b2e:	95 01       	movw	r18, r10
    4b30:	a6 01       	movw	r20, r12
    4b32:	8b 81       	ldd	r24, Y+3	; 0x03
    4b34:	9c 81       	ldd	r25, Y+4	; 0x04
    4b36:	0e 94 42 01 	call	0x284	; 0x284 <_ZN4core3dfsEP4nodeiiii>
    4b3a:	d2 01       	movw	r26, r4
    4b3c:	16 96       	adiw	r26, 0x06	; 6
    4b3e:	ed 90       	ld	r14, X+
    4b40:	fc 90       	ld	r15, X
    4b42:	17 97       	sbiw	r26, 0x07	; 7
    4b44:	1c 96       	adiw	r26, 0x0c	; 12
    4b46:	6d 91       	ld	r22, X+
    4b48:	7c 91       	ld	r23, X
    4b4a:	1d 97       	sbiw	r26, 0x0d	; 13
    4b4c:	95 01       	movw	r18, r10
    4b4e:	a6 01       	movw	r20, r12
    4b50:	8b 81       	ldd	r24, Y+3	; 0x03
    4b52:	9c 81       	ldd	r25, Y+4	; 0x04
    4b54:	0e 94 42 01 	call	0x284	; 0x284 <_ZN4core3dfsEP4nodeiiii>
    4b58:	f2 01       	movw	r30, r4
    4b5a:	e6 80       	ldd	r14, Z+6	; 0x06
    4b5c:	f7 80       	ldd	r15, Z+7	; 0x07
    4b5e:	66 85       	ldd	r22, Z+14	; 0x0e
    4b60:	77 85       	ldd	r23, Z+15	; 0x0f
    4b62:	95 01       	movw	r18, r10
    4b64:	a6 01       	movw	r20, r12
    4b66:	8b 81       	ldd	r24, Y+3	; 0x03
    4b68:	9c 81       	ldd	r25, Y+4	; 0x04
    4b6a:	0e 94 42 01 	call	0x284	; 0x284 <_ZN4core3dfsEP4nodeiiii>
    4b6e:	d2 01       	movw	r26, r4
    4b70:	16 96       	adiw	r26, 0x06	; 6
    4b72:	ed 90       	ld	r14, X+
    4b74:	fc 90       	ld	r15, X
    4b76:	17 97       	sbiw	r26, 0x07	; 7
    4b78:	50 96       	adiw	r26, 0x10	; 16
    4b7a:	6d 91       	ld	r22, X+
    4b7c:	7c 91       	ld	r23, X
    4b7e:	51 97       	sbiw	r26, 0x11	; 17
    4b80:	95 01       	movw	r18, r10
    4b82:	a6 01       	movw	r20, r12
    4b84:	8b 81       	ldd	r24, Y+3	; 0x03
    4b86:	9c 81       	ldd	r25, Y+4	; 0x04
    4b88:	0e 94 42 01 	call	0x284	; 0x284 <_ZN4core3dfsEP4nodeiiii>
    4b8c:	f3 01       	movw	r30, r6
    4b8e:	86 81       	ldd	r24, Z+6	; 0x06
    4b90:	97 81       	ldd	r25, Z+7	; 0x07
    4b92:	46 84       	ldd	r4, Z+14	; 0x0e
    4b94:	57 84       	ldd	r5, Z+15	; 0x0f
    4b96:	41 14       	cp	r4, r1
    4b98:	51 04       	cpc	r5, r1
    4b9a:	09 f4       	brne	.+2      	; 0x4b9e <__stack+0xb9f>
    4b9c:	68 c0       	rjmp	.+208    	; 0x4c6e <__stack+0xc6f>
    4b9e:	01 96       	adiw	r24, 0x01	; 1
    4ba0:	d2 01       	movw	r26, r4
    4ba2:	16 96       	adiw	r26, 0x06	; 6
    4ba4:	2d 91       	ld	r18, X+
    4ba6:	3c 91       	ld	r19, X
    4ba8:	17 97       	sbiw	r26, 0x07	; 7
    4baa:	82 17       	cp	r24, r18
    4bac:	93 07       	cpc	r25, r19
    4bae:	24 f4       	brge	.+8      	; 0x4bb8 <__stack+0xbb9>
    4bb0:	16 96       	adiw	r26, 0x06	; 6
    4bb2:	8d 93       	st	X+, r24
    4bb4:	9c 93       	st	X, r25
    4bb6:	17 97       	sbiw	r26, 0x07	; 7
    4bb8:	eb 81       	ldd	r30, Y+3	; 0x03
    4bba:	fc 81       	ldd	r31, Y+4	; 0x04
    4bbc:	26 85       	ldd	r18, Z+14	; 0x0e
    4bbe:	d2 01       	movw	r26, r4
    4bc0:	58 96       	adiw	r26, 0x18	; 24
    4bc2:	8c 91       	ld	r24, X
    4bc4:	58 97       	sbiw	r26, 0x18	; 24
    4bc6:	82 17       	cp	r24, r18
    4bc8:	09 f4       	brne	.+2      	; 0x4bcc <__stack+0xbcd>
    4bca:	51 c0       	rjmp	.+162    	; 0x4c6e <__stack+0xc6f>
    4bcc:	83 89       	ldd	r24, Z+19	; 0x13
    4bce:	94 89       	ldd	r25, Z+20	; 0x14
    4bd0:	01 96       	adiw	r24, 0x01	; 1
    4bd2:	83 8b       	std	Z+19, r24	; 0x13
    4bd4:	94 8b       	std	Z+20, r25	; 0x14
    4bd6:	8d 91       	ld	r24, X+
    4bd8:	9c 91       	ld	r25, X
    4bda:	11 97       	sbiw	r26, 0x01	; 1
    4bdc:	c8 16       	cp	r12, r24
    4bde:	d9 06       	cpc	r13, r25
    4be0:	81 f4       	brne	.+32     	; 0x4c02 <__stack+0xc03>
    4be2:	12 96       	adiw	r26, 0x02	; 2
    4be4:	8d 91       	ld	r24, X+
    4be6:	9c 91       	ld	r25, X
    4be8:	13 97       	sbiw	r26, 0x03	; 3
    4bea:	a8 16       	cp	r10, r24
    4bec:	b9 06       	cpc	r11, r25
    4bee:	49 f4       	brne	.+18     	; 0x4c02 <__stack+0xc03>
    4bf0:	14 96       	adiw	r26, 0x04	; 4
    4bf2:	8d 91       	ld	r24, X+
    4bf4:	9c 91       	ld	r25, X
    4bf6:	15 97       	sbiw	r26, 0x05	; 5
    4bf8:	88 16       	cp	r8, r24
    4bfa:	99 06       	cpc	r9, r25
    4bfc:	11 f4       	brne	.+4      	; 0x4c02 <__stack+0xc03>
    4bfe:	47 86       	std	Z+15, r4	; 0x0f
    4c00:	50 8a       	std	Z+16, r5	; 0x10
    4c02:	f2 01       	movw	r30, r4
    4c04:	20 8f       	std	Z+24, r18	; 0x18
    4c06:	e6 80       	ldd	r14, Z+6	; 0x06
    4c08:	f7 80       	ldd	r15, Z+7	; 0x07
    4c0a:	62 85       	ldd	r22, Z+10	; 0x0a
    4c0c:	73 85       	ldd	r23, Z+11	; 0x0b
    4c0e:	84 01       	movw	r16, r8
    4c10:	95 01       	movw	r18, r10
    4c12:	a6 01       	movw	r20, r12
    4c14:	8b 81       	ldd	r24, Y+3	; 0x03
    4c16:	9c 81       	ldd	r25, Y+4	; 0x04
    4c18:	0e 94 42 01 	call	0x284	; 0x284 <_ZN4core3dfsEP4nodeiiii>
    4c1c:	d2 01       	movw	r26, r4
    4c1e:	16 96       	adiw	r26, 0x06	; 6
    4c20:	ed 90       	ld	r14, X+
    4c22:	fc 90       	ld	r15, X
    4c24:	17 97       	sbiw	r26, 0x07	; 7
    4c26:	1c 96       	adiw	r26, 0x0c	; 12
    4c28:	6d 91       	ld	r22, X+
    4c2a:	7c 91       	ld	r23, X
    4c2c:	1d 97       	sbiw	r26, 0x0d	; 13
    4c2e:	95 01       	movw	r18, r10
    4c30:	a6 01       	movw	r20, r12
    4c32:	8b 81       	ldd	r24, Y+3	; 0x03
    4c34:	9c 81       	ldd	r25, Y+4	; 0x04
    4c36:	0e 94 42 01 	call	0x284	; 0x284 <_ZN4core3dfsEP4nodeiiii>
    4c3a:	f2 01       	movw	r30, r4
    4c3c:	e6 80       	ldd	r14, Z+6	; 0x06
    4c3e:	f7 80       	ldd	r15, Z+7	; 0x07
    4c40:	66 85       	ldd	r22, Z+14	; 0x0e
    4c42:	77 85       	ldd	r23, Z+15	; 0x0f
    4c44:	95 01       	movw	r18, r10
    4c46:	a6 01       	movw	r20, r12
    4c48:	8b 81       	ldd	r24, Y+3	; 0x03
    4c4a:	9c 81       	ldd	r25, Y+4	; 0x04
    4c4c:	0e 94 42 01 	call	0x284	; 0x284 <_ZN4core3dfsEP4nodeiiii>
    4c50:	d2 01       	movw	r26, r4
    4c52:	16 96       	adiw	r26, 0x06	; 6
    4c54:	ed 90       	ld	r14, X+
    4c56:	fc 90       	ld	r15, X
    4c58:	17 97       	sbiw	r26, 0x07	; 7
    4c5a:	50 96       	adiw	r26, 0x10	; 16
    4c5c:	6d 91       	ld	r22, X+
    4c5e:	7c 91       	ld	r23, X
    4c60:	51 97       	sbiw	r26, 0x11	; 17
    4c62:	95 01       	movw	r18, r10
    4c64:	a6 01       	movw	r20, r12
    4c66:	8b 81       	ldd	r24, Y+3	; 0x03
    4c68:	9c 81       	ldd	r25, Y+4	; 0x04
    4c6a:	0e 94 42 01 	call	0x284	; 0x284 <_ZN4core3dfsEP4nodeiiii>
    4c6e:	f3 01       	movw	r30, r6
    4c70:	86 81       	ldd	r24, Z+6	; 0x06
    4c72:	97 81       	ldd	r25, Z+7	; 0x07
    4c74:	60 88       	ldd	r6, Z+16	; 0x10
    4c76:	71 88       	ldd	r7, Z+17	; 0x11
    4c78:	61 14       	cp	r6, r1
    4c7a:	71 04       	cpc	r7, r1
    4c7c:	09 f4       	brne	.+2      	; 0x4c80 <__stack+0xc81>
    4c7e:	68 c0       	rjmp	.+208    	; 0x4d50 <__stack+0xd51>
    4c80:	01 96       	adiw	r24, 0x01	; 1
    4c82:	d3 01       	movw	r26, r6
    4c84:	16 96       	adiw	r26, 0x06	; 6
    4c86:	2d 91       	ld	r18, X+
    4c88:	3c 91       	ld	r19, X
    4c8a:	17 97       	sbiw	r26, 0x07	; 7
    4c8c:	82 17       	cp	r24, r18
    4c8e:	93 07       	cpc	r25, r19
    4c90:	24 f4       	brge	.+8      	; 0x4c9a <__stack+0xc9b>
    4c92:	16 96       	adiw	r26, 0x06	; 6
    4c94:	8d 93       	st	X+, r24
    4c96:	9c 93       	st	X, r25
    4c98:	17 97       	sbiw	r26, 0x07	; 7
    4c9a:	eb 81       	ldd	r30, Y+3	; 0x03
    4c9c:	fc 81       	ldd	r31, Y+4	; 0x04
    4c9e:	26 85       	ldd	r18, Z+14	; 0x0e
    4ca0:	d3 01       	movw	r26, r6
    4ca2:	58 96       	adiw	r26, 0x18	; 24
    4ca4:	8c 91       	ld	r24, X
    4ca6:	58 97       	sbiw	r26, 0x18	; 24
    4ca8:	82 17       	cp	r24, r18
    4caa:	09 f4       	brne	.+2      	; 0x4cae <__stack+0xcaf>
    4cac:	51 c0       	rjmp	.+162    	; 0x4d50 <__stack+0xd51>
    4cae:	83 89       	ldd	r24, Z+19	; 0x13
    4cb0:	94 89       	ldd	r25, Z+20	; 0x14
    4cb2:	01 96       	adiw	r24, 0x01	; 1
    4cb4:	83 8b       	std	Z+19, r24	; 0x13
    4cb6:	94 8b       	std	Z+20, r25	; 0x14
    4cb8:	8d 91       	ld	r24, X+
    4cba:	9c 91       	ld	r25, X
    4cbc:	11 97       	sbiw	r26, 0x01	; 1
    4cbe:	c8 16       	cp	r12, r24
    4cc0:	d9 06       	cpc	r13, r25
    4cc2:	81 f4       	brne	.+32     	; 0x4ce4 <__stack+0xce5>
    4cc4:	12 96       	adiw	r26, 0x02	; 2
    4cc6:	8d 91       	ld	r24, X+
    4cc8:	9c 91       	ld	r25, X
    4cca:	13 97       	sbiw	r26, 0x03	; 3
    4ccc:	a8 16       	cp	r10, r24
    4cce:	b9 06       	cpc	r11, r25
    4cd0:	49 f4       	brne	.+18     	; 0x4ce4 <__stack+0xce5>
    4cd2:	14 96       	adiw	r26, 0x04	; 4
    4cd4:	8d 91       	ld	r24, X+
    4cd6:	9c 91       	ld	r25, X
    4cd8:	15 97       	sbiw	r26, 0x05	; 5
    4cda:	88 16       	cp	r8, r24
    4cdc:	99 06       	cpc	r9, r25
    4cde:	11 f4       	brne	.+4      	; 0x4ce4 <__stack+0xce5>
    4ce0:	67 86       	std	Z+15, r6	; 0x0f
    4ce2:	70 8a       	std	Z+16, r7	; 0x10
    4ce4:	f3 01       	movw	r30, r6
    4ce6:	20 8f       	std	Z+24, r18	; 0x18
    4ce8:	e6 80       	ldd	r14, Z+6	; 0x06
    4cea:	f7 80       	ldd	r15, Z+7	; 0x07
    4cec:	62 85       	ldd	r22, Z+10	; 0x0a
    4cee:	73 85       	ldd	r23, Z+11	; 0x0b
    4cf0:	84 01       	movw	r16, r8
    4cf2:	95 01       	movw	r18, r10
    4cf4:	a6 01       	movw	r20, r12
    4cf6:	8b 81       	ldd	r24, Y+3	; 0x03
    4cf8:	9c 81       	ldd	r25, Y+4	; 0x04
    4cfa:	0e 94 42 01 	call	0x284	; 0x284 <_ZN4core3dfsEP4nodeiiii>
    4cfe:	d3 01       	movw	r26, r6
    4d00:	16 96       	adiw	r26, 0x06	; 6
    4d02:	ed 90       	ld	r14, X+
    4d04:	fc 90       	ld	r15, X
    4d06:	17 97       	sbiw	r26, 0x07	; 7
    4d08:	1c 96       	adiw	r26, 0x0c	; 12
    4d0a:	6d 91       	ld	r22, X+
    4d0c:	7c 91       	ld	r23, X
    4d0e:	1d 97       	sbiw	r26, 0x0d	; 13
    4d10:	95 01       	movw	r18, r10
    4d12:	a6 01       	movw	r20, r12
    4d14:	8b 81       	ldd	r24, Y+3	; 0x03
    4d16:	9c 81       	ldd	r25, Y+4	; 0x04
    4d18:	0e 94 42 01 	call	0x284	; 0x284 <_ZN4core3dfsEP4nodeiiii>
    4d1c:	f3 01       	movw	r30, r6
    4d1e:	e6 80       	ldd	r14, Z+6	; 0x06
    4d20:	f7 80       	ldd	r15, Z+7	; 0x07
    4d22:	66 85       	ldd	r22, Z+14	; 0x0e
    4d24:	77 85       	ldd	r23, Z+15	; 0x0f
    4d26:	95 01       	movw	r18, r10
    4d28:	a6 01       	movw	r20, r12
    4d2a:	8b 81       	ldd	r24, Y+3	; 0x03
    4d2c:	9c 81       	ldd	r25, Y+4	; 0x04
    4d2e:	0e 94 42 01 	call	0x284	; 0x284 <_ZN4core3dfsEP4nodeiiii>
    4d32:	d3 01       	movw	r26, r6
    4d34:	16 96       	adiw	r26, 0x06	; 6
    4d36:	ed 90       	ld	r14, X+
    4d38:	fc 90       	ld	r15, X
    4d3a:	17 97       	sbiw	r26, 0x07	; 7
    4d3c:	50 96       	adiw	r26, 0x10	; 16
    4d3e:	6d 91       	ld	r22, X+
    4d40:	7c 91       	ld	r23, X
    4d42:	51 97       	sbiw	r26, 0x11	; 17
    4d44:	95 01       	movw	r18, r10
    4d46:	a6 01       	movw	r20, r12
    4d48:	8b 81       	ldd	r24, Y+3	; 0x03
    4d4a:	9c 81       	ldd	r25, Y+4	; 0x04
    4d4c:	0e 94 42 01 	call	0x284	; 0x284 <_ZN4core3dfsEP4nodeiiii>
    4d50:	eb 81       	ldd	r30, Y+3	; 0x03
    4d52:	fc 81       	ldd	r31, Y+4	; 0x04
    4d54:	86 85       	ldd	r24, Z+14	; 0x0e
    4d56:	90 e0       	ldi	r25, 0x00	; 0
    4d58:	01 96       	adiw	r24, 0x01	; 1
    4d5a:	81 70       	andi	r24, 0x01	; 1
    4d5c:	90 78       	andi	r25, 0x80	; 128
    4d5e:	99 23       	and	r25, r25
    4d60:	24 f4       	brge	.+8      	; 0x4d6a <__stack+0xd6b>
    4d62:	01 97       	sbiw	r24, 0x01	; 1
    4d64:	8e 6f       	ori	r24, 0xFE	; 254
    4d66:	9f 6f       	ori	r25, 0xFF	; 255
    4d68:	01 96       	adiw	r24, 0x01	; 1
    4d6a:	ab 81       	ldd	r26, Y+3	; 0x03
    4d6c:	bc 81       	ldd	r27, Y+4	; 0x04
    4d6e:	1e 96       	adiw	r26, 0x0e	; 14
    4d70:	8c 93       	st	X, r24
    4d72:	1e 97       	sbiw	r26, 0x0e	; 14
    4d74:	1f 96       	adiw	r26, 0x0f	; 15
    4d76:	8d 91       	ld	r24, X+
    4d78:	9c 91       	ld	r25, X
    4d7a:	50 97       	sbiw	r26, 0x10	; 16
    4d7c:	8d 93       	st	X+, r24
    4d7e:	9c 93       	st	X, r25
    4d80:	24 96       	adiw	r28, 0x04	; 4
    4d82:	cd bf       	out	0x3d, r28	; 61
    4d84:	de bf       	out	0x3e, r29	; 62
    4d86:	df 91       	pop	r29
    4d88:	cf 91       	pop	r28
    4d8a:	1f 91       	pop	r17
    4d8c:	0f 91       	pop	r16
    4d8e:	ff 90       	pop	r15
    4d90:	ef 90       	pop	r14
    4d92:	df 90       	pop	r13
    4d94:	cf 90       	pop	r12
    4d96:	bf 90       	pop	r11
    4d98:	af 90       	pop	r10
    4d9a:	9f 90       	pop	r9
    4d9c:	8f 90       	pop	r8
    4d9e:	7f 90       	pop	r7
    4da0:	6f 90       	pop	r6
    4da2:	5f 90       	pop	r5
    4da4:	4f 90       	pop	r4
    4da6:	3f 90       	pop	r3
    4da8:	2f 90       	pop	r2
    4daa:	08 95       	ret

00004dac <_ZN4core12connect_nodeEP4nodeiii>:
    4dac:	2f 92       	push	r2
    4dae:	3f 92       	push	r3
    4db0:	4f 92       	push	r4
    4db2:	5f 92       	push	r5
    4db4:	6f 92       	push	r6
    4db6:	7f 92       	push	r7
    4db8:	8f 92       	push	r8
    4dba:	9f 92       	push	r9
    4dbc:	af 92       	push	r10
    4dbe:	bf 92       	push	r11
    4dc0:	cf 92       	push	r12
    4dc2:	df 92       	push	r13
    4dc4:	ef 92       	push	r14
    4dc6:	ff 92       	push	r15
    4dc8:	0f 93       	push	r16
    4dca:	1f 93       	push	r17
    4dcc:	cf 93       	push	r28
    4dce:	df 93       	push	r29
    4dd0:	ec 01       	movw	r28, r24
    4dd2:	1b 01       	movw	r2, r22
    4dd4:	6a 01       	movw	r12, r20
    4dd6:	49 01       	movw	r8, r18
    4dd8:	28 01       	movw	r4, r16
    4dda:	1b 8a       	std	Y+19, r1	; 0x13
    4ddc:	1c 8a       	std	Y+20, r1	; 0x14
    4dde:	1f 86       	std	Y+15, r1	; 0x0f
    4de0:	18 8a       	std	Y+16, r1	; 0x10
    4de2:	aa 80       	ldd	r10, Y+2	; 0x02
    4de4:	bb 80       	ldd	r11, Y+3	; 0x03
    4de6:	d5 01       	movw	r26, r10
    4de8:	16 96       	adiw	r26, 0x06	; 6
    4dea:	8d 91       	ld	r24, X+
    4dec:	9c 91       	ld	r25, X
    4dee:	17 97       	sbiw	r26, 0x07	; 7
    4df0:	a1 14       	cp	r10, r1
    4df2:	b1 04       	cpc	r11, r1
    4df4:	09 f4       	brne	.+2      	; 0x4df8 <_ZN4core12connect_nodeEP4nodeiii+0x4c>
    4df6:	64 c2       	rjmp	.+1224   	; 0x52c0 <_ZN4core12connect_nodeEP4nodeiii+0x514>
    4df8:	9c 01       	movw	r18, r24
    4dfa:	2f 5f       	subi	r18, 0xFF	; 255
    4dfc:	3f 4f       	sbci	r19, 0xFF	; 255
    4dfe:	28 17       	cp	r18, r24
    4e00:	39 07       	cpc	r19, r25
    4e02:	24 f4       	brge	.+8      	; 0x4e0c <_ZN4core12connect_nodeEP4nodeiii+0x60>
    4e04:	16 96       	adiw	r26, 0x06	; 6
    4e06:	2d 93       	st	X+, r18
    4e08:	3c 93       	st	X, r19
    4e0a:	17 97       	sbiw	r26, 0x07	; 7
    4e0c:	2e 85       	ldd	r18, Y+14	; 0x0e
    4e0e:	f5 01       	movw	r30, r10
    4e10:	80 8d       	ldd	r24, Z+24	; 0x18
    4e12:	82 17       	cp	r24, r18
    4e14:	09 f4       	brne	.+2      	; 0x4e18 <_ZN4core12connect_nodeEP4nodeiii+0x6c>
    4e16:	54 c2       	rjmp	.+1192   	; 0x52c0 <_ZN4core12connect_nodeEP4nodeiii+0x514>
    4e18:	8b 89       	ldd	r24, Y+19	; 0x13
    4e1a:	9c 89       	ldd	r25, Y+20	; 0x14
    4e1c:	01 96       	adiw	r24, 0x01	; 1
    4e1e:	8b 8b       	std	Y+19, r24	; 0x13
    4e20:	9c 8b       	std	Y+20, r25	; 0x14
    4e22:	80 81       	ld	r24, Z
    4e24:	91 81       	ldd	r25, Z+1	; 0x01
    4e26:	c8 16       	cp	r12, r24
    4e28:	d9 06       	cpc	r13, r25
    4e2a:	61 f4       	brne	.+24     	; 0x4e44 <_ZN4core12connect_nodeEP4nodeiii+0x98>
    4e2c:	82 81       	ldd	r24, Z+2	; 0x02
    4e2e:	93 81       	ldd	r25, Z+3	; 0x03
    4e30:	88 16       	cp	r8, r24
    4e32:	99 06       	cpc	r9, r25
    4e34:	39 f4       	brne	.+14     	; 0x4e44 <_ZN4core12connect_nodeEP4nodeiii+0x98>
    4e36:	84 81       	ldd	r24, Z+4	; 0x04
    4e38:	95 81       	ldd	r25, Z+5	; 0x05
    4e3a:	48 16       	cp	r4, r24
    4e3c:	59 06       	cpc	r5, r25
    4e3e:	11 f4       	brne	.+4      	; 0x4e44 <_ZN4core12connect_nodeEP4nodeiii+0x98>
    4e40:	af 86       	std	Y+15, r10	; 0x0f
    4e42:	b8 8a       	std	Y+16, r11	; 0x10
    4e44:	d5 01       	movw	r26, r10
    4e46:	58 96       	adiw	r26, 0x18	; 24
    4e48:	2c 93       	st	X, r18
    4e4a:	58 97       	sbiw	r26, 0x18	; 24
    4e4c:	16 96       	adiw	r26, 0x06	; 6
    4e4e:	8d 91       	ld	r24, X+
    4e50:	9c 91       	ld	r25, X
    4e52:	17 97       	sbiw	r26, 0x07	; 7
    4e54:	1a 96       	adiw	r26, 0x0a	; 10
    4e56:	6d 90       	ld	r6, X+
    4e58:	7c 90       	ld	r7, X
    4e5a:	1b 97       	sbiw	r26, 0x0b	; 11
    4e5c:	61 14       	cp	r6, r1
    4e5e:	71 04       	cpc	r7, r1
    4e60:	09 f4       	brne	.+2      	; 0x4e64 <_ZN4core12connect_nodeEP4nodeiii+0xb8>
    4e62:	5e c0       	rjmp	.+188    	; 0x4f20 <_ZN4core12connect_nodeEP4nodeiii+0x174>
    4e64:	01 96       	adiw	r24, 0x01	; 1
    4e66:	f3 01       	movw	r30, r6
    4e68:	26 81       	ldd	r18, Z+6	; 0x06
    4e6a:	37 81       	ldd	r19, Z+7	; 0x07
    4e6c:	82 17       	cp	r24, r18
    4e6e:	93 07       	cpc	r25, r19
    4e70:	14 f4       	brge	.+4      	; 0x4e76 <_ZN4core12connect_nodeEP4nodeiii+0xca>
    4e72:	86 83       	std	Z+6, r24	; 0x06
    4e74:	97 83       	std	Z+7, r25	; 0x07
    4e76:	2e 85       	ldd	r18, Y+14	; 0x0e
    4e78:	d3 01       	movw	r26, r6
    4e7a:	58 96       	adiw	r26, 0x18	; 24
    4e7c:	8c 91       	ld	r24, X
    4e7e:	58 97       	sbiw	r26, 0x18	; 24
    4e80:	82 17       	cp	r24, r18
    4e82:	09 f4       	brne	.+2      	; 0x4e86 <_ZN4core12connect_nodeEP4nodeiii+0xda>
    4e84:	4d c0       	rjmp	.+154    	; 0x4f20 <_ZN4core12connect_nodeEP4nodeiii+0x174>
    4e86:	8b 89       	ldd	r24, Y+19	; 0x13
    4e88:	9c 89       	ldd	r25, Y+20	; 0x14
    4e8a:	01 96       	adiw	r24, 0x01	; 1
    4e8c:	8b 8b       	std	Y+19, r24	; 0x13
    4e8e:	9c 8b       	std	Y+20, r25	; 0x14
    4e90:	8d 91       	ld	r24, X+
    4e92:	9c 91       	ld	r25, X
    4e94:	11 97       	sbiw	r26, 0x01	; 1
    4e96:	c8 16       	cp	r12, r24
    4e98:	d9 06       	cpc	r13, r25
    4e9a:	81 f4       	brne	.+32     	; 0x4ebc <_ZN4core12connect_nodeEP4nodeiii+0x110>
    4e9c:	12 96       	adiw	r26, 0x02	; 2
    4e9e:	8d 91       	ld	r24, X+
    4ea0:	9c 91       	ld	r25, X
    4ea2:	13 97       	sbiw	r26, 0x03	; 3
    4ea4:	88 16       	cp	r8, r24
    4ea6:	99 06       	cpc	r9, r25
    4ea8:	49 f4       	brne	.+18     	; 0x4ebc <_ZN4core12connect_nodeEP4nodeiii+0x110>
    4eaa:	14 96       	adiw	r26, 0x04	; 4
    4eac:	8d 91       	ld	r24, X+
    4eae:	9c 91       	ld	r25, X
    4eb0:	15 97       	sbiw	r26, 0x05	; 5
    4eb2:	48 16       	cp	r4, r24
    4eb4:	59 06       	cpc	r5, r25
    4eb6:	11 f4       	brne	.+4      	; 0x4ebc <_ZN4core12connect_nodeEP4nodeiii+0x110>
    4eb8:	6f 86       	std	Y+15, r6	; 0x0f
    4eba:	78 8a       	std	Y+16, r7	; 0x10
    4ebc:	f3 01       	movw	r30, r6
    4ebe:	20 8f       	std	Z+24, r18	; 0x18
    4ec0:	e6 80       	ldd	r14, Z+6	; 0x06
    4ec2:	f7 80       	ldd	r15, Z+7	; 0x07
    4ec4:	62 85       	ldd	r22, Z+10	; 0x0a
    4ec6:	73 85       	ldd	r23, Z+11	; 0x0b
    4ec8:	82 01       	movw	r16, r4
    4eca:	94 01       	movw	r18, r8
    4ecc:	a6 01       	movw	r20, r12
    4ece:	ce 01       	movw	r24, r28
    4ed0:	0e 94 42 01 	call	0x284	; 0x284 <_ZN4core3dfsEP4nodeiiii>
    4ed4:	d3 01       	movw	r26, r6
    4ed6:	16 96       	adiw	r26, 0x06	; 6
    4ed8:	ed 90       	ld	r14, X+
    4eda:	fc 90       	ld	r15, X
    4edc:	17 97       	sbiw	r26, 0x07	; 7
    4ede:	1c 96       	adiw	r26, 0x0c	; 12
    4ee0:	6d 91       	ld	r22, X+
    4ee2:	7c 91       	ld	r23, X
    4ee4:	1d 97       	sbiw	r26, 0x0d	; 13
    4ee6:	94 01       	movw	r18, r8
    4ee8:	a6 01       	movw	r20, r12
    4eea:	ce 01       	movw	r24, r28
    4eec:	0e 94 42 01 	call	0x284	; 0x284 <_ZN4core3dfsEP4nodeiiii>
    4ef0:	f3 01       	movw	r30, r6
    4ef2:	e6 80       	ldd	r14, Z+6	; 0x06
    4ef4:	f7 80       	ldd	r15, Z+7	; 0x07
    4ef6:	66 85       	ldd	r22, Z+14	; 0x0e
    4ef8:	77 85       	ldd	r23, Z+15	; 0x0f
    4efa:	94 01       	movw	r18, r8
    4efc:	a6 01       	movw	r20, r12
    4efe:	ce 01       	movw	r24, r28
    4f00:	0e 94 42 01 	call	0x284	; 0x284 <_ZN4core3dfsEP4nodeiiii>
    4f04:	d3 01       	movw	r26, r6
    4f06:	16 96       	adiw	r26, 0x06	; 6
    4f08:	ed 90       	ld	r14, X+
    4f0a:	fc 90       	ld	r15, X
    4f0c:	17 97       	sbiw	r26, 0x07	; 7
    4f0e:	50 96       	adiw	r26, 0x10	; 16
    4f10:	6d 91       	ld	r22, X+
    4f12:	7c 91       	ld	r23, X
    4f14:	51 97       	sbiw	r26, 0x11	; 17
    4f16:	94 01       	movw	r18, r8
    4f18:	a6 01       	movw	r20, r12
    4f1a:	ce 01       	movw	r24, r28
    4f1c:	0e 94 42 01 	call	0x284	; 0x284 <_ZN4core3dfsEP4nodeiiii>
    4f20:	f5 01       	movw	r30, r10
    4f22:	86 81       	ldd	r24, Z+6	; 0x06
    4f24:	97 81       	ldd	r25, Z+7	; 0x07
    4f26:	64 84       	ldd	r6, Z+12	; 0x0c
    4f28:	75 84       	ldd	r7, Z+13	; 0x0d
    4f2a:	61 14       	cp	r6, r1
    4f2c:	71 04       	cpc	r7, r1
    4f2e:	09 f4       	brne	.+2      	; 0x4f32 <_ZN4core12connect_nodeEP4nodeiii+0x186>
    4f30:	5d c0       	rjmp	.+186    	; 0x4fec <_ZN4core12connect_nodeEP4nodeiii+0x240>
    4f32:	01 96       	adiw	r24, 0x01	; 1
    4f34:	d3 01       	movw	r26, r6
    4f36:	16 96       	adiw	r26, 0x06	; 6
    4f38:	2d 91       	ld	r18, X+
    4f3a:	3c 91       	ld	r19, X
    4f3c:	17 97       	sbiw	r26, 0x07	; 7
    4f3e:	82 17       	cp	r24, r18
    4f40:	93 07       	cpc	r25, r19
    4f42:	24 f4       	brge	.+8      	; 0x4f4c <_ZN4core12connect_nodeEP4nodeiii+0x1a0>
    4f44:	16 96       	adiw	r26, 0x06	; 6
    4f46:	8d 93       	st	X+, r24
    4f48:	9c 93       	st	X, r25
    4f4a:	17 97       	sbiw	r26, 0x07	; 7
    4f4c:	2e 85       	ldd	r18, Y+14	; 0x0e
    4f4e:	f3 01       	movw	r30, r6
    4f50:	80 8d       	ldd	r24, Z+24	; 0x18
    4f52:	82 17       	cp	r24, r18
    4f54:	09 f4       	brne	.+2      	; 0x4f58 <_ZN4core12connect_nodeEP4nodeiii+0x1ac>
    4f56:	4a c0       	rjmp	.+148    	; 0x4fec <_ZN4core12connect_nodeEP4nodeiii+0x240>
    4f58:	8b 89       	ldd	r24, Y+19	; 0x13
    4f5a:	9c 89       	ldd	r25, Y+20	; 0x14
    4f5c:	01 96       	adiw	r24, 0x01	; 1
    4f5e:	8b 8b       	std	Y+19, r24	; 0x13
    4f60:	9c 8b       	std	Y+20, r25	; 0x14
    4f62:	80 81       	ld	r24, Z
    4f64:	91 81       	ldd	r25, Z+1	; 0x01
    4f66:	c8 16       	cp	r12, r24
    4f68:	d9 06       	cpc	r13, r25
    4f6a:	61 f4       	brne	.+24     	; 0x4f84 <_ZN4core12connect_nodeEP4nodeiii+0x1d8>
    4f6c:	82 81       	ldd	r24, Z+2	; 0x02
    4f6e:	93 81       	ldd	r25, Z+3	; 0x03
    4f70:	88 16       	cp	r8, r24
    4f72:	99 06       	cpc	r9, r25
    4f74:	39 f4       	brne	.+14     	; 0x4f84 <_ZN4core12connect_nodeEP4nodeiii+0x1d8>
    4f76:	84 81       	ldd	r24, Z+4	; 0x04
    4f78:	95 81       	ldd	r25, Z+5	; 0x05
    4f7a:	48 16       	cp	r4, r24
    4f7c:	59 06       	cpc	r5, r25
    4f7e:	11 f4       	brne	.+4      	; 0x4f84 <_ZN4core12connect_nodeEP4nodeiii+0x1d8>
    4f80:	6f 86       	std	Y+15, r6	; 0x0f
    4f82:	78 8a       	std	Y+16, r7	; 0x10
    4f84:	d3 01       	movw	r26, r6
    4f86:	58 96       	adiw	r26, 0x18	; 24
    4f88:	2c 93       	st	X, r18
    4f8a:	58 97       	sbiw	r26, 0x18	; 24
    4f8c:	16 96       	adiw	r26, 0x06	; 6
    4f8e:	ed 90       	ld	r14, X+
    4f90:	fc 90       	ld	r15, X
    4f92:	17 97       	sbiw	r26, 0x07	; 7
    4f94:	1a 96       	adiw	r26, 0x0a	; 10
    4f96:	6d 91       	ld	r22, X+
    4f98:	7c 91       	ld	r23, X
    4f9a:	1b 97       	sbiw	r26, 0x0b	; 11
    4f9c:	82 01       	movw	r16, r4
    4f9e:	94 01       	movw	r18, r8
    4fa0:	a6 01       	movw	r20, r12
    4fa2:	ce 01       	movw	r24, r28
    4fa4:	0e 94 42 01 	call	0x284	; 0x284 <_ZN4core3dfsEP4nodeiiii>
    4fa8:	f3 01       	movw	r30, r6
    4faa:	e6 80       	ldd	r14, Z+6	; 0x06
    4fac:	f7 80       	ldd	r15, Z+7	; 0x07
    4fae:	64 85       	ldd	r22, Z+12	; 0x0c
    4fb0:	75 85       	ldd	r23, Z+13	; 0x0d
    4fb2:	94 01       	movw	r18, r8
    4fb4:	a6 01       	movw	r20, r12
    4fb6:	ce 01       	movw	r24, r28
    4fb8:	0e 94 42 01 	call	0x284	; 0x284 <_ZN4core3dfsEP4nodeiiii>
    4fbc:	d3 01       	movw	r26, r6
    4fbe:	16 96       	adiw	r26, 0x06	; 6
    4fc0:	ed 90       	ld	r14, X+
    4fc2:	fc 90       	ld	r15, X
    4fc4:	17 97       	sbiw	r26, 0x07	; 7
    4fc6:	1e 96       	adiw	r26, 0x0e	; 14
    4fc8:	6d 91       	ld	r22, X+
    4fca:	7c 91       	ld	r23, X
    4fcc:	1f 97       	sbiw	r26, 0x0f	; 15
    4fce:	94 01       	movw	r18, r8
    4fd0:	a6 01       	movw	r20, r12
    4fd2:	ce 01       	movw	r24, r28
    4fd4:	0e 94 42 01 	call	0x284	; 0x284 <_ZN4core3dfsEP4nodeiiii>
    4fd8:	f3 01       	movw	r30, r6
    4fda:	e6 80       	ldd	r14, Z+6	; 0x06
    4fdc:	f7 80       	ldd	r15, Z+7	; 0x07
    4fde:	60 89       	ldd	r22, Z+16	; 0x10
    4fe0:	71 89       	ldd	r23, Z+17	; 0x11
    4fe2:	94 01       	movw	r18, r8
    4fe4:	a6 01       	movw	r20, r12
    4fe6:	ce 01       	movw	r24, r28
    4fe8:	0e 94 42 01 	call	0x284	; 0x284 <_ZN4core3dfsEP4nodeiiii>
    4fec:	d5 01       	movw	r26, r10
    4fee:	16 96       	adiw	r26, 0x06	; 6
    4ff0:	8d 91       	ld	r24, X+
    4ff2:	9c 91       	ld	r25, X
    4ff4:	17 97       	sbiw	r26, 0x07	; 7
    4ff6:	1e 96       	adiw	r26, 0x0e	; 14
    4ff8:	6d 90       	ld	r6, X+
    4ffa:	7c 90       	ld	r7, X
    4ffc:	1f 97       	sbiw	r26, 0x0f	; 15
    4ffe:	61 14       	cp	r6, r1
    5000:	71 04       	cpc	r7, r1
    5002:	09 f4       	brne	.+2      	; 0x5006 <_ZN4core12connect_nodeEP4nodeiii+0x25a>
    5004:	5e c0       	rjmp	.+188    	; 0x50c2 <_ZN4core12connect_nodeEP4nodeiii+0x316>
    5006:	01 96       	adiw	r24, 0x01	; 1
    5008:	f3 01       	movw	r30, r6
    500a:	26 81       	ldd	r18, Z+6	; 0x06
    500c:	37 81       	ldd	r19, Z+7	; 0x07
    500e:	82 17       	cp	r24, r18
    5010:	93 07       	cpc	r25, r19
    5012:	14 f4       	brge	.+4      	; 0x5018 <_ZN4core12connect_nodeEP4nodeiii+0x26c>
    5014:	86 83       	std	Z+6, r24	; 0x06
    5016:	97 83       	std	Z+7, r25	; 0x07
    5018:	2e 85       	ldd	r18, Y+14	; 0x0e
    501a:	d3 01       	movw	r26, r6
    501c:	58 96       	adiw	r26, 0x18	; 24
    501e:	8c 91       	ld	r24, X
    5020:	58 97       	sbiw	r26, 0x18	; 24
    5022:	82 17       	cp	r24, r18
    5024:	09 f4       	brne	.+2      	; 0x5028 <_ZN4core12connect_nodeEP4nodeiii+0x27c>
    5026:	4d c0       	rjmp	.+154    	; 0x50c2 <_ZN4core12connect_nodeEP4nodeiii+0x316>
    5028:	8b 89       	ldd	r24, Y+19	; 0x13
    502a:	9c 89       	ldd	r25, Y+20	; 0x14
    502c:	01 96       	adiw	r24, 0x01	; 1
    502e:	8b 8b       	std	Y+19, r24	; 0x13
    5030:	9c 8b       	std	Y+20, r25	; 0x14
    5032:	8d 91       	ld	r24, X+
    5034:	9c 91       	ld	r25, X
    5036:	11 97       	sbiw	r26, 0x01	; 1
    5038:	c8 16       	cp	r12, r24
    503a:	d9 06       	cpc	r13, r25
    503c:	81 f4       	brne	.+32     	; 0x505e <_ZN4core12connect_nodeEP4nodeiii+0x2b2>
    503e:	12 96       	adiw	r26, 0x02	; 2
    5040:	8d 91       	ld	r24, X+
    5042:	9c 91       	ld	r25, X
    5044:	13 97       	sbiw	r26, 0x03	; 3
    5046:	88 16       	cp	r8, r24
    5048:	99 06       	cpc	r9, r25
    504a:	49 f4       	brne	.+18     	; 0x505e <_ZN4core12connect_nodeEP4nodeiii+0x2b2>
    504c:	14 96       	adiw	r26, 0x04	; 4
    504e:	8d 91       	ld	r24, X+
    5050:	9c 91       	ld	r25, X
    5052:	15 97       	sbiw	r26, 0x05	; 5
    5054:	48 16       	cp	r4, r24
    5056:	59 06       	cpc	r5, r25
    5058:	11 f4       	brne	.+4      	; 0x505e <_ZN4core12connect_nodeEP4nodeiii+0x2b2>
    505a:	6f 86       	std	Y+15, r6	; 0x0f
    505c:	78 8a       	std	Y+16, r7	; 0x10
    505e:	f3 01       	movw	r30, r6
    5060:	20 8f       	std	Z+24, r18	; 0x18
    5062:	e6 80       	ldd	r14, Z+6	; 0x06
    5064:	f7 80       	ldd	r15, Z+7	; 0x07
    5066:	62 85       	ldd	r22, Z+10	; 0x0a
    5068:	73 85       	ldd	r23, Z+11	; 0x0b
    506a:	82 01       	movw	r16, r4
    506c:	94 01       	movw	r18, r8
    506e:	a6 01       	movw	r20, r12
    5070:	ce 01       	movw	r24, r28
    5072:	0e 94 42 01 	call	0x284	; 0x284 <_ZN4core3dfsEP4nodeiiii>
    5076:	d3 01       	movw	r26, r6
    5078:	16 96       	adiw	r26, 0x06	; 6
    507a:	ed 90       	ld	r14, X+
    507c:	fc 90       	ld	r15, X
    507e:	17 97       	sbiw	r26, 0x07	; 7
    5080:	1c 96       	adiw	r26, 0x0c	; 12
    5082:	6d 91       	ld	r22, X+
    5084:	7c 91       	ld	r23, X
    5086:	1d 97       	sbiw	r26, 0x0d	; 13
    5088:	94 01       	movw	r18, r8
    508a:	a6 01       	movw	r20, r12
    508c:	ce 01       	movw	r24, r28
    508e:	0e 94 42 01 	call	0x284	; 0x284 <_ZN4core3dfsEP4nodeiiii>
    5092:	f3 01       	movw	r30, r6
    5094:	e6 80       	ldd	r14, Z+6	; 0x06
    5096:	f7 80       	ldd	r15, Z+7	; 0x07
    5098:	66 85       	ldd	r22, Z+14	; 0x0e
    509a:	77 85       	ldd	r23, Z+15	; 0x0f
    509c:	94 01       	movw	r18, r8
    509e:	a6 01       	movw	r20, r12
    50a0:	ce 01       	movw	r24, r28
    50a2:	0e 94 42 01 	call	0x284	; 0x284 <_ZN4core3dfsEP4nodeiiii>
    50a6:	d3 01       	movw	r26, r6
    50a8:	16 96       	adiw	r26, 0x06	; 6
    50aa:	ed 90       	ld	r14, X+
    50ac:	fc 90       	ld	r15, X
    50ae:	17 97       	sbiw	r26, 0x07	; 7
    50b0:	50 96       	adiw	r26, 0x10	; 16
    50b2:	6d 91       	ld	r22, X+
    50b4:	7c 91       	ld	r23, X
    50b6:	51 97       	sbiw	r26, 0x11	; 17
    50b8:	94 01       	movw	r18, r8
    50ba:	a6 01       	movw	r20, r12
    50bc:	ce 01       	movw	r24, r28
    50be:	0e 94 42 01 	call	0x284	; 0x284 <_ZN4core3dfsEP4nodeiiii>
    50c2:	f5 01       	movw	r30, r10
    50c4:	86 81       	ldd	r24, Z+6	; 0x06
    50c6:	97 81       	ldd	r25, Z+7	; 0x07
    50c8:	a0 88       	ldd	r10, Z+16	; 0x10
    50ca:	b1 88       	ldd	r11, Z+17	; 0x11
    50cc:	a1 14       	cp	r10, r1
    50ce:	b1 04       	cpc	r11, r1
    50d0:	09 f4       	brne	.+2      	; 0x50d4 <_ZN4core12connect_nodeEP4nodeiii+0x328>
    50d2:	f6 c0       	rjmp	.+492    	; 0x52c0 <_ZN4core12connect_nodeEP4nodeiii+0x514>
    50d4:	01 96       	adiw	r24, 0x01	; 1
    50d6:	d5 01       	movw	r26, r10
    50d8:	16 96       	adiw	r26, 0x06	; 6
    50da:	2d 91       	ld	r18, X+
    50dc:	3c 91       	ld	r19, X
    50de:	17 97       	sbiw	r26, 0x07	; 7
    50e0:	82 17       	cp	r24, r18
    50e2:	93 07       	cpc	r25, r19
    50e4:	24 f4       	brge	.+8      	; 0x50ee <_ZN4core12connect_nodeEP4nodeiii+0x342>
    50e6:	16 96       	adiw	r26, 0x06	; 6
    50e8:	8d 93       	st	X+, r24
    50ea:	9c 93       	st	X, r25
    50ec:	17 97       	sbiw	r26, 0x07	; 7
    50ee:	2e 85       	ldd	r18, Y+14	; 0x0e
    50f0:	f5 01       	movw	r30, r10
    50f2:	80 8d       	ldd	r24, Z+24	; 0x18
    50f4:	82 17       	cp	r24, r18
    50f6:	09 f4       	brne	.+2      	; 0x50fa <_ZN4core12connect_nodeEP4nodeiii+0x34e>
    50f8:	e3 c0       	rjmp	.+454    	; 0x52c0 <_ZN4core12connect_nodeEP4nodeiii+0x514>
    50fa:	8b 89       	ldd	r24, Y+19	; 0x13
    50fc:	9c 89       	ldd	r25, Y+20	; 0x14
    50fe:	01 96       	adiw	r24, 0x01	; 1
    5100:	8b 8b       	std	Y+19, r24	; 0x13
    5102:	9c 8b       	std	Y+20, r25	; 0x14
    5104:	80 81       	ld	r24, Z
    5106:	91 81       	ldd	r25, Z+1	; 0x01
    5108:	c8 16       	cp	r12, r24
    510a:	d9 06       	cpc	r13, r25
    510c:	61 f4       	brne	.+24     	; 0x5126 <_ZN4core12connect_nodeEP4nodeiii+0x37a>
    510e:	82 81       	ldd	r24, Z+2	; 0x02
    5110:	93 81       	ldd	r25, Z+3	; 0x03
    5112:	88 16       	cp	r8, r24
    5114:	99 06       	cpc	r9, r25
    5116:	39 f4       	brne	.+14     	; 0x5126 <_ZN4core12connect_nodeEP4nodeiii+0x37a>
    5118:	84 81       	ldd	r24, Z+4	; 0x04
    511a:	95 81       	ldd	r25, Z+5	; 0x05
    511c:	48 16       	cp	r4, r24
    511e:	59 06       	cpc	r5, r25
    5120:	11 f4       	brne	.+4      	; 0x5126 <_ZN4core12connect_nodeEP4nodeiii+0x37a>
    5122:	af 86       	std	Y+15, r10	; 0x0f
    5124:	b8 8a       	std	Y+16, r11	; 0x10
    5126:	d5 01       	movw	r26, r10
    5128:	58 96       	adiw	r26, 0x18	; 24
    512a:	2c 93       	st	X, r18
    512c:	58 97       	sbiw	r26, 0x18	; 24
    512e:	16 96       	adiw	r26, 0x06	; 6
    5130:	ed 90       	ld	r14, X+
    5132:	fc 90       	ld	r15, X
    5134:	17 97       	sbiw	r26, 0x07	; 7
    5136:	1a 96       	adiw	r26, 0x0a	; 10
    5138:	6d 91       	ld	r22, X+
    513a:	7c 91       	ld	r23, X
    513c:	1b 97       	sbiw	r26, 0x0b	; 11
    513e:	82 01       	movw	r16, r4
    5140:	94 01       	movw	r18, r8
    5142:	a6 01       	movw	r20, r12
    5144:	ce 01       	movw	r24, r28
    5146:	0e 94 42 01 	call	0x284	; 0x284 <_ZN4core3dfsEP4nodeiiii>
    514a:	f5 01       	movw	r30, r10
    514c:	e6 80       	ldd	r14, Z+6	; 0x06
    514e:	f7 80       	ldd	r15, Z+7	; 0x07
    5150:	64 85       	ldd	r22, Z+12	; 0x0c
    5152:	75 85       	ldd	r23, Z+13	; 0x0d
    5154:	94 01       	movw	r18, r8
    5156:	a6 01       	movw	r20, r12
    5158:	ce 01       	movw	r24, r28
    515a:	0e 94 42 01 	call	0x284	; 0x284 <_ZN4core3dfsEP4nodeiiii>
    515e:	d5 01       	movw	r26, r10
    5160:	16 96       	adiw	r26, 0x06	; 6
    5162:	ed 90       	ld	r14, X+
    5164:	fc 90       	ld	r15, X
    5166:	17 97       	sbiw	r26, 0x07	; 7
    5168:	1e 96       	adiw	r26, 0x0e	; 14
    516a:	6d 91       	ld	r22, X+
    516c:	7c 91       	ld	r23, X
    516e:	1f 97       	sbiw	r26, 0x0f	; 15
    5170:	94 01       	movw	r18, r8
    5172:	a6 01       	movw	r20, r12
    5174:	ce 01       	movw	r24, r28
    5176:	0e 94 42 01 	call	0x284	; 0x284 <_ZN4core3dfsEP4nodeiiii>
    517a:	f5 01       	movw	r30, r10
    517c:	e6 80       	ldd	r14, Z+6	; 0x06
    517e:	f7 80       	ldd	r15, Z+7	; 0x07
    5180:	60 89       	ldd	r22, Z+16	; 0x10
    5182:	71 89       	ldd	r23, Z+17	; 0x11
    5184:	94 01       	movw	r18, r8
    5186:	a6 01       	movw	r20, r12
    5188:	ce 01       	movw	r24, r28
    518a:	0e 94 42 01 	call	0x284	; 0x284 <_ZN4core3dfsEP4nodeiiii>
    518e:	98 c0       	rjmp	.+304    	; 0x52c0 <_ZN4core12connect_nodeEP4nodeiii+0x514>
    5190:	a7 ec       	ldi	r26, 0xC7	; 199
    5192:	b2 e2       	ldi	r27, 0x22	; 34
    5194:	14 96       	adiw	r26, 0x04	; 4
    5196:	2d 91       	ld	r18, X+
    5198:	3c 91       	ld	r19, X
    519a:	15 97       	sbiw	r26, 0x05	; 5
    519c:	8d 91       	ld	r24, X+
    519e:	9c 91       	ld	r25, X
    51a0:	01 97       	sbiw	r24, 0x01	; 1
    51a2:	28 17       	cp	r18, r24
    51a4:	39 07       	cpc	r19, r25
    51a6:	74 f4       	brge	.+28     	; 0x51c4 <_ZN4core12connect_nodeEP4nodeiii+0x418>
    51a8:	2f 5f       	subi	r18, 0xFF	; 255
    51aa:	3f 4f       	sbci	r19, 0xFF	; 255
    51ac:	20 93 cb 22 	sts	0x22CB, r18	; 0x8022cb <mall+0x4>
    51b0:	30 93 cc 22 	sts	0x22CC, r19	; 0x8022cc <mall+0x5>
    51b4:	8c e1       	ldi	r24, 0x1C	; 28
    51b6:	82 9f       	mul	r24, r18
    51b8:	f0 01       	movw	r30, r0
    51ba:	83 9f       	mul	r24, r19
    51bc:	f0 0d       	add	r31, r0
    51be:	11 24       	eor	r1, r1
    51c0:	e3 53       	subi	r30, 0x33	; 51
    51c2:	fd 4d       	sbci	r31, 0xDD	; 221
    51c4:	c0 82       	st	Z, r12
    51c6:	d1 82       	std	Z+1, r13	; 0x01
    51c8:	82 82       	std	Z+2, r8	; 0x02
    51ca:	93 82       	std	Z+3, r9	; 0x03
    51cc:	44 82       	std	Z+4, r4	; 0x04
    51ce:	55 82       	std	Z+5, r5	; 0x05
    51d0:	d1 01       	movw	r26, r2
    51d2:	1a 96       	adiw	r26, 0x0a	; 10
    51d4:	8d 91       	ld	r24, X+
    51d6:	9c 91       	ld	r25, X
    51d8:	1b 97       	sbiw	r26, 0x0b	; 11
    51da:	89 2b       	or	r24, r25
    51dc:	d9 f0       	breq	.+54     	; 0x5214 <_ZN4core12connect_nodeEP4nodeiii+0x468>
    51de:	1c 96       	adiw	r26, 0x0c	; 12
    51e0:	8d 91       	ld	r24, X+
    51e2:	9c 91       	ld	r25, X
    51e4:	1d 97       	sbiw	r26, 0x0d	; 13
    51e6:	89 2b       	or	r24, r25
    51e8:	79 f0       	breq	.+30     	; 0x5208 <_ZN4core12connect_nodeEP4nodeiii+0x45c>
    51ea:	1e 96       	adiw	r26, 0x0e	; 14
    51ec:	8d 91       	ld	r24, X+
    51ee:	9c 91       	ld	r25, X
    51f0:	1f 97       	sbiw	r26, 0x0f	; 15
    51f2:	89 2b       	or	r24, r25
    51f4:	61 f0       	breq	.+24     	; 0x520e <_ZN4core12connect_nodeEP4nodeiii+0x462>
    51f6:	50 96       	adiw	r26, 0x10	; 16
    51f8:	8d 91       	ld	r24, X+
    51fa:	9c 91       	ld	r25, X
    51fc:	51 97       	sbiw	r26, 0x11	; 17
    51fe:	89 2b       	or	r24, r25
    5200:	91 f4       	brne	.+36     	; 0x5226 <_ZN4core12connect_nodeEP4nodeiii+0x47a>
    5202:	a3 e0       	ldi	r26, 0x03	; 3
    5204:	b0 e0       	ldi	r27, 0x00	; 0
    5206:	08 c0       	rjmp	.+16     	; 0x5218 <_ZN4core12connect_nodeEP4nodeiii+0x46c>
    5208:	a1 e0       	ldi	r26, 0x01	; 1
    520a:	b0 e0       	ldi	r27, 0x00	; 0
    520c:	05 c0       	rjmp	.+10     	; 0x5218 <_ZN4core12connect_nodeEP4nodeiii+0x46c>
    520e:	a2 e0       	ldi	r26, 0x02	; 2
    5210:	b0 e0       	ldi	r27, 0x00	; 0
    5212:	02 c0       	rjmp	.+4      	; 0x5218 <_ZN4core12connect_nodeEP4nodeiii+0x46c>
    5214:	a0 e0       	ldi	r26, 0x00	; 0
    5216:	b0 e0       	ldi	r27, 0x00	; 0
    5218:	15 96       	adiw	r26, 0x05	; 5
    521a:	aa 0f       	add	r26, r26
    521c:	bb 1f       	adc	r27, r27
    521e:	a2 0d       	add	r26, r2
    5220:	b3 1d       	adc	r27, r3
    5222:	ed 93       	st	X+, r30
    5224:	fc 93       	st	X, r31
    5226:	22 86       	std	Z+10, r2	; 0x0a
    5228:	33 86       	std	Z+11, r3	; 0x0b
    522a:	5b c0       	rjmp	.+182    	; 0x52e2 <_ZN4core12connect_nodeEP4nodeiii+0x536>
    522c:	89 2b       	or	r24, r25
    522e:	61 f0       	breq	.+24     	; 0x5248 <_ZN4core12connect_nodeEP4nodeiii+0x49c>
    5230:	d1 01       	movw	r26, r2
    5232:	1c 96       	adiw	r26, 0x0c	; 12
    5234:	81 e0       	ldi	r24, 0x01	; 1
    5236:	90 e0       	ldi	r25, 0x00	; 0
    5238:	2d 91       	ld	r18, X+
    523a:	3d 91       	ld	r19, X+
    523c:	2e 17       	cp	r18, r30
    523e:	3f 07       	cpc	r19, r31
    5240:	91 f0       	breq	.+36     	; 0x5266 <_ZN4core12connect_nodeEP4nodeiii+0x4ba>
    5242:	23 2b       	or	r18, r19
    5244:	61 f4       	brne	.+24     	; 0x525e <_ZN4core12connect_nodeEP4nodeiii+0x4b2>
    5246:	02 c0       	rjmp	.+4      	; 0x524c <_ZN4core12connect_nodeEP4nodeiii+0x4a0>
    5248:	80 e0       	ldi	r24, 0x00	; 0
    524a:	90 e0       	ldi	r25, 0x00	; 0
    524c:	dc 01       	movw	r26, r24
    524e:	15 96       	adiw	r26, 0x05	; 5
    5250:	aa 0f       	add	r26, r26
    5252:	bb 1f       	adc	r27, r27
    5254:	a2 0d       	add	r26, r2
    5256:	b3 1d       	adc	r27, r3
    5258:	ed 93       	st	X+, r30
    525a:	fc 93       	st	X, r31
    525c:	04 c0       	rjmp	.+8      	; 0x5266 <_ZN4core12connect_nodeEP4nodeiii+0x4ba>
    525e:	01 96       	adiw	r24, 0x01	; 1
    5260:	84 30       	cpi	r24, 0x04	; 4
    5262:	91 05       	cpc	r25, r1
    5264:	49 f7       	brne	.-46     	; 0x5238 <_ZN4core12connect_nodeEP4nodeiii+0x48c>
    5266:	82 85       	ldd	r24, Z+10	; 0x0a
    5268:	93 85       	ldd	r25, Z+11	; 0x0b
    526a:	28 16       	cp	r2, r24
    526c:	39 06       	cpc	r3, r25
    526e:	c9 f1       	breq	.+114    	; 0x52e2 <_ZN4core12connect_nodeEP4nodeiii+0x536>
    5270:	89 2b       	or	r24, r25
    5272:	61 f0       	breq	.+24     	; 0x528c <_ZN4core12connect_nodeEP4nodeiii+0x4e0>
    5274:	df 01       	movw	r26, r30
    5276:	1c 96       	adiw	r26, 0x0c	; 12
    5278:	81 e0       	ldi	r24, 0x01	; 1
    527a:	90 e0       	ldi	r25, 0x00	; 0
    527c:	2d 91       	ld	r18, X+
    527e:	3d 91       	ld	r19, X+
    5280:	22 16       	cp	r2, r18
    5282:	33 06       	cpc	r3, r19
    5284:	71 f1       	breq	.+92     	; 0x52e2 <_ZN4core12connect_nodeEP4nodeiii+0x536>
    5286:	23 2b       	or	r18, r19
    5288:	61 f4       	brne	.+24     	; 0x52a2 <_ZN4core12connect_nodeEP4nodeiii+0x4f6>
    528a:	02 c0       	rjmp	.+4      	; 0x5290 <_ZN4core12connect_nodeEP4nodeiii+0x4e4>
    528c:	80 e0       	ldi	r24, 0x00	; 0
    528e:	90 e0       	ldi	r25, 0x00	; 0
    5290:	dc 01       	movw	r26, r24
    5292:	15 96       	adiw	r26, 0x05	; 5
    5294:	aa 0f       	add	r26, r26
    5296:	bb 1f       	adc	r27, r27
    5298:	ae 0f       	add	r26, r30
    529a:	bf 1f       	adc	r27, r31
    529c:	ed 93       	st	X+, r30
    529e:	fc 93       	st	X, r31
    52a0:	20 c0       	rjmp	.+64     	; 0x52e2 <_ZN4core12connect_nodeEP4nodeiii+0x536>
    52a2:	01 96       	adiw	r24, 0x01	; 1
    52a4:	84 30       	cpi	r24, 0x04	; 4
    52a6:	91 05       	cpc	r25, r1
    52a8:	49 f7       	brne	.-46     	; 0x527c <_ZN4core12connect_nodeEP4nodeiii+0x4d0>
    52aa:	1b c0       	rjmp	.+54     	; 0x52e2 <_ZN4core12connect_nodeEP4nodeiii+0x536>
    52ac:	d1 01       	movw	r26, r2
    52ae:	1a 96       	adiw	r26, 0x0a	; 10
    52b0:	8d 91       	ld	r24, X+
    52b2:	9c 91       	ld	r25, X
    52b4:	1b 97       	sbiw	r26, 0x0b	; 11
    52b6:	8e 17       	cp	r24, r30
    52b8:	9f 07       	cpc	r25, r31
    52ba:	09 f0       	breq	.+2      	; 0x52be <_ZN4core12connect_nodeEP4nodeiii+0x512>
    52bc:	b7 cf       	rjmp	.-146    	; 0x522c <_ZN4core12connect_nodeEP4nodeiii+0x480>
    52be:	d3 cf       	rjmp	.-90     	; 0x5266 <_ZN4core12connect_nodeEP4nodeiii+0x4ba>
    52c0:	8e 85       	ldd	r24, Y+14	; 0x0e
    52c2:	90 e0       	ldi	r25, 0x00	; 0
    52c4:	01 96       	adiw	r24, 0x01	; 1
    52c6:	81 70       	andi	r24, 0x01	; 1
    52c8:	90 78       	andi	r25, 0x80	; 128
    52ca:	99 23       	and	r25, r25
    52cc:	24 f4       	brge	.+8      	; 0x52d6 <_ZN4core12connect_nodeEP4nodeiii+0x52a>
    52ce:	01 97       	sbiw	r24, 0x01	; 1
    52d0:	8e 6f       	ori	r24, 0xFE	; 254
    52d2:	9f 6f       	ori	r25, 0xFF	; 255
    52d4:	01 96       	adiw	r24, 0x01	; 1
    52d6:	8e 87       	std	Y+14, r24	; 0x0e
    52d8:	ef 85       	ldd	r30, Y+15	; 0x0f
    52da:	f8 89       	ldd	r31, Y+16	; 0x10
    52dc:	30 97       	sbiw	r30, 0x00	; 0
    52de:	31 f7       	brne	.-52     	; 0x52ac <_ZN4core12connect_nodeEP4nodeiii+0x500>
    52e0:	57 cf       	rjmp	.-338    	; 0x5190 <_ZN4core12connect_nodeEP4nodeiii+0x3e4>
    52e2:	df 91       	pop	r29
    52e4:	cf 91       	pop	r28
    52e6:	1f 91       	pop	r17
    52e8:	0f 91       	pop	r16
    52ea:	ff 90       	pop	r15
    52ec:	ef 90       	pop	r14
    52ee:	df 90       	pop	r13
    52f0:	cf 90       	pop	r12
    52f2:	bf 90       	pop	r11
    52f4:	af 90       	pop	r10
    52f6:	9f 90       	pop	r9
    52f8:	8f 90       	pop	r8
    52fa:	7f 90       	pop	r7
    52fc:	6f 90       	pop	r6
    52fe:	5f 90       	pop	r5
    5300:	4f 90       	pop	r4
    5302:	3f 90       	pop	r3
    5304:	2f 90       	pop	r2
    5306:	08 95       	ret

00005308 <_ZN4core11append_nodeEP4nodeiii>:
    5308:	0f 93       	push	r16
    530a:	1f 93       	push	r17
    530c:	cf 93       	push	r28
    530e:	df 93       	push	r29
    5310:	61 15       	cp	r22, r1
    5312:	71 05       	cpc	r23, r1
    5314:	09 f4       	brne	.+2      	; 0x5318 <_ZN4core11append_nodeEP4nodeiii+0x10>
    5316:	56 c0       	rjmp	.+172    	; 0x53c4 <_ZN4core11append_nodeEP4nodeiii+0xbc>
    5318:	fa 01       	movw	r30, r20
    531a:	e2 0f       	add	r30, r18
    531c:	f3 1f       	adc	r31, r19
    531e:	33 96       	adiw	r30, 0x03	; 3
    5320:	e3 70       	andi	r30, 0x03	; 3
    5322:	f0 78       	andi	r31, 0x80	; 128
    5324:	ff 23       	and	r31, r31
    5326:	24 f4       	brge	.+8      	; 0x5330 <_ZN4core11append_nodeEP4nodeiii+0x28>
    5328:	31 97       	sbiw	r30, 0x01	; 1
    532a:	ec 6f       	ori	r30, 0xFC	; 252
    532c:	ff 6f       	ori	r31, 0xFF	; 255
    532e:	31 96       	adiw	r30, 0x01	; 1
    5330:	e8 01       	movw	r28, r16
    5332:	db 01       	movw	r26, r22
    5334:	e1 30       	cpi	r30, 0x01	; 1
    5336:	f1 05       	cpc	r31, r1
    5338:	c9 f0       	breq	.+50     	; 0x536c <_ZN4core11append_nodeEP4nodeiii+0x64>
    533a:	1c f4       	brge	.+6      	; 0x5342 <_ZN4core11append_nodeEP4nodeiii+0x3a>
    533c:	ef 2b       	or	r30, r31
    533e:	39 f0       	breq	.+14     	; 0x534e <_ZN4core11append_nodeEP4nodeiii+0x46>
    5340:	41 c0       	rjmp	.+130    	; 0x53c4 <_ZN4core11append_nodeEP4nodeiii+0xbc>
    5342:	e2 30       	cpi	r30, 0x02	; 2
    5344:	f1 05       	cpc	r31, r1
    5346:	09 f1       	breq	.+66     	; 0x538a <_ZN4core11append_nodeEP4nodeiii+0x82>
    5348:	33 97       	sbiw	r30, 0x03	; 3
    534a:	71 f1       	breq	.+92     	; 0x53a8 <_ZN4core11append_nodeEP4nodeiii+0xa0>
    534c:	3b c0       	rjmp	.+118    	; 0x53c4 <_ZN4core11append_nodeEP4nodeiii+0xbc>
    534e:	14 96       	adiw	r26, 0x04	; 4
    5350:	0d 91       	ld	r16, X+
    5352:	1c 91       	ld	r17, X
    5354:	15 97       	sbiw	r26, 0x05	; 5
    5356:	12 96       	adiw	r26, 0x02	; 2
    5358:	2d 91       	ld	r18, X+
    535a:	3c 91       	ld	r19, X
    535c:	13 97       	sbiw	r26, 0x03	; 3
    535e:	4d 91       	ld	r20, X+
    5360:	5c 91       	ld	r21, X
    5362:	4c 1b       	sub	r20, r28
    5364:	5d 0b       	sbc	r21, r29
    5366:	0e 94 d6 26 	call	0x4dac	; 0x4dac <_ZN4core12connect_nodeEP4nodeiii>
    536a:	2c c0       	rjmp	.+88     	; 0x53c4 <_ZN4core11append_nodeEP4nodeiii+0xbc>
    536c:	14 96       	adiw	r26, 0x04	; 4
    536e:	0d 91       	ld	r16, X+
    5370:	1c 91       	ld	r17, X
    5372:	15 97       	sbiw	r26, 0x05	; 5
    5374:	12 96       	adiw	r26, 0x02	; 2
    5376:	2d 91       	ld	r18, X+
    5378:	3c 91       	ld	r19, X
    537a:	13 97       	sbiw	r26, 0x03	; 3
    537c:	2c 0f       	add	r18, r28
    537e:	3d 1f       	adc	r19, r29
    5380:	4d 91       	ld	r20, X+
    5382:	5c 91       	ld	r21, X
    5384:	0e 94 d6 26 	call	0x4dac	; 0x4dac <_ZN4core12connect_nodeEP4nodeiii>
    5388:	1d c0       	rjmp	.+58     	; 0x53c4 <_ZN4core11append_nodeEP4nodeiii+0xbc>
    538a:	14 96       	adiw	r26, 0x04	; 4
    538c:	0d 91       	ld	r16, X+
    538e:	1c 91       	ld	r17, X
    5390:	15 97       	sbiw	r26, 0x05	; 5
    5392:	12 96       	adiw	r26, 0x02	; 2
    5394:	2d 91       	ld	r18, X+
    5396:	3c 91       	ld	r19, X
    5398:	13 97       	sbiw	r26, 0x03	; 3
    539a:	4d 91       	ld	r20, X+
    539c:	5c 91       	ld	r21, X
    539e:	4c 0f       	add	r20, r28
    53a0:	5d 1f       	adc	r21, r29
    53a2:	0e 94 d6 26 	call	0x4dac	; 0x4dac <_ZN4core12connect_nodeEP4nodeiii>
    53a6:	0e c0       	rjmp	.+28     	; 0x53c4 <_ZN4core11append_nodeEP4nodeiii+0xbc>
    53a8:	14 96       	adiw	r26, 0x04	; 4
    53aa:	0d 91       	ld	r16, X+
    53ac:	1c 91       	ld	r17, X
    53ae:	15 97       	sbiw	r26, 0x05	; 5
    53b0:	12 96       	adiw	r26, 0x02	; 2
    53b2:	2d 91       	ld	r18, X+
    53b4:	3c 91       	ld	r19, X
    53b6:	13 97       	sbiw	r26, 0x03	; 3
    53b8:	2c 1b       	sub	r18, r28
    53ba:	3d 0b       	sbc	r19, r29
    53bc:	4d 91       	ld	r20, X+
    53be:	5c 91       	ld	r21, X
    53c0:	0e 94 d6 26 	call	0x4dac	; 0x4dac <_ZN4core12connect_nodeEP4nodeiii>
    53c4:	df 91       	pop	r29
    53c6:	cf 91       	pop	r28
    53c8:	1f 91       	pop	r17
    53ca:	0f 91       	pop	r16
    53cc:	08 95       	ret

000053ce <main>:
#include "source/petal.hpp"
#include "source/mv_control.hpp"
usart serial(&USARTC0,&PORTC);
#include "source/gyro_control.hpp"

int main(){	
    53ce:	0f 93       	push	r16
    53d0:	1f 93       	push	r17
    53d2:	cf 93       	push	r28
    53d4:	df 93       	push	r29
	init_all();
    53d6:	0e 94 c8 31 	call	0x6390	; 0x6390 <_Z8init_allv>
	init_mv();
    53da:	0e 94 3a 35 	call	0x6a74	; 0x6a74 <_Z7init_mvv>
	#else
		//round up by default
		__ticks_dc = (uint32_t)(ceil(fabs(__tmp)));
	#endif

	__builtin_avr_delay_cycles(__ticks_dc);
    53de:	2f ef       	ldi	r18, 0xFF	; 255
    53e0:	87 e8       	ldi	r24, 0x87	; 135
    53e2:	93 e1       	ldi	r25, 0x13	; 19
    53e4:	21 50       	subi	r18, 0x01	; 1
    53e6:	80 40       	sbci	r24, 0x00	; 0
    53e8:	90 40       	sbci	r25, 0x00	; 0
    53ea:	e1 f7       	brne	.-8      	; 0x53e4 <main+0x16>
    53ec:	00 c0       	rjmp	.+0      	; 0x53ee <main+0x20>
    53ee:	00 00       	nop
	//finded_victim(1);
	_delay_ms(200);
	lcd_putstr(LCD1_TWI,"Hello");
    53f0:	6d e0       	ldi	r22, 0x0D	; 13
    53f2:	70 e2       	ldi	r23, 0x20	; 32
    53f4:	80 eb       	ldi	r24, 0xB0	; 176
    53f6:	94 e0       	ldi	r25, 0x04	; 4
    53f8:	0e 94 22 33 	call	0x6644	; 0x6644 <_Z10lcd_putstrP10TWI_structPKc>
	motor::wait();
    53fc:	81 e0       	ldi	r24, 0x01	; 1
    53fe:	0e 94 8b 34 	call	0x6916	; 0x6916 <_ZN5motor4waitEb>
	lcd_clear();
    5402:	0e 94 34 34 	call	0x6868	; 0x6868 <_Z9lcd_clearv>
	lcd_putstr(LCD1_TWI,"Ready!");
    5406:	63 e1       	ldi	r22, 0x13	; 19
    5408:	70 e2       	ldi	r23, 0x20	; 32
    540a:	80 eb       	ldi	r24, 0xB0	; 176
    540c:	94 e0       	ldi	r25, 0x04	; 4
    540e:	0e 94 22 33 	call	0x6644	; 0x6644 <_Z10lcd_putstrP10TWI_structPKc>
	lcd_clear();
    5412:	0e 94 34 34 	call	0x6868	; 0x6868 <_Z9lcd_clearv>
	serial.string("wake_up\n");
    5416:	6a e1       	ldi	r22, 0x1A	; 26
    5418:	70 e2       	ldi	r23, 0x20	; 32
    541a:	84 e5       	ldi	r24, 0x54	; 84
    541c:	90 e2       	ldi	r25, 0x20	; 32
    541e:	0e 94 c5 37 	call	0x6f8a	; 0x6f8a <_ZN5usart6stringEPKc>
                    break;
            }
        }
    }

    void append_node(int dire,int dis){ append_node(now,dire,dir,dis); }
    5422:	c8 e5       	ldi	r28, 0x58	; 88
    5424:	d0 e2       	ldi	r29, 0x20	; 32
    5426:	2c 81       	ldd	r18, Y+4	; 0x04
    5428:	3d 81       	ldd	r19, Y+5	; 0x05
    542a:	68 81       	ld	r22, Y
    542c:	79 81       	ldd	r23, Y+1	; 0x01
    542e:	01 e0       	ldi	r16, 0x01	; 1
    5430:	10 e0       	ldi	r17, 0x00	; 0
    5432:	41 e0       	ldi	r20, 0x01	; 1
    5434:	50 e0       	ldi	r21, 0x00	; 0
    5436:	ce 01       	movw	r24, r28
    5438:	0e 94 84 29 	call	0x5308	; 0x5308 <_ZN4core11append_nodeEP4nodeiii>
	ta.append_node(v::front,1);
	ta.go_st();
    543c:	ce 01       	movw	r24, r28
    543e:	0e 94 03 14 	call	0x2806	; 0x2806 <_ZN4core5go_stEv>
    5442:	2c 81       	ldd	r18, Y+4	; 0x04
    5444:	3d 81       	ldd	r19, Y+5	; 0x05
    5446:	68 81       	ld	r22, Y
    5448:	79 81       	ldd	r23, Y+1	; 0x01
    544a:	41 e0       	ldi	r20, 0x01	; 1
    544c:	50 e0       	ldi	r21, 0x00	; 0
    544e:	ce 01       	movw	r24, r28
    5450:	0e 94 84 29 	call	0x5308	; 0x5308 <_ZN4core11append_nodeEP4nodeiii>
	ta.append_node(v::front,1);
	ta.go_st();
    5454:	ce 01       	movw	r24, r28
    5456:	0e 94 03 14 	call	0x2806	; 0x2806 <_ZN4core5go_stEv>
    545a:	2c 81       	ldd	r18, Y+4	; 0x04
    545c:	3d 81       	ldd	r19, Y+5	; 0x05
    545e:	68 81       	ld	r22, Y
    5460:	79 81       	ldd	r23, Y+1	; 0x01
    5462:	40 e0       	ldi	r20, 0x00	; 0
    5464:	50 e0       	ldi	r21, 0x00	; 0
    5466:	ce 01       	movw	r24, r28
    5468:	0e 94 84 29 	call	0x5308	; 0x5308 <_ZN4core11append_nodeEP4nodeiii>
    546c:	2c 81       	ldd	r18, Y+4	; 0x04
    546e:	3d 81       	ldd	r19, Y+5	; 0x05
    5470:	68 81       	ld	r22, Y
    5472:	79 81       	ldd	r23, Y+1	; 0x01
    5474:	43 e0       	ldi	r20, 0x03	; 3
    5476:	50 e0       	ldi	r21, 0x00	; 0
    5478:	ce 01       	movw	r24, r28
    547a:	0e 94 84 29 	call	0x5308	; 0x5308 <_ZN4core11append_nodeEP4nodeiii>
	ta.append_node(v::left,1);
	ta.append_node(v::back,1);
	ta.find(1,1,1);
    547e:	21 e0       	ldi	r18, 0x01	; 1
    5480:	30 e0       	ldi	r19, 0x00	; 0
    5482:	41 e0       	ldi	r20, 0x01	; 1
    5484:	50 e0       	ldi	r21, 0x00	; 0
    5486:	61 e0       	ldi	r22, 0x01	; 1
    5488:	70 e0       	ldi	r23, 0x00	; 0
    548a:	ce 01       	movw	r24, r28
    548c:	0e 94 b2 01 	call	0x364	; 0x364 <_ZN4core4findEiii>
	lcd_putdec(LCD1_TWI,ta.r_vnum());
    5490:	6b 89       	ldd	r22, Y+19	; 0x13
    5492:	7c 89       	ldd	r23, Y+20	; 0x14
    5494:	80 eb       	ldi	r24, 0xB0	; 176
    5496:	94 e0       	ldi	r25, 0x04	; 4
    5498:	0e 94 84 33 	call	0x6708	; 0x6708 <_Z10lcd_putdecP10TWI_structj>
	//st.push(ta.r_now());
	//stack_dfs(ta.r_now());
	lcd_clear();
	lcd_putstr(LCD1_TWI,"THE_END");
*/	return 0;
    549c:	80 e0       	ldi	r24, 0x00	; 0
    549e:	90 e0       	ldi	r25, 0x00	; 0
    54a0:	df 91       	pop	r29
    54a2:	cf 91       	pop	r28
    54a4:	1f 91       	pop	r17
    54a6:	0f 91       	pop	r16
    54a8:	08 95       	ret

000054aa <_GLOBAL__sub_I_st>:
    54aa:	cf 93       	push	r28
    54ac:	df 93       	push	r29
 };

 struct stack{
	 node* box[300]={np};
	 int siz;
	 stack(){siz=0;};
    54ae:	e5 e7       	ldi	r30, 0x75	; 117
    54b0:	f9 e3       	ldi	r31, 0x39	; 57
    54b2:	88 e5       	ldi	r24, 0x58	; 88
    54b4:	92 e0       	ldi	r25, 0x02	; 2
    54b6:	df 01       	movw	r26, r30
    54b8:	ec 01       	movw	r28, r24
    54ba:	1d 92       	st	X+, r1
    54bc:	21 97       	sbiw	r28, 0x01	; 1
    54be:	e9 f7       	brne	.-6      	; 0x54ba <_GLOBAL__sub_I_st+0x10>
    54c0:	10 92 cd 3b 	sts	0x3BCD, r1	; 0x803bcd <st+0x258>
    54c4:	10 92 ce 3b 	sts	0x3BCE, r1	; 0x803bce <st+0x259>
	 ci max=200;
	 int size,now;
	 node mal[200];
	 bl box[200]={0};
  public:
	 nodes(){size=0;now=0;};
    54c8:	e7 ec       	ldi	r30, 0xC7	; 199
    54ca:	f2 e2       	ldi	r31, 0x22	; 34
    54cc:	88 ec       	ldi	r24, 0xC8	; 200
    54ce:	90 e0       	ldi	r25, 0x00	; 0
    54d0:	80 83       	st	Z, r24
    54d2:	91 83       	std	Z+1, r25	; 0x01
    54d4:	80 ee       	ldi	r24, 0xE0	; 224
    54d6:	95 e1       	ldi	r25, 0x15	; 21
    54d8:	ad ec       	ldi	r26, 0xCD	; 205
    54da:	b2 e2       	ldi	r27, 0x22	; 34
    54dc:	ed 01       	movw	r28, r26
    54de:	9c 01       	movw	r18, r24
    54e0:	19 92       	st	Y+, r1
    54e2:	21 50       	subi	r18, 0x01	; 1
    54e4:	30 40       	sbci	r19, 0x00	; 0
    54e6:	e1 f7       	brne	.-8      	; 0x54e0 <_GLOBAL__sub_I_st+0x36>
    54e8:	88 ee       	ldi	r24, 0xE8	; 232
    54ea:	93 e0       	ldi	r25, 0x03	; 3
    54ec:	84 87       	std	Z+12, r24	; 0x0c
    54ee:	95 87       	std	Z+13, r25	; 0x0d
    54f0:	80 a3       	std	Z+32, r24	; 0x20
    54f2:	91 a3       	std	Z+33, r25	; 0x21
    54f4:	84 af       	std	Z+60, r24	; 0x3c
    54f6:	95 af       	std	Z+61, r25	; 0x3d
    54f8:	80 93 0b 23 	sts	0x230B, r24	; 0x80230b <mall+0x44>
    54fc:	90 93 0c 23 	sts	0x230C, r25	; 0x80230c <mall+0x45>
    5500:	80 93 1f 23 	sts	0x231F, r24	; 0x80231f <mall+0x58>
    5504:	90 93 20 23 	sts	0x2320, r25	; 0x802320 <mall+0x59>
    5508:	80 93 27 23 	sts	0x2327, r24	; 0x802327 <mall+0x60>
    550c:	90 93 28 23 	sts	0x2328, r25	; 0x802328 <mall+0x61>
    5510:	80 93 3b 23 	sts	0x233B, r24	; 0x80233b <mall+0x74>
    5514:	90 93 3c 23 	sts	0x233C, r25	; 0x80233c <mall+0x75>
    5518:	80 93 43 23 	sts	0x2343, r24	; 0x802343 <mall+0x7c>
    551c:	90 93 44 23 	sts	0x2344, r25	; 0x802344 <mall+0x7d>
    5520:	80 93 57 23 	sts	0x2357, r24	; 0x802357 <mall+0x90>
    5524:	90 93 58 23 	sts	0x2358, r25	; 0x802358 <mall+0x91>
    5528:	80 93 5f 23 	sts	0x235F, r24	; 0x80235f <mall+0x98>
    552c:	90 93 60 23 	sts	0x2360, r25	; 0x802360 <mall+0x99>
    5530:	80 93 73 23 	sts	0x2373, r24	; 0x802373 <mall+0xac>
    5534:	90 93 74 23 	sts	0x2374, r25	; 0x802374 <mall+0xad>
    5538:	80 93 7b 23 	sts	0x237B, r24	; 0x80237b <mall+0xb4>
    553c:	90 93 7c 23 	sts	0x237C, r25	; 0x80237c <mall+0xb5>
    5540:	80 93 8f 23 	sts	0x238F, r24	; 0x80238f <mall+0xc8>
    5544:	90 93 90 23 	sts	0x2390, r25	; 0x802390 <mall+0xc9>
    5548:	80 93 97 23 	sts	0x2397, r24	; 0x802397 <mall+0xd0>
    554c:	90 93 98 23 	sts	0x2398, r25	; 0x802398 <mall+0xd1>
    5550:	80 93 ab 23 	sts	0x23AB, r24	; 0x8023ab <mall+0xe4>
    5554:	90 93 ac 23 	sts	0x23AC, r25	; 0x8023ac <mall+0xe5>
    5558:	80 93 b3 23 	sts	0x23B3, r24	; 0x8023b3 <mall+0xec>
    555c:	90 93 b4 23 	sts	0x23B4, r25	; 0x8023b4 <mall+0xed>
    5560:	80 93 c7 23 	sts	0x23C7, r24	; 0x8023c7 <mall+0x100>
    5564:	90 93 c8 23 	sts	0x23C8, r25	; 0x8023c8 <mall+0x101>
    5568:	80 93 cf 23 	sts	0x23CF, r24	; 0x8023cf <mall+0x108>
    556c:	90 93 d0 23 	sts	0x23D0, r25	; 0x8023d0 <mall+0x109>
    5570:	80 93 e3 23 	sts	0x23E3, r24	; 0x8023e3 <mall+0x11c>
    5574:	90 93 e4 23 	sts	0x23E4, r25	; 0x8023e4 <mall+0x11d>
    5578:	80 93 eb 23 	sts	0x23EB, r24	; 0x8023eb <mall+0x124>
    557c:	90 93 ec 23 	sts	0x23EC, r25	; 0x8023ec <mall+0x125>
    5580:	80 93 ff 23 	sts	0x23FF, r24	; 0x8023ff <mall+0x138>
    5584:	90 93 00 24 	sts	0x2400, r25	; 0x802400 <mall+0x139>
    5588:	80 93 07 24 	sts	0x2407, r24	; 0x802407 <mall+0x140>
    558c:	90 93 08 24 	sts	0x2408, r25	; 0x802408 <mall+0x141>
    5590:	80 93 1b 24 	sts	0x241B, r24	; 0x80241b <mall+0x154>
    5594:	90 93 1c 24 	sts	0x241C, r25	; 0x80241c <mall+0x155>
    5598:	80 93 23 24 	sts	0x2423, r24	; 0x802423 <mall+0x15c>
    559c:	90 93 24 24 	sts	0x2424, r25	; 0x802424 <mall+0x15d>
    55a0:	80 93 37 24 	sts	0x2437, r24	; 0x802437 <mall+0x170>
    55a4:	90 93 38 24 	sts	0x2438, r25	; 0x802438 <mall+0x171>
    55a8:	80 93 3f 24 	sts	0x243F, r24	; 0x80243f <mall+0x178>
    55ac:	90 93 40 24 	sts	0x2440, r25	; 0x802440 <mall+0x179>
    55b0:	80 93 53 24 	sts	0x2453, r24	; 0x802453 <mall+0x18c>
    55b4:	90 93 54 24 	sts	0x2454, r25	; 0x802454 <mall+0x18d>
    55b8:	80 93 5b 24 	sts	0x245B, r24	; 0x80245b <mall+0x194>
    55bc:	90 93 5c 24 	sts	0x245C, r25	; 0x80245c <mall+0x195>
    55c0:	80 93 6f 24 	sts	0x246F, r24	; 0x80246f <mall+0x1a8>
    55c4:	90 93 70 24 	sts	0x2470, r25	; 0x802470 <mall+0x1a9>
    55c8:	80 93 77 24 	sts	0x2477, r24	; 0x802477 <mall+0x1b0>
    55cc:	90 93 78 24 	sts	0x2478, r25	; 0x802478 <mall+0x1b1>
    55d0:	80 93 8b 24 	sts	0x248B, r24	; 0x80248b <mall+0x1c4>
    55d4:	90 93 8c 24 	sts	0x248C, r25	; 0x80248c <mall+0x1c5>
    55d8:	80 93 93 24 	sts	0x2493, r24	; 0x802493 <mall+0x1cc>
    55dc:	90 93 94 24 	sts	0x2494, r25	; 0x802494 <mall+0x1cd>
    55e0:	80 93 a7 24 	sts	0x24A7, r24	; 0x8024a7 <mall+0x1e0>
    55e4:	90 93 a8 24 	sts	0x24A8, r25	; 0x8024a8 <mall+0x1e1>
    55e8:	80 93 af 24 	sts	0x24AF, r24	; 0x8024af <mall+0x1e8>
    55ec:	90 93 b0 24 	sts	0x24B0, r25	; 0x8024b0 <mall+0x1e9>
    55f0:	80 93 c3 24 	sts	0x24C3, r24	; 0x8024c3 <mall+0x1fc>
    55f4:	90 93 c4 24 	sts	0x24C4, r25	; 0x8024c4 <mall+0x1fd>
    55f8:	80 93 cb 24 	sts	0x24CB, r24	; 0x8024cb <mall+0x204>
    55fc:	90 93 cc 24 	sts	0x24CC, r25	; 0x8024cc <mall+0x205>
    5600:	80 93 df 24 	sts	0x24DF, r24	; 0x8024df <mall+0x218>
    5604:	90 93 e0 24 	sts	0x24E0, r25	; 0x8024e0 <mall+0x219>
    5608:	80 93 e7 24 	sts	0x24E7, r24	; 0x8024e7 <mall+0x220>
    560c:	90 93 e8 24 	sts	0x24E8, r25	; 0x8024e8 <mall+0x221>
    5610:	80 93 fb 24 	sts	0x24FB, r24	; 0x8024fb <mall+0x234>
    5614:	90 93 fc 24 	sts	0x24FC, r25	; 0x8024fc <mall+0x235>
    5618:	80 93 03 25 	sts	0x2503, r24	; 0x802503 <mall+0x23c>
    561c:	90 93 04 25 	sts	0x2504, r25	; 0x802504 <mall+0x23d>
    5620:	80 93 17 25 	sts	0x2517, r24	; 0x802517 <mall+0x250>
    5624:	90 93 18 25 	sts	0x2518, r25	; 0x802518 <mall+0x251>
    5628:	80 93 1f 25 	sts	0x251F, r24	; 0x80251f <mall+0x258>
    562c:	90 93 20 25 	sts	0x2520, r25	; 0x802520 <mall+0x259>
    5630:	80 93 33 25 	sts	0x2533, r24	; 0x802533 <mall+0x26c>
    5634:	90 93 34 25 	sts	0x2534, r25	; 0x802534 <mall+0x26d>
    5638:	80 93 3b 25 	sts	0x253B, r24	; 0x80253b <mall+0x274>
    563c:	90 93 3c 25 	sts	0x253C, r25	; 0x80253c <mall+0x275>
    5640:	80 93 4f 25 	sts	0x254F, r24	; 0x80254f <mall+0x288>
    5644:	90 93 50 25 	sts	0x2550, r25	; 0x802550 <mall+0x289>
    5648:	80 93 57 25 	sts	0x2557, r24	; 0x802557 <mall+0x290>
    564c:	90 93 58 25 	sts	0x2558, r25	; 0x802558 <mall+0x291>
    5650:	80 93 6b 25 	sts	0x256B, r24	; 0x80256b <mall+0x2a4>
    5654:	90 93 6c 25 	sts	0x256C, r25	; 0x80256c <mall+0x2a5>
    5658:	80 93 73 25 	sts	0x2573, r24	; 0x802573 <mall+0x2ac>
    565c:	90 93 74 25 	sts	0x2574, r25	; 0x802574 <mall+0x2ad>
    5660:	80 93 87 25 	sts	0x2587, r24	; 0x802587 <mall+0x2c0>
    5664:	90 93 88 25 	sts	0x2588, r25	; 0x802588 <mall+0x2c1>
    5668:	80 93 8f 25 	sts	0x258F, r24	; 0x80258f <mall+0x2c8>
    566c:	90 93 90 25 	sts	0x2590, r25	; 0x802590 <mall+0x2c9>
    5670:	80 93 a3 25 	sts	0x25A3, r24	; 0x8025a3 <mall+0x2dc>
    5674:	90 93 a4 25 	sts	0x25A4, r25	; 0x8025a4 <mall+0x2dd>
    5678:	80 93 ab 25 	sts	0x25AB, r24	; 0x8025ab <mall+0x2e4>
    567c:	90 93 ac 25 	sts	0x25AC, r25	; 0x8025ac <mall+0x2e5>
    5680:	80 93 bf 25 	sts	0x25BF, r24	; 0x8025bf <mall+0x2f8>
    5684:	90 93 c0 25 	sts	0x25C0, r25	; 0x8025c0 <mall+0x2f9>
    5688:	80 93 c7 25 	sts	0x25C7, r24	; 0x8025c7 <mall+0x300>
    568c:	90 93 c8 25 	sts	0x25C8, r25	; 0x8025c8 <mall+0x301>
    5690:	80 93 db 25 	sts	0x25DB, r24	; 0x8025db <mall+0x314>
    5694:	90 93 dc 25 	sts	0x25DC, r25	; 0x8025dc <mall+0x315>
    5698:	80 93 e3 25 	sts	0x25E3, r24	; 0x8025e3 <mall+0x31c>
    569c:	90 93 e4 25 	sts	0x25E4, r25	; 0x8025e4 <mall+0x31d>
    56a0:	80 93 f7 25 	sts	0x25F7, r24	; 0x8025f7 <mall+0x330>
    56a4:	90 93 f8 25 	sts	0x25F8, r25	; 0x8025f8 <mall+0x331>
    56a8:	80 93 ff 25 	sts	0x25FF, r24	; 0x8025ff <mall+0x338>
    56ac:	90 93 00 26 	sts	0x2600, r25	; 0x802600 <mall+0x339>
    56b0:	80 93 13 26 	sts	0x2613, r24	; 0x802613 <mall+0x34c>
    56b4:	90 93 14 26 	sts	0x2614, r25	; 0x802614 <mall+0x34d>
    56b8:	80 93 1b 26 	sts	0x261B, r24	; 0x80261b <mall+0x354>
    56bc:	90 93 1c 26 	sts	0x261C, r25	; 0x80261c <mall+0x355>
    56c0:	80 93 2f 26 	sts	0x262F, r24	; 0x80262f <mall+0x368>
    56c4:	90 93 30 26 	sts	0x2630, r25	; 0x802630 <mall+0x369>
    56c8:	80 93 37 26 	sts	0x2637, r24	; 0x802637 <mall+0x370>
    56cc:	90 93 38 26 	sts	0x2638, r25	; 0x802638 <mall+0x371>
    56d0:	80 93 4b 26 	sts	0x264B, r24	; 0x80264b <mall+0x384>
    56d4:	90 93 4c 26 	sts	0x264C, r25	; 0x80264c <mall+0x385>
    56d8:	80 93 53 26 	sts	0x2653, r24	; 0x802653 <mall+0x38c>
    56dc:	90 93 54 26 	sts	0x2654, r25	; 0x802654 <mall+0x38d>
    56e0:	80 93 67 26 	sts	0x2667, r24	; 0x802667 <mall+0x3a0>
    56e4:	90 93 68 26 	sts	0x2668, r25	; 0x802668 <mall+0x3a1>
    56e8:	80 93 6f 26 	sts	0x266F, r24	; 0x80266f <mall+0x3a8>
    56ec:	90 93 70 26 	sts	0x2670, r25	; 0x802670 <mall+0x3a9>
    56f0:	80 93 83 26 	sts	0x2683, r24	; 0x802683 <mall+0x3bc>
    56f4:	90 93 84 26 	sts	0x2684, r25	; 0x802684 <mall+0x3bd>
    56f8:	80 93 8b 26 	sts	0x268B, r24	; 0x80268b <mall+0x3c4>
    56fc:	90 93 8c 26 	sts	0x268C, r25	; 0x80268c <mall+0x3c5>
    5700:	80 93 9f 26 	sts	0x269F, r24	; 0x80269f <mall+0x3d8>
    5704:	90 93 a0 26 	sts	0x26A0, r25	; 0x8026a0 <mall+0x3d9>
    5708:	80 93 a7 26 	sts	0x26A7, r24	; 0x8026a7 <mall+0x3e0>
    570c:	90 93 a8 26 	sts	0x26A8, r25	; 0x8026a8 <mall+0x3e1>
    5710:	80 93 bb 26 	sts	0x26BB, r24	; 0x8026bb <mall+0x3f4>
    5714:	90 93 bc 26 	sts	0x26BC, r25	; 0x8026bc <mall+0x3f5>
    5718:	80 93 c3 26 	sts	0x26C3, r24	; 0x8026c3 <mall+0x3fc>
    571c:	90 93 c4 26 	sts	0x26C4, r25	; 0x8026c4 <mall+0x3fd>
    5720:	80 93 d7 26 	sts	0x26D7, r24	; 0x8026d7 <mall+0x410>
    5724:	90 93 d8 26 	sts	0x26D8, r25	; 0x8026d8 <mall+0x411>
    5728:	80 93 df 26 	sts	0x26DF, r24	; 0x8026df <mall+0x418>
    572c:	90 93 e0 26 	sts	0x26E0, r25	; 0x8026e0 <mall+0x419>
    5730:	80 93 f3 26 	sts	0x26F3, r24	; 0x8026f3 <mall+0x42c>
    5734:	90 93 f4 26 	sts	0x26F4, r25	; 0x8026f4 <mall+0x42d>
    5738:	80 93 fb 26 	sts	0x26FB, r24	; 0x8026fb <mall+0x434>
    573c:	90 93 fc 26 	sts	0x26FC, r25	; 0x8026fc <mall+0x435>
    5740:	80 93 0f 27 	sts	0x270F, r24	; 0x80270f <mall+0x448>
    5744:	90 93 10 27 	sts	0x2710, r25	; 0x802710 <mall+0x449>
    5748:	80 93 17 27 	sts	0x2717, r24	; 0x802717 <mall+0x450>
    574c:	90 93 18 27 	sts	0x2718, r25	; 0x802718 <mall+0x451>
    5750:	80 93 2b 27 	sts	0x272B, r24	; 0x80272b <mall+0x464>
    5754:	90 93 2c 27 	sts	0x272C, r25	; 0x80272c <mall+0x465>
    5758:	80 93 33 27 	sts	0x2733, r24	; 0x802733 <mall+0x46c>
    575c:	90 93 34 27 	sts	0x2734, r25	; 0x802734 <mall+0x46d>
    5760:	80 93 47 27 	sts	0x2747, r24	; 0x802747 <mall+0x480>
    5764:	90 93 48 27 	sts	0x2748, r25	; 0x802748 <mall+0x481>
    5768:	80 93 4f 27 	sts	0x274F, r24	; 0x80274f <mall+0x488>
    576c:	90 93 50 27 	sts	0x2750, r25	; 0x802750 <mall+0x489>
    5770:	80 93 63 27 	sts	0x2763, r24	; 0x802763 <mall+0x49c>
    5774:	90 93 64 27 	sts	0x2764, r25	; 0x802764 <mall+0x49d>
    5778:	80 93 6b 27 	sts	0x276B, r24	; 0x80276b <mall+0x4a4>
    577c:	90 93 6c 27 	sts	0x276C, r25	; 0x80276c <mall+0x4a5>
    5780:	80 93 7f 27 	sts	0x277F, r24	; 0x80277f <mall+0x4b8>
    5784:	90 93 80 27 	sts	0x2780, r25	; 0x802780 <mall+0x4b9>
    5788:	80 93 87 27 	sts	0x2787, r24	; 0x802787 <mall+0x4c0>
    578c:	90 93 88 27 	sts	0x2788, r25	; 0x802788 <mall+0x4c1>
    5790:	80 93 9b 27 	sts	0x279B, r24	; 0x80279b <mall+0x4d4>
    5794:	90 93 9c 27 	sts	0x279C, r25	; 0x80279c <mall+0x4d5>
    5798:	80 93 a3 27 	sts	0x27A3, r24	; 0x8027a3 <mall+0x4dc>
    579c:	90 93 a4 27 	sts	0x27A4, r25	; 0x8027a4 <mall+0x4dd>
    57a0:	80 93 b7 27 	sts	0x27B7, r24	; 0x8027b7 <mall+0x4f0>
    57a4:	90 93 b8 27 	sts	0x27B8, r25	; 0x8027b8 <mall+0x4f1>
    57a8:	80 93 bf 27 	sts	0x27BF, r24	; 0x8027bf <mall+0x4f8>
    57ac:	90 93 c0 27 	sts	0x27C0, r25	; 0x8027c0 <mall+0x4f9>
    57b0:	80 93 d3 27 	sts	0x27D3, r24	; 0x8027d3 <mall+0x50c>
    57b4:	90 93 d4 27 	sts	0x27D4, r25	; 0x8027d4 <mall+0x50d>
    57b8:	80 93 db 27 	sts	0x27DB, r24	; 0x8027db <mall+0x514>
    57bc:	90 93 dc 27 	sts	0x27DC, r25	; 0x8027dc <mall+0x515>
    57c0:	80 93 ef 27 	sts	0x27EF, r24	; 0x8027ef <mall+0x528>
    57c4:	90 93 f0 27 	sts	0x27F0, r25	; 0x8027f0 <mall+0x529>
    57c8:	80 93 f7 27 	sts	0x27F7, r24	; 0x8027f7 <mall+0x530>
    57cc:	90 93 f8 27 	sts	0x27F8, r25	; 0x8027f8 <mall+0x531>
    57d0:	80 93 0b 28 	sts	0x280B, r24	; 0x80280b <mall+0x544>
    57d4:	90 93 0c 28 	sts	0x280C, r25	; 0x80280c <mall+0x545>
    57d8:	80 93 13 28 	sts	0x2813, r24	; 0x802813 <mall+0x54c>
    57dc:	90 93 14 28 	sts	0x2814, r25	; 0x802814 <mall+0x54d>
    57e0:	80 93 27 28 	sts	0x2827, r24	; 0x802827 <mall+0x560>
    57e4:	90 93 28 28 	sts	0x2828, r25	; 0x802828 <mall+0x561>
    57e8:	80 93 2f 28 	sts	0x282F, r24	; 0x80282f <mall+0x568>
    57ec:	90 93 30 28 	sts	0x2830, r25	; 0x802830 <mall+0x569>
    57f0:	80 93 43 28 	sts	0x2843, r24	; 0x802843 <mall+0x57c>
    57f4:	90 93 44 28 	sts	0x2844, r25	; 0x802844 <mall+0x57d>
    57f8:	80 93 4b 28 	sts	0x284B, r24	; 0x80284b <mall+0x584>
    57fc:	90 93 4c 28 	sts	0x284C, r25	; 0x80284c <mall+0x585>
    5800:	80 93 5f 28 	sts	0x285F, r24	; 0x80285f <mall+0x598>
    5804:	90 93 60 28 	sts	0x2860, r25	; 0x802860 <mall+0x599>
    5808:	80 93 67 28 	sts	0x2867, r24	; 0x802867 <mall+0x5a0>
    580c:	90 93 68 28 	sts	0x2868, r25	; 0x802868 <mall+0x5a1>
    5810:	80 93 7b 28 	sts	0x287B, r24	; 0x80287b <mall+0x5b4>
    5814:	90 93 7c 28 	sts	0x287C, r25	; 0x80287c <mall+0x5b5>
    5818:	80 93 83 28 	sts	0x2883, r24	; 0x802883 <mall+0x5bc>
    581c:	90 93 84 28 	sts	0x2884, r25	; 0x802884 <mall+0x5bd>
    5820:	80 93 97 28 	sts	0x2897, r24	; 0x802897 <mall+0x5d0>
    5824:	90 93 98 28 	sts	0x2898, r25	; 0x802898 <mall+0x5d1>
    5828:	80 93 9f 28 	sts	0x289F, r24	; 0x80289f <mall+0x5d8>
    582c:	90 93 a0 28 	sts	0x28A0, r25	; 0x8028a0 <mall+0x5d9>
    5830:	80 93 b3 28 	sts	0x28B3, r24	; 0x8028b3 <mall+0x5ec>
    5834:	90 93 b4 28 	sts	0x28B4, r25	; 0x8028b4 <mall+0x5ed>
    5838:	80 93 bb 28 	sts	0x28BB, r24	; 0x8028bb <mall+0x5f4>
    583c:	90 93 bc 28 	sts	0x28BC, r25	; 0x8028bc <mall+0x5f5>
    5840:	80 93 cf 28 	sts	0x28CF, r24	; 0x8028cf <mall+0x608>
    5844:	90 93 d0 28 	sts	0x28D0, r25	; 0x8028d0 <mall+0x609>
    5848:	80 93 d7 28 	sts	0x28D7, r24	; 0x8028d7 <mall+0x610>
    584c:	90 93 d8 28 	sts	0x28D8, r25	; 0x8028d8 <mall+0x611>
    5850:	80 93 eb 28 	sts	0x28EB, r24	; 0x8028eb <mall+0x624>
    5854:	90 93 ec 28 	sts	0x28EC, r25	; 0x8028ec <mall+0x625>
    5858:	80 93 f3 28 	sts	0x28F3, r24	; 0x8028f3 <mall+0x62c>
    585c:	90 93 f4 28 	sts	0x28F4, r25	; 0x8028f4 <mall+0x62d>
    5860:	80 93 07 29 	sts	0x2907, r24	; 0x802907 <mall+0x640>
    5864:	90 93 08 29 	sts	0x2908, r25	; 0x802908 <mall+0x641>
    5868:	80 93 0f 29 	sts	0x290F, r24	; 0x80290f <mall+0x648>
    586c:	90 93 10 29 	sts	0x2910, r25	; 0x802910 <mall+0x649>
    5870:	80 93 23 29 	sts	0x2923, r24	; 0x802923 <mall+0x65c>
    5874:	90 93 24 29 	sts	0x2924, r25	; 0x802924 <mall+0x65d>
    5878:	80 93 2b 29 	sts	0x292B, r24	; 0x80292b <mall+0x664>
    587c:	90 93 2c 29 	sts	0x292C, r25	; 0x80292c <mall+0x665>
    5880:	80 93 3f 29 	sts	0x293F, r24	; 0x80293f <mall+0x678>
    5884:	90 93 40 29 	sts	0x2940, r25	; 0x802940 <mall+0x679>
    5888:	80 93 47 29 	sts	0x2947, r24	; 0x802947 <mall+0x680>
    588c:	90 93 48 29 	sts	0x2948, r25	; 0x802948 <mall+0x681>
    5890:	80 93 5b 29 	sts	0x295B, r24	; 0x80295b <mall+0x694>
    5894:	90 93 5c 29 	sts	0x295C, r25	; 0x80295c <mall+0x695>
    5898:	80 93 63 29 	sts	0x2963, r24	; 0x802963 <mall+0x69c>
    589c:	90 93 64 29 	sts	0x2964, r25	; 0x802964 <mall+0x69d>
    58a0:	80 93 77 29 	sts	0x2977, r24	; 0x802977 <mall+0x6b0>
    58a4:	90 93 78 29 	sts	0x2978, r25	; 0x802978 <mall+0x6b1>
    58a8:	80 93 7f 29 	sts	0x297F, r24	; 0x80297f <mall+0x6b8>
    58ac:	90 93 80 29 	sts	0x2980, r25	; 0x802980 <mall+0x6b9>
    58b0:	80 93 93 29 	sts	0x2993, r24	; 0x802993 <mall+0x6cc>
    58b4:	90 93 94 29 	sts	0x2994, r25	; 0x802994 <mall+0x6cd>
    58b8:	80 93 9b 29 	sts	0x299B, r24	; 0x80299b <mall+0x6d4>
    58bc:	90 93 9c 29 	sts	0x299C, r25	; 0x80299c <mall+0x6d5>
    58c0:	80 93 af 29 	sts	0x29AF, r24	; 0x8029af <mall+0x6e8>
    58c4:	90 93 b0 29 	sts	0x29B0, r25	; 0x8029b0 <mall+0x6e9>
    58c8:	80 93 b7 29 	sts	0x29B7, r24	; 0x8029b7 <mall+0x6f0>
    58cc:	90 93 b8 29 	sts	0x29B8, r25	; 0x8029b8 <mall+0x6f1>
    58d0:	80 93 cb 29 	sts	0x29CB, r24	; 0x8029cb <mall+0x704>
    58d4:	90 93 cc 29 	sts	0x29CC, r25	; 0x8029cc <mall+0x705>
    58d8:	80 93 d3 29 	sts	0x29D3, r24	; 0x8029d3 <mall+0x70c>
    58dc:	90 93 d4 29 	sts	0x29D4, r25	; 0x8029d4 <mall+0x70d>
    58e0:	80 93 e7 29 	sts	0x29E7, r24	; 0x8029e7 <mall+0x720>
    58e4:	90 93 e8 29 	sts	0x29E8, r25	; 0x8029e8 <mall+0x721>
    58e8:	80 93 ef 29 	sts	0x29EF, r24	; 0x8029ef <mall+0x728>
    58ec:	90 93 f0 29 	sts	0x29F0, r25	; 0x8029f0 <mall+0x729>
    58f0:	80 93 03 2a 	sts	0x2A03, r24	; 0x802a03 <mall+0x73c>
    58f4:	90 93 04 2a 	sts	0x2A04, r25	; 0x802a04 <mall+0x73d>
    58f8:	80 93 0b 2a 	sts	0x2A0B, r24	; 0x802a0b <mall+0x744>
    58fc:	90 93 0c 2a 	sts	0x2A0C, r25	; 0x802a0c <mall+0x745>
    5900:	80 93 1f 2a 	sts	0x2A1F, r24	; 0x802a1f <mall+0x758>
    5904:	90 93 20 2a 	sts	0x2A20, r25	; 0x802a20 <mall+0x759>
    5908:	80 93 27 2a 	sts	0x2A27, r24	; 0x802a27 <mall+0x760>
    590c:	90 93 28 2a 	sts	0x2A28, r25	; 0x802a28 <mall+0x761>
    5910:	80 93 3b 2a 	sts	0x2A3B, r24	; 0x802a3b <mall+0x774>
    5914:	90 93 3c 2a 	sts	0x2A3C, r25	; 0x802a3c <mall+0x775>
    5918:	80 93 43 2a 	sts	0x2A43, r24	; 0x802a43 <mall+0x77c>
    591c:	90 93 44 2a 	sts	0x2A44, r25	; 0x802a44 <mall+0x77d>
    5920:	80 93 57 2a 	sts	0x2A57, r24	; 0x802a57 <mall+0x790>
    5924:	90 93 58 2a 	sts	0x2A58, r25	; 0x802a58 <mall+0x791>
    5928:	80 93 5f 2a 	sts	0x2A5F, r24	; 0x802a5f <mall+0x798>
    592c:	90 93 60 2a 	sts	0x2A60, r25	; 0x802a60 <mall+0x799>
    5930:	80 93 73 2a 	sts	0x2A73, r24	; 0x802a73 <mall+0x7ac>
    5934:	90 93 74 2a 	sts	0x2A74, r25	; 0x802a74 <mall+0x7ad>
    5938:	80 93 7b 2a 	sts	0x2A7B, r24	; 0x802a7b <mall+0x7b4>
    593c:	90 93 7c 2a 	sts	0x2A7C, r25	; 0x802a7c <mall+0x7b5>
    5940:	80 93 8f 2a 	sts	0x2A8F, r24	; 0x802a8f <mall+0x7c8>
    5944:	90 93 90 2a 	sts	0x2A90, r25	; 0x802a90 <mall+0x7c9>
    5948:	80 93 97 2a 	sts	0x2A97, r24	; 0x802a97 <mall+0x7d0>
    594c:	90 93 98 2a 	sts	0x2A98, r25	; 0x802a98 <mall+0x7d1>
    5950:	80 93 ab 2a 	sts	0x2AAB, r24	; 0x802aab <mall+0x7e4>
    5954:	90 93 ac 2a 	sts	0x2AAC, r25	; 0x802aac <mall+0x7e5>
    5958:	80 93 b3 2a 	sts	0x2AB3, r24	; 0x802ab3 <mall+0x7ec>
    595c:	90 93 b4 2a 	sts	0x2AB4, r25	; 0x802ab4 <mall+0x7ed>
    5960:	80 93 c7 2a 	sts	0x2AC7, r24	; 0x802ac7 <mall+0x800>
    5964:	90 93 c8 2a 	sts	0x2AC8, r25	; 0x802ac8 <mall+0x801>
    5968:	80 93 cf 2a 	sts	0x2ACF, r24	; 0x802acf <mall+0x808>
    596c:	90 93 d0 2a 	sts	0x2AD0, r25	; 0x802ad0 <mall+0x809>
    5970:	80 93 e3 2a 	sts	0x2AE3, r24	; 0x802ae3 <mall+0x81c>
    5974:	90 93 e4 2a 	sts	0x2AE4, r25	; 0x802ae4 <mall+0x81d>
    5978:	80 93 eb 2a 	sts	0x2AEB, r24	; 0x802aeb <mall+0x824>
    597c:	90 93 ec 2a 	sts	0x2AEC, r25	; 0x802aec <mall+0x825>
    5980:	80 93 ff 2a 	sts	0x2AFF, r24	; 0x802aff <mall+0x838>
    5984:	90 93 00 2b 	sts	0x2B00, r25	; 0x802b00 <mall+0x839>
    5988:	80 93 07 2b 	sts	0x2B07, r24	; 0x802b07 <mall+0x840>
    598c:	90 93 08 2b 	sts	0x2B08, r25	; 0x802b08 <mall+0x841>
    5990:	80 93 1b 2b 	sts	0x2B1B, r24	; 0x802b1b <mall+0x854>
    5994:	90 93 1c 2b 	sts	0x2B1C, r25	; 0x802b1c <mall+0x855>
    5998:	80 93 23 2b 	sts	0x2B23, r24	; 0x802b23 <mall+0x85c>
    599c:	90 93 24 2b 	sts	0x2B24, r25	; 0x802b24 <mall+0x85d>
    59a0:	80 93 37 2b 	sts	0x2B37, r24	; 0x802b37 <mall+0x870>
    59a4:	90 93 38 2b 	sts	0x2B38, r25	; 0x802b38 <mall+0x871>
    59a8:	80 93 3f 2b 	sts	0x2B3F, r24	; 0x802b3f <mall+0x878>
    59ac:	90 93 40 2b 	sts	0x2B40, r25	; 0x802b40 <mall+0x879>
    59b0:	80 93 53 2b 	sts	0x2B53, r24	; 0x802b53 <mall+0x88c>
    59b4:	90 93 54 2b 	sts	0x2B54, r25	; 0x802b54 <mall+0x88d>
    59b8:	80 93 5b 2b 	sts	0x2B5B, r24	; 0x802b5b <mall+0x894>
    59bc:	90 93 5c 2b 	sts	0x2B5C, r25	; 0x802b5c <mall+0x895>
    59c0:	80 93 6f 2b 	sts	0x2B6F, r24	; 0x802b6f <mall+0x8a8>
    59c4:	90 93 70 2b 	sts	0x2B70, r25	; 0x802b70 <mall+0x8a9>
    59c8:	80 93 77 2b 	sts	0x2B77, r24	; 0x802b77 <mall+0x8b0>
    59cc:	90 93 78 2b 	sts	0x2B78, r25	; 0x802b78 <mall+0x8b1>
    59d0:	80 93 8b 2b 	sts	0x2B8B, r24	; 0x802b8b <mall+0x8c4>
    59d4:	90 93 8c 2b 	sts	0x2B8C, r25	; 0x802b8c <mall+0x8c5>
    59d8:	80 93 93 2b 	sts	0x2B93, r24	; 0x802b93 <mall+0x8cc>
    59dc:	90 93 94 2b 	sts	0x2B94, r25	; 0x802b94 <mall+0x8cd>
    59e0:	80 93 a7 2b 	sts	0x2BA7, r24	; 0x802ba7 <mall+0x8e0>
    59e4:	90 93 a8 2b 	sts	0x2BA8, r25	; 0x802ba8 <mall+0x8e1>
    59e8:	80 93 af 2b 	sts	0x2BAF, r24	; 0x802baf <mall+0x8e8>
    59ec:	90 93 b0 2b 	sts	0x2BB0, r25	; 0x802bb0 <mall+0x8e9>
    59f0:	80 93 c3 2b 	sts	0x2BC3, r24	; 0x802bc3 <mall+0x8fc>
    59f4:	90 93 c4 2b 	sts	0x2BC4, r25	; 0x802bc4 <mall+0x8fd>
    59f8:	80 93 cb 2b 	sts	0x2BCB, r24	; 0x802bcb <mall+0x904>
    59fc:	90 93 cc 2b 	sts	0x2BCC, r25	; 0x802bcc <mall+0x905>
    5a00:	80 93 df 2b 	sts	0x2BDF, r24	; 0x802bdf <mall+0x918>
    5a04:	90 93 e0 2b 	sts	0x2BE0, r25	; 0x802be0 <mall+0x919>
    5a08:	80 93 e7 2b 	sts	0x2BE7, r24	; 0x802be7 <mall+0x920>
    5a0c:	90 93 e8 2b 	sts	0x2BE8, r25	; 0x802be8 <mall+0x921>
    5a10:	80 93 fb 2b 	sts	0x2BFB, r24	; 0x802bfb <mall+0x934>
    5a14:	90 93 fc 2b 	sts	0x2BFC, r25	; 0x802bfc <mall+0x935>
    5a18:	80 93 03 2c 	sts	0x2C03, r24	; 0x802c03 <mall+0x93c>
    5a1c:	90 93 04 2c 	sts	0x2C04, r25	; 0x802c04 <mall+0x93d>
    5a20:	80 93 17 2c 	sts	0x2C17, r24	; 0x802c17 <mall+0x950>
    5a24:	90 93 18 2c 	sts	0x2C18, r25	; 0x802c18 <mall+0x951>
    5a28:	80 93 1f 2c 	sts	0x2C1F, r24	; 0x802c1f <mall+0x958>
    5a2c:	90 93 20 2c 	sts	0x2C20, r25	; 0x802c20 <mall+0x959>
    5a30:	80 93 33 2c 	sts	0x2C33, r24	; 0x802c33 <mall+0x96c>
    5a34:	90 93 34 2c 	sts	0x2C34, r25	; 0x802c34 <mall+0x96d>
    5a38:	80 93 3b 2c 	sts	0x2C3B, r24	; 0x802c3b <mall+0x974>
    5a3c:	90 93 3c 2c 	sts	0x2C3C, r25	; 0x802c3c <mall+0x975>
    5a40:	80 93 4f 2c 	sts	0x2C4F, r24	; 0x802c4f <mall+0x988>
    5a44:	90 93 50 2c 	sts	0x2C50, r25	; 0x802c50 <mall+0x989>
    5a48:	80 93 57 2c 	sts	0x2C57, r24	; 0x802c57 <mall+0x990>
    5a4c:	90 93 58 2c 	sts	0x2C58, r25	; 0x802c58 <mall+0x991>
    5a50:	80 93 6b 2c 	sts	0x2C6B, r24	; 0x802c6b <mall+0x9a4>
    5a54:	90 93 6c 2c 	sts	0x2C6C, r25	; 0x802c6c <mall+0x9a5>
    5a58:	80 93 73 2c 	sts	0x2C73, r24	; 0x802c73 <mall+0x9ac>
    5a5c:	90 93 74 2c 	sts	0x2C74, r25	; 0x802c74 <mall+0x9ad>
    5a60:	80 93 87 2c 	sts	0x2C87, r24	; 0x802c87 <mall+0x9c0>
    5a64:	90 93 88 2c 	sts	0x2C88, r25	; 0x802c88 <mall+0x9c1>
    5a68:	80 93 8f 2c 	sts	0x2C8F, r24	; 0x802c8f <mall+0x9c8>
    5a6c:	90 93 90 2c 	sts	0x2C90, r25	; 0x802c90 <mall+0x9c9>
    5a70:	80 93 a3 2c 	sts	0x2CA3, r24	; 0x802ca3 <mall+0x9dc>
    5a74:	90 93 a4 2c 	sts	0x2CA4, r25	; 0x802ca4 <mall+0x9dd>
    5a78:	80 93 ab 2c 	sts	0x2CAB, r24	; 0x802cab <mall+0x9e4>
    5a7c:	90 93 ac 2c 	sts	0x2CAC, r25	; 0x802cac <mall+0x9e5>
    5a80:	80 93 bf 2c 	sts	0x2CBF, r24	; 0x802cbf <mall+0x9f8>
    5a84:	90 93 c0 2c 	sts	0x2CC0, r25	; 0x802cc0 <mall+0x9f9>
    5a88:	80 93 c7 2c 	sts	0x2CC7, r24	; 0x802cc7 <mall+0xa00>
    5a8c:	90 93 c8 2c 	sts	0x2CC8, r25	; 0x802cc8 <mall+0xa01>
    5a90:	80 93 db 2c 	sts	0x2CDB, r24	; 0x802cdb <mall+0xa14>
    5a94:	90 93 dc 2c 	sts	0x2CDC, r25	; 0x802cdc <mall+0xa15>
    5a98:	80 93 e3 2c 	sts	0x2CE3, r24	; 0x802ce3 <mall+0xa1c>
    5a9c:	90 93 e4 2c 	sts	0x2CE4, r25	; 0x802ce4 <mall+0xa1d>
    5aa0:	80 93 f7 2c 	sts	0x2CF7, r24	; 0x802cf7 <mall+0xa30>
    5aa4:	90 93 f8 2c 	sts	0x2CF8, r25	; 0x802cf8 <mall+0xa31>
    5aa8:	80 93 ff 2c 	sts	0x2CFF, r24	; 0x802cff <mall+0xa38>
    5aac:	90 93 00 2d 	sts	0x2D00, r25	; 0x802d00 <mall+0xa39>
    5ab0:	80 93 13 2d 	sts	0x2D13, r24	; 0x802d13 <mall+0xa4c>
    5ab4:	90 93 14 2d 	sts	0x2D14, r25	; 0x802d14 <mall+0xa4d>
    5ab8:	80 93 1b 2d 	sts	0x2D1B, r24	; 0x802d1b <mall+0xa54>
    5abc:	90 93 1c 2d 	sts	0x2D1C, r25	; 0x802d1c <mall+0xa55>
    5ac0:	80 93 2f 2d 	sts	0x2D2F, r24	; 0x802d2f <mall+0xa68>
    5ac4:	90 93 30 2d 	sts	0x2D30, r25	; 0x802d30 <mall+0xa69>
    5ac8:	80 93 37 2d 	sts	0x2D37, r24	; 0x802d37 <mall+0xa70>
    5acc:	90 93 38 2d 	sts	0x2D38, r25	; 0x802d38 <mall+0xa71>
    5ad0:	80 93 4b 2d 	sts	0x2D4B, r24	; 0x802d4b <mall+0xa84>
    5ad4:	90 93 4c 2d 	sts	0x2D4C, r25	; 0x802d4c <mall+0xa85>
    5ad8:	80 93 53 2d 	sts	0x2D53, r24	; 0x802d53 <mall+0xa8c>
    5adc:	90 93 54 2d 	sts	0x2D54, r25	; 0x802d54 <mall+0xa8d>
    5ae0:	80 93 67 2d 	sts	0x2D67, r24	; 0x802d67 <mall+0xaa0>
    5ae4:	90 93 68 2d 	sts	0x2D68, r25	; 0x802d68 <mall+0xaa1>
    5ae8:	80 93 6f 2d 	sts	0x2D6F, r24	; 0x802d6f <mall+0xaa8>
    5aec:	90 93 70 2d 	sts	0x2D70, r25	; 0x802d70 <mall+0xaa9>
    5af0:	80 93 83 2d 	sts	0x2D83, r24	; 0x802d83 <mall+0xabc>
    5af4:	90 93 84 2d 	sts	0x2D84, r25	; 0x802d84 <mall+0xabd>
    5af8:	80 93 8b 2d 	sts	0x2D8B, r24	; 0x802d8b <mall+0xac4>
    5afc:	90 93 8c 2d 	sts	0x2D8C, r25	; 0x802d8c <mall+0xac5>
    5b00:	80 93 9f 2d 	sts	0x2D9F, r24	; 0x802d9f <mall+0xad8>
    5b04:	90 93 a0 2d 	sts	0x2DA0, r25	; 0x802da0 <mall+0xad9>
    5b08:	80 93 a7 2d 	sts	0x2DA7, r24	; 0x802da7 <mall+0xae0>
    5b0c:	90 93 a8 2d 	sts	0x2DA8, r25	; 0x802da8 <mall+0xae1>
    5b10:	80 93 bb 2d 	sts	0x2DBB, r24	; 0x802dbb <mall+0xaf4>
    5b14:	90 93 bc 2d 	sts	0x2DBC, r25	; 0x802dbc <mall+0xaf5>
    5b18:	80 93 c3 2d 	sts	0x2DC3, r24	; 0x802dc3 <mall+0xafc>
    5b1c:	90 93 c4 2d 	sts	0x2DC4, r25	; 0x802dc4 <mall+0xafd>
    5b20:	80 93 d7 2d 	sts	0x2DD7, r24	; 0x802dd7 <mall+0xb10>
    5b24:	90 93 d8 2d 	sts	0x2DD8, r25	; 0x802dd8 <mall+0xb11>
    5b28:	80 93 df 2d 	sts	0x2DDF, r24	; 0x802ddf <mall+0xb18>
    5b2c:	90 93 e0 2d 	sts	0x2DE0, r25	; 0x802de0 <mall+0xb19>
    5b30:	80 93 f3 2d 	sts	0x2DF3, r24	; 0x802df3 <mall+0xb2c>
    5b34:	90 93 f4 2d 	sts	0x2DF4, r25	; 0x802df4 <mall+0xb2d>
    5b38:	80 93 fb 2d 	sts	0x2DFB, r24	; 0x802dfb <mall+0xb34>
    5b3c:	90 93 fc 2d 	sts	0x2DFC, r25	; 0x802dfc <mall+0xb35>
    5b40:	80 93 0f 2e 	sts	0x2E0F, r24	; 0x802e0f <mall+0xb48>
    5b44:	90 93 10 2e 	sts	0x2E10, r25	; 0x802e10 <mall+0xb49>
    5b48:	80 93 17 2e 	sts	0x2E17, r24	; 0x802e17 <mall+0xb50>
    5b4c:	90 93 18 2e 	sts	0x2E18, r25	; 0x802e18 <mall+0xb51>
    5b50:	80 93 2b 2e 	sts	0x2E2B, r24	; 0x802e2b <mall+0xb64>
    5b54:	90 93 2c 2e 	sts	0x2E2C, r25	; 0x802e2c <mall+0xb65>
    5b58:	80 93 33 2e 	sts	0x2E33, r24	; 0x802e33 <mall+0xb6c>
    5b5c:	90 93 34 2e 	sts	0x2E34, r25	; 0x802e34 <mall+0xb6d>
    5b60:	80 93 47 2e 	sts	0x2E47, r24	; 0x802e47 <mall+0xb80>
    5b64:	90 93 48 2e 	sts	0x2E48, r25	; 0x802e48 <mall+0xb81>
    5b68:	80 93 4f 2e 	sts	0x2E4F, r24	; 0x802e4f <mall+0xb88>
    5b6c:	90 93 50 2e 	sts	0x2E50, r25	; 0x802e50 <mall+0xb89>
    5b70:	80 93 63 2e 	sts	0x2E63, r24	; 0x802e63 <mall+0xb9c>
    5b74:	90 93 64 2e 	sts	0x2E64, r25	; 0x802e64 <mall+0xb9d>
    5b78:	80 93 6b 2e 	sts	0x2E6B, r24	; 0x802e6b <mall+0xba4>
    5b7c:	90 93 6c 2e 	sts	0x2E6C, r25	; 0x802e6c <mall+0xba5>
    5b80:	80 93 7f 2e 	sts	0x2E7F, r24	; 0x802e7f <mall+0xbb8>
    5b84:	90 93 80 2e 	sts	0x2E80, r25	; 0x802e80 <mall+0xbb9>
    5b88:	80 93 87 2e 	sts	0x2E87, r24	; 0x802e87 <mall+0xbc0>
    5b8c:	90 93 88 2e 	sts	0x2E88, r25	; 0x802e88 <mall+0xbc1>
    5b90:	80 93 9b 2e 	sts	0x2E9B, r24	; 0x802e9b <mall+0xbd4>
    5b94:	90 93 9c 2e 	sts	0x2E9C, r25	; 0x802e9c <mall+0xbd5>
    5b98:	80 93 a3 2e 	sts	0x2EA3, r24	; 0x802ea3 <mall+0xbdc>
    5b9c:	90 93 a4 2e 	sts	0x2EA4, r25	; 0x802ea4 <mall+0xbdd>
    5ba0:	80 93 b7 2e 	sts	0x2EB7, r24	; 0x802eb7 <mall+0xbf0>
    5ba4:	90 93 b8 2e 	sts	0x2EB8, r25	; 0x802eb8 <mall+0xbf1>
    5ba8:	80 93 bf 2e 	sts	0x2EBF, r24	; 0x802ebf <mall+0xbf8>
    5bac:	90 93 c0 2e 	sts	0x2EC0, r25	; 0x802ec0 <mall+0xbf9>
    5bb0:	80 93 d3 2e 	sts	0x2ED3, r24	; 0x802ed3 <mall+0xc0c>
    5bb4:	90 93 d4 2e 	sts	0x2ED4, r25	; 0x802ed4 <mall+0xc0d>
    5bb8:	80 93 db 2e 	sts	0x2EDB, r24	; 0x802edb <mall+0xc14>
    5bbc:	90 93 dc 2e 	sts	0x2EDC, r25	; 0x802edc <mall+0xc15>
    5bc0:	80 93 ef 2e 	sts	0x2EEF, r24	; 0x802eef <mall+0xc28>
    5bc4:	90 93 f0 2e 	sts	0x2EF0, r25	; 0x802ef0 <mall+0xc29>
    5bc8:	80 93 f7 2e 	sts	0x2EF7, r24	; 0x802ef7 <mall+0xc30>
    5bcc:	90 93 f8 2e 	sts	0x2EF8, r25	; 0x802ef8 <mall+0xc31>
    5bd0:	80 93 0b 2f 	sts	0x2F0B, r24	; 0x802f0b <mall+0xc44>
    5bd4:	90 93 0c 2f 	sts	0x2F0C, r25	; 0x802f0c <mall+0xc45>
    5bd8:	80 93 13 2f 	sts	0x2F13, r24	; 0x802f13 <mall+0xc4c>
    5bdc:	90 93 14 2f 	sts	0x2F14, r25	; 0x802f14 <mall+0xc4d>
    5be0:	80 93 27 2f 	sts	0x2F27, r24	; 0x802f27 <mall+0xc60>
    5be4:	90 93 28 2f 	sts	0x2F28, r25	; 0x802f28 <mall+0xc61>
    5be8:	80 93 2f 2f 	sts	0x2F2F, r24	; 0x802f2f <mall+0xc68>
    5bec:	90 93 30 2f 	sts	0x2F30, r25	; 0x802f30 <mall+0xc69>
    5bf0:	80 93 43 2f 	sts	0x2F43, r24	; 0x802f43 <mall+0xc7c>
    5bf4:	90 93 44 2f 	sts	0x2F44, r25	; 0x802f44 <mall+0xc7d>
    5bf8:	80 93 4b 2f 	sts	0x2F4B, r24	; 0x802f4b <mall+0xc84>
    5bfc:	90 93 4c 2f 	sts	0x2F4C, r25	; 0x802f4c <mall+0xc85>
    5c00:	80 93 5f 2f 	sts	0x2F5F, r24	; 0x802f5f <mall+0xc98>
    5c04:	90 93 60 2f 	sts	0x2F60, r25	; 0x802f60 <mall+0xc99>
    5c08:	80 93 67 2f 	sts	0x2F67, r24	; 0x802f67 <mall+0xca0>
    5c0c:	90 93 68 2f 	sts	0x2F68, r25	; 0x802f68 <mall+0xca1>
    5c10:	80 93 7b 2f 	sts	0x2F7B, r24	; 0x802f7b <mall+0xcb4>
    5c14:	90 93 7c 2f 	sts	0x2F7C, r25	; 0x802f7c <mall+0xcb5>
    5c18:	80 93 83 2f 	sts	0x2F83, r24	; 0x802f83 <mall+0xcbc>
    5c1c:	90 93 84 2f 	sts	0x2F84, r25	; 0x802f84 <mall+0xcbd>
    5c20:	80 93 97 2f 	sts	0x2F97, r24	; 0x802f97 <mall+0xcd0>
    5c24:	90 93 98 2f 	sts	0x2F98, r25	; 0x802f98 <mall+0xcd1>
    5c28:	80 93 9f 2f 	sts	0x2F9F, r24	; 0x802f9f <mall+0xcd8>
    5c2c:	90 93 a0 2f 	sts	0x2FA0, r25	; 0x802fa0 <mall+0xcd9>
    5c30:	80 93 b3 2f 	sts	0x2FB3, r24	; 0x802fb3 <mall+0xcec>
    5c34:	90 93 b4 2f 	sts	0x2FB4, r25	; 0x802fb4 <mall+0xced>
    5c38:	80 93 bb 2f 	sts	0x2FBB, r24	; 0x802fbb <mall+0xcf4>
    5c3c:	90 93 bc 2f 	sts	0x2FBC, r25	; 0x802fbc <mall+0xcf5>
    5c40:	80 93 cf 2f 	sts	0x2FCF, r24	; 0x802fcf <mall+0xd08>
    5c44:	90 93 d0 2f 	sts	0x2FD0, r25	; 0x802fd0 <mall+0xd09>
    5c48:	80 93 d7 2f 	sts	0x2FD7, r24	; 0x802fd7 <mall+0xd10>
    5c4c:	90 93 d8 2f 	sts	0x2FD8, r25	; 0x802fd8 <mall+0xd11>
    5c50:	80 93 eb 2f 	sts	0x2FEB, r24	; 0x802feb <mall+0xd24>
    5c54:	90 93 ec 2f 	sts	0x2FEC, r25	; 0x802fec <mall+0xd25>
    5c58:	80 93 f3 2f 	sts	0x2FF3, r24	; 0x802ff3 <mall+0xd2c>
    5c5c:	90 93 f4 2f 	sts	0x2FF4, r25	; 0x802ff4 <mall+0xd2d>
    5c60:	80 93 07 30 	sts	0x3007, r24	; 0x803007 <mall+0xd40>
    5c64:	90 93 08 30 	sts	0x3008, r25	; 0x803008 <mall+0xd41>
    5c68:	80 93 0f 30 	sts	0x300F, r24	; 0x80300f <mall+0xd48>
    5c6c:	90 93 10 30 	sts	0x3010, r25	; 0x803010 <mall+0xd49>
    5c70:	80 93 23 30 	sts	0x3023, r24	; 0x803023 <mall+0xd5c>
    5c74:	90 93 24 30 	sts	0x3024, r25	; 0x803024 <mall+0xd5d>
    5c78:	80 93 2b 30 	sts	0x302B, r24	; 0x80302b <mall+0xd64>
    5c7c:	90 93 2c 30 	sts	0x302C, r25	; 0x80302c <mall+0xd65>
    5c80:	80 93 3f 30 	sts	0x303F, r24	; 0x80303f <mall+0xd78>
    5c84:	90 93 40 30 	sts	0x3040, r25	; 0x803040 <mall+0xd79>
    5c88:	80 93 47 30 	sts	0x3047, r24	; 0x803047 <mall+0xd80>
    5c8c:	90 93 48 30 	sts	0x3048, r25	; 0x803048 <mall+0xd81>
    5c90:	80 93 5b 30 	sts	0x305B, r24	; 0x80305b <mall+0xd94>
    5c94:	90 93 5c 30 	sts	0x305C, r25	; 0x80305c <mall+0xd95>
    5c98:	df 01       	movw	r26, r30
    5c9a:	80 93 63 30 	sts	0x3063, r24	; 0x803063 <mall+0xd9c>
    5c9e:	90 93 64 30 	sts	0x3064, r25	; 0x803064 <mall+0xd9d>
    5ca2:	80 93 77 30 	sts	0x3077, r24	; 0x803077 <mall+0xdb0>
    5ca6:	90 93 78 30 	sts	0x3078, r25	; 0x803078 <mall+0xdb1>
    5caa:	80 93 7f 30 	sts	0x307F, r24	; 0x80307f <mall+0xdb8>
    5cae:	90 93 80 30 	sts	0x3080, r25	; 0x803080 <mall+0xdb9>
    5cb2:	80 93 93 30 	sts	0x3093, r24	; 0x803093 <mall+0xdcc>
    5cb6:	90 93 94 30 	sts	0x3094, r25	; 0x803094 <mall+0xdcd>
    5cba:	80 93 9b 30 	sts	0x309B, r24	; 0x80309b <mall+0xdd4>
    5cbe:	90 93 9c 30 	sts	0x309C, r25	; 0x80309c <mall+0xdd5>
    5cc2:	80 93 af 30 	sts	0x30AF, r24	; 0x8030af <mall+0xde8>
    5cc6:	90 93 b0 30 	sts	0x30B0, r25	; 0x8030b0 <mall+0xde9>
    5cca:	80 93 b7 30 	sts	0x30B7, r24	; 0x8030b7 <mall+0xdf0>
    5cce:	90 93 b8 30 	sts	0x30B8, r25	; 0x8030b8 <mall+0xdf1>
    5cd2:	80 93 cb 30 	sts	0x30CB, r24	; 0x8030cb <mall+0xe04>
    5cd6:	90 93 cc 30 	sts	0x30CC, r25	; 0x8030cc <mall+0xe05>
    5cda:	80 93 d3 30 	sts	0x30D3, r24	; 0x8030d3 <mall+0xe0c>
    5cde:	90 93 d4 30 	sts	0x30D4, r25	; 0x8030d4 <mall+0xe0d>
    5ce2:	80 93 e7 30 	sts	0x30E7, r24	; 0x8030e7 <mall+0xe20>
    5ce6:	90 93 e8 30 	sts	0x30E8, r25	; 0x8030e8 <mall+0xe21>
    5cea:	80 93 ef 30 	sts	0x30EF, r24	; 0x8030ef <mall+0xe28>
    5cee:	90 93 f0 30 	sts	0x30F0, r25	; 0x8030f0 <mall+0xe29>
    5cf2:	80 93 03 31 	sts	0x3103, r24	; 0x803103 <mall+0xe3c>
    5cf6:	90 93 04 31 	sts	0x3104, r25	; 0x803104 <mall+0xe3d>
    5cfa:	80 93 0b 31 	sts	0x310B, r24	; 0x80310b <mall+0xe44>
    5cfe:	90 93 0c 31 	sts	0x310C, r25	; 0x80310c <mall+0xe45>
    5d02:	80 93 1f 31 	sts	0x311F, r24	; 0x80311f <mall+0xe58>
    5d06:	90 93 20 31 	sts	0x3120, r25	; 0x803120 <mall+0xe59>
    5d0a:	80 93 27 31 	sts	0x3127, r24	; 0x803127 <mall+0xe60>
    5d0e:	90 93 28 31 	sts	0x3128, r25	; 0x803128 <mall+0xe61>
    5d12:	80 93 3b 31 	sts	0x313B, r24	; 0x80313b <mall+0xe74>
    5d16:	90 93 3c 31 	sts	0x313C, r25	; 0x80313c <mall+0xe75>
    5d1a:	80 93 43 31 	sts	0x3143, r24	; 0x803143 <mall+0xe7c>
    5d1e:	90 93 44 31 	sts	0x3144, r25	; 0x803144 <mall+0xe7d>
    5d22:	80 93 57 31 	sts	0x3157, r24	; 0x803157 <mall+0xe90>
    5d26:	90 93 58 31 	sts	0x3158, r25	; 0x803158 <mall+0xe91>
    5d2a:	80 93 5f 31 	sts	0x315F, r24	; 0x80315f <mall+0xe98>
    5d2e:	90 93 60 31 	sts	0x3160, r25	; 0x803160 <mall+0xe99>
    5d32:	80 93 73 31 	sts	0x3173, r24	; 0x803173 <mall+0xeac>
    5d36:	90 93 74 31 	sts	0x3174, r25	; 0x803174 <mall+0xead>
    5d3a:	80 93 7b 31 	sts	0x317B, r24	; 0x80317b <mall+0xeb4>
    5d3e:	90 93 7c 31 	sts	0x317C, r25	; 0x80317c <mall+0xeb5>
    5d42:	80 93 8f 31 	sts	0x318F, r24	; 0x80318f <mall+0xec8>
    5d46:	90 93 90 31 	sts	0x3190, r25	; 0x803190 <mall+0xec9>
    5d4a:	80 93 97 31 	sts	0x3197, r24	; 0x803197 <mall+0xed0>
    5d4e:	90 93 98 31 	sts	0x3198, r25	; 0x803198 <mall+0xed1>
    5d52:	80 93 ab 31 	sts	0x31AB, r24	; 0x8031ab <mall+0xee4>
    5d56:	90 93 ac 31 	sts	0x31AC, r25	; 0x8031ac <mall+0xee5>
    5d5a:	80 93 b3 31 	sts	0x31B3, r24	; 0x8031b3 <mall+0xeec>
    5d5e:	90 93 b4 31 	sts	0x31B4, r25	; 0x8031b4 <mall+0xeed>
    5d62:	80 93 c7 31 	sts	0x31C7, r24	; 0x8031c7 <mall+0xf00>
    5d66:	90 93 c8 31 	sts	0x31C8, r25	; 0x8031c8 <mall+0xf01>
    5d6a:	80 93 cf 31 	sts	0x31CF, r24	; 0x8031cf <mall+0xf08>
    5d6e:	90 93 d0 31 	sts	0x31D0, r25	; 0x8031d0 <mall+0xf09>
    5d72:	80 93 e3 31 	sts	0x31E3, r24	; 0x8031e3 <mall+0xf1c>
    5d76:	90 93 e4 31 	sts	0x31E4, r25	; 0x8031e4 <mall+0xf1d>
    5d7a:	80 93 eb 31 	sts	0x31EB, r24	; 0x8031eb <mall+0xf24>
    5d7e:	90 93 ec 31 	sts	0x31EC, r25	; 0x8031ec <mall+0xf25>
    5d82:	80 93 ff 31 	sts	0x31FF, r24	; 0x8031ff <mall+0xf38>
    5d86:	90 93 00 32 	sts	0x3200, r25	; 0x803200 <mall+0xf39>
    5d8a:	80 93 07 32 	sts	0x3207, r24	; 0x803207 <mall+0xf40>
    5d8e:	90 93 08 32 	sts	0x3208, r25	; 0x803208 <mall+0xf41>
    5d92:	80 93 1b 32 	sts	0x321B, r24	; 0x80321b <mall+0xf54>
    5d96:	90 93 1c 32 	sts	0x321C, r25	; 0x80321c <mall+0xf55>
    5d9a:	80 93 23 32 	sts	0x3223, r24	; 0x803223 <mall+0xf5c>
    5d9e:	90 93 24 32 	sts	0x3224, r25	; 0x803224 <mall+0xf5d>
    5da2:	80 93 37 32 	sts	0x3237, r24	; 0x803237 <mall+0xf70>
    5da6:	90 93 38 32 	sts	0x3238, r25	; 0x803238 <mall+0xf71>
    5daa:	80 93 3f 32 	sts	0x323F, r24	; 0x80323f <mall+0xf78>
    5dae:	90 93 40 32 	sts	0x3240, r25	; 0x803240 <mall+0xf79>
    5db2:	80 93 53 32 	sts	0x3253, r24	; 0x803253 <mall+0xf8c>
    5db6:	90 93 54 32 	sts	0x3254, r25	; 0x803254 <mall+0xf8d>
    5dba:	80 93 5b 32 	sts	0x325B, r24	; 0x80325b <mall+0xf94>
    5dbe:	90 93 5c 32 	sts	0x325C, r25	; 0x80325c <mall+0xf95>
    5dc2:	80 93 6f 32 	sts	0x326F, r24	; 0x80326f <mall+0xfa8>
    5dc6:	90 93 70 32 	sts	0x3270, r25	; 0x803270 <mall+0xfa9>
    5dca:	80 93 77 32 	sts	0x3277, r24	; 0x803277 <mall+0xfb0>
    5dce:	90 93 78 32 	sts	0x3278, r25	; 0x803278 <mall+0xfb1>
    5dd2:	80 93 8b 32 	sts	0x328B, r24	; 0x80328b <mall+0xfc4>
    5dd6:	90 93 8c 32 	sts	0x328C, r25	; 0x80328c <mall+0xfc5>
    5dda:	80 93 93 32 	sts	0x3293, r24	; 0x803293 <mall+0xfcc>
    5dde:	90 93 94 32 	sts	0x3294, r25	; 0x803294 <mall+0xfcd>
    5de2:	80 93 a7 32 	sts	0x32A7, r24	; 0x8032a7 <mall+0xfe0>
    5de6:	90 93 a8 32 	sts	0x32A8, r25	; 0x8032a8 <mall+0xfe1>
    5dea:	80 93 af 32 	sts	0x32AF, r24	; 0x8032af <mall+0xfe8>
    5dee:	90 93 b0 32 	sts	0x32B0, r25	; 0x8032b0 <mall+0xfe9>
    5df2:	80 93 c3 32 	sts	0x32C3, r24	; 0x8032c3 <mall+0xffc>
    5df6:	90 93 c4 32 	sts	0x32C4, r25	; 0x8032c4 <mall+0xffd>
    5dfa:	80 93 cb 32 	sts	0x32CB, r24	; 0x8032cb <mall+0x1004>
    5dfe:	90 93 cc 32 	sts	0x32CC, r25	; 0x8032cc <mall+0x1005>
    5e02:	80 93 df 32 	sts	0x32DF, r24	; 0x8032df <mall+0x1018>
    5e06:	90 93 e0 32 	sts	0x32E0, r25	; 0x8032e0 <mall+0x1019>
    5e0a:	80 93 e7 32 	sts	0x32E7, r24	; 0x8032e7 <mall+0x1020>
    5e0e:	90 93 e8 32 	sts	0x32E8, r25	; 0x8032e8 <mall+0x1021>
    5e12:	80 93 fb 32 	sts	0x32FB, r24	; 0x8032fb <mall+0x1034>
    5e16:	90 93 fc 32 	sts	0x32FC, r25	; 0x8032fc <mall+0x1035>
    5e1a:	80 93 03 33 	sts	0x3303, r24	; 0x803303 <mall+0x103c>
    5e1e:	90 93 04 33 	sts	0x3304, r25	; 0x803304 <mall+0x103d>
    5e22:	80 93 17 33 	sts	0x3317, r24	; 0x803317 <mall+0x1050>
    5e26:	90 93 18 33 	sts	0x3318, r25	; 0x803318 <mall+0x1051>
    5e2a:	80 93 1f 33 	sts	0x331F, r24	; 0x80331f <mall+0x1058>
    5e2e:	90 93 20 33 	sts	0x3320, r25	; 0x803320 <mall+0x1059>
    5e32:	80 93 33 33 	sts	0x3333, r24	; 0x803333 <mall+0x106c>
    5e36:	90 93 34 33 	sts	0x3334, r25	; 0x803334 <mall+0x106d>
    5e3a:	80 93 3b 33 	sts	0x333B, r24	; 0x80333b <mall+0x1074>
    5e3e:	90 93 3c 33 	sts	0x333C, r25	; 0x80333c <mall+0x1075>
    5e42:	80 93 4f 33 	sts	0x334F, r24	; 0x80334f <mall+0x1088>
    5e46:	90 93 50 33 	sts	0x3350, r25	; 0x803350 <mall+0x1089>
    5e4a:	80 93 57 33 	sts	0x3357, r24	; 0x803357 <mall+0x1090>
    5e4e:	90 93 58 33 	sts	0x3358, r25	; 0x803358 <mall+0x1091>
    5e52:	80 93 6b 33 	sts	0x336B, r24	; 0x80336b <mall+0x10a4>
    5e56:	90 93 6c 33 	sts	0x336C, r25	; 0x80336c <mall+0x10a5>
    5e5a:	80 93 73 33 	sts	0x3373, r24	; 0x803373 <mall+0x10ac>
    5e5e:	90 93 74 33 	sts	0x3374, r25	; 0x803374 <mall+0x10ad>
    5e62:	80 93 87 33 	sts	0x3387, r24	; 0x803387 <mall+0x10c0>
    5e66:	90 93 88 33 	sts	0x3388, r25	; 0x803388 <mall+0x10c1>
    5e6a:	80 93 8f 33 	sts	0x338F, r24	; 0x80338f <mall+0x10c8>
    5e6e:	90 93 90 33 	sts	0x3390, r25	; 0x803390 <mall+0x10c9>
    5e72:	80 93 a3 33 	sts	0x33A3, r24	; 0x8033a3 <mall+0x10dc>
    5e76:	90 93 a4 33 	sts	0x33A4, r25	; 0x8033a4 <mall+0x10dd>
    5e7a:	80 93 ab 33 	sts	0x33AB, r24	; 0x8033ab <mall+0x10e4>
    5e7e:	90 93 ac 33 	sts	0x33AC, r25	; 0x8033ac <mall+0x10e5>
    5e82:	80 93 bf 33 	sts	0x33BF, r24	; 0x8033bf <mall+0x10f8>
    5e86:	90 93 c0 33 	sts	0x33C0, r25	; 0x8033c0 <mall+0x10f9>
    5e8a:	80 93 c7 33 	sts	0x33C7, r24	; 0x8033c7 <mall+0x1100>
    5e8e:	90 93 c8 33 	sts	0x33C8, r25	; 0x8033c8 <mall+0x1101>
    5e92:	80 93 db 33 	sts	0x33DB, r24	; 0x8033db <mall+0x1114>
    5e96:	90 93 dc 33 	sts	0x33DC, r25	; 0x8033dc <mall+0x1115>
    5e9a:	80 93 e3 33 	sts	0x33E3, r24	; 0x8033e3 <mall+0x111c>
    5e9e:	90 93 e4 33 	sts	0x33E4, r25	; 0x8033e4 <mall+0x111d>
    5ea2:	80 93 f7 33 	sts	0x33F7, r24	; 0x8033f7 <mall+0x1130>
    5ea6:	90 93 f8 33 	sts	0x33F8, r25	; 0x8033f8 <mall+0x1131>
    5eaa:	80 93 ff 33 	sts	0x33FF, r24	; 0x8033ff <mall+0x1138>
    5eae:	90 93 00 34 	sts	0x3400, r25	; 0x803400 <mall+0x1139>
    5eb2:	80 93 13 34 	sts	0x3413, r24	; 0x803413 <mall+0x114c>
    5eb6:	90 93 14 34 	sts	0x3414, r25	; 0x803414 <mall+0x114d>
    5eba:	80 93 1b 34 	sts	0x341B, r24	; 0x80341b <mall+0x1154>
    5ebe:	90 93 1c 34 	sts	0x341C, r25	; 0x80341c <mall+0x1155>
    5ec2:	80 93 2f 34 	sts	0x342F, r24	; 0x80342f <mall+0x1168>
    5ec6:	90 93 30 34 	sts	0x3430, r25	; 0x803430 <mall+0x1169>
    5eca:	80 93 37 34 	sts	0x3437, r24	; 0x803437 <mall+0x1170>
    5ece:	90 93 38 34 	sts	0x3438, r25	; 0x803438 <mall+0x1171>
    5ed2:	80 93 4b 34 	sts	0x344B, r24	; 0x80344b <mall+0x1184>
    5ed6:	90 93 4c 34 	sts	0x344C, r25	; 0x80344c <mall+0x1185>
    5eda:	80 93 53 34 	sts	0x3453, r24	; 0x803453 <mall+0x118c>
    5ede:	90 93 54 34 	sts	0x3454, r25	; 0x803454 <mall+0x118d>
    5ee2:	80 93 67 34 	sts	0x3467, r24	; 0x803467 <mall+0x11a0>
    5ee6:	90 93 68 34 	sts	0x3468, r25	; 0x803468 <mall+0x11a1>
    5eea:	80 93 6f 34 	sts	0x346F, r24	; 0x80346f <mall+0x11a8>
    5eee:	90 93 70 34 	sts	0x3470, r25	; 0x803470 <mall+0x11a9>
    5ef2:	80 93 83 34 	sts	0x3483, r24	; 0x803483 <mall+0x11bc>
    5ef6:	90 93 84 34 	sts	0x3484, r25	; 0x803484 <mall+0x11bd>
    5efa:	80 93 8b 34 	sts	0x348B, r24	; 0x80348b <mall+0x11c4>
    5efe:	90 93 8c 34 	sts	0x348C, r25	; 0x80348c <mall+0x11c5>
    5f02:	80 93 9f 34 	sts	0x349F, r24	; 0x80349f <mall+0x11d8>
    5f06:	90 93 a0 34 	sts	0x34A0, r25	; 0x8034a0 <mall+0x11d9>
    5f0a:	80 93 a7 34 	sts	0x34A7, r24	; 0x8034a7 <mall+0x11e0>
    5f0e:	90 93 a8 34 	sts	0x34A8, r25	; 0x8034a8 <mall+0x11e1>
    5f12:	80 93 bb 34 	sts	0x34BB, r24	; 0x8034bb <mall+0x11f4>
    5f16:	90 93 bc 34 	sts	0x34BC, r25	; 0x8034bc <mall+0x11f5>
    5f1a:	80 93 c3 34 	sts	0x34C3, r24	; 0x8034c3 <mall+0x11fc>
    5f1e:	90 93 c4 34 	sts	0x34C4, r25	; 0x8034c4 <mall+0x11fd>
    5f22:	80 93 d7 34 	sts	0x34D7, r24	; 0x8034d7 <mall+0x1210>
    5f26:	90 93 d8 34 	sts	0x34D8, r25	; 0x8034d8 <mall+0x1211>
    5f2a:	80 93 df 34 	sts	0x34DF, r24	; 0x8034df <mall+0x1218>
    5f2e:	90 93 e0 34 	sts	0x34E0, r25	; 0x8034e0 <mall+0x1219>
    5f32:	80 93 f3 34 	sts	0x34F3, r24	; 0x8034f3 <mall+0x122c>
    5f36:	90 93 f4 34 	sts	0x34F4, r25	; 0x8034f4 <mall+0x122d>
    5f3a:	80 93 fb 34 	sts	0x34FB, r24	; 0x8034fb <mall+0x1234>
    5f3e:	90 93 fc 34 	sts	0x34FC, r25	; 0x8034fc <mall+0x1235>
    5f42:	80 93 0f 35 	sts	0x350F, r24	; 0x80350f <mall+0x1248>
    5f46:	90 93 10 35 	sts	0x3510, r25	; 0x803510 <mall+0x1249>
    5f4a:	80 93 17 35 	sts	0x3517, r24	; 0x803517 <mall+0x1250>
    5f4e:	90 93 18 35 	sts	0x3518, r25	; 0x803518 <mall+0x1251>
    5f52:	80 93 2b 35 	sts	0x352B, r24	; 0x80352b <mall+0x1264>
    5f56:	90 93 2c 35 	sts	0x352C, r25	; 0x80352c <mall+0x1265>
    5f5a:	80 93 33 35 	sts	0x3533, r24	; 0x803533 <mall+0x126c>
    5f5e:	90 93 34 35 	sts	0x3534, r25	; 0x803534 <mall+0x126d>
    5f62:	80 93 47 35 	sts	0x3547, r24	; 0x803547 <mall+0x1280>
    5f66:	90 93 48 35 	sts	0x3548, r25	; 0x803548 <mall+0x1281>
    5f6a:	80 93 4f 35 	sts	0x354F, r24	; 0x80354f <mall+0x1288>
    5f6e:	90 93 50 35 	sts	0x3550, r25	; 0x803550 <mall+0x1289>
    5f72:	80 93 63 35 	sts	0x3563, r24	; 0x803563 <mall+0x129c>
    5f76:	90 93 64 35 	sts	0x3564, r25	; 0x803564 <mall+0x129d>
    5f7a:	80 93 6b 35 	sts	0x356B, r24	; 0x80356b <mall+0x12a4>
    5f7e:	90 93 6c 35 	sts	0x356C, r25	; 0x80356c <mall+0x12a5>
    5f82:	80 93 7f 35 	sts	0x357F, r24	; 0x80357f <mall+0x12b8>
    5f86:	90 93 80 35 	sts	0x3580, r25	; 0x803580 <mall+0x12b9>
    5f8a:	80 93 87 35 	sts	0x3587, r24	; 0x803587 <mall+0x12c0>
    5f8e:	90 93 88 35 	sts	0x3588, r25	; 0x803588 <mall+0x12c1>
    5f92:	80 93 9b 35 	sts	0x359B, r24	; 0x80359b <mall+0x12d4>
    5f96:	90 93 9c 35 	sts	0x359C, r25	; 0x80359c <mall+0x12d5>
    5f9a:	80 93 a3 35 	sts	0x35A3, r24	; 0x8035a3 <mall+0x12dc>
    5f9e:	90 93 a4 35 	sts	0x35A4, r25	; 0x8035a4 <mall+0x12dd>
    5fa2:	80 93 b7 35 	sts	0x35B7, r24	; 0x8035b7 <mall+0x12f0>
    5fa6:	90 93 b8 35 	sts	0x35B8, r25	; 0x8035b8 <mall+0x12f1>
    5faa:	80 93 bf 35 	sts	0x35BF, r24	; 0x8035bf <mall+0x12f8>
    5fae:	90 93 c0 35 	sts	0x35C0, r25	; 0x8035c0 <mall+0x12f9>
    5fb2:	80 93 d3 35 	sts	0x35D3, r24	; 0x8035d3 <mall+0x130c>
    5fb6:	90 93 d4 35 	sts	0x35D4, r25	; 0x8035d4 <mall+0x130d>
    5fba:	80 93 db 35 	sts	0x35DB, r24	; 0x8035db <mall+0x1314>
    5fbe:	90 93 dc 35 	sts	0x35DC, r25	; 0x8035dc <mall+0x1315>
    5fc2:	80 93 ef 35 	sts	0x35EF, r24	; 0x8035ef <mall+0x1328>
    5fc6:	90 93 f0 35 	sts	0x35F0, r25	; 0x8035f0 <mall+0x1329>
    5fca:	80 93 f7 35 	sts	0x35F7, r24	; 0x8035f7 <mall+0x1330>
    5fce:	90 93 f8 35 	sts	0x35F8, r25	; 0x8035f8 <mall+0x1331>
    5fd2:	80 93 0b 36 	sts	0x360B, r24	; 0x80360b <mall+0x1344>
    5fd6:	90 93 0c 36 	sts	0x360C, r25	; 0x80360c <mall+0x1345>
    5fda:	80 93 13 36 	sts	0x3613, r24	; 0x803613 <mall+0x134c>
    5fde:	90 93 14 36 	sts	0x3614, r25	; 0x803614 <mall+0x134d>
    5fe2:	80 93 27 36 	sts	0x3627, r24	; 0x803627 <mall+0x1360>
    5fe6:	90 93 28 36 	sts	0x3628, r25	; 0x803628 <mall+0x1361>
    5fea:	80 93 2f 36 	sts	0x362F, r24	; 0x80362f <mall+0x1368>
    5fee:	90 93 30 36 	sts	0x3630, r25	; 0x803630 <mall+0x1369>
    5ff2:	80 93 43 36 	sts	0x3643, r24	; 0x803643 <mall+0x137c>
    5ff6:	90 93 44 36 	sts	0x3644, r25	; 0x803644 <mall+0x137d>
    5ffa:	80 93 4b 36 	sts	0x364B, r24	; 0x80364b <mall+0x1384>
    5ffe:	90 93 4c 36 	sts	0x364C, r25	; 0x80364c <mall+0x1385>
    6002:	80 93 5f 36 	sts	0x365F, r24	; 0x80365f <mall+0x1398>
    6006:	90 93 60 36 	sts	0x3660, r25	; 0x803660 <mall+0x1399>
    600a:	80 93 67 36 	sts	0x3667, r24	; 0x803667 <mall+0x13a0>
    600e:	90 93 68 36 	sts	0x3668, r25	; 0x803668 <mall+0x13a1>
    6012:	80 93 7b 36 	sts	0x367B, r24	; 0x80367b <mall+0x13b4>
    6016:	90 93 7c 36 	sts	0x367C, r25	; 0x80367c <mall+0x13b5>
    601a:	80 93 83 36 	sts	0x3683, r24	; 0x803683 <mall+0x13bc>
    601e:	90 93 84 36 	sts	0x3684, r25	; 0x803684 <mall+0x13bd>
    6022:	80 93 97 36 	sts	0x3697, r24	; 0x803697 <mall+0x13d0>
    6026:	90 93 98 36 	sts	0x3698, r25	; 0x803698 <mall+0x13d1>
    602a:	80 93 9f 36 	sts	0x369F, r24	; 0x80369f <mall+0x13d8>
    602e:	90 93 a0 36 	sts	0x36A0, r25	; 0x8036a0 <mall+0x13d9>
    6032:	80 93 b3 36 	sts	0x36B3, r24	; 0x8036b3 <mall+0x13ec>
    6036:	90 93 b4 36 	sts	0x36B4, r25	; 0x8036b4 <mall+0x13ed>
    603a:	80 93 bb 36 	sts	0x36BB, r24	; 0x8036bb <mall+0x13f4>
    603e:	90 93 bc 36 	sts	0x36BC, r25	; 0x8036bc <mall+0x13f5>
    6042:	80 93 cf 36 	sts	0x36CF, r24	; 0x8036cf <mall+0x1408>
    6046:	90 93 d0 36 	sts	0x36D0, r25	; 0x8036d0 <mall+0x1409>
    604a:	80 93 d7 36 	sts	0x36D7, r24	; 0x8036d7 <mall+0x1410>
    604e:	90 93 d8 36 	sts	0x36D8, r25	; 0x8036d8 <mall+0x1411>
    6052:	80 93 eb 36 	sts	0x36EB, r24	; 0x8036eb <mall+0x1424>
    6056:	90 93 ec 36 	sts	0x36EC, r25	; 0x8036ec <mall+0x1425>
    605a:	80 93 f3 36 	sts	0x36F3, r24	; 0x8036f3 <mall+0x142c>
    605e:	90 93 f4 36 	sts	0x36F4, r25	; 0x8036f4 <mall+0x142d>
    6062:	80 93 07 37 	sts	0x3707, r24	; 0x803707 <mall+0x1440>
    6066:	90 93 08 37 	sts	0x3708, r25	; 0x803708 <mall+0x1441>
    606a:	80 93 0f 37 	sts	0x370F, r24	; 0x80370f <mall+0x1448>
    606e:	90 93 10 37 	sts	0x3710, r25	; 0x803710 <mall+0x1449>
    6072:	80 93 23 37 	sts	0x3723, r24	; 0x803723 <mall+0x145c>
    6076:	90 93 24 37 	sts	0x3724, r25	; 0x803724 <mall+0x145d>
    607a:	80 93 2b 37 	sts	0x372B, r24	; 0x80372b <mall+0x1464>
    607e:	90 93 2c 37 	sts	0x372C, r25	; 0x80372c <mall+0x1465>
    6082:	80 93 3f 37 	sts	0x373F, r24	; 0x80373f <mall+0x1478>
    6086:	90 93 40 37 	sts	0x3740, r25	; 0x803740 <mall+0x1479>
    608a:	80 93 47 37 	sts	0x3747, r24	; 0x803747 <mall+0x1480>
    608e:	90 93 48 37 	sts	0x3748, r25	; 0x803748 <mall+0x1481>
    6092:	80 93 5b 37 	sts	0x375B, r24	; 0x80375b <mall+0x1494>
    6096:	90 93 5c 37 	sts	0x375C, r25	; 0x80375c <mall+0x1495>
    609a:	80 93 63 37 	sts	0x3763, r24	; 0x803763 <mall+0x149c>
    609e:	90 93 64 37 	sts	0x3764, r25	; 0x803764 <mall+0x149d>
    60a2:	80 93 77 37 	sts	0x3777, r24	; 0x803777 <mall+0x14b0>
    60a6:	90 93 78 37 	sts	0x3778, r25	; 0x803778 <mall+0x14b1>
    60aa:	80 93 7f 37 	sts	0x377F, r24	; 0x80377f <mall+0x14b8>
    60ae:	90 93 80 37 	sts	0x3780, r25	; 0x803780 <mall+0x14b9>
    60b2:	80 93 93 37 	sts	0x3793, r24	; 0x803793 <mall+0x14cc>
    60b6:	90 93 94 37 	sts	0x3794, r25	; 0x803794 <mall+0x14cd>
    60ba:	80 93 9b 37 	sts	0x379B, r24	; 0x80379b <mall+0x14d4>
    60be:	90 93 9c 37 	sts	0x379C, r25	; 0x80379c <mall+0x14d5>
    60c2:	80 93 af 37 	sts	0x37AF, r24	; 0x8037af <mall+0x14e8>
    60c6:	90 93 b0 37 	sts	0x37B0, r25	; 0x8037b0 <mall+0x14e9>
    60ca:	80 93 b7 37 	sts	0x37B7, r24	; 0x8037b7 <mall+0x14f0>
    60ce:	90 93 b8 37 	sts	0x37B8, r25	; 0x8037b8 <mall+0x14f1>
    60d2:	80 93 cb 37 	sts	0x37CB, r24	; 0x8037cb <mall+0x1504>
    60d6:	90 93 cc 37 	sts	0x37CC, r25	; 0x8037cc <mall+0x1505>
    60da:	80 93 d3 37 	sts	0x37D3, r24	; 0x8037d3 <mall+0x150c>
    60de:	90 93 d4 37 	sts	0x37D4, r25	; 0x8037d4 <mall+0x150d>
    60e2:	80 93 e7 37 	sts	0x37E7, r24	; 0x8037e7 <mall+0x1520>
    60e6:	90 93 e8 37 	sts	0x37E8, r25	; 0x8037e8 <mall+0x1521>
    60ea:	80 93 ef 37 	sts	0x37EF, r24	; 0x8037ef <mall+0x1528>
    60ee:	90 93 f0 37 	sts	0x37F0, r25	; 0x8037f0 <mall+0x1529>
    60f2:	80 93 03 38 	sts	0x3803, r24	; 0x803803 <mall+0x153c>
    60f6:	90 93 04 38 	sts	0x3804, r25	; 0x803804 <mall+0x153d>
    60fa:	80 93 0b 38 	sts	0x380B, r24	; 0x80380b <mall+0x1544>
    60fe:	90 93 0c 38 	sts	0x380C, r25	; 0x80380c <mall+0x1545>
    6102:	80 93 1f 38 	sts	0x381F, r24	; 0x80381f <mall+0x1558>
    6106:	90 93 20 38 	sts	0x3820, r25	; 0x803820 <mall+0x1559>
    610a:	80 93 27 38 	sts	0x3827, r24	; 0x803827 <mall+0x1560>
    610e:	90 93 28 38 	sts	0x3828, r25	; 0x803828 <mall+0x1561>
    6112:	80 93 3b 38 	sts	0x383B, r24	; 0x80383b <mall+0x1574>
    6116:	90 93 3c 38 	sts	0x383C, r25	; 0x80383c <mall+0x1575>
    611a:	80 93 43 38 	sts	0x3843, r24	; 0x803843 <mall+0x157c>
    611e:	90 93 44 38 	sts	0x3844, r25	; 0x803844 <mall+0x157d>
    6122:	80 93 57 38 	sts	0x3857, r24	; 0x803857 <mall+0x1590>
    6126:	90 93 58 38 	sts	0x3858, r25	; 0x803858 <mall+0x1591>
    612a:	80 93 5f 38 	sts	0x385F, r24	; 0x80385f <mall+0x1598>
    612e:	90 93 60 38 	sts	0x3860, r25	; 0x803860 <mall+0x1599>
    6132:	80 93 73 38 	sts	0x3873, r24	; 0x803873 <mall+0x15ac>
    6136:	90 93 74 38 	sts	0x3874, r25	; 0x803874 <mall+0x15ad>
    613a:	80 93 7b 38 	sts	0x387B, r24	; 0x80387b <mall+0x15b4>
    613e:	90 93 7c 38 	sts	0x387C, r25	; 0x80387c <mall+0x15b5>
    6142:	80 93 8f 38 	sts	0x388F, r24	; 0x80388f <mall+0x15c8>
    6146:	90 93 90 38 	sts	0x3890, r25	; 0x803890 <mall+0x15c9>
    614a:	80 93 97 38 	sts	0x3897, r24	; 0x803897 <mall+0x15d0>
    614e:	90 93 98 38 	sts	0x3898, r25	; 0x803898 <mall+0x15d1>
    6152:	80 93 ab 38 	sts	0x38AB, r24	; 0x8038ab <mall+0x15e4>
    6156:	90 93 ac 38 	sts	0x38AC, r25	; 0x8038ac <mall+0x15e5>
    615a:	88 ec       	ldi	r24, 0xC8	; 200
    615c:	ed ea       	ldi	r30, 0xAD	; 173
    615e:	f8 e3       	ldi	r31, 0x38	; 56
    6160:	ef 01       	movw	r28, r30
    6162:	19 92       	st	Y+, r1
    6164:	8a 95       	dec	r24
    6166:	e9 f7       	brne	.-6      	; 0x6162 <_GLOBAL__sub_I_st+0xcb8>
    6168:	12 96       	adiw	r26, 0x02	; 2
    616a:	1d 92       	st	X+, r1
    616c:	1c 92       	st	X, r1
    616e:	13 97       	sbiw	r26, 0x03	; 3
 };

 struct queue{////test
	 node* box[300]={np};
	 int siz;
	 queue(){siz = 0;}
    6170:	88 e5       	ldi	r24, 0x58	; 88
    6172:	92 e0       	ldi	r25, 0x02	; 2
    6174:	ed e6       	ldi	r30, 0x6D	; 109
    6176:	f0 e2       	ldi	r31, 0x20	; 32
    6178:	ef 01       	movw	r28, r30
    617a:	9c 01       	movw	r18, r24
    617c:	19 92       	st	Y+, r1
    617e:	21 50       	subi	r18, 0x01	; 1
    6180:	30 40       	sbci	r19, 0x00	; 0
    6182:	e1 f7       	brne	.-8      	; 0x617c <_GLOBAL__sub_I_st+0xcd2>
    6184:	e8 e5       	ldi	r30, 0x58	; 88
    6186:	f0 e2       	ldi	r31, 0x20	; 32
    6188:	10 92 c5 22 	sts	0x22C5, r1	; 0x8022c5 <ta+0x26d>
    618c:	10 92 c6 22 	sts	0x22C6, r1	; 0x8022c6 <ta+0x26e>
	 bl box[200]={0};
  public:
	 nodes(){size=0;now=0;};
	 node* make(){
		if(now>=max-1){ return np; }else{
		   now++;
    6190:	81 e0       	ldi	r24, 0x01	; 1
    6192:	90 e0       	ldi	r25, 0x00	; 0
    6194:	14 96       	adiw	r26, 0x04	; 4
    6196:	8d 93       	st	X+, r24
    6198:	9c 93       	st	X, r25
    619a:	15 97       	sbiw	r26, 0x05	; 5
    //for dfs
	queue q;
	//data structure
public:
    core(){
        now = mall.make();
    619c:	29 ee       	ldi	r18, 0xE9	; 233
    619e:	32 e2       	ldi	r19, 0x22	; 34
    61a0:	20 83       	st	Z, r18
    61a2:	31 83       	std	Z+1, r19	; 0x01
        start = now;
    61a4:	22 83       	std	Z+2, r18	; 0x02
    61a6:	33 83       	std	Z+3, r19	; 0x03
        start->x=100;start->y=100;start->z=1;start->back[0]=np;start->type=v::start;start->depth=0;
    61a8:	24 e6       	ldi	r18, 0x64	; 100
    61aa:	30 e0       	ldi	r19, 0x00	; 0
    61ac:	92 96       	adiw	r26, 0x22	; 34
    61ae:	2d 93       	st	X+, r18
    61b0:	3c 93       	st	X, r19
    61b2:	93 97       	sbiw	r26, 0x23	; 35
    61b4:	94 96       	adiw	r26, 0x24	; 36
    61b6:	2d 93       	st	X+, r18
    61b8:	3c 93       	st	X, r19
    61ba:	95 97       	sbiw	r26, 0x25	; 37
    61bc:	96 96       	adiw	r26, 0x26	; 38
    61be:	8d 93       	st	X+, r24
    61c0:	9c 93       	st	X, r25
    61c2:	97 97       	sbiw	r26, 0x27	; 39
    61c4:	8f ef       	ldi	r24, 0xFF	; 255
    61c6:	9f ef       	ldi	r25, 0xFF	; 255
    61c8:	9a 96       	adiw	r26, 0x2a	; 42
    61ca:	8d 93       	st	X+, r24
    61cc:	9c 93       	st	X, r25
    61ce:	9b 97       	sbiw	r26, 0x2b	; 43
    61d0:	98 96       	adiw	r26, 0x28	; 40
    61d2:	1d 92       	st	X+, r1
    61d4:	1c 92       	st	X, r1
    61d6:	99 97       	sbiw	r26, 0x29	; 41
        //dir = v::left;
        dir = 0;
    61d8:	14 82       	std	Z+4, r1	; 0x04
    61da:	15 82       	std	Z+5, r1	; 0x05
        counter=0;
    61dc:	16 82       	std	Z+6, r1	; 0x06
    61de:	17 82       	std	Z+7, r1	; 0x07
    61e0:	10 86       	std	Z+8, r1	; 0x08
    61e2:	11 86       	std	Z+9, r1	; 0x09
    61e4:	12 86       	std	Z+10, r1	; 0x0a
    61e6:	13 86       	std	Z+11, r1	; 0x0b
    61e8:	14 86       	std	Z+12, r1	; 0x0c
    61ea:	15 86       	std	Z+13, r1	; 0x0d
		num_vertex = 0;
    61ec:	13 8a       	std	Z+19, r1	; 0x13
    61ee:	14 8a       	std	Z+20, r1	; 0x14
        ans = np;
    61f0:	17 86       	std	Z+15, r1	; 0x0f
    61f2:	10 8a       	std	Z+16, r1	; 0x10
        begin = np;
    61f4:	11 8a       	std	Z+17, r1	; 0x11
    61f6:	12 8a       	std	Z+18, r1	; 0x12
        tmp=0;
    61f8:	16 86       	std	Z+14, r1	; 0x0e
 *  Author: TOMOKI
 */ 

#include "source/petal.hpp"
#include "source/mv_control.hpp"
usart serial(&USARTC0,&PORTC);
    61fa:	40 e4       	ldi	r20, 0x40	; 64
    61fc:	56 e0       	ldi	r21, 0x06	; 6
    61fe:	60 ea       	ldi	r22, 0xA0	; 160
    6200:	78 e0       	ldi	r23, 0x08	; 8
    6202:	84 e5       	ldi	r24, 0x54	; 84
    6204:	90 e2       	ldi	r25, 0x20	; 32
    6206:	0e 94 99 37 	call	0x6f32	; 0x6f32 <_ZN5usartC1EP12USART_structP11PORT_struct>
	//st.push(ta.r_now());
	//stack_dfs(ta.r_now());
	lcd_clear();
	lcd_putstr(LCD1_TWI,"THE_END");
*/	return 0;
    620a:	df 91       	pop	r29
    620c:	cf 91       	pop	r28
    620e:	08 95       	ret

00006210 <_Z13finded_victimh>:
		PORTK.OUTCLR = PIN0_bm|PIN1_bm|PIN2_bm;
		_delay_ms(2);
	}
}

void finded_victim(uint8_t co){//How many kits does victim need?
    6210:	0f 93       	push	r16
    6212:	1f 93       	push	r17
    6214:	cf 93       	push	r28
    6216:	df 93       	push	r29
    6218:	c8 2f       	mov	r28, r24
	led(Redled,1);
    621a:	61 e0       	ldi	r22, 0x01	; 1
    621c:	82 e0       	ldi	r24, 0x02	; 2
    621e:	0e 94 96 36 	call	0x6d2c	; 0x6d2c <_Z3ledhh>
	led(Blueled,1);
    6222:	61 e0       	ldi	r22, 0x01	; 1
    6224:	84 e0       	ldi	r24, 0x04	; 4
    6226:	0e 94 96 36 	call	0x6d2c	; 0x6d2c <_Z3ledhh>
	led(Greenled,1);	
    622a:	61 e0       	ldi	r22, 0x01	; 1
    622c:	81 e0       	ldi	r24, 0x01	; 1
    622e:	0e 94 96 36 	call	0x6d2c	; 0x6d2c <_Z3ledhh>
	for(int i=0;i<=40*co;i++){
    6232:	28 e2       	ldi	r18, 0x28	; 40
    6234:	c2 9f       	mul	r28, r18
    6236:	80 01       	movw	r16, r0
    6238:	11 24       	eor	r1, r1
    623a:	20 e0       	ldi	r18, 0x00	; 0
    623c:	30 e0       	ldi	r19, 0x00	; 0
		PORTK.OUTSET = PIN0_bm;
    623e:	e0 e2       	ldi	r30, 0x20	; 32
    6240:	f7 e0       	ldi	r31, 0x07	; 7
    6242:	d1 e0       	ldi	r29, 0x01	; 1
		PORTK.OUTCLR = PIN1_bm|PIN2_bm|PIN3_bm;
    6244:	ce e0       	ldi	r28, 0x0E	; 14
		_delay_ms(2);
		PORTK.OUTSET = PIN1_bm;
    6246:	b2 e0       	ldi	r27, 0x02	; 2
		PORTK.OUTCLR = PIN0_bm|PIN2_bm|PIN3_bm;
    6248:	ad e0       	ldi	r26, 0x0D	; 13
		_delay_ms(2);
		PORTK.OUTSET = PIN2_bm;
    624a:	74 e0       	ldi	r23, 0x04	; 4
		PORTK.OUTCLR = PIN0_bm|PIN1_bm|PIN3_bm;
    624c:	6b e0       	ldi	r22, 0x0B	; 11
		_delay_ms(2);
		PORTK.OUTSET = PIN3_bm;
    624e:	58 e0       	ldi	r21, 0x08	; 8
		PORTK.OUTCLR = PIN0_bm|PIN1_bm|PIN2_bm;
    6250:	47 e0       	ldi	r20, 0x07	; 7
void finded_victim(uint8_t co){//How many kits does victim need?
	led(Redled,1);
	led(Blueled,1);
	led(Greenled,1);	
	for(int i=0;i<=40*co;i++){
		PORTK.OUTSET = PIN0_bm;
    6252:	d5 83       	std	Z+5, r29	; 0x05
		PORTK.OUTCLR = PIN1_bm|PIN2_bm|PIN3_bm;
    6254:	c6 83       	std	Z+6, r28	; 0x06
    6256:	8f e7       	ldi	r24, 0x7F	; 127
    6258:	9e e3       	ldi	r25, 0x3E	; 62
    625a:	01 97       	sbiw	r24, 0x01	; 1
    625c:	f1 f7       	brne	.-4      	; 0x625a <_Z13finded_victimh+0x4a>
    625e:	00 c0       	rjmp	.+0      	; 0x6260 <_Z13finded_victimh+0x50>
    6260:	00 00       	nop
		_delay_ms(2);
		PORTK.OUTSET = PIN1_bm;
    6262:	b5 83       	std	Z+5, r27	; 0x05
		PORTK.OUTCLR = PIN0_bm|PIN2_bm|PIN3_bm;
    6264:	a6 83       	std	Z+6, r26	; 0x06
    6266:	8f e7       	ldi	r24, 0x7F	; 127
    6268:	9e e3       	ldi	r25, 0x3E	; 62
    626a:	01 97       	sbiw	r24, 0x01	; 1
    626c:	f1 f7       	brne	.-4      	; 0x626a <_Z13finded_victimh+0x5a>
    626e:	00 c0       	rjmp	.+0      	; 0x6270 <_Z13finded_victimh+0x60>
    6270:	00 00       	nop
		_delay_ms(2);
		PORTK.OUTSET = PIN2_bm;
    6272:	75 83       	std	Z+5, r23	; 0x05
		PORTK.OUTCLR = PIN0_bm|PIN1_bm|PIN3_bm;
    6274:	66 83       	std	Z+6, r22	; 0x06
    6276:	8f e7       	ldi	r24, 0x7F	; 127
    6278:	9e e3       	ldi	r25, 0x3E	; 62
    627a:	01 97       	sbiw	r24, 0x01	; 1
    627c:	f1 f7       	brne	.-4      	; 0x627a <_Z13finded_victimh+0x6a>
    627e:	00 c0       	rjmp	.+0      	; 0x6280 <_Z13finded_victimh+0x70>
    6280:	00 00       	nop
		_delay_ms(2);
		PORTK.OUTSET = PIN3_bm;
    6282:	55 83       	std	Z+5, r21	; 0x05
		PORTK.OUTCLR = PIN0_bm|PIN1_bm|PIN2_bm;
    6284:	46 83       	std	Z+6, r20	; 0x06
    6286:	8f e7       	ldi	r24, 0x7F	; 127
    6288:	9e e3       	ldi	r25, 0x3E	; 62
    628a:	01 97       	sbiw	r24, 0x01	; 1
    628c:	f1 f7       	brne	.-4      	; 0x628a <_Z13finded_victimh+0x7a>
    628e:	00 c0       	rjmp	.+0      	; 0x6290 <_Z13finded_victimh+0x80>
    6290:	00 00       	nop

void finded_victim(uint8_t co){//How many kits does victim need?
	led(Redled,1);
	led(Blueled,1);
	led(Greenled,1);	
	for(int i=0;i<=40*co;i++){
    6292:	2f 5f       	subi	r18, 0xFF	; 255
    6294:	3f 4f       	sbci	r19, 0xFF	; 255
    6296:	02 17       	cp	r16, r18
    6298:	13 07       	cpc	r17, r19
    629a:	dc f6       	brge	.-74     	; 0x6252 <_Z13finded_victimh+0x42>
		_delay_ms(2);
		PORTK.OUTSET = PIN3_bm;
		PORTK.OUTCLR = PIN0_bm|PIN1_bm|PIN2_bm;
		_delay_ms(2);
	}
	PORTK.OUTCLR = PIN0_bm|PIN1_bm|PIN2_bm|PIN3_bm;
    629c:	8f e0       	ldi	r24, 0x0F	; 15
    629e:	80 93 26 07 	sts	0x0726, r24	; 0x800726 <__TEXT_REGION_LENGTH__+0x700726>
	led(Redled,0);
    62a2:	60 e0       	ldi	r22, 0x00	; 0
    62a4:	82 e0       	ldi	r24, 0x02	; 2
    62a6:	0e 94 96 36 	call	0x6d2c	; 0x6d2c <_Z3ledhh>
	led(Blueled,0);
    62aa:	60 e0       	ldi	r22, 0x00	; 0
    62ac:	84 e0       	ldi	r24, 0x04	; 4
    62ae:	0e 94 96 36 	call	0x6d2c	; 0x6d2c <_Z3ledhh>
	led(Greenled,0);
    62b2:	60 e0       	ldi	r22, 0x00	; 0
    62b4:	81 e0       	ldi	r24, 0x01	; 1
    62b6:	0e 94 96 36 	call	0x6d2c	; 0x6d2c <_Z3ledhh>
	error_led(1,1);
    62ba:	61 e0       	ldi	r22, 0x01	; 1
    62bc:	81 e0       	ldi	r24, 0x01	; 1
    62be:	0e 94 a4 36 	call	0x6d48	; 0x6d48 <_Z9error_ledhh>
    62c2:	cb e0       	ldi	r28, 0x0B	; 11
    62c4:	d0 e0       	ldi	r29, 0x00	; 0
	for (int i = 0; i<=10; i++){
	error_led(1,3);
    62c6:	63 e0       	ldi	r22, 0x03	; 3
    62c8:	81 e0       	ldi	r24, 0x01	; 1
    62ca:	0e 94 a4 36 	call	0x6d48	; 0x6d48 <_Z9error_ledhh>
	error_led(2,4);
    62ce:	64 e0       	ldi	r22, 0x04	; 4
    62d0:	82 e0       	ldi	r24, 0x02	; 2
    62d2:	0e 94 a4 36 	call	0x6d48	; 0x6d48 <_Z9error_ledhh>
	buzzer();
    62d6:	0e 94 80 36 	call	0x6d00	; 0x6d00 <_Z6buzzerv>
    62da:	9f ef       	ldi	r25, 0xFF	; 255
    62dc:	2b e4       	ldi	r18, 0x4B	; 75
    62de:	8d e1       	ldi	r24, 0x1D	; 29
    62e0:	91 50       	subi	r25, 0x01	; 1
    62e2:	20 40       	sbci	r18, 0x00	; 0
    62e4:	80 40       	sbci	r24, 0x00	; 0
    62e6:	e1 f7       	brne	.-8      	; 0x62e0 <_Z13finded_victimh+0xd0>
    62e8:	00 c0       	rjmp	.+0      	; 0x62ea <_Z13finded_victimh+0xda>
    62ea:	00 00       	nop
    62ec:	21 97       	sbiw	r28, 0x01	; 1
	PORTK.OUTCLR = PIN0_bm|PIN1_bm|PIN2_bm|PIN3_bm;
	led(Redled,0);
	led(Blueled,0);
	led(Greenled,0);
	error_led(1,1);
	for (int i = 0; i<=10; i++){
    62ee:	59 f7       	brne	.-42     	; 0x62c6 <_Z13finded_victimh+0xb6>
	error_led(1,3);
	error_led(2,4);
	buzzer();
	_delay_ms(300);
	}
	error_led(1,0);
    62f0:	60 e0       	ldi	r22, 0x00	; 0
    62f2:	81 e0       	ldi	r24, 0x01	; 1
    62f4:	0e 94 a4 36 	call	0x6d48	; 0x6d48 <_Z9error_ledhh>
	error_led(2,0);
    62f8:	60 e0       	ldi	r22, 0x00	; 0
    62fa:	82 e0       	ldi	r24, 0x02	; 2
    62fc:	0e 94 a4 36 	call	0x6d48	; 0x6d48 <_Z9error_ledhh>
}
    6300:	df 91       	pop	r29
    6302:	cf 91       	pop	r28
    6304:	1f 91       	pop	r17
    6306:	0f 91       	pop	r16
    6308:	08 95       	ret

0000630a <_Z10init_colorv>:

uint16_t red=0, green=0, blue=0;	//l
uint16_t high=800, low=500;	//l >800  700<<=800

void init_color(void){	//initialize
	PORTF.DIRSET = PIN0_bm|PIN1_bm|PIN2_bm;
    630a:	87 e0       	ldi	r24, 0x07	; 7
    630c:	80 93 a1 06 	sts	0x06A1, r24	; 0x8006a1 <__TEXT_REGION_LENGTH__+0x7006a1>
    6310:	08 95       	ret

00006312 <_GLOBAL__sub_I_gyro>:
 * Created: 2018/08/28 11:18:39
 *  Author: shun2
 */ 

#include "gyro_control.hpp"
twi gyro(&TWIC,2000000);
    6312:	20 e8       	ldi	r18, 0x80	; 128
    6314:	34 e8       	ldi	r19, 0x84	; 132
    6316:	4e e1       	ldi	r20, 0x1E	; 30
    6318:	50 e0       	ldi	r21, 0x00	; 0
    631a:	60 e8       	ldi	r22, 0x80	; 128
    631c:	74 e0       	ldi	r23, 0x04	; 4
    631e:	8f ec       	ldi	r24, 0xCF	; 207
    6320:	9b e3       	ldi	r25, 0x3B	; 59
    6322:	0e 94 ef 36 	call	0x6dde	; 0x6dde <_ZN3twiC1EP10TWI_structm>
    6326:	08 95       	ret

00006328 <_Z10init_clockv>:
	init_color();
}


void init_clock(void){
	OSC.CTRL |= 0x02;					//32MHzU
    6328:	e0 e5       	ldi	r30, 0x50	; 80
    632a:	f0 e0       	ldi	r31, 0x00	; 0
    632c:	80 81       	ld	r24, Z
    632e:	82 60       	ori	r24, 0x02	; 2
    6330:	80 83       	st	Z, r24
	while((OSC.STATUS & 0x02) == 0);	//32MHzU
    6332:	81 81       	ldd	r24, Z+1	; 0x01
    6334:	81 ff       	sbrs	r24, 1
    6336:	fd cf       	rjmp	.-6      	; 0x6332 <_Z10init_clockv+0xa>
	CPU_CCP = 0xD8;						//VXeNbNWX^ANZXs
    6338:	88 ed       	ldi	r24, 0xD8	; 216
    633a:	84 bf       	out	0x34, r24	; 52
	CLK.CTRL = 0x01;					//VXeNbN32MHzX
    633c:	e0 e4       	ldi	r30, 0x40	; 64
    633e:	f0 e0       	ldi	r31, 0x00	; 0
    6340:	81 e0       	ldi	r24, 0x01	; 1
    6342:	80 83       	st	Z, r24
	CLK.PSCTRL=CLK_PSADIV0_bm;		//select Prescaler A as 2, Prescaler B and Prescaler C as 1, Clksys=16MHz, Clkper4=Clkper2=Clkper=Clkcpu=8MHz
    6344:	84 e0       	ldi	r24, 0x04	; 4
    6346:	81 83       	std	Z+1, r24	; 0x01
	OSC.CTRL &= 0xFE;					//2MHzU~
    6348:	e0 e5       	ldi	r30, 0x50	; 80
    634a:	f0 e0       	ldi	r31, 0x00	; 0
    634c:	80 81       	ld	r24, Z
    634e:	8e 7f       	andi	r24, 0xFE	; 254
    6350:	80 83       	st	Z, r24
    6352:	08 95       	ret

00006354 <_Z3rtcv>:
}


void rtc(void){
	OSC.CTRL = OSC_RC32KEN_bm;
    6354:	84 e0       	ldi	r24, 0x04	; 4
    6356:	80 93 50 00 	sts	0x0050, r24	; 0x800050 <__TEXT_REGION_LENGTH__+0x700050>
	while((OSC_STATUS&&OSC_RC32KRDY_bm)==0);
    635a:	e1 e5       	ldi	r30, 0x51	; 81
    635c:	f0 e0       	ldi	r31, 0x00	; 0
    635e:	80 81       	ld	r24, Z
    6360:	88 23       	and	r24, r24
    6362:	e9 f3       	breq	.-6      	; 0x635e <_Z3rtcv+0xa>
	CLK.RTCCTRL = 0b00000001;
    6364:	81 e0       	ldi	r24, 0x01	; 1
    6366:	80 93 43 00 	sts	0x0043, r24	; 0x800043 <__TEXT_REGION_LENGTH__+0x700043>
	RTC.CTRL = RTC_PRESCALER_DIV1024_gc;
    636a:	87 e0       	ldi	r24, 0x07	; 7
    636c:	80 93 00 04 	sts	0x0400, r24	; 0x800400 <__TEXT_REGION_LENGTH__+0x700400>
    6370:	08 95       	ret

00006372 <_Z8init_avrv>:
}

void init_avr(void){
	PORTA.DIRSET=PIN0_bm;//uU[
    6372:	81 e0       	ldi	r24, 0x01	; 1
    6374:	80 93 01 06 	sts	0x0601, r24	; 0x800601 <__TEXT_REGION_LENGTH__+0x700601>
	PORTQ.DIRSET = PIN0_bm|PIN1_bm|PIN2_bm;//tJ[LED
    6378:	e0 ec       	ldi	r30, 0xC0	; 192
    637a:	f7 e0       	ldi	r31, 0x07	; 7
    637c:	87 e0       	ldi	r24, 0x07	; 7
    637e:	81 83       	std	Z+1, r24	; 0x01
	PORTQ.OUTSET = PIN0_bm|PIN1_bm|PIN2_bm;
    6380:	85 83       	std	Z+5, r24	; 0x05
	PORTK.DIRSET = PIN0_bm|PIN1_bm|PIN2_bm|PIN3_bm;//XebsOinit
    6382:	8f e0       	ldi	r24, 0x0F	; 15
    6384:	80 93 21 07 	sts	0x0721, r24	; 0x800721 <__TEXT_REGION_LENGTH__+0x700721>
	PORTB.DIRSET = PIN0_bm|PIN1_bm;//[^[pSIG
    6388:	83 e0       	ldi	r24, 0x03	; 3
    638a:	80 93 21 06 	sts	0x0621, r24	; 0x800621 <__TEXT_REGION_LENGTH__+0x700621>
    638e:	08 95       	ret

00006390 <_Z8init_allv>:
#include "motor_control.hpp"
#include "action.hpp"
#include "color_control.hpp"

void init_all(void){
	init_clock();
    6390:	0e 94 94 31 	call	0x6328	; 0x6328 <_Z10init_clockv>
	init_avr();
    6394:	0e 94 b9 31 	call	0x6372	; 0x6372 <_Z8init_avrv>
	init_lcd();
    6398:	0e 94 d5 31 	call	0x63aa	; 0x63aa <_Z8init_lcdv>
	init_motor();
    639c:	0e 94 67 34 	call	0x68ce	; 0x68ce <_Z10init_motorv>
	rtc();
    63a0:	0e 94 aa 31 	call	0x6354	; 0x6354 <_Z3rtcv>
	init_color();
    63a4:	0e 94 85 31 	call	0x630a	; 0x630a <_Z10init_colorv>
    63a8:	08 95       	ret

000063aa <_Z8init_lcdv>:
void lcd_putmath(TWI_t *port,uint16_t num){
	char data[7]={0};
	data[0]=(num%=10) + '0';
	lcd_putstr(port,data);
	return;
}
    63aa:	cf 93       	push	r28
    63ac:	df 93       	push	r29
    63ae:	cd b7       	in	r28, 0x3d	; 61
    63b0:	de b7       	in	r29, 0x3e	; 62
    63b2:	2a 97       	sbiw	r28, 0x0a	; 10
    63b4:	cd bf       	out	0x3d, r28	; 61
    63b6:	de bf       	out	0x3e, r29	; 62
    63b8:	20 ee       	ldi	r18, 0xE0	; 224
    63ba:	33 e9       	ldi	r19, 0x93	; 147
    63bc:	44 e0       	ldi	r20, 0x04	; 4
    63be:	50 e0       	ldi	r21, 0x00	; 0
    63c0:	60 e9       	ldi	r22, 0x90	; 144
    63c2:	74 e0       	ldi	r23, 0x04	; 4
    63c4:	ce 01       	movw	r24, r28
    63c6:	01 96       	adiw	r24, 0x01	; 1
    63c8:	0e 94 ef 36 	call	0x6dde	; 0x6dde <_ZN3twiC1EP10TWI_structm>
    63cc:	40 e0       	ldi	r20, 0x00	; 0
    63ce:	6c e7       	ldi	r22, 0x7C	; 124
    63d0:	ce 01       	movw	r24, r28
    63d2:	01 96       	adiw	r24, 0x01	; 1
    63d4:	0e 94 35 37 	call	0x6e6a	; 0x6e6a <_ZN3twi7AddressEhh>
    63d8:	60 e0       	ldi	r22, 0x00	; 0
    63da:	70 e0       	ldi	r23, 0x00	; 0
    63dc:	ce 01       	movw	r24, r28
    63de:	01 96       	adiw	r24, 0x01	; 1
    63e0:	0e 94 63 37 	call	0x6ec6	; 0x6ec6 <_ZN3twi11WriteSingleEi>
    63e4:	68 e3       	ldi	r22, 0x38	; 56
    63e6:	70 e0       	ldi	r23, 0x00	; 0
    63e8:	ce 01       	movw	r24, r28
    63ea:	01 96       	adiw	r24, 0x01	; 1
    63ec:	0e 94 63 37 	call	0x6ec6	; 0x6ec6 <_ZN3twi11WriteSingleEi>
    63f0:	ce 01       	movw	r24, r28
    63f2:	01 96       	adiw	r24, 0x01	; 1
    63f4:	0e 94 87 37 	call	0x6f0e	; 0x6f0e <_ZN3twi4StopEv>
    63f8:	2f ef       	ldi	r18, 0xFF	; 255
    63fa:	81 ee       	ldi	r24, 0xE1	; 225
    63fc:	94 e0       	ldi	r25, 0x04	; 4
    63fe:	21 50       	subi	r18, 0x01	; 1
    6400:	80 40       	sbci	r24, 0x00	; 0
    6402:	90 40       	sbci	r25, 0x00	; 0
    6404:	e1 f7       	brne	.-8      	; 0x63fe <_Z8init_lcdv+0x54>
    6406:	00 c0       	rjmp	.+0      	; 0x6408 <_Z8init_lcdv+0x5e>
    6408:	00 00       	nop
    640a:	40 e0       	ldi	r20, 0x00	; 0
    640c:	6c e7       	ldi	r22, 0x7C	; 124
    640e:	ce 01       	movw	r24, r28
    6410:	01 96       	adiw	r24, 0x01	; 1
    6412:	0e 94 35 37 	call	0x6e6a	; 0x6e6a <_ZN3twi7AddressEhh>
    6416:	60 e0       	ldi	r22, 0x00	; 0
    6418:	70 e0       	ldi	r23, 0x00	; 0
    641a:	ce 01       	movw	r24, r28
    641c:	01 96       	adiw	r24, 0x01	; 1
    641e:	0e 94 63 37 	call	0x6ec6	; 0x6ec6 <_ZN3twi11WriteSingleEi>
    6422:	69 e3       	ldi	r22, 0x39	; 57
    6424:	70 e0       	ldi	r23, 0x00	; 0
    6426:	ce 01       	movw	r24, r28
    6428:	01 96       	adiw	r24, 0x01	; 1
    642a:	0e 94 63 37 	call	0x6ec6	; 0x6ec6 <_ZN3twi11WriteSingleEi>
    642e:	ce 01       	movw	r24, r28
    6430:	01 96       	adiw	r24, 0x01	; 1
    6432:	0e 94 87 37 	call	0x6f0e	; 0x6f0e <_ZN3twi4StopEv>
    6436:	2f ef       	ldi	r18, 0xFF	; 255
    6438:	81 ee       	ldi	r24, 0xE1	; 225
    643a:	94 e0       	ldi	r25, 0x04	; 4
    643c:	21 50       	subi	r18, 0x01	; 1
    643e:	80 40       	sbci	r24, 0x00	; 0
    6440:	90 40       	sbci	r25, 0x00	; 0
    6442:	e1 f7       	brne	.-8      	; 0x643c <_Z8init_lcdv+0x92>
    6444:	00 c0       	rjmp	.+0      	; 0x6446 <_Z8init_lcdv+0x9c>
    6446:	00 00       	nop
    6448:	40 e0       	ldi	r20, 0x00	; 0
    644a:	6c e7       	ldi	r22, 0x7C	; 124
    644c:	ce 01       	movw	r24, r28
    644e:	01 96       	adiw	r24, 0x01	; 1
    6450:	0e 94 35 37 	call	0x6e6a	; 0x6e6a <_ZN3twi7AddressEhh>
    6454:	60 e0       	ldi	r22, 0x00	; 0
    6456:	70 e0       	ldi	r23, 0x00	; 0
    6458:	ce 01       	movw	r24, r28
    645a:	01 96       	adiw	r24, 0x01	; 1
    645c:	0e 94 63 37 	call	0x6ec6	; 0x6ec6 <_ZN3twi11WriteSingleEi>
    6460:	64 e1       	ldi	r22, 0x14	; 20
    6462:	70 e0       	ldi	r23, 0x00	; 0
    6464:	ce 01       	movw	r24, r28
    6466:	01 96       	adiw	r24, 0x01	; 1
    6468:	0e 94 63 37 	call	0x6ec6	; 0x6ec6 <_ZN3twi11WriteSingleEi>
    646c:	ce 01       	movw	r24, r28
    646e:	01 96       	adiw	r24, 0x01	; 1
    6470:	0e 94 87 37 	call	0x6f0e	; 0x6f0e <_ZN3twi4StopEv>
    6474:	2f ef       	ldi	r18, 0xFF	; 255
    6476:	81 ee       	ldi	r24, 0xE1	; 225
    6478:	94 e0       	ldi	r25, 0x04	; 4
    647a:	21 50       	subi	r18, 0x01	; 1
    647c:	80 40       	sbci	r24, 0x00	; 0
    647e:	90 40       	sbci	r25, 0x00	; 0
    6480:	e1 f7       	brne	.-8      	; 0x647a <_Z8init_lcdv+0xd0>
    6482:	00 c0       	rjmp	.+0      	; 0x6484 <_Z8init_lcdv+0xda>
    6484:	00 00       	nop
    6486:	40 e0       	ldi	r20, 0x00	; 0
    6488:	6c e7       	ldi	r22, 0x7C	; 124
    648a:	ce 01       	movw	r24, r28
    648c:	01 96       	adiw	r24, 0x01	; 1
    648e:	0e 94 35 37 	call	0x6e6a	; 0x6e6a <_ZN3twi7AddressEhh>
    6492:	60 e0       	ldi	r22, 0x00	; 0
    6494:	70 e0       	ldi	r23, 0x00	; 0
    6496:	ce 01       	movw	r24, r28
    6498:	01 96       	adiw	r24, 0x01	; 1
    649a:	0e 94 63 37 	call	0x6ec6	; 0x6ec6 <_ZN3twi11WriteSingleEi>
    649e:	6e e7       	ldi	r22, 0x7E	; 126
    64a0:	70 e0       	ldi	r23, 0x00	; 0
    64a2:	ce 01       	movw	r24, r28
    64a4:	01 96       	adiw	r24, 0x01	; 1
    64a6:	0e 94 63 37 	call	0x6ec6	; 0x6ec6 <_ZN3twi11WriteSingleEi>
    64aa:	ce 01       	movw	r24, r28
    64ac:	01 96       	adiw	r24, 0x01	; 1
    64ae:	0e 94 87 37 	call	0x6f0e	; 0x6f0e <_ZN3twi4StopEv>
    64b2:	2f ef       	ldi	r18, 0xFF	; 255
    64b4:	81 ee       	ldi	r24, 0xE1	; 225
    64b6:	94 e0       	ldi	r25, 0x04	; 4
    64b8:	21 50       	subi	r18, 0x01	; 1
    64ba:	80 40       	sbci	r24, 0x00	; 0
    64bc:	90 40       	sbci	r25, 0x00	; 0
    64be:	e1 f7       	brne	.-8      	; 0x64b8 <_Z8init_lcdv+0x10e>
    64c0:	00 c0       	rjmp	.+0      	; 0x64c2 <_Z8init_lcdv+0x118>
    64c2:	00 00       	nop
    64c4:	40 e0       	ldi	r20, 0x00	; 0
    64c6:	6c e7       	ldi	r22, 0x7C	; 124
    64c8:	ce 01       	movw	r24, r28
    64ca:	01 96       	adiw	r24, 0x01	; 1
    64cc:	0e 94 35 37 	call	0x6e6a	; 0x6e6a <_ZN3twi7AddressEhh>
    64d0:	60 e0       	ldi	r22, 0x00	; 0
    64d2:	70 e0       	ldi	r23, 0x00	; 0
    64d4:	ce 01       	movw	r24, r28
    64d6:	01 96       	adiw	r24, 0x01	; 1
    64d8:	0e 94 63 37 	call	0x6ec6	; 0x6ec6 <_ZN3twi11WriteSingleEi>
    64dc:	65 e5       	ldi	r22, 0x55	; 85
    64de:	70 e0       	ldi	r23, 0x00	; 0
    64e0:	ce 01       	movw	r24, r28
    64e2:	01 96       	adiw	r24, 0x01	; 1
    64e4:	0e 94 63 37 	call	0x6ec6	; 0x6ec6 <_ZN3twi11WriteSingleEi>
    64e8:	ce 01       	movw	r24, r28
    64ea:	01 96       	adiw	r24, 0x01	; 1
    64ec:	0e 94 87 37 	call	0x6f0e	; 0x6f0e <_ZN3twi4StopEv>
    64f0:	2f ef       	ldi	r18, 0xFF	; 255
    64f2:	81 ee       	ldi	r24, 0xE1	; 225
    64f4:	94 e0       	ldi	r25, 0x04	; 4
    64f6:	21 50       	subi	r18, 0x01	; 1
    64f8:	80 40       	sbci	r24, 0x00	; 0
    64fa:	90 40       	sbci	r25, 0x00	; 0
    64fc:	e1 f7       	brne	.-8      	; 0x64f6 <_Z8init_lcdv+0x14c>
    64fe:	00 c0       	rjmp	.+0      	; 0x6500 <_Z8init_lcdv+0x156>
    6500:	00 00       	nop
    6502:	40 e0       	ldi	r20, 0x00	; 0
    6504:	6c e7       	ldi	r22, 0x7C	; 124
    6506:	ce 01       	movw	r24, r28
    6508:	01 96       	adiw	r24, 0x01	; 1
    650a:	0e 94 35 37 	call	0x6e6a	; 0x6e6a <_ZN3twi7AddressEhh>
    650e:	60 e0       	ldi	r22, 0x00	; 0
    6510:	70 e0       	ldi	r23, 0x00	; 0
    6512:	ce 01       	movw	r24, r28
    6514:	01 96       	adiw	r24, 0x01	; 1
    6516:	0e 94 63 37 	call	0x6ec6	; 0x6ec6 <_ZN3twi11WriteSingleEi>
    651a:	6c e6       	ldi	r22, 0x6C	; 108
    651c:	70 e0       	ldi	r23, 0x00	; 0
    651e:	ce 01       	movw	r24, r28
    6520:	01 96       	adiw	r24, 0x01	; 1
    6522:	0e 94 63 37 	call	0x6ec6	; 0x6ec6 <_ZN3twi11WriteSingleEi>
    6526:	ce 01       	movw	r24, r28
    6528:	01 96       	adiw	r24, 0x01	; 1
    652a:	0e 94 87 37 	call	0x6f0e	; 0x6f0e <_ZN3twi4StopEv>
    652e:	2f ef       	ldi	r18, 0xFF	; 255
    6530:	83 ed       	ldi	r24, 0xD3	; 211
    6532:	90 e3       	ldi	r25, 0x30	; 48
    6534:	21 50       	subi	r18, 0x01	; 1
    6536:	80 40       	sbci	r24, 0x00	; 0
    6538:	90 40       	sbci	r25, 0x00	; 0
    653a:	e1 f7       	brne	.-8      	; 0x6534 <_Z8init_lcdv+0x18a>
    653c:	00 c0       	rjmp	.+0      	; 0x653e <_Z8init_lcdv+0x194>
    653e:	00 00       	nop
    6540:	40 e0       	ldi	r20, 0x00	; 0
    6542:	6c e7       	ldi	r22, 0x7C	; 124
    6544:	ce 01       	movw	r24, r28
    6546:	01 96       	adiw	r24, 0x01	; 1
    6548:	0e 94 35 37 	call	0x6e6a	; 0x6e6a <_ZN3twi7AddressEhh>
    654c:	60 e0       	ldi	r22, 0x00	; 0
    654e:	70 e0       	ldi	r23, 0x00	; 0
    6550:	ce 01       	movw	r24, r28
    6552:	01 96       	adiw	r24, 0x01	; 1
    6554:	0e 94 63 37 	call	0x6ec6	; 0x6ec6 <_ZN3twi11WriteSingleEi>
    6558:	68 e3       	ldi	r22, 0x38	; 56
    655a:	70 e0       	ldi	r23, 0x00	; 0
    655c:	ce 01       	movw	r24, r28
    655e:	01 96       	adiw	r24, 0x01	; 1
    6560:	0e 94 63 37 	call	0x6ec6	; 0x6ec6 <_ZN3twi11WriteSingleEi>
    6564:	ce 01       	movw	r24, r28
    6566:	01 96       	adiw	r24, 0x01	; 1
    6568:	0e 94 87 37 	call	0x6f0e	; 0x6f0e <_ZN3twi4StopEv>
    656c:	2f ef       	ldi	r18, 0xFF	; 255
    656e:	81 ee       	ldi	r24, 0xE1	; 225
    6570:	94 e0       	ldi	r25, 0x04	; 4
    6572:	21 50       	subi	r18, 0x01	; 1
    6574:	80 40       	sbci	r24, 0x00	; 0
    6576:	90 40       	sbci	r25, 0x00	; 0
    6578:	e1 f7       	brne	.-8      	; 0x6572 <_Z8init_lcdv+0x1c8>
    657a:	00 c0       	rjmp	.+0      	; 0x657c <_Z8init_lcdv+0x1d2>
    657c:	00 00       	nop
    657e:	40 e0       	ldi	r20, 0x00	; 0
    6580:	6c e7       	ldi	r22, 0x7C	; 124
    6582:	ce 01       	movw	r24, r28
    6584:	01 96       	adiw	r24, 0x01	; 1
    6586:	0e 94 35 37 	call	0x6e6a	; 0x6e6a <_ZN3twi7AddressEhh>
    658a:	60 e0       	ldi	r22, 0x00	; 0
    658c:	70 e0       	ldi	r23, 0x00	; 0
    658e:	ce 01       	movw	r24, r28
    6590:	01 96       	adiw	r24, 0x01	; 1
    6592:	0e 94 63 37 	call	0x6ec6	; 0x6ec6 <_ZN3twi11WriteSingleEi>
    6596:	6c e0       	ldi	r22, 0x0C	; 12
    6598:	70 e0       	ldi	r23, 0x00	; 0
    659a:	ce 01       	movw	r24, r28
    659c:	01 96       	adiw	r24, 0x01	; 1
    659e:	0e 94 63 37 	call	0x6ec6	; 0x6ec6 <_ZN3twi11WriteSingleEi>
    65a2:	ce 01       	movw	r24, r28
    65a4:	01 96       	adiw	r24, 0x01	; 1
    65a6:	0e 94 87 37 	call	0x6f0e	; 0x6f0e <_ZN3twi4StopEv>
    65aa:	2f ef       	ldi	r18, 0xFF	; 255
    65ac:	81 ee       	ldi	r24, 0xE1	; 225
    65ae:	94 e0       	ldi	r25, 0x04	; 4
    65b0:	21 50       	subi	r18, 0x01	; 1
    65b2:	80 40       	sbci	r24, 0x00	; 0
    65b4:	90 40       	sbci	r25, 0x00	; 0
    65b6:	e1 f7       	brne	.-8      	; 0x65b0 <_Z8init_lcdv+0x206>
    65b8:	00 c0       	rjmp	.+0      	; 0x65ba <_Z8init_lcdv+0x210>
    65ba:	00 00       	nop
    65bc:	40 e0       	ldi	r20, 0x00	; 0
    65be:	6c e7       	ldi	r22, 0x7C	; 124
    65c0:	ce 01       	movw	r24, r28
    65c2:	01 96       	adiw	r24, 0x01	; 1
    65c4:	0e 94 35 37 	call	0x6e6a	; 0x6e6a <_ZN3twi7AddressEhh>
    65c8:	60 e0       	ldi	r22, 0x00	; 0
    65ca:	70 e0       	ldi	r23, 0x00	; 0
    65cc:	ce 01       	movw	r24, r28
    65ce:	01 96       	adiw	r24, 0x01	; 1
    65d0:	0e 94 63 37 	call	0x6ec6	; 0x6ec6 <_ZN3twi11WriteSingleEi>
    65d4:	61 e0       	ldi	r22, 0x01	; 1
    65d6:	70 e0       	ldi	r23, 0x00	; 0
    65d8:	ce 01       	movw	r24, r28
    65da:	01 96       	adiw	r24, 0x01	; 1
    65dc:	0e 94 63 37 	call	0x6ec6	; 0x6ec6 <_ZN3twi11WriteSingleEi>
    65e0:	ce 01       	movw	r24, r28
    65e2:	01 96       	adiw	r24, 0x01	; 1
    65e4:	0e 94 87 37 	call	0x6f0e	; 0x6f0e <_ZN3twi4StopEv>
    65e8:	2f ef       	ldi	r18, 0xFF	; 255
    65ea:	81 ee       	ldi	r24, 0xE1	; 225
    65ec:	94 e0       	ldi	r25, 0x04	; 4
    65ee:	21 50       	subi	r18, 0x01	; 1
    65f0:	80 40       	sbci	r24, 0x00	; 0
    65f2:	90 40       	sbci	r25, 0x00	; 0
    65f4:	e1 f7       	brne	.-8      	; 0x65ee <_Z8init_lcdv+0x244>
    65f6:	00 c0       	rjmp	.+0      	; 0x65f8 <_Z8init_lcdv+0x24e>
    65f8:	00 00       	nop
    65fa:	40 e0       	ldi	r20, 0x00	; 0
    65fc:	6c e7       	ldi	r22, 0x7C	; 124
    65fe:	ce 01       	movw	r24, r28
    6600:	01 96       	adiw	r24, 0x01	; 1
    6602:	0e 94 35 37 	call	0x6e6a	; 0x6e6a <_ZN3twi7AddressEhh>
    6606:	60 e0       	ldi	r22, 0x00	; 0
    6608:	70 e0       	ldi	r23, 0x00	; 0
    660a:	ce 01       	movw	r24, r28
    660c:	01 96       	adiw	r24, 0x01	; 1
    660e:	0e 94 63 37 	call	0x6ec6	; 0x6ec6 <_ZN3twi11WriteSingleEi>
    6612:	66 e0       	ldi	r22, 0x06	; 6
    6614:	70 e0       	ldi	r23, 0x00	; 0
    6616:	ce 01       	movw	r24, r28
    6618:	01 96       	adiw	r24, 0x01	; 1
    661a:	0e 94 63 37 	call	0x6ec6	; 0x6ec6 <_ZN3twi11WriteSingleEi>
    661e:	ce 01       	movw	r24, r28
    6620:	01 96       	adiw	r24, 0x01	; 1
    6622:	0e 94 87 37 	call	0x6f0e	; 0x6f0e <_ZN3twi4StopEv>
    6626:	2f ef       	ldi	r18, 0xFF	; 255
    6628:	81 ee       	ldi	r24, 0xE1	; 225
    662a:	94 e0       	ldi	r25, 0x04	; 4
    662c:	21 50       	subi	r18, 0x01	; 1
    662e:	80 40       	sbci	r24, 0x00	; 0
    6630:	90 40       	sbci	r25, 0x00	; 0
    6632:	e1 f7       	brne	.-8      	; 0x662c <_Z8init_lcdv+0x282>
    6634:	00 c0       	rjmp	.+0      	; 0x6636 <_Z8init_lcdv+0x28c>
    6636:	00 00       	nop
    6638:	2a 96       	adiw	r28, 0x0a	; 10
    663a:	cd bf       	out	0x3d, r28	; 61
    663c:	de bf       	out	0x3e, r29	; 62
    663e:	df 91       	pop	r29
    6640:	cf 91       	pop	r28
    6642:	08 95       	ret

00006644 <_Z10lcd_putstrP10TWI_structPKc>:
    6644:	af 92       	push	r10
    6646:	bf 92       	push	r11
    6648:	cf 92       	push	r12
    664a:	df 92       	push	r13
    664c:	ef 92       	push	r14
    664e:	ff 92       	push	r15
    6650:	1f 93       	push	r17
    6652:	cf 93       	push	r28
    6654:	df 93       	push	r29
    6656:	cd b7       	in	r28, 0x3d	; 61
    6658:	de b7       	in	r29, 0x3e	; 62
    665a:	2a 97       	sbiw	r28, 0x0a	; 10
    665c:	cd bf       	out	0x3d, r28	; 61
    665e:	de bf       	out	0x3e, r29	; 62
    6660:	7b 01       	movw	r14, r22
    6662:	20 ee       	ldi	r18, 0xE0	; 224
    6664:	33 e9       	ldi	r19, 0x93	; 147
    6666:	44 e0       	ldi	r20, 0x04	; 4
    6668:	50 e0       	ldi	r21, 0x00	; 0
    666a:	60 e9       	ldi	r22, 0x90	; 144
    666c:	74 e0       	ldi	r23, 0x04	; 4
    666e:	ce 01       	movw	r24, r28
    6670:	01 96       	adiw	r24, 0x01	; 1
    6672:	0e 94 ef 36 	call	0x6dde	; 0x6dde <_ZN3twiC1EP10TWI_structm>
    6676:	40 e0       	ldi	r20, 0x00	; 0
    6678:	6c e7       	ldi	r22, 0x7C	; 124
    667a:	ce 01       	movw	r24, r28
    667c:	01 96       	adiw	r24, 0x01	; 1
    667e:	0e 94 35 37 	call	0x6e6a	; 0x6e6a <_ZN3twi7AddressEhh>
    6682:	f7 01       	movw	r30, r14
    6684:	01 90       	ld	r0, Z+
    6686:	00 20       	and	r0, r0
    6688:	e9 f7       	brne	.-6      	; 0x6684 <_Z10lcd_putstrP10TWI_structPKc+0x40>
    668a:	31 97       	sbiw	r30, 0x01	; 1
    668c:	6f 01       	movw	r12, r30
    668e:	ce 18       	sub	r12, r14
    6690:	df 08       	sbc	r13, r15
    6692:	49 f1       	breq	.+82     	; 0x66e6 <_Z10lcd_putstrP10TWI_structPKc+0xa2>
    6694:	80 e0       	ldi	r24, 0x00	; 0
    6696:	90 e0       	ldi	r25, 0x00	; 0
    6698:	10 e0       	ldi	r17, 0x00	; 0
    669a:	56 01       	movw	r10, r12
    669c:	21 e0       	ldi	r18, 0x01	; 1
    669e:	a2 1a       	sub	r10, r18
    66a0:	b1 08       	sbc	r11, r1
    66a2:	a8 16       	cp	r10, r24
    66a4:	b9 06       	cpc	r11, r25
    66a6:	39 f4       	brne	.+14     	; 0x66b6 <_Z10lcd_putstrP10TWI_structPKc+0x72>
    66a8:	60 e4       	ldi	r22, 0x40	; 64
    66aa:	70 e0       	ldi	r23, 0x00	; 0
    66ac:	ce 01       	movw	r24, r28
    66ae:	01 96       	adiw	r24, 0x01	; 1
    66b0:	0e 94 63 37 	call	0x6ec6	; 0x6ec6 <_ZN3twi11WriteSingleEi>
    66b4:	06 c0       	rjmp	.+12     	; 0x66c2 <_Z10lcd_putstrP10TWI_structPKc+0x7e>
    66b6:	60 ec       	ldi	r22, 0xC0	; 192
    66b8:	70 e0       	ldi	r23, 0x00	; 0
    66ba:	ce 01       	movw	r24, r28
    66bc:	01 96       	adiw	r24, 0x01	; 1
    66be:	0e 94 63 37 	call	0x6ec6	; 0x6ec6 <_ZN3twi11WriteSingleEi>
    66c2:	f7 01       	movw	r30, r14
    66c4:	61 91       	ld	r22, Z+
    66c6:	7f 01       	movw	r14, r30
    66c8:	70 e0       	ldi	r23, 0x00	; 0
    66ca:	ce 01       	movw	r24, r28
    66cc:	01 96       	adiw	r24, 0x01	; 1
    66ce:	0e 94 63 37 	call	0x6ec6	; 0x6ec6 <_ZN3twi11WriteSingleEi>
    66d2:	fa e6       	ldi	r31, 0x6A	; 106
    66d4:	fa 95       	dec	r31
    66d6:	f1 f7       	brne	.-4      	; 0x66d4 <_Z10lcd_putstrP10TWI_structPKc+0x90>
    66d8:	00 c0       	rjmp	.+0      	; 0x66da <_Z10lcd_putstrP10TWI_structPKc+0x96>
    66da:	1f 5f       	subi	r17, 0xFF	; 255
    66dc:	81 2f       	mov	r24, r17
    66de:	90 e0       	ldi	r25, 0x00	; 0
    66e0:	8c 15       	cp	r24, r12
    66e2:	9d 05       	cpc	r25, r13
    66e4:	f0 f2       	brcs	.-68     	; 0x66a2 <_Z10lcd_putstrP10TWI_structPKc+0x5e>
    66e6:	ce 01       	movw	r24, r28
    66e8:	01 96       	adiw	r24, 0x01	; 1
    66ea:	0e 94 87 37 	call	0x6f0e	; 0x6f0e <_ZN3twi4StopEv>
    66ee:	2a 96       	adiw	r28, 0x0a	; 10
    66f0:	cd bf       	out	0x3d, r28	; 61
    66f2:	de bf       	out	0x3e, r29	; 62
    66f4:	df 91       	pop	r29
    66f6:	cf 91       	pop	r28
    66f8:	1f 91       	pop	r17
    66fa:	ff 90       	pop	r15
    66fc:	ef 90       	pop	r14
    66fe:	df 90       	pop	r13
    6700:	cf 90       	pop	r12
    6702:	bf 90       	pop	r11
    6704:	af 90       	pop	r10
    6706:	08 95       	ret

00006708 <_Z10lcd_putdecP10TWI_structj>:
void lcd_putdec(TWI_t *port, uint16_t num){
    6708:	8f 92       	push	r8
    670a:	9f 92       	push	r9
    670c:	af 92       	push	r10
    670e:	bf 92       	push	r11
    6710:	ef 92       	push	r14
    6712:	ff 92       	push	r15
    6714:	0f 93       	push	r16
    6716:	1f 93       	push	r17
    6718:	cf 93       	push	r28
    671a:	df 93       	push	r29
    671c:	cd b7       	in	r28, 0x3d	; 61
    671e:	de b7       	in	r29, 0x3e	; 62
    6720:	27 97       	sbiw	r28, 0x07	; 7
    6722:	cd bf       	out	0x3d, r28	; 61
    6724:	de bf       	out	0x3e, r29	; 62
    6726:	7c 01       	movw	r14, r24
	char data[7]={0};
    6728:	8e 01       	movw	r16, r28
    672a:	0f 5f       	subi	r16, 0xFF	; 255
    672c:	1f 4f       	sbci	r17, 0xFF	; 255
    672e:	87 e0       	ldi	r24, 0x07	; 7
    6730:	f8 01       	movw	r30, r16
    6732:	11 92       	st	Z+, r1
    6734:	8a 95       	dec	r24
    6736:	e9 f7       	brne	.-6      	; 0x6732 <_Z10lcd_putdecP10TWI_structj+0x2a>
    6738:	80 e0       	ldi	r24, 0x00	; 0
    673a:	90 e0       	ldi	r25, 0x00	; 0
    673c:	20 e4       	ldi	r18, 0x40	; 64
    673e:	32 e4       	ldi	r19, 0x42	; 66
    6740:	4f e0       	ldi	r20, 0x0F	; 15
    6742:	50 e0       	ldi	r21, 0x00	; 0
    6744:	0e 94 69 38 	call	0x70d2	; 0x70d2 <__divmodsi4>
    6748:	88 27       	eor	r24, r24
    674a:	99 27       	eor	r25, r25
	data[0]=(num%=1000000)/100000 + '0';
    674c:	20 ea       	ldi	r18, 0xA0	; 160
    674e:	36 e8       	ldi	r19, 0x86	; 134
    6750:	41 e0       	ldi	r20, 0x01	; 1
    6752:	50 e0       	ldi	r21, 0x00	; 0
    6754:	0e 94 69 38 	call	0x70d2	; 0x70d2 <__divmodsi4>
    6758:	4b 01       	movw	r8, r22
    675a:	5c 01       	movw	r10, r24
    675c:	20 5d       	subi	r18, 0xD0	; 208
    675e:	29 83       	std	Y+1, r18	; 0x01
	data[1]=(num%=100000)/10000 + '0';
    6760:	9b 01       	movw	r18, r22
    6762:	32 95       	swap	r19
    6764:	22 95       	swap	r18
    6766:	2f 70       	andi	r18, 0x0F	; 15
    6768:	23 27       	eor	r18, r19
    676a:	3f 70       	andi	r19, 0x0F	; 15
    676c:	23 27       	eor	r18, r19
    676e:	a7 e4       	ldi	r26, 0x47	; 71
    6770:	b3 e0       	ldi	r27, 0x03	; 3
    6772:	0e 94 91 38 	call	0x7122	; 0x7122 <__umulhisi3>
    6776:	96 95       	lsr	r25
    6778:	87 95       	ror	r24
    677a:	96 95       	lsr	r25
    677c:	87 95       	ror	r24
    677e:	96 95       	lsr	r25
    6780:	87 95       	ror	r24
    6782:	20 e3       	ldi	r18, 0x30	; 48
    6784:	28 0f       	add	r18, r24
    6786:	2a 83       	std	Y+2, r18	; 0x02
	data[2]=(num%=10000)/1000 + '0';
    6788:	40 e1       	ldi	r20, 0x10	; 16
    678a:	57 e2       	ldi	r21, 0x27	; 39
    678c:	84 9f       	mul	r24, r20
    678e:	90 01       	movw	r18, r0
    6790:	85 9f       	mul	r24, r21
    6792:	30 0d       	add	r19, r0
    6794:	94 9f       	mul	r25, r20
    6796:	30 0d       	add	r19, r0
    6798:	11 24       	eor	r1, r1
    679a:	82 1a       	sub	r8, r18
    679c:	93 0a       	sbc	r9, r19
    679e:	94 01       	movw	r18, r8
    67a0:	36 95       	lsr	r19
    67a2:	27 95       	ror	r18
    67a4:	36 95       	lsr	r19
    67a6:	27 95       	ror	r18
    67a8:	36 95       	lsr	r19
    67aa:	27 95       	ror	r18
    67ac:	a5 ec       	ldi	r26, 0xC5	; 197
    67ae:	b0 e2       	ldi	r27, 0x20	; 32
    67b0:	0e 94 91 38 	call	0x7122	; 0x7122 <__umulhisi3>
    67b4:	92 95       	swap	r25
    67b6:	82 95       	swap	r24
    67b8:	8f 70       	andi	r24, 0x0F	; 15
    67ba:	89 27       	eor	r24, r25
    67bc:	9f 70       	andi	r25, 0x0F	; 15
    67be:	89 27       	eor	r24, r25
    67c0:	20 e3       	ldi	r18, 0x30	; 48
    67c2:	28 0f       	add	r18, r24
    67c4:	2b 83       	std	Y+3, r18	; 0x03
	data[3]=(num%=1000)/100 + '0';
    67c6:	48 ee       	ldi	r20, 0xE8	; 232
    67c8:	53 e0       	ldi	r21, 0x03	; 3
    67ca:	84 9f       	mul	r24, r20
    67cc:	90 01       	movw	r18, r0
    67ce:	85 9f       	mul	r24, r21
    67d0:	30 0d       	add	r19, r0
    67d2:	94 9f       	mul	r25, r20
    67d4:	30 0d       	add	r19, r0
    67d6:	11 24       	eor	r1, r1
    67d8:	82 1a       	sub	r8, r18
    67da:	93 0a       	sbc	r9, r19
    67dc:	94 01       	movw	r18, r8
    67de:	36 95       	lsr	r19
    67e0:	27 95       	ror	r18
    67e2:	36 95       	lsr	r19
    67e4:	27 95       	ror	r18
    67e6:	ab e7       	ldi	r26, 0x7B	; 123
    67e8:	b4 e1       	ldi	r27, 0x14	; 20
    67ea:	0e 94 91 38 	call	0x7122	; 0x7122 <__umulhisi3>
    67ee:	96 95       	lsr	r25
    67f0:	87 95       	ror	r24
    67f2:	20 e3       	ldi	r18, 0x30	; 48
    67f4:	28 0f       	add	r18, r24
    67f6:	2c 83       	std	Y+4, r18	; 0x04
	data[4]=(num%=100)/10 + '0';
    67f8:	44 e6       	ldi	r20, 0x64	; 100
    67fa:	48 9f       	mul	r20, r24
    67fc:	90 01       	movw	r18, r0
    67fe:	49 9f       	mul	r20, r25
    6800:	30 0d       	add	r19, r0
    6802:	11 24       	eor	r1, r1
    6804:	82 1a       	sub	r8, r18
    6806:	93 0a       	sbc	r9, r19
    6808:	94 01       	movw	r18, r8
    680a:	ad ec       	ldi	r26, 0xCD	; 205
    680c:	bc ec       	ldi	r27, 0xCC	; 204
    680e:	0e 94 91 38 	call	0x7122	; 0x7122 <__umulhisi3>
    6812:	96 95       	lsr	r25
    6814:	87 95       	ror	r24
    6816:	96 95       	lsr	r25
    6818:	87 95       	ror	r24
    681a:	96 95       	lsr	r25
    681c:	87 95       	ror	r24
    681e:	20 e3       	ldi	r18, 0x30	; 48
    6820:	28 0f       	add	r18, r24
    6822:	2d 83       	std	Y+5, r18	; 0x05
	data[5]=(num%=10) + '0';
    6824:	9c 01       	movw	r18, r24
    6826:	22 0f       	add	r18, r18
    6828:	33 1f       	adc	r19, r19
    682a:	88 0f       	add	r24, r24
    682c:	99 1f       	adc	r25, r25
    682e:	88 0f       	add	r24, r24
    6830:	99 1f       	adc	r25, r25
    6832:	88 0f       	add	r24, r24
    6834:	99 1f       	adc	r25, r25
    6836:	82 0f       	add	r24, r18
    6838:	93 1f       	adc	r25, r19
    683a:	94 01       	movw	r18, r8
    683c:	28 1b       	sub	r18, r24
    683e:	39 0b       	sbc	r19, r25
    6840:	20 5d       	subi	r18, 0xD0	; 208
    6842:	2e 83       	std	Y+6, r18	; 0x06
	lcd_putstr(port,data);
    6844:	b8 01       	movw	r22, r16
    6846:	c7 01       	movw	r24, r14
    6848:	0e 94 22 33 	call	0x6644	; 0x6644 <_Z10lcd_putstrP10TWI_structPKc>
	return;
}
    684c:	27 96       	adiw	r28, 0x07	; 7
    684e:	cd bf       	out	0x3d, r28	; 61
    6850:	de bf       	out	0x3e, r29	; 62
    6852:	df 91       	pop	r29
    6854:	cf 91       	pop	r28
    6856:	1f 91       	pop	r17
    6858:	0f 91       	pop	r16
    685a:	ff 90       	pop	r15
    685c:	ef 90       	pop	r14
    685e:	bf 90       	pop	r11
    6860:	af 90       	pop	r10
    6862:	9f 90       	pop	r9
    6864:	8f 90       	pop	r8
    6866:	08 95       	ret

00006868 <_Z9lcd_clearv>:


void lcd_clear(void){
    6868:	cf 93       	push	r28
    686a:	df 93       	push	r29
    686c:	cd b7       	in	r28, 0x3d	; 61
    686e:	de b7       	in	r29, 0x3e	; 62
    6870:	2a 97       	sbiw	r28, 0x0a	; 10
    6872:	cd bf       	out	0x3d, r28	; 61
    6874:	de bf       	out	0x3e, r29	; 62
	//twi lcd_twi(&TWID,400000);
	twi lcd_twi(&TWID,lcd_fre);
    6876:	20 ee       	ldi	r18, 0xE0	; 224
    6878:	33 e9       	ldi	r19, 0x93	; 147
    687a:	44 e0       	ldi	r20, 0x04	; 4
    687c:	50 e0       	ldi	r21, 0x00	; 0
    687e:	60 e9       	ldi	r22, 0x90	; 144
    6880:	74 e0       	ldi	r23, 0x04	; 4
    6882:	ce 01       	movw	r24, r28
    6884:	01 96       	adiw	r24, 0x01	; 1
    6886:	0e 94 ef 36 	call	0x6dde	; 0x6dde <_ZN3twiC1EP10TWI_structm>
	lcd_twi.Address(LCD1_SLvADD,0);
    688a:	40 e0       	ldi	r20, 0x00	; 0
    688c:	6c e7       	ldi	r22, 0x7C	; 124
    688e:	ce 01       	movw	r24, r28
    6890:	01 96       	adiw	r24, 0x01	; 1
    6892:	0e 94 35 37 	call	0x6e6a	; 0x6e6a <_ZN3twi7AddressEhh>
	lcd_twi.WriteSingle(0x00);
    6896:	60 e0       	ldi	r22, 0x00	; 0
    6898:	70 e0       	ldi	r23, 0x00	; 0
    689a:	ce 01       	movw	r24, r28
    689c:	01 96       	adiw	r24, 0x01	; 1
    689e:	0e 94 63 37 	call	0x6ec6	; 0x6ec6 <_ZN3twi11WriteSingleEi>
	lcd_twi.WriteSingle(0x01);	//ClearDisplay
    68a2:	61 e0       	ldi	r22, 0x01	; 1
    68a4:	70 e0       	ldi	r23, 0x00	; 0
    68a6:	ce 01       	movw	r24, r28
    68a8:	01 96       	adiw	r24, 0x01	; 1
    68aa:	0e 94 63 37 	call	0x6ec6	; 0x6ec6 <_ZN3twi11WriteSingleEi>
	lcd_twi.Stop();
    68ae:	ce 01       	movw	r24, r28
    68b0:	01 96       	adiw	r24, 0x01	; 1
    68b2:	0e 94 87 37 	call	0x6f0e	; 0x6f0e <_ZN3twi4StopEv>
	#else
		//round up by default
		__ticks_dc = (uint32_t)(ceil(fabs(__tmp)));
	#endif

	__builtin_avr_delay_cycles(__ticks_dc);
    68b6:	8f eb       	ldi	r24, 0xBF	; 191
    68b8:	92 e1       	ldi	r25, 0x12	; 18
    68ba:	01 97       	sbiw	r24, 0x01	; 1
    68bc:	f1 f7       	brne	.-4      	; 0x68ba <_Z9lcd_clearv+0x52>
    68be:	00 c0       	rjmp	.+0      	; 0x68c0 <_Z9lcd_clearv+0x58>
    68c0:	00 00       	nop
	_delay_us(600);
	return;
}
    68c2:	2a 96       	adiw	r28, 0x0a	; 10
    68c4:	cd bf       	out	0x3d, r28	; 61
    68c6:	de bf       	out	0x3e, r29	; 62
    68c8:	df 91       	pop	r29
    68ca:	cf 91       	pop	r28
    68cc:	08 95       	ret

000068ce <_Z10init_motorv>:
			return 1;
		}
		else{
			return 0;
		}
	}
    68ce:	e0 e2       	ldi	r30, 0x20	; 32
    68d0:	f6 e0       	ldi	r31, 0x06	; 6
    68d2:	8f e0       	ldi	r24, 0x0F	; 15
    68d4:	81 83       	std	Z+1, r24	; 0x01
    68d6:	85 83       	std	Z+5, r24	; 0x05
    68d8:	83 e0       	ldi	r24, 0x03	; 3
    68da:	86 83       	std	Z+6, r24	; 0x06
    68dc:	08 95       	ret

000068de <_Z4mspihh>:
    68de:	62 30       	cpi	r22, 0x02	; 2
    68e0:	21 f4       	brne	.+8      	; 0x68ea <_Z4mspihh+0xc>
    68e2:	98 e0       	ldi	r25, 0x08	; 8
    68e4:	90 93 26 06 	sts	0x0626, r25	; 0x800626 <__TEXT_REGION_LENGTH__+0x700626>
    68e8:	05 c0       	rjmp	.+10     	; 0x68f4 <_Z4mspihh+0x16>
    68ea:	61 30       	cpi	r22, 0x01	; 1
    68ec:	91 f4       	brne	.+36     	; 0x6912 <_Z4mspihh+0x34>
    68ee:	94 e0       	ldi	r25, 0x04	; 4
    68f0:	90 93 26 06 	sts	0x0626, r25	; 0x800626 <__TEXT_REGION_LENGTH__+0x700626>
    68f4:	68 2f       	mov	r22, r24
    68f6:	8f e3       	ldi	r24, 0x3F	; 63
    68f8:	9c e9       	ldi	r25, 0x9C	; 156
    68fa:	01 97       	sbiw	r24, 0x01	; 1
    68fc:	f1 f7       	brne	.-4      	; 0x68fa <_Z4mspihh+0x1c>
    68fe:	00 c0       	rjmp	.+0      	; 0x6900 <_Z4mspihh+0x22>
    6900:	00 00       	nop
    6902:	89 ed       	ldi	r24, 0xD9	; 217
    6904:	9b e3       	ldi	r25, 0x3B	; 59
    6906:	0e 94 df 36 	call	0x6dbe	; 0x6dbe <_ZN3spi4sendEh>
    690a:	9c e0       	ldi	r25, 0x0C	; 12
    690c:	90 93 25 06 	sts	0x0625, r25	; 0x800625 <__TEXT_REGION_LENGTH__+0x700625>
    6910:	08 95       	ret
    6912:	80 e0       	ldi	r24, 0x00	; 0
    6914:	08 95       	ret

00006916 <_ZN5motor4waitEb>:
    6916:	0f 93       	push	r16
    6918:	1f 93       	push	r17
    691a:	cf 93       	push	r28
    691c:	c8 2f       	mov	r28, r24
    691e:	00 e0       	ldi	r16, 0x00	; 0
    6920:	17 e0       	ldi	r17, 0x07	; 7
    6922:	61 e0       	ldi	r22, 0x01	; 1
    6924:	80 e0       	ldi	r24, 0x00	; 0
    6926:	0e 94 6f 34 	call	0x68de	; 0x68de <_Z4mspihh>
    692a:	81 30       	cpi	r24, 0x01	; 1
    692c:	99 f0       	breq	.+38     	; 0x6954 <_ZN5motor4waitEb+0x3e>
    692e:	f8 01       	movw	r30, r16
    6930:	80 85       	ldd	r24, Z+8	; 0x08
    6932:	85 fd       	sbrc	r24, 5
    6934:	02 c0       	rjmp	.+4      	; 0x693a <_ZN5motor4waitEb+0x24>
    6936:	c1 11       	cpse	r28, r1
    6938:	29 c0       	rjmp	.+82     	; 0x698c <_ZN5motor4waitEb+0x76>
    693a:	f8 01       	movw	r30, r16
    693c:	80 85       	ldd	r24, Z+8	; 0x08
    693e:	86 fd       	sbrc	r24, 6
    6940:	02 c0       	rjmp	.+4      	; 0x6946 <_ZN5motor4waitEb+0x30>
    6942:	c1 11       	cpse	r28, r1
    6944:	34 c0       	rjmp	.+104    	; 0x69ae <_ZN5motor4waitEb+0x98>
    6946:	f8 01       	movw	r30, r16
    6948:	80 85       	ldd	r24, Z+8	; 0x08
    694a:	88 23       	and	r24, r24
    694c:	54 f3       	brlt	.-44     	; 0x6922 <_ZN5motor4waitEb+0xc>
    694e:	cc 23       	and	r28, r28
    6950:	41 f3       	breq	.-48     	; 0x6922 <_ZN5motor4waitEb+0xc>
    6952:	3e c0       	rjmp	.+124    	; 0x69d0 <_ZN5motor4waitEb+0xba>
    6954:	00 e0       	ldi	r16, 0x00	; 0
    6956:	17 e0       	ldi	r17, 0x07	; 7
    6958:	62 e0       	ldi	r22, 0x02	; 2
    695a:	80 e0       	ldi	r24, 0x00	; 0
    695c:	0e 94 6f 34 	call	0x68de	; 0x68de <_Z4mspihh>
    6960:	81 30       	cpi	r24, 0x01	; 1
    6962:	09 f4       	brne	.+2      	; 0x6966 <_ZN5motor4waitEb+0x50>
    6964:	79 c0       	rjmp	.+242    	; 0x6a58 <_ZN5motor4waitEb+0x142>
    6966:	f8 01       	movw	r30, r16
    6968:	80 85       	ldd	r24, Z+8	; 0x08
    696a:	85 fd       	sbrc	r24, 5
    696c:	02 c0       	rjmp	.+4      	; 0x6972 <_ZN5motor4waitEb+0x5c>
    696e:	c1 11       	cpse	r28, r1
    6970:	40 c0       	rjmp	.+128    	; 0x69f2 <_ZN5motor4waitEb+0xdc>
    6972:	f8 01       	movw	r30, r16
    6974:	80 85       	ldd	r24, Z+8	; 0x08
    6976:	86 fd       	sbrc	r24, 6
    6978:	02 c0       	rjmp	.+4      	; 0x697e <_ZN5motor4waitEb+0x68>
    697a:	c1 11       	cpse	r28, r1
    697c:	4b c0       	rjmp	.+150    	; 0x6a14 <_ZN5motor4waitEb+0xfe>
    697e:	f8 01       	movw	r30, r16
    6980:	80 85       	ldd	r24, Z+8	; 0x08
    6982:	88 23       	and	r24, r24
    6984:	4c f3       	brlt	.-46     	; 0x6958 <_ZN5motor4waitEb+0x42>
    6986:	cc 23       	and	r28, r28
    6988:	39 f3       	breq	.-50     	; 0x6958 <_ZN5motor4waitEb+0x42>
    698a:	55 c0       	rjmp	.+170    	; 0x6a36 <_ZN5motor4waitEb+0x120>
    698c:	81 e0       	ldi	r24, 0x01	; 1
    698e:	0e 94 d7 35 	call	0x6bae	; 0x6bae <_Z8check_mvh>
    6992:	60 e0       	ldi	r22, 0x00	; 0
    6994:	81 e0       	ldi	r24, 0x01	; 1
    6996:	0e 94 48 35 	call	0x6a90	; 0x6a90 <_Z6mv_caphb>
    699a:	60 e0       	ldi	r22, 0x00	; 0
    699c:	82 e0       	ldi	r24, 0x02	; 2
    699e:	0e 94 48 35 	call	0x6a90	; 0x6a90 <_Z6mv_caphb>
    69a2:	60 e0       	ldi	r22, 0x00	; 0
    69a4:	83 e0       	ldi	r24, 0x03	; 3
    69a6:	0e 94 48 35 	call	0x6a90	; 0x6a90 <_Z6mv_caphb>
    69aa:	c0 e0       	ldi	r28, 0x00	; 0
    69ac:	c6 cf       	rjmp	.-116    	; 0x693a <_ZN5motor4waitEb+0x24>
    69ae:	82 e0       	ldi	r24, 0x02	; 2
    69b0:	0e 94 d7 35 	call	0x6bae	; 0x6bae <_Z8check_mvh>
    69b4:	60 e0       	ldi	r22, 0x00	; 0
    69b6:	81 e0       	ldi	r24, 0x01	; 1
    69b8:	0e 94 48 35 	call	0x6a90	; 0x6a90 <_Z6mv_caphb>
    69bc:	60 e0       	ldi	r22, 0x00	; 0
    69be:	82 e0       	ldi	r24, 0x02	; 2
    69c0:	0e 94 48 35 	call	0x6a90	; 0x6a90 <_Z6mv_caphb>
    69c4:	60 e0       	ldi	r22, 0x00	; 0
    69c6:	83 e0       	ldi	r24, 0x03	; 3
    69c8:	0e 94 48 35 	call	0x6a90	; 0x6a90 <_Z6mv_caphb>
    69cc:	c0 e0       	ldi	r28, 0x00	; 0
    69ce:	bb cf       	rjmp	.-138    	; 0x6946 <_ZN5motor4waitEb+0x30>
    69d0:	83 e0       	ldi	r24, 0x03	; 3
    69d2:	0e 94 d7 35 	call	0x6bae	; 0x6bae <_Z8check_mvh>
    69d6:	60 e0       	ldi	r22, 0x00	; 0
    69d8:	81 e0       	ldi	r24, 0x01	; 1
    69da:	0e 94 48 35 	call	0x6a90	; 0x6a90 <_Z6mv_caphb>
    69de:	60 e0       	ldi	r22, 0x00	; 0
    69e0:	82 e0       	ldi	r24, 0x02	; 2
    69e2:	0e 94 48 35 	call	0x6a90	; 0x6a90 <_Z6mv_caphb>
    69e6:	60 e0       	ldi	r22, 0x00	; 0
    69e8:	83 e0       	ldi	r24, 0x03	; 3
    69ea:	0e 94 48 35 	call	0x6a90	; 0x6a90 <_Z6mv_caphb>
    69ee:	c0 e0       	ldi	r28, 0x00	; 0
    69f0:	98 cf       	rjmp	.-208    	; 0x6922 <_ZN5motor4waitEb+0xc>
    69f2:	81 e0       	ldi	r24, 0x01	; 1
    69f4:	0e 94 d7 35 	call	0x6bae	; 0x6bae <_Z8check_mvh>
    69f8:	60 e0       	ldi	r22, 0x00	; 0
    69fa:	81 e0       	ldi	r24, 0x01	; 1
    69fc:	0e 94 48 35 	call	0x6a90	; 0x6a90 <_Z6mv_caphb>
    6a00:	60 e0       	ldi	r22, 0x00	; 0
    6a02:	82 e0       	ldi	r24, 0x02	; 2
    6a04:	0e 94 48 35 	call	0x6a90	; 0x6a90 <_Z6mv_caphb>
    6a08:	60 e0       	ldi	r22, 0x00	; 0
    6a0a:	83 e0       	ldi	r24, 0x03	; 3
    6a0c:	0e 94 48 35 	call	0x6a90	; 0x6a90 <_Z6mv_caphb>
    6a10:	c0 e0       	ldi	r28, 0x00	; 0
    6a12:	af cf       	rjmp	.-162    	; 0x6972 <_ZN5motor4waitEb+0x5c>
    6a14:	82 e0       	ldi	r24, 0x02	; 2
    6a16:	0e 94 d7 35 	call	0x6bae	; 0x6bae <_Z8check_mvh>
    6a1a:	60 e0       	ldi	r22, 0x00	; 0
    6a1c:	81 e0       	ldi	r24, 0x01	; 1
    6a1e:	0e 94 48 35 	call	0x6a90	; 0x6a90 <_Z6mv_caphb>
    6a22:	60 e0       	ldi	r22, 0x00	; 0
    6a24:	82 e0       	ldi	r24, 0x02	; 2
    6a26:	0e 94 48 35 	call	0x6a90	; 0x6a90 <_Z6mv_caphb>
    6a2a:	60 e0       	ldi	r22, 0x00	; 0
    6a2c:	83 e0       	ldi	r24, 0x03	; 3
    6a2e:	0e 94 48 35 	call	0x6a90	; 0x6a90 <_Z6mv_caphb>
    6a32:	c0 e0       	ldi	r28, 0x00	; 0
    6a34:	a4 cf       	rjmp	.-184    	; 0x697e <_ZN5motor4waitEb+0x68>
    6a36:	83 e0       	ldi	r24, 0x03	; 3
    6a38:	0e 94 d7 35 	call	0x6bae	; 0x6bae <_Z8check_mvh>
    6a3c:	60 e0       	ldi	r22, 0x00	; 0
    6a3e:	81 e0       	ldi	r24, 0x01	; 1
    6a40:	0e 94 48 35 	call	0x6a90	; 0x6a90 <_Z6mv_caphb>
    6a44:	60 e0       	ldi	r22, 0x00	; 0
    6a46:	82 e0       	ldi	r24, 0x02	; 2
    6a48:	0e 94 48 35 	call	0x6a90	; 0x6a90 <_Z6mv_caphb>
    6a4c:	60 e0       	ldi	r22, 0x00	; 0
    6a4e:	83 e0       	ldi	r24, 0x03	; 3
    6a50:	0e 94 48 35 	call	0x6a90	; 0x6a90 <_Z6mv_caphb>
    6a54:	c0 e0       	ldi	r28, 0x00	; 0
    6a56:	80 cf       	rjmp	.-256    	; 0x6958 <_ZN5motor4waitEb+0x42>
    6a58:	cf 91       	pop	r28
    6a5a:	1f 91       	pop	r17
    6a5c:	0f 91       	pop	r16
    6a5e:	08 95       	ret

00006a60 <_GLOBAL__sub_I_motor_spi>:
#include "motor_control.hpp"
#define RightM PIN2_bm //1
#define LeftM PIN3_bm  //2


spi motor_spi(&SPIC,&PORTC,SPI_PRESCALER_DIV16_gc);
    6a60:	21 e0       	ldi	r18, 0x01	; 1
    6a62:	40 e4       	ldi	r20, 0x40	; 64
    6a64:	56 e0       	ldi	r21, 0x06	; 6
    6a66:	60 ec       	ldi	r22, 0xC0	; 192
    6a68:	78 e0       	ldi	r23, 0x08	; 8
    6a6a:	89 ed       	ldi	r24, 0xD9	; 217
    6a6c:	9b e3       	ldi	r25, 0x3B	; 59
    6a6e:	0e 94 cb 36 	call	0x6d96	; 0x6d96 <_ZN3spiC1EP10SPI_structP11PORT_struct18SPI_PRESCALER_enum>
    6a72:	08 95       	ret

00006a74 <_Z7init_mvv>:
		}
		else if (i==2){
			PORTD.OUTCLR=PIN3_bm;
		}
		else if(i==3){
			PORTD.OUTCLR=PIN4_bm;
    6a74:	e0 e6       	ldi	r30, 0x60	; 96
    6a76:	f6 e0       	ldi	r31, 0x06	; 6
    6a78:	8c e1       	ldi	r24, 0x1C	; 28
    6a7a:	81 83       	std	Z+1, r24	; 0x01
    6a7c:	a0 e0       	ldi	r26, 0x00	; 0
    6a7e:	b7 e0       	ldi	r27, 0x07	; 7
    6a80:	90 ee       	ldi	r25, 0xE0	; 224
    6a82:	12 96       	adiw	r26, 0x02	; 2
    6a84:	9c 93       	st	X, r25
    6a86:	12 97       	sbiw	r26, 0x02	; 2
    6a88:	15 96       	adiw	r26, 0x05	; 5
    6a8a:	9c 93       	st	X, r25
    6a8c:	86 83       	std	Z+6, r24	; 0x06
    6a8e:	08 95       	ret

00006a90 <_Z6mv_caphb>:
    6a90:	82 30       	cpi	r24, 0x02	; 2
    6a92:	71 f0       	breq	.+28     	; 0x6ab0 <_Z6mv_caphb+0x20>
    6a94:	83 30       	cpi	r24, 0x03	; 3
    6a96:	b1 f0       	breq	.+44     	; 0x6ac4 <_Z6mv_caphb+0x34>
    6a98:	81 30       	cpi	r24, 0x01	; 1
    6a9a:	e9 f4       	brne	.+58     	; 0x6ad6 <_Z6mv_caphb+0x46>
    6a9c:	66 23       	and	r22, r22
    6a9e:	21 f0       	breq	.+8      	; 0x6aa8 <_Z6mv_caphb+0x18>
    6aa0:	84 e0       	ldi	r24, 0x04	; 4
    6aa2:	80 93 66 06 	sts	0x0666, r24	; 0x800666 <__TEXT_REGION_LENGTH__+0x700666>
    6aa6:	08 95       	ret
    6aa8:	84 e0       	ldi	r24, 0x04	; 4
    6aaa:	80 93 65 06 	sts	0x0665, r24	; 0x800665 <__TEXT_REGION_LENGTH__+0x700665>
    6aae:	08 95       	ret
    6ab0:	66 23       	and	r22, r22
    6ab2:	21 f0       	breq	.+8      	; 0x6abc <_Z6mv_caphb+0x2c>
    6ab4:	88 e0       	ldi	r24, 0x08	; 8
    6ab6:	80 93 66 06 	sts	0x0666, r24	; 0x800666 <__TEXT_REGION_LENGTH__+0x700666>
    6aba:	08 95       	ret
    6abc:	88 e0       	ldi	r24, 0x08	; 8
    6abe:	80 93 65 06 	sts	0x0665, r24	; 0x800665 <__TEXT_REGION_LENGTH__+0x700665>
    6ac2:	08 95       	ret
    6ac4:	66 23       	and	r22, r22
    6ac6:	21 f0       	breq	.+8      	; 0x6ad0 <_Z6mv_caphb+0x40>
    6ac8:	80 e1       	ldi	r24, 0x10	; 16
    6aca:	80 93 66 06 	sts	0x0666, r24	; 0x800666 <__TEXT_REGION_LENGTH__+0x700666>
    6ace:	08 95       	ret
    6ad0:	80 e1       	ldi	r24, 0x10	; 16
    6ad2:	80 93 65 06 	sts	0x0665, r24	; 0x800665 <__TEXT_REGION_LENGTH__+0x700665>
    6ad6:	08 95       	ret

00006ad8 <_Z11mv_spi_sendhh>:
			return;
		}
	}
	return;
}
uint8_t mv_spi_send(uint8_t val, uint8_t i){
    6ad8:	1f 93       	push	r17
    6ada:	cf 93       	push	r28
    6adc:	df 93       	push	r29
	if (i==1){
    6ade:	61 30       	cpi	r22, 0x01	; 1
    6ae0:	d9 f4       	brne	.+54     	; 0x6b18 <_Z11mv_spi_sendhh+0x40>
		PORTD.OUTSET=PIN2_bm;
    6ae2:	c0 e6       	ldi	r28, 0x60	; 96
    6ae4:	d6 e0       	ldi	r29, 0x06	; 6
    6ae6:	14 e0       	ldi	r17, 0x04	; 4
    6ae8:	1d 83       	std	Y+5, r17	; 0x05
	#else
		//round up by default
		__ticks_dc = (uint32_t)(ceil(fabs(__tmp)));
	#endif

	__builtin_avr_delay_cycles(__ticks_dc);
    6aea:	ef e3       	ldi	r30, 0x3F	; 63
    6aec:	ff e1       	ldi	r31, 0x1F	; 31
    6aee:	31 97       	sbiw	r30, 0x01	; 1
    6af0:	f1 f7       	brne	.-4      	; 0x6aee <_Z11mv_spi_sendhh+0x16>
    6af2:	00 c0       	rjmp	.+0      	; 0x6af4 <_Z11mv_spi_sendhh+0x1c>
    6af4:	00 00       	nop
	else{
		return 0;
	}
	_delay_ms(1);
	if (i==1){
		PORTD.OUTCLR=PIN2_bm;
    6af6:	1e 83       	std	Y+6, r17	; 0x06
    6af8:	ff ef       	ldi	r31, 0xFF	; 255
    6afa:	23 ec       	ldi	r18, 0xC3	; 195
    6afc:	39 e0       	ldi	r19, 0x09	; 9
    6afe:	f1 50       	subi	r31, 0x01	; 1
    6b00:	20 40       	sbci	r18, 0x00	; 0
    6b02:	30 40       	sbci	r19, 0x00	; 0
    6b04:	e1 f7       	brne	.-8      	; 0x6afe <_Z11mv_spi_sendhh+0x26>
    6b06:	00 c0       	rjmp	.+0      	; 0x6b08 <_Z11mv_spi_sendhh+0x30>
    6b08:	00 00       	nop
	else{
		return 0;
	}
	uint8_t dat = 0;
	_delay_ms(100);
	dat = mv.send(val);
    6b0a:	68 2f       	mov	r22, r24
    6b0c:	8e ed       	ldi	r24, 0xDE	; 222
    6b0e:	9b e3       	ldi	r25, 0x3B	; 59
    6b10:	0e 94 df 36 	call	0x6dbe	; 0x6dbe <_ZN3spi4sendEh>
	if (i==1){
		PORTD.OUTSET=PIN2_bm;
    6b14:	1d 83       	std	Y+5, r17	; 0x05
    6b16:	39 c0       	rjmp	.+114    	; 0x6b8a <_Z11mv_spi_sendhh+0xb2>
}
uint8_t mv_spi_send(uint8_t val, uint8_t i){
	if (i==1){
		PORTD.OUTSET=PIN2_bm;
	}
	else if (i==2){
    6b18:	62 30       	cpi	r22, 0x02	; 2
    6b1a:	d9 f4       	brne	.+54     	; 0x6b52 <_Z11mv_spi_sendhh+0x7a>
		PORTD.OUTSET=PIN3_bm;
    6b1c:	c0 e6       	ldi	r28, 0x60	; 96
    6b1e:	d6 e0       	ldi	r29, 0x06	; 6
    6b20:	18 e0       	ldi	r17, 0x08	; 8
    6b22:	1d 83       	std	Y+5, r17	; 0x05
    6b24:	ef e3       	ldi	r30, 0x3F	; 63
    6b26:	ff e1       	ldi	r31, 0x1F	; 31
    6b28:	31 97       	sbiw	r30, 0x01	; 1
    6b2a:	f1 f7       	brne	.-4      	; 0x6b28 <_Z11mv_spi_sendhh+0x50>
    6b2c:	00 c0       	rjmp	.+0      	; 0x6b2e <_Z11mv_spi_sendhh+0x56>
    6b2e:	00 00       	nop
	_delay_ms(1);
	if (i==1){
		PORTD.OUTCLR=PIN2_bm;
	}
	else if (i==2){
		PORTD.OUTCLR=PIN3_bm;
    6b30:	1e 83       	std	Y+6, r17	; 0x06
    6b32:	ff ef       	ldi	r31, 0xFF	; 255
    6b34:	23 ec       	ldi	r18, 0xC3	; 195
    6b36:	39 e0       	ldi	r19, 0x09	; 9
    6b38:	f1 50       	subi	r31, 0x01	; 1
    6b3a:	20 40       	sbci	r18, 0x00	; 0
    6b3c:	30 40       	sbci	r19, 0x00	; 0
    6b3e:	e1 f7       	brne	.-8      	; 0x6b38 <_Z11mv_spi_sendhh+0x60>
    6b40:	00 c0       	rjmp	.+0      	; 0x6b42 <_Z11mv_spi_sendhh+0x6a>
    6b42:	00 00       	nop
	else{
		return 0;
	}
	uint8_t dat = 0;
	_delay_ms(100);
	dat = mv.send(val);
    6b44:	68 2f       	mov	r22, r24
    6b46:	8e ed       	ldi	r24, 0xDE	; 222
    6b48:	9b e3       	ldi	r25, 0x3B	; 59
    6b4a:	0e 94 df 36 	call	0x6dbe	; 0x6dbe <_ZN3spi4sendEh>
	if (i==1){
		PORTD.OUTSET=PIN2_bm;
	}
	else if (i==2){
		PORTD.OUTSET=PIN3_bm;	
    6b4e:	1d 83       	std	Y+5, r17	; 0x05
    6b50:	1c c0       	rjmp	.+56     	; 0x6b8a <_Z11mv_spi_sendhh+0xb2>
		PORTD.OUTSET=PIN2_bm;
	}
	else if (i==2){
		PORTD.OUTSET=PIN3_bm;
	}
	else if(i==3){
    6b52:	63 30       	cpi	r22, 0x03	; 3
    6b54:	39 f5       	brne	.+78     	; 0x6ba4 <_Z11mv_spi_sendhh+0xcc>
		PORTD.OUTSET=PIN4_bm;
    6b56:	c0 e6       	ldi	r28, 0x60	; 96
    6b58:	d6 e0       	ldi	r29, 0x06	; 6
    6b5a:	10 e1       	ldi	r17, 0x10	; 16
    6b5c:	1d 83       	std	Y+5, r17	; 0x05
    6b5e:	ef e3       	ldi	r30, 0x3F	; 63
    6b60:	ff e1       	ldi	r31, 0x1F	; 31
    6b62:	31 97       	sbiw	r30, 0x01	; 1
    6b64:	f1 f7       	brne	.-4      	; 0x6b62 <_Z11mv_spi_sendhh+0x8a>
    6b66:	00 c0       	rjmp	.+0      	; 0x6b68 <_Z11mv_spi_sendhh+0x90>
    6b68:	00 00       	nop
	}
	else if (i==2){
		PORTD.OUTCLR=PIN3_bm;
	}
	else if(i==3){
		PORTD.OUTCLR=PIN4_bm;
    6b6a:	1e 83       	std	Y+6, r17	; 0x06
    6b6c:	ff ef       	ldi	r31, 0xFF	; 255
    6b6e:	23 ec       	ldi	r18, 0xC3	; 195
    6b70:	39 e0       	ldi	r19, 0x09	; 9
    6b72:	f1 50       	subi	r31, 0x01	; 1
    6b74:	20 40       	sbci	r18, 0x00	; 0
    6b76:	30 40       	sbci	r19, 0x00	; 0
    6b78:	e1 f7       	brne	.-8      	; 0x6b72 <_Z11mv_spi_sendhh+0x9a>
    6b7a:	00 c0       	rjmp	.+0      	; 0x6b7c <_Z11mv_spi_sendhh+0xa4>
    6b7c:	00 00       	nop
	else{
		return 0;
	}
	uint8_t dat = 0;
	_delay_ms(100);
	dat = mv.send(val);
    6b7e:	68 2f       	mov	r22, r24
    6b80:	8e ed       	ldi	r24, 0xDE	; 222
    6b82:	9b e3       	ldi	r25, 0x3B	; 59
    6b84:	0e 94 df 36 	call	0x6dbe	; 0x6dbe <_ZN3spi4sendEh>
	}
	else if (i==2){
		PORTD.OUTSET=PIN3_bm;	
	}
	else if(i==3){
		PORTD.OUTSET=PIN4_bm;
    6b88:	1d 83       	std	Y+5, r17	; 0x05
    6b8a:	9f ef       	ldi	r25, 0xFF	; 255
    6b8c:	e9 ef       	ldi	r30, 0xF9	; 249
    6b8e:	f0 e0       	ldi	r31, 0x00	; 0
    6b90:	91 50       	subi	r25, 0x01	; 1
    6b92:	e0 40       	sbci	r30, 0x00	; 0
    6b94:	f0 40       	sbci	r31, 0x00	; 0
    6b96:	e1 f7       	brne	.-8      	; 0x6b90 <_Z11mv_spi_sendhh+0xb8>
    6b98:	00 c0       	rjmp	.+0      	; 0x6b9a <_Z11mv_spi_sendhh+0xc2>
    6b9a:	00 00       	nop
	}
	else{
		return 0;
	}
	_delay_ms(10);
	PORTD.OUTCLR=PIN2_bm|PIN3_bm|PIN4_bm;
    6b9c:	9c e1       	ldi	r25, 0x1C	; 28
    6b9e:	90 93 66 06 	sts	0x0666, r25	; 0x800666 <__TEXT_REGION_LENGTH__+0x700666>
	//while((PORTJ.IN & PIN5_bm)==0||(PORTJ.IN & PIN6_bm)==0||(PORTJ.IN & PIN7_bm)==0);
	return dat;
    6ba2:	01 c0       	rjmp	.+2      	; 0x6ba6 <_Z11mv_spi_sendhh+0xce>
	}
	else if(i==3){
		PORTD.OUTSET=PIN4_bm;
	}
	else{
		return 0;
    6ba4:	80 e0       	ldi	r24, 0x00	; 0
	}
	_delay_ms(10);
	PORTD.OUTCLR=PIN2_bm|PIN3_bm|PIN4_bm;
	//while((PORTJ.IN & PIN5_bm)==0||(PORTJ.IN & PIN6_bm)==0||(PORTJ.IN & PIN7_bm)==0);
	return dat;
}
    6ba6:	df 91       	pop	r29
    6ba8:	cf 91       	pop	r28
    6baa:	1f 91       	pop	r17
    6bac:	08 95       	ret

00006bae <_Z8check_mvh>:

void check_mv(uint8_t dir){
    6bae:	cf 93       	push	r28
    6bb0:	df 93       	push	r29
    6bb2:	d8 2f       	mov	r29, r24
	PORTB.OUTSET=PIN0_bm|PIN1_bm;
    6bb4:	83 e0       	ldi	r24, 0x03	; 3
    6bb6:	80 93 25 06 	sts	0x0625, r24	; 0x800625 <__TEXT_REGION_LENGTH__+0x700625>
    6bba:	8f e3       	ldi	r24, 0x3F	; 63
    6bbc:	9c e9       	ldi	r25, 0x9C	; 156
    6bbe:	01 97       	sbiw	r24, 0x01	; 1
    6bc0:	f1 f7       	brne	.-4      	; 0x6bbe <_Z8check_mvh+0x10>
    6bc2:	00 c0       	rjmp	.+0      	; 0x6bc4 <_Z8check_mvh+0x16>
    6bc4:	00 00       	nop
	//mv_sig(dir,false);
	_delay_ms(5);
	led(Blueled,1);
    6bc6:	61 e0       	ldi	r22, 0x01	; 1
    6bc8:	84 e0       	ldi	r24, 0x04	; 4
    6bca:	0e 94 96 36 	call	0x6d2c	; 0x6d2c <_Z3ledhh>
	uint8_t res = mv_spi_send(dir,1);
    6bce:	61 e0       	ldi	r22, 0x01	; 1
    6bd0:	8d 2f       	mov	r24, r29
    6bd2:	0e 94 6c 35 	call	0x6ad8	; 0x6ad8 <_Z11mv_spi_sendhh>
    6bd6:	c8 2f       	mov	r28, r24
	mv_cap(dir,false);
    6bd8:	60 e0       	ldi	r22, 0x00	; 0
    6bda:	8d 2f       	mov	r24, r29
    6bdc:	0e 94 48 35 	call	0x6a90	; 0x6a90 <_Z6mv_caphb>
	serial.string("ch");
    6be0:	63 e2       	ldi	r22, 0x23	; 35
    6be2:	70 e2       	ldi	r23, 0x20	; 32
    6be4:	84 e5       	ldi	r24, 0x54	; 84
    6be6:	90 e2       	ldi	r25, 0x20	; 32
    6be8:	0e 94 c5 37 	call	0x6f8a	; 0x6f8a <_ZN5usart6stringEPKc>
	serial.putdec(res);
    6bec:	6c 2f       	mov	r22, r28
    6bee:	70 e0       	ldi	r23, 0x00	; 0
    6bf0:	84 e5       	ldi	r24, 0x54	; 84
    6bf2:	90 e2       	ldi	r25, 0x20	; 32
    6bf4:	0e 94 da 37 	call	0x6fb4	; 0x6fb4 <_ZN5usart6putdecEj>
	serial.string("\n\r");
    6bf8:	60 e0       	ldi	r22, 0x00	; 0
    6bfa:	70 e2       	ldi	r23, 0x20	; 32
    6bfc:	84 e5       	ldi	r24, 0x54	; 84
    6bfe:	90 e2       	ldi	r25, 0x20	; 32
    6c00:	0e 94 c5 37 	call	0x6f8a	; 0x6f8a <_ZN5usart6stringEPKc>
	mv_cap(dir,false);
    6c04:	60 e0       	ldi	r22, 0x00	; 0
    6c06:	8d 2f       	mov	r24, r29
    6c08:	0e 94 48 35 	call	0x6a90	; 0x6a90 <_Z6mv_caphb>
	led(Blueled,0);
    6c0c:	60 e0       	ldi	r22, 0x00	; 0
    6c0e:	84 e0       	ldi	r24, 0x04	; 4
    6c10:	0e 94 96 36 	call	0x6d2c	; 0x6d2c <_Z3ledhh>
#include "lcd_control.hpp"

class kit_result{
	uint8_t num;
	public:
	void write(uint8_t x){num=x;}
    6c14:	c0 93 dd 3b 	sts	0x3BDD, r28	; 0x803bdd <bblk>
	bblk.write(res);
	switch(res){
    6c18:	c5 30       	cpi	r28, 0x05	; 5
    6c1a:	19 f1       	breq	.+70     	; 0x6c62 <_Z8check_mvh+0xb4>
    6c1c:	28 f4       	brcc	.+10     	; 0x6c28 <_Z8check_mvh+0x7a>
    6c1e:	c3 30       	cpi	r28, 0x03	; 3
    6c20:	41 f0       	breq	.+16     	; 0x6c32 <_Z8check_mvh+0x84>
    6c22:	c4 30       	cpi	r28, 0x04	; 4
    6c24:	91 f0       	breq	.+36     	; 0x6c4a <_Z8check_mvh+0x9c>
    6c26:	40 c0       	rjmp	.+128    	; 0x6ca8 <_Z8check_mvh+0xfa>
    6c28:	c6 30       	cpi	r28, 0x06	; 6
    6c2a:	39 f1       	breq	.+78     	; 0x6c7a <_Z8check_mvh+0xcc>
    6c2c:	c9 30       	cpi	r28, 0x09	; 9
    6c2e:	88 f1       	brcs	.+98     	; 0x6c92 <_Z8check_mvh+0xe4>
    6c30:	3b c0       	rjmp	.+118    	; 0x6ca8 <_Z8check_mvh+0xfa>
		case 3://H  2kits
			lcd_clear();
    6c32:	0e 94 34 34 	call	0x6868	; 0x6868 <_Z9lcd_clearv>
			lcd_putstr(LCD1_TWI,"Find H!");
    6c36:	66 e2       	ldi	r22, 0x26	; 38
    6c38:	70 e2       	ldi	r23, 0x20	; 32
    6c3a:	80 eb       	ldi	r24, 0xB0	; 176
    6c3c:	94 e0       	ldi	r25, 0x04	; 4
    6c3e:	0e 94 22 33 	call	0x6644	; 0x6644 <_Z10lcd_putstrP10TWI_structPKc>
			finded_victim(2);
    6c42:	82 e0       	ldi	r24, 0x02	; 2
    6c44:	0e 94 08 31 	call	0x6210	; 0x6210 <_Z13finded_victimh>
			break;
    6c48:	2f c0       	rjmp	.+94     	; 0x6ca8 <_Z8check_mvh+0xfa>
		case 4://S  1kits
			lcd_clear();
    6c4a:	0e 94 34 34 	call	0x6868	; 0x6868 <_Z9lcd_clearv>
			lcd_putstr(LCD1_TWI,"Find S!");
    6c4e:	6e e2       	ldi	r22, 0x2E	; 46
    6c50:	70 e2       	ldi	r23, 0x20	; 32
    6c52:	80 eb       	ldi	r24, 0xB0	; 176
    6c54:	94 e0       	ldi	r25, 0x04	; 4
    6c56:	0e 94 22 33 	call	0x6644	; 0x6644 <_Z10lcd_putstrP10TWI_structPKc>
			finded_victim(1);
    6c5a:	81 e0       	ldi	r24, 0x01	; 1
    6c5c:	0e 94 08 31 	call	0x6210	; 0x6210 <_Z13finded_victimh>
			break;
    6c60:	23 c0       	rjmp	.+70     	; 0x6ca8 <_Z8check_mvh+0xfa>
		case 5://U 0kits
			lcd_clear();
    6c62:	0e 94 34 34 	call	0x6868	; 0x6868 <_Z9lcd_clearv>
			lcd_putstr(LCD1_TWI,"Find U!");
    6c66:	66 e3       	ldi	r22, 0x36	; 54
    6c68:	70 e2       	ldi	r23, 0x20	; 32
    6c6a:	80 eb       	ldi	r24, 0xB0	; 176
    6c6c:	94 e0       	ldi	r25, 0x04	; 4
    6c6e:	0e 94 22 33 	call	0x6644	; 0x6644 <_Z10lcd_putstrP10TWI_structPKc>
			finded_victim(0);
    6c72:	80 e0       	ldi	r24, 0x00	; 0
    6c74:	0e 94 08 31 	call	0x6210	; 0x6210 <_Z13finded_victimh>
			break;
    6c78:	17 c0       	rjmp	.+46     	; 0x6ca8 <_Z8check_mvh+0xfa>
		case 6:
			lcd_clear();
    6c7a:	0e 94 34 34 	call	0x6868	; 0x6868 <_Z9lcd_clearv>
			lcd_putstr(LCD1_TWI,"Find Sermo");
    6c7e:	6e e3       	ldi	r22, 0x3E	; 62
    6c80:	70 e2       	ldi	r23, 0x20	; 32
    6c82:	80 eb       	ldi	r24, 0xB0	; 176
    6c84:	94 e0       	ldi	r25, 0x04	; 4
    6c86:	0e 94 22 33 	call	0x6644	; 0x6644 <_Z10lcd_putstrP10TWI_structPKc>
			finded_victim(1);
    6c8a:	81 e0       	ldi	r24, 0x01	; 1
    6c8c:	0e 94 08 31 	call	0x6210	; 0x6210 <_Z13finded_victimh>
			break;
    6c90:	0b c0       	rjmp	.+22     	; 0x6ca8 <_Z8check_mvh+0xfa>
		case 7:
		case 8:
			lcd_clear();
    6c92:	0e 94 34 34 	call	0x6868	; 0x6868 <_Z9lcd_clearv>
			lcd_putstr(LCD1_TWI,"Find Error");
    6c96:	69 e4       	ldi	r22, 0x49	; 73
    6c98:	70 e2       	ldi	r23, 0x20	; 32
    6c9a:	80 eb       	ldi	r24, 0xB0	; 176
    6c9c:	94 e0       	ldi	r25, 0x04	; 4
    6c9e:	0e 94 22 33 	call	0x6644	; 0x6644 <_Z10lcd_putstrP10TWI_structPKc>
			finded_victim(1);
    6ca2:	81 e0       	ldi	r24, 0x01	; 1
    6ca4:	0e 94 08 31 	call	0x6210	; 0x6210 <_Z13finded_victimh>
			break;
		default:
			break;
	};
	lcd_clear();
    6ca8:	0e 94 34 34 	call	0x6868	; 0x6868 <_Z9lcd_clearv>
    6cac:	9f ef       	ldi	r25, 0xFF	; 255
    6cae:	29 ef       	ldi	r18, 0xF9	; 249
    6cb0:	80 e0       	ldi	r24, 0x00	; 0
    6cb2:	91 50       	subi	r25, 0x01	; 1
    6cb4:	20 40       	sbci	r18, 0x00	; 0
    6cb6:	80 40       	sbci	r24, 0x00	; 0
    6cb8:	e1 f7       	brne	.-8      	; 0x6cb2 <_Z8check_mvh+0x104>
    6cba:	00 c0       	rjmp	.+0      	; 0x6cbc <_Z8check_mvh+0x10e>
    6cbc:	00 00       	nop
	_delay_ms(10);
	PORTB.OUTCLR=PIN0_bm|PIN1_bm;
    6cbe:	83 e0       	ldi	r24, 0x03	; 3
    6cc0:	80 93 26 06 	sts	0x0626, r24	; 0x800626 <__TEXT_REGION_LENGTH__+0x700626>
	return;
}
    6cc4:	df 91       	pop	r29
    6cc6:	cf 91       	pop	r28
    6cc8:	08 95       	ret

00006cca <_GLOBAL__sub_I_mv>:
1    3 

*/

#include "mv_control.hpp"
spi mv(&SPID,&PORTD,SPI_PRESCALER_DIV128_gc);
    6cca:	23 e0       	ldi	r18, 0x03	; 3
    6ccc:	40 e6       	ldi	r20, 0x60	; 96
    6cce:	56 e0       	ldi	r21, 0x06	; 6
    6cd0:	60 ec       	ldi	r22, 0xC0	; 192
    6cd2:	79 e0       	ldi	r23, 0x09	; 9
    6cd4:	8e ed       	ldi	r24, 0xDE	; 222
    6cd6:	9b e3       	ldi	r25, 0x3B	; 59
    6cd8:	0e 94 cb 36 	call	0x6d96	; 0x6d96 <_ZN3spiC1EP10SPI_structP11PORT_struct18SPI_PRESCALER_enum>
	uint8_t read(){return num;}
	kit_result(){num=0;}
    6cdc:	10 92 dd 3b 	sts	0x3BDD, r1	; 0x803bdd <bblk>
    6ce0:	08 95       	ret

00006ce2 <__vector_77>:
	TCD0.CTRLB=TC_WGMODE_NORMAL_gc;
	TCD0.INTCTRLA=TC_OVFINTLVL_MED_gc;
	TCD0.INTFLAGS=0b00000001;
}

ISR(TCD0_OVF_vect){
    6ce2:	1f 92       	push	r1
    6ce4:	0f 92       	push	r0
    6ce6:	0f b6       	in	r0, 0x3f	; 63
    6ce8:	0f 92       	push	r0
    6cea:	11 24       	eor	r1, r1
    6cec:	08 b6       	in	r0, 0x38	; 56
    6cee:	0f 92       	push	r0
    6cf0:	18 be       	out	0x38, r1	; 56
	
}
    6cf2:	0f 90       	pop	r0
    6cf4:	08 be       	out	0x38, r0	; 56
    6cf6:	0f 90       	pop	r0
    6cf8:	0f be       	out	0x3f, r0	; 63
    6cfa:	0f 90       	pop	r0
    6cfc:	1f 90       	pop	r1
    6cfe:	18 95       	reti

00006d00 <_Z6buzzerv>:
void buzzer(void){
    6d00:	89 ec       	ldi	r24, 0xC9	; 201
    6d02:	90 e0       	ldi	r25, 0x00	; 0
	for(int i=0;i<=200;i++){
		PORTA.OUTSET=PIN0_bm;
    6d04:	e0 e0       	ldi	r30, 0x00	; 0
    6d06:	f6 e0       	ldi	r31, 0x06	; 6
    6d08:	21 e0       	ldi	r18, 0x01	; 1
    6d0a:	25 83       	std	Z+5, r18	; 0x05
	#else
		//round up by default
		__ticks_dc = (uint32_t)(ceil(fabs(__tmp)));
	#endif

	__builtin_avr_delay_cycles(__ticks_dc);
    6d0c:	af ef       	ldi	r26, 0xFF	; 255
    6d0e:	b8 e1       	ldi	r27, 0x18	; 24
    6d10:	11 97       	sbiw	r26, 0x01	; 1
    6d12:	f1 f7       	brne	.-4      	; 0x6d10 <_Z6buzzerv+0x10>
    6d14:	00 c0       	rjmp	.+0      	; 0x6d16 <_Z6buzzerv+0x16>
    6d16:	00 00       	nop
		_delay_us(800);
		PORTA.OUTCLR=PIN0_bm;
    6d18:	26 83       	std	Z+6, r18	; 0x06
    6d1a:	af ef       	ldi	r26, 0xFF	; 255
    6d1c:	b8 e1       	ldi	r27, 0x18	; 24
    6d1e:	11 97       	sbiw	r26, 0x01	; 1
    6d20:	f1 f7       	brne	.-4      	; 0x6d1e <_Z6buzzerv+0x1e>
    6d22:	00 c0       	rjmp	.+0      	; 0x6d24 <_Z6buzzerv+0x24>
    6d24:	00 00       	nop
    6d26:	01 97       	sbiw	r24, 0x01	; 1

ISR(TCD0_OVF_vect){
	
}
void buzzer(void){
	for(int i=0;i<=200;i++){
    6d28:	81 f7       	brne	.-32     	; 0x6d0a <_Z6buzzerv+0xa>
		PORTA.OUTSET=PIN0_bm;
		_delay_us(800);
		PORTA.OUTCLR=PIN0_bm;
		_delay_us(800);
	}
}
    6d2a:	08 95       	ret

00006d2c <_Z3ledhh>:

void led(uint8_t ledkind,uint8_t ledmode){
	if(ledmode==1){
    6d2c:	61 30       	cpi	r22, 0x01	; 1
    6d2e:	19 f4       	brne	.+6      	; 0x6d36 <_Z3ledhh+0xa>
		PORTQ.OUTCLR=ledkind;
    6d30:	80 93 c6 07 	sts	0x07C6, r24	; 0x8007c6 <__TEXT_REGION_LENGTH__+0x7007c6>
    6d34:	08 95       	ret
	}
	else if(ledmode==0){
    6d36:	61 11       	cpse	r22, r1
    6d38:	03 c0       	rjmp	.+6      	; 0x6d40 <_Z3ledhh+0x14>
		PORTQ.OUTSET=ledkind;
    6d3a:	80 93 c5 07 	sts	0x07C5, r24	; 0x8007c5 <__TEXT_REGION_LENGTH__+0x7007c5>
    6d3e:	08 95       	ret
	}
	else {
		PORTQ.OUTSET = PIN2_bm|PIN3_bm|PIN4_bm;
    6d40:	8c e1       	ldi	r24, 0x1C	; 28
    6d42:	80 93 c5 07 	sts	0x07C5, r24	; 0x8007c5 <__TEXT_REGION_LENGTH__+0x7007c5>
    6d46:	08 95       	ret

00006d48 <_Z9error_ledhh>:
	}
}

void error_led(uint8_t no,uint8_t i){
	PORTK.DIRSET=PIN4_bm|PIN5_bm;
    6d48:	90 e3       	ldi	r25, 0x30	; 48
    6d4a:	90 93 21 07 	sts	0x0721, r25	; 0x800721 <__TEXT_REGION_LENGTH__+0x700721>
	if(no==2){
    6d4e:	82 30       	cpi	r24, 0x02	; 2
    6d50:	81 f4       	brne	.+32     	; 0x6d72 <_Z9error_ledhh+0x2a>
		if(i==1){
    6d52:	61 30       	cpi	r22, 0x01	; 1
    6d54:	21 f4       	brne	.+8      	; 0x6d5e <_Z9error_ledhh+0x16>
			PORTK.OUTSET=PIN4_bm;
    6d56:	80 e1       	ldi	r24, 0x10	; 16
    6d58:	80 93 25 07 	sts	0x0725, r24	; 0x800725 <__TEXT_REGION_LENGTH__+0x700725>
    6d5c:	08 95       	ret
		}
		else if(i==0){
    6d5e:	61 11       	cpse	r22, r1
    6d60:	04 c0       	rjmp	.+8      	; 0x6d6a <_Z9error_ledhh+0x22>
			PORTK.OUTCLR=PIN4_bm;
    6d62:	80 e1       	ldi	r24, 0x10	; 16
    6d64:	80 93 26 07 	sts	0x0726, r24	; 0x800726 <__TEXT_REGION_LENGTH__+0x700726>
    6d68:	08 95       	ret
		}
		else
		{
			PORTK.OUTTGL=PIN4_bm;
    6d6a:	80 e1       	ldi	r24, 0x10	; 16
    6d6c:	80 93 27 07 	sts	0x0727, r24	; 0x800727 <__TEXT_REGION_LENGTH__+0x700727>
    6d70:	08 95       	ret
		}
	}
	else if(no==1){
    6d72:	81 30       	cpi	r24, 0x01	; 1
    6d74:	79 f4       	brne	.+30     	; 0x6d94 <_Z9error_ledhh+0x4c>
		if(i==1){
    6d76:	61 30       	cpi	r22, 0x01	; 1
    6d78:	21 f4       	brne	.+8      	; 0x6d82 <_Z9error_ledhh+0x3a>
			PORTK.OUTSET=PIN5_bm;
    6d7a:	80 e2       	ldi	r24, 0x20	; 32
    6d7c:	80 93 25 07 	sts	0x0725, r24	; 0x800725 <__TEXT_REGION_LENGTH__+0x700725>
    6d80:	08 95       	ret
		}
		else if(i==0){
    6d82:	61 11       	cpse	r22, r1
    6d84:	04 c0       	rjmp	.+8      	; 0x6d8e <_Z9error_ledhh+0x46>
			PORTK.OUTCLR=PIN5_bm;
    6d86:	80 e2       	ldi	r24, 0x20	; 32
    6d88:	80 93 26 07 	sts	0x0726, r24	; 0x800726 <__TEXT_REGION_LENGTH__+0x700726>
    6d8c:	08 95       	ret
		}
		else{
			PORTK.OUTTGL=PIN5_bm;
    6d8e:	80 e2       	ldi	r24, 0x20	; 32
    6d90:	80 93 27 07 	sts	0x0727, r24	; 0x800727 <__TEXT_REGION_LENGTH__+0x700727>
    6d94:	08 95       	ret

00006d96 <_ZN3spiC1EP10SPI_structP11PORT_struct18SPI_PRESCALER_enum>:
	sport->CTRL = SPI_ENABLE_bm | SPI_MASTER_bm | SPI_MODE_0_gc | scale;
	return;
}
void spi::close(void){
	sport->CTRL = 0;
	gport->DIRCLR = PIN4_bm|PIN5_bm|PIN6_bm|PIN7_bm ;
    6d96:	fc 01       	movw	r30, r24
    6d98:	60 83       	st	Z, r22
    6d9a:	71 83       	std	Z+1, r23	; 0x01
    6d9c:	42 83       	std	Z+2, r20	; 0x02
    6d9e:	53 83       	std	Z+3, r21	; 0x03
    6da0:	80 e4       	ldi	r24, 0x40	; 64
    6da2:	da 01       	movw	r26, r20
    6da4:	12 96       	adiw	r26, 0x02	; 2
    6da6:	8c 93       	st	X, r24
    6da8:	a2 81       	ldd	r26, Z+2	; 0x02
    6daa:	b3 81       	ldd	r27, Z+3	; 0x03
    6dac:	80 eb       	ldi	r24, 0xB0	; 176
    6dae:	11 96       	adiw	r26, 0x01	; 1
    6db0:	8c 93       	st	X, r24
    6db2:	01 90       	ld	r0, Z+
    6db4:	f0 81       	ld	r31, Z
    6db6:	e0 2d       	mov	r30, r0
    6db8:	20 65       	ori	r18, 0x50	; 80
    6dba:	20 83       	st	Z, r18
    6dbc:	08 95       	ret

00006dbe <_ZN3spi4sendEh>:
	return;
}

uint8_t spi::send(uint8_t val){
    6dbe:	dc 01       	movw	r26, r24
	sport->DATA = val ;
    6dc0:	ed 91       	ld	r30, X+
    6dc2:	fc 91       	ld	r31, X
    6dc4:	11 97       	sbiw	r26, 0x01	; 1
    6dc6:	63 83       	std	Z+3, r22	; 0x03
	while(!(sport->STATUS & 0x80));
    6dc8:	ed 91       	ld	r30, X+
    6dca:	fc 91       	ld	r31, X
    6dcc:	11 97       	sbiw	r26, 0x01	; 1
    6dce:	92 81       	ldd	r25, Z+2	; 0x02
    6dd0:	99 23       	and	r25, r25
    6dd2:	ec f7       	brge	.-6      	; 0x6dce <_ZN3spi4sendEh+0x10>
	sport->STATUS=0;
    6dd4:	12 82       	std	Z+2, r1	; 0x02
	return sport->DATA;
    6dd6:	ed 91       	ld	r30, X+
    6dd8:	fc 91       	ld	r31, X
    6dda:	83 81       	ldd	r24, Z+3	; 0x03
    6ddc:	08 95       	ret

00006dde <_ZN3twiC1EP10TWI_structm>:
	}

	errorCheck();

	return port->MASTER.DATA;
}
    6dde:	0f 93       	push	r16
    6de0:	1f 93       	push	r17
    6de2:	cf 93       	push	r28
    6de4:	df 93       	push	r29
    6de6:	ec 01       	movw	r28, r24
    6de8:	8b 01       	movw	r16, r22
    6dea:	68 87       	std	Y+8, r22	; 0x08
    6dec:	79 87       	std	Y+9, r23	; 0x09
    6dee:	22 0f       	add	r18, r18
    6df0:	33 1f       	adc	r19, r19
    6df2:	44 1f       	adc	r20, r20
    6df4:	55 1f       	adc	r21, r21
    6df6:	60 e0       	ldi	r22, 0x00	; 0
    6df8:	78 e4       	ldi	r23, 0x48	; 72
    6dfa:	88 ee       	ldi	r24, 0xE8	; 232
    6dfc:	91 e0       	ldi	r25, 0x01	; 1
    6dfe:	0e 94 47 38 	call	0x708e	; 0x708e <__udivmodsi4>
    6e02:	da 01       	movw	r26, r20
    6e04:	c9 01       	movw	r24, r18
    6e06:	05 97       	sbiw	r24, 0x05	; 5
    6e08:	a1 09       	sbc	r26, r1
    6e0a:	b1 09       	sbc	r27, r1
    6e0c:	8c 83       	std	Y+4, r24	; 0x04
    6e0e:	9d 83       	std	Y+5, r25	; 0x05
    6e10:	ae 83       	std	Y+6, r26	; 0x06
    6e12:	bf 83       	std	Y+7, r27	; 0x07
    6e14:	f8 01       	movw	r30, r16
    6e16:	85 83       	std	Z+5, r24	; 0x05
    6e18:	e8 85       	ldd	r30, Y+8	; 0x08
    6e1a:	f9 85       	ldd	r31, Y+9	; 0x09
    6e1c:	82 81       	ldd	r24, Z+2	; 0x02
    6e1e:	82 83       	std	Z+2, r24	; 0x02
    6e20:	e8 85       	ldd	r30, Y+8	; 0x08
    6e22:	f9 85       	ldd	r31, Y+9	; 0x09
    6e24:	81 81       	ldd	r24, Z+1	; 0x01
    6e26:	88 60       	ori	r24, 0x08	; 8
    6e28:	81 83       	std	Z+1, r24	; 0x01
    6e2a:	e8 85       	ldd	r30, Y+8	; 0x08
    6e2c:	f9 85       	ldd	r31, Y+9	; 0x09
    6e2e:	81 e0       	ldi	r24, 0x01	; 1
    6e30:	84 83       	std	Z+4, r24	; 0x04
    6e32:	df 91       	pop	r29
    6e34:	cf 91       	pop	r28
    6e36:	1f 91       	pop	r17
    6e38:	0f 91       	pop	r16
    6e3a:	08 95       	ret

00006e3c <_ZN3twi10errorCheckEv>:
    6e3c:	dc 01       	movw	r26, r24
    6e3e:	18 96       	adiw	r26, 0x08	; 8
    6e40:	ed 91       	ld	r30, X+
    6e42:	fc 91       	ld	r31, X
    6e44:	19 97       	sbiw	r26, 0x09	; 9
    6e46:	84 81       	ldd	r24, Z+4	; 0x04
    6e48:	82 fd       	sbrc	r24, 2
    6e4a:	05 c0       	rjmp	.+10     	; 0x6e56 <_ZN3twi10errorCheckEv+0x1a>
    6e4c:	94 81       	ldd	r25, Z+4	; 0x04
    6e4e:	89 2f       	mov	r24, r25
    6e50:	88 70       	andi	r24, 0x08	; 8
    6e52:	93 ff       	sbrs	r25, 3
    6e54:	09 c0       	rjmp	.+18     	; 0x6e68 <_ZN3twi10errorCheckEv+0x2c>
    6e56:	81 e0       	ldi	r24, 0x01	; 1
    6e58:	84 83       	std	Z+4, r24	; 0x04
    6e5a:	18 96       	adiw	r26, 0x08	; 8
    6e5c:	ed 91       	ld	r30, X+
    6e5e:	fc 91       	ld	r31, X
    6e60:	19 97       	sbiw	r26, 0x09	; 9
    6e62:	83 e0       	ldi	r24, 0x03	; 3
    6e64:	83 83       	std	Z+3, r24	; 0x03
    6e66:	8f ef       	ldi	r24, 0xFF	; 255
    6e68:	08 95       	ret

00006e6a <_ZN3twi7AddressEhh>:
    6e6a:	dc 01       	movw	r26, r24
    6e6c:	44 23       	and	r20, r20
    6e6e:	59 f0       	breq	.+22     	; 0x6e86 <_ZN3twi7AddressEhh+0x1c>
    6e70:	18 96       	adiw	r26, 0x08	; 8
    6e72:	ed 91       	ld	r30, X+
    6e74:	fc 91       	ld	r31, X
    6e76:	19 97       	sbiw	r26, 0x09	; 9
    6e78:	61 60       	ori	r22, 0x01	; 1
    6e7a:	66 83       	std	Z+6, r22	; 0x06
    6e7c:	18 96       	adiw	r26, 0x08	; 8
    6e7e:	ed 91       	ld	r30, X+
    6e80:	fc 91       	ld	r31, X
    6e82:	19 97       	sbiw	r26, 0x09	; 9
    6e84:	07 c0       	rjmp	.+14     	; 0x6e94 <_ZN3twi7AddressEhh+0x2a>
    6e86:	18 96       	adiw	r26, 0x08	; 8
    6e88:	ed 91       	ld	r30, X+
    6e8a:	fc 91       	ld	r31, X
    6e8c:	19 97       	sbiw	r26, 0x09	; 9
    6e8e:	6e 7f       	andi	r22, 0xFE	; 254
    6e90:	66 83       	std	Z+6, r22	; 0x06
    6e92:	f4 cf       	rjmp	.-24     	; 0x6e7c <_ZN3twi7AddressEhh+0x12>
    6e94:	94 81       	ldd	r25, Z+4	; 0x04
    6e96:	90 7c       	andi	r25, 0xC0	; 192
    6e98:	e9 f3       	breq	.-6      	; 0x6e94 <_ZN3twi7AddressEhh+0x2a>
    6e9a:	94 81       	ldd	r25, Z+4	; 0x04
    6e9c:	89 2f       	mov	r24, r25
    6e9e:	80 71       	andi	r24, 0x10	; 16
    6ea0:	94 ff       	sbrs	r25, 4
    6ea2:	10 c0       	rjmp	.+32     	; 0x6ec4 <_ZN3twi7AddressEhh+0x5a>
    6ea4:	84 81       	ldd	r24, Z+4	; 0x04
    6ea6:	80 64       	ori	r24, 0x40	; 64
    6ea8:	84 83       	std	Z+4, r24	; 0x04
    6eaa:	18 96       	adiw	r26, 0x08	; 8
    6eac:	ed 91       	ld	r30, X+
    6eae:	fc 91       	ld	r31, X
    6eb0:	19 97       	sbiw	r26, 0x09	; 9
    6eb2:	84 81       	ldd	r24, Z+4	; 0x04
    6eb4:	80 68       	ori	r24, 0x80	; 128
    6eb6:	84 83       	std	Z+4, r24	; 0x04
    6eb8:	18 96       	adiw	r26, 0x08	; 8
    6eba:	ed 91       	ld	r30, X+
    6ebc:	fc 91       	ld	r31, X
    6ebe:	19 97       	sbiw	r26, 0x09	; 9
    6ec0:	81 e0       	ldi	r24, 0x01	; 1
    6ec2:	84 83       	std	Z+4, r24	; 0x04
    6ec4:	08 95       	ret

00006ec6 <_ZN3twi11WriteSingleEi>:
    6ec6:	cf 93       	push	r28
    6ec8:	df 93       	push	r29
    6eca:	ec 01       	movw	r28, r24
    6ecc:	e8 85       	ldd	r30, Y+8	; 0x08
    6ece:	f9 85       	ldd	r31, Y+9	; 0x09
    6ed0:	67 83       	std	Z+7, r22	; 0x07
    6ed2:	e8 85       	ldd	r30, Y+8	; 0x08
    6ed4:	f9 85       	ldd	r31, Y+9	; 0x09
    6ed6:	84 81       	ldd	r24, Z+4	; 0x04
    6ed8:	8c 7f       	andi	r24, 0xFC	; 252
    6eda:	e9 f3       	breq	.-6      	; 0x6ed6 <_ZN3twi11WriteSingleEi+0x10>
    6edc:	ce 01       	movw	r24, r28
    6ede:	0e 94 1e 37 	call	0x6e3c	; 0x6e3c <_ZN3twi10errorCheckEv>
    6ee2:	e8 85       	ldd	r30, Y+8	; 0x08
    6ee4:	f9 85       	ldd	r31, Y+9	; 0x09
    6ee6:	94 81       	ldd	r25, Z+4	; 0x04
    6ee8:	89 2f       	mov	r24, r25
    6eea:	80 71       	andi	r24, 0x10	; 16
    6eec:	94 ff       	sbrs	r25, 4
    6eee:	0c c0       	rjmp	.+24     	; 0x6f08 <_ZN3twi11WriteSingleEi+0x42>
    6ef0:	84 81       	ldd	r24, Z+4	; 0x04
    6ef2:	80 64       	ori	r24, 0x40	; 64
    6ef4:	84 83       	std	Z+4, r24	; 0x04
    6ef6:	e8 85       	ldd	r30, Y+8	; 0x08
    6ef8:	f9 85       	ldd	r31, Y+9	; 0x09
    6efa:	84 81       	ldd	r24, Z+4	; 0x04
    6efc:	80 68       	ori	r24, 0x80	; 128
    6efe:	84 83       	std	Z+4, r24	; 0x04
    6f00:	e8 85       	ldd	r30, Y+8	; 0x08
    6f02:	f9 85       	ldd	r31, Y+9	; 0x09
    6f04:	81 e0       	ldi	r24, 0x01	; 1
    6f06:	84 83       	std	Z+4, r24	; 0x04
    6f08:	df 91       	pop	r29
    6f0a:	cf 91       	pop	r28
    6f0c:	08 95       	ret

00006f0e <_ZN3twi4StopEv>:

void twi::Stop(void)
{
    6f0e:	cf 93       	push	r28
    6f10:	df 93       	push	r29
    6f12:	ec 01       	movw	r28, r24
	while(!(port->MASTER.STATUS&0xfc));
    6f14:	e8 85       	ldd	r30, Y+8	; 0x08
    6f16:	f9 85       	ldd	r31, Y+9	; 0x09
    6f18:	84 81       	ldd	r24, Z+4	; 0x04
    6f1a:	8c 7f       	andi	r24, 0xFC	; 252
    6f1c:	e9 f3       	breq	.-6      	; 0x6f18 <_ZN3twi4StopEv+0xa>

	errorCheck();
    6f1e:	ce 01       	movw	r24, r28
    6f20:	0e 94 1e 37 	call	0x6e3c	; 0x6e3c <_ZN3twi10errorCheckEv>

	port->MASTER.CTRLC=TWI_MASTER_CMD_STOP_gc;
    6f24:	e8 85       	ldd	r30, Y+8	; 0x08
    6f26:	f9 85       	ldd	r31, Y+9	; 0x09
    6f28:	83 e0       	ldi	r24, 0x03	; 3
    6f2a:	83 83       	std	Z+3, r24	; 0x03
	return;
}
    6f2c:	df 91       	pop	r29
    6f2e:	cf 91       	pop	r28
    6f30:	08 95       	ret

00006f32 <_ZN5usartC1EP12USART_structP11PORT_struct>:
 *  Author: shun2
 */ 

#include "xmega_usart.hpp"

usart::usart(USART_t *portt,PORT_t *portg){
    6f32:	fc 01       	movw	r30, r24
	gport=portg;
    6f34:	40 83       	st	Z, r20
    6f36:	51 83       	std	Z+1, r21	; 0x01
	uport=portt;
    6f38:	62 83       	std	Z+2, r22	; 0x02
    6f3a:	73 83       	std	Z+3, r23	; 0x03
	gport->DIRSET=PIN3_bm;
    6f3c:	88 e0       	ldi	r24, 0x08	; 8
    6f3e:	da 01       	movw	r26, r20
    6f40:	11 96       	adiw	r26, 0x01	; 1
    6f42:	8c 93       	st	X, r24
	gport->DIRCLR=PIN2_bm;
    6f44:	a0 81       	ld	r26, Z
    6f46:	b1 81       	ldd	r27, Z+1	; 0x01
    6f48:	84 e0       	ldi	r24, 0x04	; 4
    6f4a:	12 96       	adiw	r26, 0x02	; 2
    6f4c:	8c 93       	st	X, r24
	uport->BAUDCTRLA = 51;
    6f4e:	a2 81       	ldd	r26, Z+2	; 0x02
    6f50:	b3 81       	ldd	r27, Z+3	; 0x03
    6f52:	83 e3       	ldi	r24, 0x33	; 51
    6f54:	16 96       	adiw	r26, 0x06	; 6
    6f56:	8c 93       	st	X, r24
	uport->BAUDCTRLB = 0x00;
    6f58:	a2 81       	ldd	r26, Z+2	; 0x02
    6f5a:	b3 81       	ldd	r27, Z+3	; 0x03
    6f5c:	17 96       	adiw	r26, 0x07	; 7
    6f5e:	1c 92       	st	X, r1
	uport->CTRLC = USART_CHSIZE_8BIT_gc;
    6f60:	a2 81       	ldd	r26, Z+2	; 0x02
    6f62:	b3 81       	ldd	r27, Z+3	; 0x03
    6f64:	83 e0       	ldi	r24, 0x03	; 3
    6f66:	15 96       	adiw	r26, 0x05	; 5
    6f68:	8c 93       	st	X, r24
	uport->CTRLB = USART_RXEN_bm | USART_TXEN_bm;
    6f6a:	02 80       	ldd	r0, Z+2	; 0x02
    6f6c:	f3 81       	ldd	r31, Z+3	; 0x03
    6f6e:	e0 2d       	mov	r30, r0
    6f70:	88 e1       	ldi	r24, 0x18	; 24
    6f72:	84 83       	std	Z+4, r24	; 0x04
    6f74:	08 95       	ret

00006f76 <_ZN5usart4sendEc>:
	return;
}

void usart::send(char c){
	while( !(uport->STATUS& USART_DREIF_bm) ); //Wait until DATA buffer is empty
    6f76:	dc 01       	movw	r26, r24
    6f78:	12 96       	adiw	r26, 0x02	; 2
    6f7a:	ed 91       	ld	r30, X+
    6f7c:	fc 91       	ld	r31, X
    6f7e:	13 97       	sbiw	r26, 0x03	; 3
    6f80:	81 81       	ldd	r24, Z+1	; 0x01
    6f82:	85 ff       	sbrs	r24, 5
    6f84:	fd cf       	rjmp	.-6      	; 0x6f80 <_ZN5usart4sendEc+0xa>
	uport->DATA = c;
    6f86:	60 83       	st	Z, r22
    6f88:	08 95       	ret

00006f8a <_ZN5usart6stringEPKc>:
	return;
}
void usart::string(const char *text)//?E???E
{
    6f8a:	0f 93       	push	r16
    6f8c:	1f 93       	push	r17
    6f8e:	cf 93       	push	r28
    6f90:	df 93       	push	r29
    6f92:	eb 01       	movw	r28, r22
	if(SWITCH_USART== true){
		while(*text){
    6f94:	68 81       	ld	r22, Y
    6f96:	66 23       	and	r22, r22
    6f98:	41 f0       	breq	.+16     	; 0x6faa <_ZN5usart6stringEPKc+0x20>
    6f9a:	8c 01       	movw	r16, r24
    6f9c:	21 96       	adiw	r28, 0x01	; 1
			usart::send(*text++);
    6f9e:	c8 01       	movw	r24, r16
    6fa0:	0e 94 bb 37 	call	0x6f76	; 0x6f76 <_ZN5usart4sendEc>
	return;
}
void usart::string(const char *text)//?E???E
{
	if(SWITCH_USART== true){
		while(*text){
    6fa4:	69 91       	ld	r22, Y+
    6fa6:	61 11       	cpse	r22, r1
    6fa8:	fa cf       	rjmp	.-12     	; 0x6f9e <_ZN5usart6stringEPKc+0x14>
		}
		}else{
		//no action
	}
	return;
}
    6faa:	df 91       	pop	r29
    6fac:	cf 91       	pop	r28
    6fae:	1f 91       	pop	r17
    6fb0:	0f 91       	pop	r16
    6fb2:	08 95       	ret

00006fb4 <_ZN5usart6putdecEj>:
void usart::putdec(uint16_t data){//4
    6fb4:	ef 92       	push	r14
    6fb6:	ff 92       	push	r15
    6fb8:	0f 93       	push	r16
    6fba:	1f 93       	push	r17
    6fbc:	cf 93       	push	r28
    6fbe:	df 93       	push	r29
    6fc0:	7c 01       	movw	r14, r24
    6fc2:	eb 01       	movw	r28, r22
	if(SWITCH_USART==true){
		usart::send(data/1000 + '0');
    6fc4:	9b 01       	movw	r18, r22
    6fc6:	36 95       	lsr	r19
    6fc8:	27 95       	ror	r18
    6fca:	36 95       	lsr	r19
    6fcc:	27 95       	ror	r18
    6fce:	36 95       	lsr	r19
    6fd0:	27 95       	ror	r18
    6fd2:	a5 ec       	ldi	r26, 0xC5	; 197
    6fd4:	b0 e2       	ldi	r27, 0x20	; 32
    6fd6:	0e 94 91 38 	call	0x7122	; 0x7122 <__umulhisi3>
    6fda:	8c 01       	movw	r16, r24
    6fdc:	12 95       	swap	r17
    6fde:	02 95       	swap	r16
    6fe0:	0f 70       	andi	r16, 0x0F	; 15
    6fe2:	01 27       	eor	r16, r17
    6fe4:	1f 70       	andi	r17, 0x0F	; 15
    6fe6:	01 27       	eor	r16, r17
    6fe8:	60 e3       	ldi	r22, 0x30	; 48
    6fea:	60 0f       	add	r22, r16
    6fec:	c7 01       	movw	r24, r14
    6fee:	0e 94 bb 37 	call	0x6f76	; 0x6f76 <_ZN5usart4sendEc>
		data %= 1000;
    6ff2:	28 ee       	ldi	r18, 0xE8	; 232
    6ff4:	33 e0       	ldi	r19, 0x03	; 3
    6ff6:	02 9f       	mul	r16, r18
    6ff8:	c0 01       	movw	r24, r0
    6ffa:	03 9f       	mul	r16, r19
    6ffc:	90 0d       	add	r25, r0
    6ffe:	12 9f       	mul	r17, r18
    7000:	90 0d       	add	r25, r0
    7002:	11 24       	eor	r1, r1
    7004:	c8 1b       	sub	r28, r24
    7006:	d9 0b       	sbc	r29, r25
		usart::send(data/100 + '0');
    7008:	9e 01       	movw	r18, r28
    700a:	36 95       	lsr	r19
    700c:	27 95       	ror	r18
    700e:	36 95       	lsr	r19
    7010:	27 95       	ror	r18
    7012:	ab e7       	ldi	r26, 0x7B	; 123
    7014:	b4 e1       	ldi	r27, 0x14	; 20
    7016:	0e 94 91 38 	call	0x7122	; 0x7122 <__umulhisi3>
    701a:	8c 01       	movw	r16, r24
    701c:	16 95       	lsr	r17
    701e:	07 95       	ror	r16
    7020:	60 e3       	ldi	r22, 0x30	; 48
    7022:	60 0f       	add	r22, r16
    7024:	c7 01       	movw	r24, r14
    7026:	0e 94 bb 37 	call	0x6f76	; 0x6f76 <_ZN5usart4sendEc>
		data %= 100;
    702a:	24 e6       	ldi	r18, 0x64	; 100
    702c:	20 9f       	mul	r18, r16
    702e:	c0 01       	movw	r24, r0
    7030:	21 9f       	mul	r18, r17
    7032:	90 0d       	add	r25, r0
    7034:	11 24       	eor	r1, r1
    7036:	c8 1b       	sub	r28, r24
    7038:	d9 0b       	sbc	r29, r25
		usart::send(data/10 + '0');
    703a:	9e 01       	movw	r18, r28
    703c:	ad ec       	ldi	r26, 0xCD	; 205
    703e:	bc ec       	ldi	r27, 0xCC	; 204
    7040:	0e 94 91 38 	call	0x7122	; 0x7122 <__umulhisi3>
    7044:	8c 01       	movw	r16, r24
    7046:	16 95       	lsr	r17
    7048:	07 95       	ror	r16
    704a:	16 95       	lsr	r17
    704c:	07 95       	ror	r16
    704e:	16 95       	lsr	r17
    7050:	07 95       	ror	r16
    7052:	60 e3       	ldi	r22, 0x30	; 48
    7054:	60 0f       	add	r22, r16
    7056:	c7 01       	movw	r24, r14
    7058:	0e 94 bb 37 	call	0x6f76	; 0x6f76 <_ZN5usart4sendEc>
		data %= 10;
		usart::send(data + '0');
    705c:	c8 01       	movw	r24, r16
    705e:	88 0f       	add	r24, r24
    7060:	99 1f       	adc	r25, r25
    7062:	00 0f       	add	r16, r16
    7064:	11 1f       	adc	r17, r17
    7066:	00 0f       	add	r16, r16
    7068:	11 1f       	adc	r17, r17
    706a:	00 0f       	add	r16, r16
    706c:	11 1f       	adc	r17, r17
    706e:	08 0f       	add	r16, r24
    7070:	19 1f       	adc	r17, r25
    7072:	c0 1b       	sub	r28, r16
    7074:	d1 0b       	sbc	r29, r17
    7076:	6c 2f       	mov	r22, r28
    7078:	60 5d       	subi	r22, 0xD0	; 208
    707a:	c7 01       	movw	r24, r14
    707c:	0e 94 bb 37 	call	0x6f76	; 0x6f76 <_ZN5usart4sendEc>
		}else{
		//no aciton
	}
	return;
}
    7080:	df 91       	pop	r29
    7082:	cf 91       	pop	r28
    7084:	1f 91       	pop	r17
    7086:	0f 91       	pop	r16
    7088:	ff 90       	pop	r15
    708a:	ef 90       	pop	r14
    708c:	08 95       	ret

0000708e <__udivmodsi4>:
    708e:	a1 e2       	ldi	r26, 0x21	; 33
    7090:	1a 2e       	mov	r1, r26
    7092:	aa 1b       	sub	r26, r26
    7094:	bb 1b       	sub	r27, r27
    7096:	fd 01       	movw	r30, r26
    7098:	0d c0       	rjmp	.+26     	; 0x70b4 <__udivmodsi4_ep>

0000709a <__udivmodsi4_loop>:
    709a:	aa 1f       	adc	r26, r26
    709c:	bb 1f       	adc	r27, r27
    709e:	ee 1f       	adc	r30, r30
    70a0:	ff 1f       	adc	r31, r31
    70a2:	a2 17       	cp	r26, r18
    70a4:	b3 07       	cpc	r27, r19
    70a6:	e4 07       	cpc	r30, r20
    70a8:	f5 07       	cpc	r31, r21
    70aa:	20 f0       	brcs	.+8      	; 0x70b4 <__udivmodsi4_ep>
    70ac:	a2 1b       	sub	r26, r18
    70ae:	b3 0b       	sbc	r27, r19
    70b0:	e4 0b       	sbc	r30, r20
    70b2:	f5 0b       	sbc	r31, r21

000070b4 <__udivmodsi4_ep>:
    70b4:	66 1f       	adc	r22, r22
    70b6:	77 1f       	adc	r23, r23
    70b8:	88 1f       	adc	r24, r24
    70ba:	99 1f       	adc	r25, r25
    70bc:	1a 94       	dec	r1
    70be:	69 f7       	brne	.-38     	; 0x709a <__udivmodsi4_loop>
    70c0:	60 95       	com	r22
    70c2:	70 95       	com	r23
    70c4:	80 95       	com	r24
    70c6:	90 95       	com	r25
    70c8:	9b 01       	movw	r18, r22
    70ca:	ac 01       	movw	r20, r24
    70cc:	bd 01       	movw	r22, r26
    70ce:	cf 01       	movw	r24, r30
    70d0:	08 95       	ret

000070d2 <__divmodsi4>:
    70d2:	05 2e       	mov	r0, r21
    70d4:	97 fb       	bst	r25, 7
    70d6:	1e f4       	brtc	.+6      	; 0x70de <__divmodsi4+0xc>
    70d8:	00 94       	com	r0
    70da:	0e 94 80 38 	call	0x7100	; 0x7100 <__negsi2>
    70de:	57 fd       	sbrc	r21, 7
    70e0:	07 d0       	rcall	.+14     	; 0x70f0 <__divmodsi4_neg2>
    70e2:	0e 94 47 38 	call	0x708e	; 0x708e <__udivmodsi4>
    70e6:	07 fc       	sbrc	r0, 7
    70e8:	03 d0       	rcall	.+6      	; 0x70f0 <__divmodsi4_neg2>
    70ea:	4e f4       	brtc	.+18     	; 0x70fe <__divmodsi4_exit>
    70ec:	0c 94 80 38 	jmp	0x7100	; 0x7100 <__negsi2>

000070f0 <__divmodsi4_neg2>:
    70f0:	50 95       	com	r21
    70f2:	40 95       	com	r20
    70f4:	30 95       	com	r19
    70f6:	21 95       	neg	r18
    70f8:	3f 4f       	sbci	r19, 0xFF	; 255
    70fa:	4f 4f       	sbci	r20, 0xFF	; 255
    70fc:	5f 4f       	sbci	r21, 0xFF	; 255

000070fe <__divmodsi4_exit>:
    70fe:	08 95       	ret

00007100 <__negsi2>:
    7100:	90 95       	com	r25
    7102:	80 95       	com	r24
    7104:	70 95       	com	r23
    7106:	61 95       	neg	r22
    7108:	7f 4f       	sbci	r23, 0xFF	; 255
    710a:	8f 4f       	sbci	r24, 0xFF	; 255
    710c:	9f 4f       	sbci	r25, 0xFF	; 255
    710e:	08 95       	ret

00007110 <__tablejump2__>:
    7110:	ee 0f       	add	r30, r30
    7112:	ff 1f       	adc	r31, r31
    7114:	88 1f       	adc	r24, r24
    7116:	8b bf       	out	0x3b, r24	; 59
    7118:	07 90       	elpm	r0, Z+
    711a:	f6 91       	elpm	r31, Z
    711c:	e0 2d       	mov	r30, r0
    711e:	1b be       	out	0x3b, r1	; 59
    7120:	19 94       	eijmp

00007122 <__umulhisi3>:
    7122:	a2 9f       	mul	r26, r18
    7124:	b0 01       	movw	r22, r0
    7126:	b3 9f       	mul	r27, r19
    7128:	c0 01       	movw	r24, r0
    712a:	a3 9f       	mul	r26, r19
    712c:	70 0d       	add	r23, r0
    712e:	81 1d       	adc	r24, r1
    7130:	11 24       	eor	r1, r1
    7132:	91 1d       	adc	r25, r1
    7134:	b2 9f       	mul	r27, r18
    7136:	70 0d       	add	r23, r0
    7138:	81 1d       	adc	r24, r1
    713a:	11 24       	eor	r1, r1
    713c:	91 1d       	adc	r25, r1
    713e:	08 95       	ret

00007140 <_exit>:
    7140:	f8 94       	cli

00007142 <__stop_program>:
    7142:	ff cf       	rjmp	.-2      	; 0x7142 <__stop_program>
