
Aquila.elf:     file format elf32-avr

Sections:
Idx Name          Size      VMA       LMA       File off  Algn
  0 .text         000010e2  00000000  00000000  000000b4  2**1
                  CONTENTS, ALLOC, LOAD, READONLY, CODE
  1 .data         0000000e  00802000  000010e2  00001196  2**0
                  CONTENTS, ALLOC, LOAD, DATA
  2 .bss          0000185a  0080200e  0080200e  000011a4  2**0
                  ALLOC
  3 .eeprom       00000002  00810000  00810000  000011a4  2**0
                  CONTENTS, ALLOC, LOAD, DATA
  4 .comment      00000030  00000000  00000000  000011a6  2**0
                  CONTENTS, READONLY
  5 .note.gnu.avr.deviceinfo 00000040  00000000  00000000  000011d8  2**2
                  CONTENTS, READONLY
  6 .debug_aranges 000003c8  00000000  00000000  00001218  2**0
                  CONTENTS, READONLY, DEBUGGING
  7 .debug_info   0001c60a  00000000  00000000  000015e0  2**0
                  CONTENTS, READONLY, DEBUGGING
  8 .debug_abbrev 000056c6  00000000  00000000  0001dbea  2**0
                  CONTENTS, READONLY, DEBUGGING
  9 .debug_line   0000613c  00000000  00000000  000232b0  2**0
                  CONTENTS, READONLY, DEBUGGING
 10 .debug_frame  00000c64  00000000  00000000  000293ec  2**2
                  CONTENTS, READONLY, DEBUGGING
 11 .debug_str    0000449b  00000000  00000000  0002a050  2**0
                  CONTENTS, READONLY, DEBUGGING
 12 .debug_loc    0000cc5b  00000000  00000000  0002e4eb  2**0
                  CONTENTS, READONLY, DEBUGGING
 13 .debug_ranges 00000480  00000000  00000000  0003b146  2**0
                  CONTENTS, READONLY, DEBUGGING

Disassembly of section .text:

00000000 <__vectors>:
       0:	0c 94 07 01 	jmp	0x20e	; 0x20e <__ctors_end>
       4:	0c 94 3d 01 	jmp	0x27a	; 0x27a <__bad_interrupt>
       8:	0c 94 3d 01 	jmp	0x27a	; 0x27a <__bad_interrupt>
       c:	0c 94 3d 01 	jmp	0x27a	; 0x27a <__bad_interrupt>
      10:	0c 94 3d 01 	jmp	0x27a	; 0x27a <__bad_interrupt>
      14:	0c 94 3d 01 	jmp	0x27a	; 0x27a <__bad_interrupt>
      18:	0c 94 3d 01 	jmp	0x27a	; 0x27a <__bad_interrupt>
      1c:	0c 94 3d 01 	jmp	0x27a	; 0x27a <__bad_interrupt>
      20:	0c 94 3d 01 	jmp	0x27a	; 0x27a <__bad_interrupt>
      24:	0c 94 3d 01 	jmp	0x27a	; 0x27a <__bad_interrupt>
      28:	0c 94 3d 01 	jmp	0x27a	; 0x27a <__bad_interrupt>
      2c:	0c 94 3d 01 	jmp	0x27a	; 0x27a <__bad_interrupt>
      30:	0c 94 3d 01 	jmp	0x27a	; 0x27a <__bad_interrupt>
      34:	0c 94 3d 01 	jmp	0x27a	; 0x27a <__bad_interrupt>
      38:	0c 94 3d 01 	jmp	0x27a	; 0x27a <__bad_interrupt>
      3c:	0c 94 3d 01 	jmp	0x27a	; 0x27a <__bad_interrupt>
      40:	0c 94 3d 01 	jmp	0x27a	; 0x27a <__bad_interrupt>
      44:	0c 94 3d 01 	jmp	0x27a	; 0x27a <__bad_interrupt>
      48:	0c 94 3d 01 	jmp	0x27a	; 0x27a <__bad_interrupt>
      4c:	0c 94 3d 01 	jmp	0x27a	; 0x27a <__bad_interrupt>
      50:	0c 94 3d 01 	jmp	0x27a	; 0x27a <__bad_interrupt>
      54:	0c 94 3d 01 	jmp	0x27a	; 0x27a <__bad_interrupt>
      58:	0c 94 3d 01 	jmp	0x27a	; 0x27a <__bad_interrupt>
      5c:	0c 94 3d 01 	jmp	0x27a	; 0x27a <__bad_interrupt>
      60:	0c 94 3d 01 	jmp	0x27a	; 0x27a <__bad_interrupt>
      64:	0c 94 3d 01 	jmp	0x27a	; 0x27a <__bad_interrupt>
      68:	0c 94 3d 01 	jmp	0x27a	; 0x27a <__bad_interrupt>
      6c:	0c 94 3d 01 	jmp	0x27a	; 0x27a <__bad_interrupt>
      70:	0c 94 3d 01 	jmp	0x27a	; 0x27a <__bad_interrupt>
      74:	0c 94 3d 01 	jmp	0x27a	; 0x27a <__bad_interrupt>
      78:	0c 94 3d 01 	jmp	0x27a	; 0x27a <__bad_interrupt>
      7c:	0c 94 3d 01 	jmp	0x27a	; 0x27a <__bad_interrupt>
      80:	0c 94 3d 01 	jmp	0x27a	; 0x27a <__bad_interrupt>
      84:	0c 94 3d 01 	jmp	0x27a	; 0x27a <__bad_interrupt>
      88:	0c 94 3d 01 	jmp	0x27a	; 0x27a <__bad_interrupt>
      8c:	0c 94 3d 01 	jmp	0x27a	; 0x27a <__bad_interrupt>
      90:	0c 94 3d 01 	jmp	0x27a	; 0x27a <__bad_interrupt>
      94:	0c 94 3d 01 	jmp	0x27a	; 0x27a <__bad_interrupt>
      98:	0c 94 3d 01 	jmp	0x27a	; 0x27a <__bad_interrupt>
      9c:	0c 94 3d 01 	jmp	0x27a	; 0x27a <__bad_interrupt>
      a0:	0c 94 3d 01 	jmp	0x27a	; 0x27a <__bad_interrupt>
      a4:	0c 94 3d 01 	jmp	0x27a	; 0x27a <__bad_interrupt>
      a8:	0c 94 3d 01 	jmp	0x27a	; 0x27a <__bad_interrupt>
      ac:	0c 94 3d 01 	jmp	0x27a	; 0x27a <__bad_interrupt>
      b0:	0c 94 3d 01 	jmp	0x27a	; 0x27a <__bad_interrupt>
      b4:	0c 94 3d 01 	jmp	0x27a	; 0x27a <__bad_interrupt>
      b8:	0c 94 3d 01 	jmp	0x27a	; 0x27a <__bad_interrupt>
      bc:	0c 94 3d 01 	jmp	0x27a	; 0x27a <__bad_interrupt>
      c0:	0c 94 3d 01 	jmp	0x27a	; 0x27a <__bad_interrupt>
      c4:	0c 94 3d 01 	jmp	0x27a	; 0x27a <__bad_interrupt>
      c8:	0c 94 3d 01 	jmp	0x27a	; 0x27a <__bad_interrupt>
      cc:	0c 94 3d 01 	jmp	0x27a	; 0x27a <__bad_interrupt>
      d0:	0c 94 3d 01 	jmp	0x27a	; 0x27a <__bad_interrupt>
      d4:	0c 94 3d 01 	jmp	0x27a	; 0x27a <__bad_interrupt>
      d8:	0c 94 3d 01 	jmp	0x27a	; 0x27a <__bad_interrupt>
      dc:	0c 94 3d 01 	jmp	0x27a	; 0x27a <__bad_interrupt>
      e0:	0c 94 3d 01 	jmp	0x27a	; 0x27a <__bad_interrupt>
      e4:	0c 94 3d 01 	jmp	0x27a	; 0x27a <__bad_interrupt>
      e8:	0c 94 3d 01 	jmp	0x27a	; 0x27a <__bad_interrupt>
      ec:	0c 94 3d 01 	jmp	0x27a	; 0x27a <__bad_interrupt>
      f0:	0c 94 3d 01 	jmp	0x27a	; 0x27a <__bad_interrupt>
      f4:	0c 94 3d 01 	jmp	0x27a	; 0x27a <__bad_interrupt>
      f8:	0c 94 3d 01 	jmp	0x27a	; 0x27a <__bad_interrupt>
      fc:	0c 94 3d 01 	jmp	0x27a	; 0x27a <__bad_interrupt>
     100:	0c 94 3d 01 	jmp	0x27a	; 0x27a <__bad_interrupt>
     104:	0c 94 3d 01 	jmp	0x27a	; 0x27a <__bad_interrupt>
     108:	0c 94 3d 01 	jmp	0x27a	; 0x27a <__bad_interrupt>
     10c:	0c 94 3d 01 	jmp	0x27a	; 0x27a <__bad_interrupt>
     110:	0c 94 3d 01 	jmp	0x27a	; 0x27a <__bad_interrupt>
     114:	0c 94 3d 01 	jmp	0x27a	; 0x27a <__bad_interrupt>
     118:	0c 94 3d 01 	jmp	0x27a	; 0x27a <__bad_interrupt>
     11c:	0c 94 3d 01 	jmp	0x27a	; 0x27a <__bad_interrupt>
     120:	0c 94 3d 01 	jmp	0x27a	; 0x27a <__bad_interrupt>
     124:	0c 94 3d 01 	jmp	0x27a	; 0x27a <__bad_interrupt>
     128:	0c 94 3d 01 	jmp	0x27a	; 0x27a <__bad_interrupt>
     12c:	0c 94 3d 01 	jmp	0x27a	; 0x27a <__bad_interrupt>
     130:	0c 94 3d 01 	jmp	0x27a	; 0x27a <__bad_interrupt>
     134:	0c 94 aa 06 	jmp	0xd54	; 0xd54 <__vector_77>
     138:	0c 94 3d 01 	jmp	0x27a	; 0x27a <__bad_interrupt>
     13c:	0c 94 3d 01 	jmp	0x27a	; 0x27a <__bad_interrupt>
     140:	0c 94 3d 01 	jmp	0x27a	; 0x27a <__bad_interrupt>
     144:	0c 94 3d 01 	jmp	0x27a	; 0x27a <__bad_interrupt>
     148:	0c 94 3d 01 	jmp	0x27a	; 0x27a <__bad_interrupt>
     14c:	0c 94 3d 01 	jmp	0x27a	; 0x27a <__bad_interrupt>
     150:	0c 94 3d 01 	jmp	0x27a	; 0x27a <__bad_interrupt>
     154:	0c 94 3d 01 	jmp	0x27a	; 0x27a <__bad_interrupt>
     158:	0c 94 3d 01 	jmp	0x27a	; 0x27a <__bad_interrupt>
     15c:	0c 94 3d 01 	jmp	0x27a	; 0x27a <__bad_interrupt>
     160:	0c 94 3d 01 	jmp	0x27a	; 0x27a <__bad_interrupt>
     164:	0c 94 3d 01 	jmp	0x27a	; 0x27a <__bad_interrupt>
     168:	0c 94 3d 01 	jmp	0x27a	; 0x27a <__bad_interrupt>
     16c:	0c 94 3d 01 	jmp	0x27a	; 0x27a <__bad_interrupt>
     170:	0c 94 3d 01 	jmp	0x27a	; 0x27a <__bad_interrupt>
     174:	0c 94 3d 01 	jmp	0x27a	; 0x27a <__bad_interrupt>
     178:	0c 94 3d 01 	jmp	0x27a	; 0x27a <__bad_interrupt>
     17c:	0c 94 3d 01 	jmp	0x27a	; 0x27a <__bad_interrupt>
     180:	0c 94 3d 01 	jmp	0x27a	; 0x27a <__bad_interrupt>
     184:	0c 94 3d 01 	jmp	0x27a	; 0x27a <__bad_interrupt>
     188:	0c 94 3d 01 	jmp	0x27a	; 0x27a <__bad_interrupt>
     18c:	0c 94 3d 01 	jmp	0x27a	; 0x27a <__bad_interrupt>
     190:	0c 94 3d 01 	jmp	0x27a	; 0x27a <__bad_interrupt>
     194:	0c 94 3d 01 	jmp	0x27a	; 0x27a <__bad_interrupt>
     198:	0c 94 3d 01 	jmp	0x27a	; 0x27a <__bad_interrupt>
     19c:	0c 94 3d 01 	jmp	0x27a	; 0x27a <__bad_interrupt>
     1a0:	0c 94 3d 01 	jmp	0x27a	; 0x27a <__bad_interrupt>
     1a4:	0c 94 3d 01 	jmp	0x27a	; 0x27a <__bad_interrupt>
     1a8:	0c 94 3d 01 	jmp	0x27a	; 0x27a <__bad_interrupt>
     1ac:	0c 94 3d 01 	jmp	0x27a	; 0x27a <__bad_interrupt>
     1b0:	0c 94 3d 01 	jmp	0x27a	; 0x27a <__bad_interrupt>
     1b4:	0c 94 3d 01 	jmp	0x27a	; 0x27a <__bad_interrupt>
     1b8:	0c 94 3d 01 	jmp	0x27a	; 0x27a <__bad_interrupt>
     1bc:	0c 94 3d 01 	jmp	0x27a	; 0x27a <__bad_interrupt>
     1c0:	0c 94 3d 01 	jmp	0x27a	; 0x27a <__bad_interrupt>
     1c4:	0c 94 3d 01 	jmp	0x27a	; 0x27a <__bad_interrupt>
     1c8:	0c 94 3d 01 	jmp	0x27a	; 0x27a <__bad_interrupt>
     1cc:	0c 94 3d 01 	jmp	0x27a	; 0x27a <__bad_interrupt>
     1d0:	0c 94 3d 01 	jmp	0x27a	; 0x27a <__bad_interrupt>
     1d4:	0c 94 3d 01 	jmp	0x27a	; 0x27a <__bad_interrupt>
     1d8:	0c 94 3d 01 	jmp	0x27a	; 0x27a <__bad_interrupt>
     1dc:	0c 94 3d 01 	jmp	0x27a	; 0x27a <__bad_interrupt>
     1e0:	0c 94 3d 01 	jmp	0x27a	; 0x27a <__bad_interrupt>
     1e4:	0c 94 3d 01 	jmp	0x27a	; 0x27a <__bad_interrupt>
     1e8:	0c 94 3d 01 	jmp	0x27a	; 0x27a <__bad_interrupt>
     1ec:	0c 94 3d 01 	jmp	0x27a	; 0x27a <__bad_interrupt>
     1f0:	0c 94 3d 01 	jmp	0x27a	; 0x27a <__bad_interrupt>
     1f4:	0c 94 3d 01 	jmp	0x27a	; 0x27a <__bad_interrupt>
     1f8:	0c 94 3d 01 	jmp	0x27a	; 0x27a <__bad_interrupt>

000001fc <__trampolines_start>:
     1fc:	0c 94 6e 06 	jmp	0xcdc	; 0xcdc <_GLOBAL__sub_I_motor_spi>
     200:	0c 94 a0 06 	jmp	0xd40	; 0xd40 <_GLOBAL__sub_I_mv>
     204:	0c 94 5d 01 	jmp	0x2ba	; 0x2ba <_GLOBAL__sub_I_mall>

00000208 <__ctors_start>:
     208:	5d 01       	movw	r10, r26
     20a:	6e 06       	cpc	r6, r30
     20c:	a0 06       	cpc	r10, r16

0000020e <__ctors_end>:
     20e:	11 24       	eor	r1, r1
     210:	1f be       	out	0x3f, r1	; 63
     212:	cf ef       	ldi	r28, 0xFF	; 255
     214:	cd bf       	out	0x3d, r28	; 61
     216:	df e3       	ldi	r29, 0x3F	; 63
     218:	de bf       	out	0x3e, r29	; 62
     21a:	00 e0       	ldi	r16, 0x00	; 0
     21c:	0c bf       	out	0x3c, r16	; 60
     21e:	18 be       	out	0x38, r1	; 56
     220:	19 be       	out	0x39, r1	; 57
     222:	1a be       	out	0x3a, r1	; 58
     224:	1b be       	out	0x3b, r1	; 59

00000226 <__do_copy_data>:
     226:	10 e2       	ldi	r17, 0x20	; 32
     228:	a0 e0       	ldi	r26, 0x00	; 0
     22a:	b0 e2       	ldi	r27, 0x20	; 32
     22c:	e2 ee       	ldi	r30, 0xE2	; 226
     22e:	f0 e1       	ldi	r31, 0x10	; 16
     230:	00 e0       	ldi	r16, 0x00	; 0
     232:	0b bf       	out	0x3b, r16	; 59
     234:	02 c0       	rjmp	.+4      	; 0x23a <__do_copy_data+0x14>
     236:	07 90       	elpm	r0, Z+
     238:	0d 92       	st	X+, r0
     23a:	ae 30       	cpi	r26, 0x0E	; 14
     23c:	b1 07       	cpc	r27, r17
     23e:	d9 f7       	brne	.-10     	; 0x236 <__do_copy_data+0x10>
     240:	1b be       	out	0x3b, r1	; 59

00000242 <__do_clear_bss>:
     242:	28 e3       	ldi	r18, 0x38	; 56
     244:	ae e0       	ldi	r26, 0x0E	; 14
     246:	b0 e2       	ldi	r27, 0x20	; 32
     248:	01 c0       	rjmp	.+2      	; 0x24c <.do_clear_bss_start>

0000024a <.do_clear_bss_loop>:
     24a:	1d 92       	st	X+, r1

0000024c <.do_clear_bss_start>:
     24c:	a8 36       	cpi	r26, 0x68	; 104
     24e:	b2 07       	cpc	r27, r18
     250:	e1 f7       	brne	.-8      	; 0x24a <.do_clear_bss_loop>

00000252 <__do_global_ctors>:
     252:	11 e0       	ldi	r17, 0x01	; 1
     254:	c7 e0       	ldi	r28, 0x07	; 7
     256:	d1 e0       	ldi	r29, 0x01	; 1
     258:	00 e0       	ldi	r16, 0x00	; 0
     25a:	06 c0       	rjmp	.+12     	; 0x268 <__do_global_ctors+0x16>
     25c:	21 97       	sbiw	r28, 0x01	; 1
     25e:	01 09       	sbc	r16, r1
     260:	80 2f       	mov	r24, r16
     262:	fe 01       	movw	r30, r28
     264:	0e 94 57 08 	call	0x10ae	; 0x10ae <__tablejump2__>
     268:	c4 30       	cpi	r28, 0x04	; 4
     26a:	d1 07       	cpc	r29, r17
     26c:	80 e0       	ldi	r24, 0x00	; 0
     26e:	08 07       	cpc	r16, r24
     270:	a9 f7       	brne	.-22     	; 0x25c <__do_global_ctors+0xa>
     272:	0e 94 3f 01 	call	0x27e	; 0x27e <main>
     276:	0c 94 6f 08 	jmp	0x10de	; 0x10de <_exit>

0000027a <__bad_interrupt>:
     27a:	0c 94 00 00 	jmp	0	; 0x0 <__vectors>

0000027e <main>:
	lcd_clear();
	//ping->for_cp(ping_control)->for_write_walls1->write_walls(petal)
}

int main(){	
	init_all();
     27e:	0e 94 0e 05 	call	0xa1c	; 0xa1c <_Z8init_allv>
	init_mv();
     282:	0e 94 78 06 	call	0xcf0	; 0xcf0 <_Z7init_mvv>
	#else
		//round up by default
		__ticks_dc = (uint32_t)(ceil(fabs(__tmp)));
	#endif

	__builtin_avr_delay_cycles(__ticks_dc);
     286:	2f ef       	ldi	r18, 0xFF	; 255
     288:	87 e8       	ldi	r24, 0x87	; 135
     28a:	93 e1       	ldi	r25, 0x13	; 19
     28c:	21 50       	subi	r18, 0x01	; 1
     28e:	80 40       	sbci	r24, 0x00	; 0
     290:	90 40       	sbci	r25, 0x00	; 0
     292:	e1 f7       	brne	.-8      	; 0x28c <main+0xe>
     294:	00 c0       	rjmp	.+0      	; 0x296 <main+0x18>
     296:	00 00       	nop
	_delay_ms(200);
	uint8_t s = 30;
	while(1){
		s=mv_spi_send(30,1);
     298:	61 e0       	ldi	r22, 0x01	; 1
     29a:	8e e1       	ldi	r24, 0x1E	; 30
     29c:	0e 94 7e 06 	call	0xcfc	; 0xcfc <_Z11mv_spi_sendhh>
		serial.putdec(s);
     2a0:	68 2f       	mov	r22, r24
     2a2:	70 e0       	ldi	r23, 0x00	; 0
     2a4:	8e e0       	ldi	r24, 0x0E	; 14
     2a6:	90 e2       	ldi	r25, 0x20	; 32
     2a8:	0e 94 c8 07 	call	0xf90	; 0xf90 <_ZN5usart6putdecEj>
		serial.string("\n\r");
     2ac:	6a e0       	ldi	r22, 0x0A	; 10
     2ae:	70 e2       	ldi	r23, 0x20	; 32
     2b0:	8e e0       	ldi	r24, 0x0E	; 14
     2b2:	90 e2       	ldi	r25, 0x20	; 32
     2b4:	0e 94 b3 07 	call	0xf66	; 0xf66 <_ZN5usart6stringEPKc>
     2b8:	ef cf       	rjmp	.-34     	; 0x298 <main+0x1a>

000002ba <_GLOBAL__sub_I_mall>:
		debugping(v::right);
		debugping(v::back);
		_delay_ms(500);
	}
	return 0;
     2ba:	cf 93       	push	r28
     2bc:	df 93       	push	r29
    ci max=200;
    int size,now;
    node mal[200];
    bl box[200]={0};
public:
    nodes(){size=0;now=0;};
     2be:	a2 e2       	ldi	r26, 0x22	; 34
     2c0:	b0 e2       	ldi	r27, 0x20	; 32
     2c2:	88 ec       	ldi	r24, 0xC8	; 200
     2c4:	90 e0       	ldi	r25, 0x00	; 0
     2c6:	8d 93       	st	X+, r24
     2c8:	9c 93       	st	X, r25
     2ca:	11 97       	sbiw	r26, 0x01	; 1
     2cc:	80 e7       	ldi	r24, 0x70	; 112
     2ce:	97 e1       	ldi	r25, 0x17	; 23
     2d0:	e8 e2       	ldi	r30, 0x28	; 40
     2d2:	f0 e2       	ldi	r31, 0x20	; 32
     2d4:	ef 01       	movw	r28, r30
     2d6:	9c 01       	movw	r18, r24
     2d8:	19 92       	st	Y+, r1
     2da:	21 50       	subi	r18, 0x01	; 1
     2dc:	30 40       	sbci	r19, 0x00	; 0
     2de:	e1 f7       	brne	.-8      	; 0x2d8 <_GLOBAL__sub_I_mall+0x1e>
     2e0:	88 ee       	ldi	r24, 0xE8	; 232
     2e2:	93 e0       	ldi	r25, 0x03	; 3
     2e4:	1c 96       	adiw	r26, 0x0c	; 12
     2e6:	8d 93       	st	X+, r24
     2e8:	9c 93       	st	X, r25
     2ea:	1d 97       	sbiw	r26, 0x0d	; 13
     2ec:	80 93 6a 20 	sts	0x206A, r24	; 0x80206a <mall+0x48>
     2f0:	90 93 6b 20 	sts	0x206B, r25	; 0x80206b <mall+0x49>
     2f4:	80 93 88 20 	sts	0x2088, r24	; 0x802088 <mall+0x66>
     2f8:	90 93 89 20 	sts	0x2089, r25	; 0x802089 <mall+0x67>
     2fc:	80 93 a6 20 	sts	0x20A6, r24	; 0x8020a6 <mall+0x84>
     300:	90 93 a7 20 	sts	0x20A7, r25	; 0x8020a7 <mall+0x85>
     304:	80 93 c4 20 	sts	0x20C4, r24	; 0x8020c4 <mall+0xa2>
     308:	90 93 c5 20 	sts	0x20C5, r25	; 0x8020c5 <mall+0xa3>
     30c:	80 93 e2 20 	sts	0x20E2, r24	; 0x8020e2 <mall+0xc0>
     310:	90 93 e3 20 	sts	0x20E3, r25	; 0x8020e3 <mall+0xc1>
     314:	80 93 00 21 	sts	0x2100, r24	; 0x802100 <mall+0xde>
     318:	90 93 01 21 	sts	0x2101, r25	; 0x802101 <mall+0xdf>
     31c:	80 93 1e 21 	sts	0x211E, r24	; 0x80211e <mall+0xfc>
     320:	90 93 1f 21 	sts	0x211F, r25	; 0x80211f <mall+0xfd>
     324:	80 93 3c 21 	sts	0x213C, r24	; 0x80213c <mall+0x11a>
     328:	90 93 3d 21 	sts	0x213D, r25	; 0x80213d <mall+0x11b>
     32c:	80 93 5a 21 	sts	0x215A, r24	; 0x80215a <mall+0x138>
     330:	90 93 5b 21 	sts	0x215B, r25	; 0x80215b <mall+0x139>
     334:	80 93 78 21 	sts	0x2178, r24	; 0x802178 <mall+0x156>
     338:	90 93 79 21 	sts	0x2179, r25	; 0x802179 <mall+0x157>
     33c:	80 93 96 21 	sts	0x2196, r24	; 0x802196 <mall+0x174>
     340:	90 93 97 21 	sts	0x2197, r25	; 0x802197 <mall+0x175>
     344:	80 93 b4 21 	sts	0x21B4, r24	; 0x8021b4 <mall+0x192>
     348:	90 93 b5 21 	sts	0x21B5, r25	; 0x8021b5 <mall+0x193>
     34c:	80 93 d2 21 	sts	0x21D2, r24	; 0x8021d2 <mall+0x1b0>
     350:	90 93 d3 21 	sts	0x21D3, r25	; 0x8021d3 <mall+0x1b1>
     354:	80 93 f0 21 	sts	0x21F0, r24	; 0x8021f0 <mall+0x1ce>
     358:	90 93 f1 21 	sts	0x21F1, r25	; 0x8021f1 <mall+0x1cf>
     35c:	80 93 0e 22 	sts	0x220E, r24	; 0x80220e <mall+0x1ec>
     360:	90 93 0f 22 	sts	0x220F, r25	; 0x80220f <mall+0x1ed>
     364:	80 93 2c 22 	sts	0x222C, r24	; 0x80222c <mall+0x20a>
     368:	90 93 2d 22 	sts	0x222D, r25	; 0x80222d <mall+0x20b>
     36c:	80 93 4a 22 	sts	0x224A, r24	; 0x80224a <mall+0x228>
     370:	90 93 4b 22 	sts	0x224B, r25	; 0x80224b <mall+0x229>
     374:	80 93 68 22 	sts	0x2268, r24	; 0x802268 <mall+0x246>
     378:	90 93 69 22 	sts	0x2269, r25	; 0x802269 <mall+0x247>
     37c:	80 93 86 22 	sts	0x2286, r24	; 0x802286 <mall+0x264>
     380:	90 93 87 22 	sts	0x2287, r25	; 0x802287 <mall+0x265>
     384:	80 93 a4 22 	sts	0x22A4, r24	; 0x8022a4 <mall+0x282>
     388:	90 93 a5 22 	sts	0x22A5, r25	; 0x8022a5 <mall+0x283>
     38c:	80 93 c2 22 	sts	0x22C2, r24	; 0x8022c2 <mall+0x2a0>
     390:	90 93 c3 22 	sts	0x22C3, r25	; 0x8022c3 <mall+0x2a1>
     394:	80 93 e0 22 	sts	0x22E0, r24	; 0x8022e0 <mall+0x2be>
     398:	90 93 e1 22 	sts	0x22E1, r25	; 0x8022e1 <mall+0x2bf>
     39c:	80 93 fe 22 	sts	0x22FE, r24	; 0x8022fe <mall+0x2dc>
     3a0:	90 93 ff 22 	sts	0x22FF, r25	; 0x8022ff <mall+0x2dd>
     3a4:	80 93 1c 23 	sts	0x231C, r24	; 0x80231c <mall+0x2fa>
     3a8:	90 93 1d 23 	sts	0x231D, r25	; 0x80231d <mall+0x2fb>
     3ac:	80 93 3a 23 	sts	0x233A, r24	; 0x80233a <mall+0x318>
     3b0:	90 93 3b 23 	sts	0x233B, r25	; 0x80233b <mall+0x319>
     3b4:	80 93 58 23 	sts	0x2358, r24	; 0x802358 <mall+0x336>
     3b8:	90 93 59 23 	sts	0x2359, r25	; 0x802359 <mall+0x337>
     3bc:	80 93 76 23 	sts	0x2376, r24	; 0x802376 <mall+0x354>
     3c0:	90 93 77 23 	sts	0x2377, r25	; 0x802377 <mall+0x355>
     3c4:	80 93 94 23 	sts	0x2394, r24	; 0x802394 <mall+0x372>
     3c8:	90 93 95 23 	sts	0x2395, r25	; 0x802395 <mall+0x373>
     3cc:	80 93 b2 23 	sts	0x23B2, r24	; 0x8023b2 <mall+0x390>
     3d0:	90 93 b3 23 	sts	0x23B3, r25	; 0x8023b3 <mall+0x391>
     3d4:	80 93 d0 23 	sts	0x23D0, r24	; 0x8023d0 <mall+0x3ae>
     3d8:	90 93 d1 23 	sts	0x23D1, r25	; 0x8023d1 <mall+0x3af>
     3dc:	80 93 ee 23 	sts	0x23EE, r24	; 0x8023ee <mall+0x3cc>
     3e0:	90 93 ef 23 	sts	0x23EF, r25	; 0x8023ef <mall+0x3cd>
     3e4:	80 93 0c 24 	sts	0x240C, r24	; 0x80240c <mall+0x3ea>
     3e8:	90 93 0d 24 	sts	0x240D, r25	; 0x80240d <mall+0x3eb>
     3ec:	80 93 2a 24 	sts	0x242A, r24	; 0x80242a <mall+0x408>
     3f0:	90 93 2b 24 	sts	0x242B, r25	; 0x80242b <mall+0x409>
     3f4:	80 93 48 24 	sts	0x2448, r24	; 0x802448 <mall+0x426>
     3f8:	90 93 49 24 	sts	0x2449, r25	; 0x802449 <mall+0x427>
     3fc:	80 93 66 24 	sts	0x2466, r24	; 0x802466 <mall+0x444>
     400:	90 93 67 24 	sts	0x2467, r25	; 0x802467 <mall+0x445>
     404:	80 93 84 24 	sts	0x2484, r24	; 0x802484 <mall+0x462>
     408:	90 93 85 24 	sts	0x2485, r25	; 0x802485 <mall+0x463>
     40c:	80 93 a2 24 	sts	0x24A2, r24	; 0x8024a2 <mall+0x480>
     410:	90 93 a3 24 	sts	0x24A3, r25	; 0x8024a3 <mall+0x481>
     414:	80 93 c0 24 	sts	0x24C0, r24	; 0x8024c0 <mall+0x49e>
     418:	90 93 c1 24 	sts	0x24C1, r25	; 0x8024c1 <mall+0x49f>
     41c:	80 93 de 24 	sts	0x24DE, r24	; 0x8024de <mall+0x4bc>
     420:	90 93 df 24 	sts	0x24DF, r25	; 0x8024df <mall+0x4bd>
     424:	80 93 fc 24 	sts	0x24FC, r24	; 0x8024fc <mall+0x4da>
     428:	90 93 fd 24 	sts	0x24FD, r25	; 0x8024fd <mall+0x4db>
     42c:	80 93 1a 25 	sts	0x251A, r24	; 0x80251a <mall+0x4f8>
     430:	90 93 1b 25 	sts	0x251B, r25	; 0x80251b <mall+0x4f9>
     434:	80 93 38 25 	sts	0x2538, r24	; 0x802538 <mall+0x516>
     438:	90 93 39 25 	sts	0x2539, r25	; 0x802539 <mall+0x517>
     43c:	80 93 56 25 	sts	0x2556, r24	; 0x802556 <mall+0x534>
     440:	90 93 57 25 	sts	0x2557, r25	; 0x802557 <mall+0x535>
     444:	80 93 74 25 	sts	0x2574, r24	; 0x802574 <mall+0x552>
     448:	90 93 75 25 	sts	0x2575, r25	; 0x802575 <mall+0x553>
     44c:	80 93 92 25 	sts	0x2592, r24	; 0x802592 <mall+0x570>
     450:	90 93 93 25 	sts	0x2593, r25	; 0x802593 <mall+0x571>
     454:	80 93 b0 25 	sts	0x25B0, r24	; 0x8025b0 <mall+0x58e>
     458:	90 93 b1 25 	sts	0x25B1, r25	; 0x8025b1 <mall+0x58f>
     45c:	80 93 ce 25 	sts	0x25CE, r24	; 0x8025ce <mall+0x5ac>
     460:	90 93 cf 25 	sts	0x25CF, r25	; 0x8025cf <mall+0x5ad>
     464:	80 93 ec 25 	sts	0x25EC, r24	; 0x8025ec <mall+0x5ca>
     468:	90 93 ed 25 	sts	0x25ED, r25	; 0x8025ed <mall+0x5cb>
     46c:	80 93 0a 26 	sts	0x260A, r24	; 0x80260a <mall+0x5e8>
     470:	90 93 0b 26 	sts	0x260B, r25	; 0x80260b <mall+0x5e9>
     474:	80 93 28 26 	sts	0x2628, r24	; 0x802628 <mall+0x606>
     478:	90 93 29 26 	sts	0x2629, r25	; 0x802629 <mall+0x607>
     47c:	80 93 46 26 	sts	0x2646, r24	; 0x802646 <mall+0x624>
     480:	90 93 47 26 	sts	0x2647, r25	; 0x802647 <mall+0x625>
     484:	80 93 64 26 	sts	0x2664, r24	; 0x802664 <mall+0x642>
     488:	90 93 65 26 	sts	0x2665, r25	; 0x802665 <mall+0x643>
     48c:	80 93 82 26 	sts	0x2682, r24	; 0x802682 <mall+0x660>
     490:	90 93 83 26 	sts	0x2683, r25	; 0x802683 <mall+0x661>
     494:	80 93 a0 26 	sts	0x26A0, r24	; 0x8026a0 <mall+0x67e>
     498:	90 93 a1 26 	sts	0x26A1, r25	; 0x8026a1 <mall+0x67f>
     49c:	80 93 be 26 	sts	0x26BE, r24	; 0x8026be <mall+0x69c>
     4a0:	90 93 bf 26 	sts	0x26BF, r25	; 0x8026bf <mall+0x69d>
     4a4:	80 93 dc 26 	sts	0x26DC, r24	; 0x8026dc <mall+0x6ba>
     4a8:	90 93 dd 26 	sts	0x26DD, r25	; 0x8026dd <mall+0x6bb>
     4ac:	80 93 fa 26 	sts	0x26FA, r24	; 0x8026fa <mall+0x6d8>
     4b0:	90 93 fb 26 	sts	0x26FB, r25	; 0x8026fb <mall+0x6d9>
     4b4:	80 93 18 27 	sts	0x2718, r24	; 0x802718 <mall+0x6f6>
     4b8:	90 93 19 27 	sts	0x2719, r25	; 0x802719 <mall+0x6f7>
     4bc:	80 93 36 27 	sts	0x2736, r24	; 0x802736 <mall+0x714>
     4c0:	90 93 37 27 	sts	0x2737, r25	; 0x802737 <mall+0x715>
     4c4:	80 93 54 27 	sts	0x2754, r24	; 0x802754 <mall+0x732>
     4c8:	90 93 55 27 	sts	0x2755, r25	; 0x802755 <mall+0x733>
     4cc:	80 93 72 27 	sts	0x2772, r24	; 0x802772 <mall+0x750>
     4d0:	90 93 73 27 	sts	0x2773, r25	; 0x802773 <mall+0x751>
     4d4:	80 93 90 27 	sts	0x2790, r24	; 0x802790 <mall+0x76e>
     4d8:	90 93 91 27 	sts	0x2791, r25	; 0x802791 <mall+0x76f>
     4dc:	80 93 ae 27 	sts	0x27AE, r24	; 0x8027ae <mall+0x78c>
     4e0:	90 93 af 27 	sts	0x27AF, r25	; 0x8027af <mall+0x78d>
     4e4:	80 93 cc 27 	sts	0x27CC, r24	; 0x8027cc <mall+0x7aa>
     4e8:	90 93 cd 27 	sts	0x27CD, r25	; 0x8027cd <mall+0x7ab>
     4ec:	80 93 ea 27 	sts	0x27EA, r24	; 0x8027ea <mall+0x7c8>
     4f0:	90 93 eb 27 	sts	0x27EB, r25	; 0x8027eb <mall+0x7c9>
     4f4:	80 93 08 28 	sts	0x2808, r24	; 0x802808 <mall+0x7e6>
     4f8:	90 93 09 28 	sts	0x2809, r25	; 0x802809 <mall+0x7e7>
     4fc:	80 93 26 28 	sts	0x2826, r24	; 0x802826 <mall+0x804>
     500:	90 93 27 28 	sts	0x2827, r25	; 0x802827 <mall+0x805>
     504:	80 93 44 28 	sts	0x2844, r24	; 0x802844 <mall+0x822>
     508:	90 93 45 28 	sts	0x2845, r25	; 0x802845 <mall+0x823>
     50c:	80 93 62 28 	sts	0x2862, r24	; 0x802862 <mall+0x840>
     510:	90 93 63 28 	sts	0x2863, r25	; 0x802863 <mall+0x841>
     514:	80 93 80 28 	sts	0x2880, r24	; 0x802880 <mall+0x85e>
     518:	90 93 81 28 	sts	0x2881, r25	; 0x802881 <mall+0x85f>
     51c:	80 93 9e 28 	sts	0x289E, r24	; 0x80289e <mall+0x87c>
     520:	90 93 9f 28 	sts	0x289F, r25	; 0x80289f <mall+0x87d>
     524:	80 93 bc 28 	sts	0x28BC, r24	; 0x8028bc <mall+0x89a>
     528:	90 93 bd 28 	sts	0x28BD, r25	; 0x8028bd <mall+0x89b>
     52c:	80 93 da 28 	sts	0x28DA, r24	; 0x8028da <mall+0x8b8>
     530:	90 93 db 28 	sts	0x28DB, r25	; 0x8028db <mall+0x8b9>
     534:	80 93 f8 28 	sts	0x28F8, r24	; 0x8028f8 <mall+0x8d6>
     538:	90 93 f9 28 	sts	0x28F9, r25	; 0x8028f9 <mall+0x8d7>
     53c:	80 93 16 29 	sts	0x2916, r24	; 0x802916 <mall+0x8f4>
     540:	90 93 17 29 	sts	0x2917, r25	; 0x802917 <mall+0x8f5>
     544:	80 93 34 29 	sts	0x2934, r24	; 0x802934 <mall+0x912>
     548:	90 93 35 29 	sts	0x2935, r25	; 0x802935 <mall+0x913>
     54c:	80 93 52 29 	sts	0x2952, r24	; 0x802952 <mall+0x930>
     550:	90 93 53 29 	sts	0x2953, r25	; 0x802953 <mall+0x931>
     554:	80 93 70 29 	sts	0x2970, r24	; 0x802970 <mall+0x94e>
     558:	90 93 71 29 	sts	0x2971, r25	; 0x802971 <mall+0x94f>
     55c:	80 93 8e 29 	sts	0x298E, r24	; 0x80298e <mall+0x96c>
     560:	90 93 8f 29 	sts	0x298F, r25	; 0x80298f <mall+0x96d>
     564:	80 93 ac 29 	sts	0x29AC, r24	; 0x8029ac <mall+0x98a>
     568:	90 93 ad 29 	sts	0x29AD, r25	; 0x8029ad <mall+0x98b>
     56c:	80 93 ca 29 	sts	0x29CA, r24	; 0x8029ca <mall+0x9a8>
     570:	90 93 cb 29 	sts	0x29CB, r25	; 0x8029cb <mall+0x9a9>
     574:	80 93 e8 29 	sts	0x29E8, r24	; 0x8029e8 <mall+0x9c6>
     578:	90 93 e9 29 	sts	0x29E9, r25	; 0x8029e9 <mall+0x9c7>
     57c:	80 93 06 2a 	sts	0x2A06, r24	; 0x802a06 <mall+0x9e4>
     580:	90 93 07 2a 	sts	0x2A07, r25	; 0x802a07 <mall+0x9e5>
     584:	80 93 24 2a 	sts	0x2A24, r24	; 0x802a24 <mall+0xa02>
     588:	90 93 25 2a 	sts	0x2A25, r25	; 0x802a25 <mall+0xa03>
     58c:	80 93 42 2a 	sts	0x2A42, r24	; 0x802a42 <mall+0xa20>
     590:	90 93 43 2a 	sts	0x2A43, r25	; 0x802a43 <mall+0xa21>
     594:	80 93 60 2a 	sts	0x2A60, r24	; 0x802a60 <mall+0xa3e>
     598:	90 93 61 2a 	sts	0x2A61, r25	; 0x802a61 <mall+0xa3f>
     59c:	80 93 7e 2a 	sts	0x2A7E, r24	; 0x802a7e <mall+0xa5c>
     5a0:	90 93 7f 2a 	sts	0x2A7F, r25	; 0x802a7f <mall+0xa5d>
     5a4:	80 93 9c 2a 	sts	0x2A9C, r24	; 0x802a9c <mall+0xa7a>
     5a8:	90 93 9d 2a 	sts	0x2A9D, r25	; 0x802a9d <mall+0xa7b>
     5ac:	80 93 ba 2a 	sts	0x2ABA, r24	; 0x802aba <mall+0xa98>
     5b0:	90 93 bb 2a 	sts	0x2ABB, r25	; 0x802abb <mall+0xa99>
     5b4:	80 93 d8 2a 	sts	0x2AD8, r24	; 0x802ad8 <mall+0xab6>
     5b8:	90 93 d9 2a 	sts	0x2AD9, r25	; 0x802ad9 <mall+0xab7>
     5bc:	80 93 f6 2a 	sts	0x2AF6, r24	; 0x802af6 <mall+0xad4>
     5c0:	90 93 f7 2a 	sts	0x2AF7, r25	; 0x802af7 <mall+0xad5>
     5c4:	80 93 14 2b 	sts	0x2B14, r24	; 0x802b14 <mall+0xaf2>
     5c8:	90 93 15 2b 	sts	0x2B15, r25	; 0x802b15 <mall+0xaf3>
     5cc:	80 93 32 2b 	sts	0x2B32, r24	; 0x802b32 <mall+0xb10>
     5d0:	90 93 33 2b 	sts	0x2B33, r25	; 0x802b33 <mall+0xb11>
     5d4:	80 93 50 2b 	sts	0x2B50, r24	; 0x802b50 <mall+0xb2e>
     5d8:	90 93 51 2b 	sts	0x2B51, r25	; 0x802b51 <mall+0xb2f>
     5dc:	80 93 6e 2b 	sts	0x2B6E, r24	; 0x802b6e <mall+0xb4c>
     5e0:	90 93 6f 2b 	sts	0x2B6F, r25	; 0x802b6f <mall+0xb4d>
     5e4:	80 93 8c 2b 	sts	0x2B8C, r24	; 0x802b8c <mall+0xb6a>
     5e8:	90 93 8d 2b 	sts	0x2B8D, r25	; 0x802b8d <mall+0xb6b>
     5ec:	80 93 aa 2b 	sts	0x2BAA, r24	; 0x802baa <mall+0xb88>
     5f0:	90 93 ab 2b 	sts	0x2BAB, r25	; 0x802bab <mall+0xb89>
     5f4:	80 93 c8 2b 	sts	0x2BC8, r24	; 0x802bc8 <mall+0xba6>
     5f8:	90 93 c9 2b 	sts	0x2BC9, r25	; 0x802bc9 <mall+0xba7>
     5fc:	80 93 e6 2b 	sts	0x2BE6, r24	; 0x802be6 <mall+0xbc4>
     600:	90 93 e7 2b 	sts	0x2BE7, r25	; 0x802be7 <mall+0xbc5>
     604:	80 93 04 2c 	sts	0x2C04, r24	; 0x802c04 <mall+0xbe2>
     608:	90 93 05 2c 	sts	0x2C05, r25	; 0x802c05 <mall+0xbe3>
     60c:	80 93 22 2c 	sts	0x2C22, r24	; 0x802c22 <mall+0xc00>
     610:	90 93 23 2c 	sts	0x2C23, r25	; 0x802c23 <mall+0xc01>
     614:	80 93 40 2c 	sts	0x2C40, r24	; 0x802c40 <mall+0xc1e>
     618:	90 93 41 2c 	sts	0x2C41, r25	; 0x802c41 <mall+0xc1f>
     61c:	80 93 5e 2c 	sts	0x2C5E, r24	; 0x802c5e <mall+0xc3c>
     620:	90 93 5f 2c 	sts	0x2C5F, r25	; 0x802c5f <mall+0xc3d>
     624:	80 93 7c 2c 	sts	0x2C7C, r24	; 0x802c7c <mall+0xc5a>
     628:	90 93 7d 2c 	sts	0x2C7D, r25	; 0x802c7d <mall+0xc5b>
     62c:	80 93 9a 2c 	sts	0x2C9A, r24	; 0x802c9a <mall+0xc78>
     630:	90 93 9b 2c 	sts	0x2C9B, r25	; 0x802c9b <mall+0xc79>
     634:	80 93 b8 2c 	sts	0x2CB8, r24	; 0x802cb8 <mall+0xc96>
     638:	90 93 b9 2c 	sts	0x2CB9, r25	; 0x802cb9 <mall+0xc97>
     63c:	80 93 d6 2c 	sts	0x2CD6, r24	; 0x802cd6 <mall+0xcb4>
     640:	90 93 d7 2c 	sts	0x2CD7, r25	; 0x802cd7 <mall+0xcb5>
     644:	80 93 f4 2c 	sts	0x2CF4, r24	; 0x802cf4 <mall+0xcd2>
     648:	90 93 f5 2c 	sts	0x2CF5, r25	; 0x802cf5 <mall+0xcd3>
     64c:	80 93 12 2d 	sts	0x2D12, r24	; 0x802d12 <mall+0xcf0>
     650:	90 93 13 2d 	sts	0x2D13, r25	; 0x802d13 <mall+0xcf1>
     654:	80 93 30 2d 	sts	0x2D30, r24	; 0x802d30 <mall+0xd0e>
     658:	90 93 31 2d 	sts	0x2D31, r25	; 0x802d31 <mall+0xd0f>
     65c:	80 93 4e 2d 	sts	0x2D4E, r24	; 0x802d4e <mall+0xd2c>
     660:	90 93 4f 2d 	sts	0x2D4F, r25	; 0x802d4f <mall+0xd2d>
     664:	80 93 6c 2d 	sts	0x2D6C, r24	; 0x802d6c <mall+0xd4a>
     668:	90 93 6d 2d 	sts	0x2D6D, r25	; 0x802d6d <mall+0xd4b>
     66c:	80 93 8a 2d 	sts	0x2D8A, r24	; 0x802d8a <mall+0xd68>
     670:	90 93 8b 2d 	sts	0x2D8B, r25	; 0x802d8b <mall+0xd69>
     674:	80 93 a8 2d 	sts	0x2DA8, r24	; 0x802da8 <mall+0xd86>
     678:	90 93 a9 2d 	sts	0x2DA9, r25	; 0x802da9 <mall+0xd87>
     67c:	80 93 c6 2d 	sts	0x2DC6, r24	; 0x802dc6 <mall+0xda4>
     680:	90 93 c7 2d 	sts	0x2DC7, r25	; 0x802dc7 <mall+0xda5>
     684:	80 93 e4 2d 	sts	0x2DE4, r24	; 0x802de4 <mall+0xdc2>
     688:	90 93 e5 2d 	sts	0x2DE5, r25	; 0x802de5 <mall+0xdc3>
     68c:	80 93 02 2e 	sts	0x2E02, r24	; 0x802e02 <mall+0xde0>
     690:	90 93 03 2e 	sts	0x2E03, r25	; 0x802e03 <mall+0xde1>
     694:	80 93 20 2e 	sts	0x2E20, r24	; 0x802e20 <mall+0xdfe>
     698:	90 93 21 2e 	sts	0x2E21, r25	; 0x802e21 <mall+0xdff>
     69c:	80 93 3e 2e 	sts	0x2E3E, r24	; 0x802e3e <mall+0xe1c>
     6a0:	90 93 3f 2e 	sts	0x2E3F, r25	; 0x802e3f <mall+0xe1d>
     6a4:	80 93 5c 2e 	sts	0x2E5C, r24	; 0x802e5c <mall+0xe3a>
     6a8:	90 93 5d 2e 	sts	0x2E5D, r25	; 0x802e5d <mall+0xe3b>
     6ac:	80 93 7a 2e 	sts	0x2E7A, r24	; 0x802e7a <mall+0xe58>
     6b0:	90 93 7b 2e 	sts	0x2E7B, r25	; 0x802e7b <mall+0xe59>
     6b4:	80 93 98 2e 	sts	0x2E98, r24	; 0x802e98 <mall+0xe76>
     6b8:	90 93 99 2e 	sts	0x2E99, r25	; 0x802e99 <mall+0xe77>
     6bc:	80 93 b6 2e 	sts	0x2EB6, r24	; 0x802eb6 <mall+0xe94>
     6c0:	90 93 b7 2e 	sts	0x2EB7, r25	; 0x802eb7 <mall+0xe95>
     6c4:	80 93 d4 2e 	sts	0x2ED4, r24	; 0x802ed4 <mall+0xeb2>
     6c8:	90 93 d5 2e 	sts	0x2ED5, r25	; 0x802ed5 <mall+0xeb3>
     6cc:	80 93 f2 2e 	sts	0x2EF2, r24	; 0x802ef2 <mall+0xed0>
     6d0:	90 93 f3 2e 	sts	0x2EF3, r25	; 0x802ef3 <mall+0xed1>
     6d4:	80 93 10 2f 	sts	0x2F10, r24	; 0x802f10 <mall+0xeee>
     6d8:	90 93 11 2f 	sts	0x2F11, r25	; 0x802f11 <mall+0xeef>
     6dc:	80 93 2e 2f 	sts	0x2F2E, r24	; 0x802f2e <mall+0xf0c>
     6e0:	90 93 2f 2f 	sts	0x2F2F, r25	; 0x802f2f <mall+0xf0d>
     6e4:	80 93 4c 2f 	sts	0x2F4C, r24	; 0x802f4c <mall+0xf2a>
     6e8:	90 93 4d 2f 	sts	0x2F4D, r25	; 0x802f4d <mall+0xf2b>
     6ec:	80 93 6a 2f 	sts	0x2F6A, r24	; 0x802f6a <mall+0xf48>
     6f0:	90 93 6b 2f 	sts	0x2F6B, r25	; 0x802f6b <mall+0xf49>
     6f4:	80 93 88 2f 	sts	0x2F88, r24	; 0x802f88 <mall+0xf66>
     6f8:	90 93 89 2f 	sts	0x2F89, r25	; 0x802f89 <mall+0xf67>
     6fc:	80 93 a6 2f 	sts	0x2FA6, r24	; 0x802fa6 <mall+0xf84>
     700:	90 93 a7 2f 	sts	0x2FA7, r25	; 0x802fa7 <mall+0xf85>
     704:	80 93 c4 2f 	sts	0x2FC4, r24	; 0x802fc4 <mall+0xfa2>
     708:	90 93 c5 2f 	sts	0x2FC5, r25	; 0x802fc5 <mall+0xfa3>
     70c:	80 93 e2 2f 	sts	0x2FE2, r24	; 0x802fe2 <mall+0xfc0>
     710:	90 93 e3 2f 	sts	0x2FE3, r25	; 0x802fe3 <mall+0xfc1>
     714:	80 93 00 30 	sts	0x3000, r24	; 0x803000 <mall+0xfde>
     718:	90 93 01 30 	sts	0x3001, r25	; 0x803001 <mall+0xfdf>
     71c:	80 93 1e 30 	sts	0x301E, r24	; 0x80301e <mall+0xffc>
     720:	90 93 1f 30 	sts	0x301F, r25	; 0x80301f <mall+0xffd>
     724:	80 93 3c 30 	sts	0x303C, r24	; 0x80303c <mall+0x101a>
     728:	90 93 3d 30 	sts	0x303D, r25	; 0x80303d <mall+0x101b>
     72c:	80 93 5a 30 	sts	0x305A, r24	; 0x80305a <mall+0x1038>
     730:	90 93 5b 30 	sts	0x305B, r25	; 0x80305b <mall+0x1039>
     734:	80 93 78 30 	sts	0x3078, r24	; 0x803078 <mall+0x1056>
     738:	90 93 79 30 	sts	0x3079, r25	; 0x803079 <mall+0x1057>
     73c:	80 93 96 30 	sts	0x3096, r24	; 0x803096 <mall+0x1074>
     740:	90 93 97 30 	sts	0x3097, r25	; 0x803097 <mall+0x1075>
     744:	80 93 b4 30 	sts	0x30B4, r24	; 0x8030b4 <mall+0x1092>
     748:	90 93 b5 30 	sts	0x30B5, r25	; 0x8030b5 <mall+0x1093>
     74c:	80 93 d2 30 	sts	0x30D2, r24	; 0x8030d2 <mall+0x10b0>
     750:	90 93 d3 30 	sts	0x30D3, r25	; 0x8030d3 <mall+0x10b1>
     754:	80 93 f0 30 	sts	0x30F0, r24	; 0x8030f0 <mall+0x10ce>
     758:	90 93 f1 30 	sts	0x30F1, r25	; 0x8030f1 <mall+0x10cf>
     75c:	80 93 0e 31 	sts	0x310E, r24	; 0x80310e <mall+0x10ec>
     760:	90 93 0f 31 	sts	0x310F, r25	; 0x80310f <mall+0x10ed>
     764:	80 93 2c 31 	sts	0x312C, r24	; 0x80312c <mall+0x110a>
     768:	90 93 2d 31 	sts	0x312D, r25	; 0x80312d <mall+0x110b>
     76c:	80 93 4a 31 	sts	0x314A, r24	; 0x80314a <mall+0x1128>
     770:	90 93 4b 31 	sts	0x314B, r25	; 0x80314b <mall+0x1129>
     774:	80 93 68 31 	sts	0x3168, r24	; 0x803168 <mall+0x1146>
     778:	90 93 69 31 	sts	0x3169, r25	; 0x803169 <mall+0x1147>
     77c:	80 93 86 31 	sts	0x3186, r24	; 0x803186 <mall+0x1164>
     780:	90 93 87 31 	sts	0x3187, r25	; 0x803187 <mall+0x1165>
     784:	80 93 a4 31 	sts	0x31A4, r24	; 0x8031a4 <mall+0x1182>
     788:	90 93 a5 31 	sts	0x31A5, r25	; 0x8031a5 <mall+0x1183>
     78c:	80 93 c2 31 	sts	0x31C2, r24	; 0x8031c2 <mall+0x11a0>
     790:	90 93 c3 31 	sts	0x31C3, r25	; 0x8031c3 <mall+0x11a1>
     794:	80 93 e0 31 	sts	0x31E0, r24	; 0x8031e0 <mall+0x11be>
     798:	90 93 e1 31 	sts	0x31E1, r25	; 0x8031e1 <mall+0x11bf>
     79c:	80 93 fe 31 	sts	0x31FE, r24	; 0x8031fe <mall+0x11dc>
     7a0:	90 93 ff 31 	sts	0x31FF, r25	; 0x8031ff <mall+0x11dd>
     7a4:	80 93 1c 32 	sts	0x321C, r24	; 0x80321c <mall+0x11fa>
     7a8:	90 93 1d 32 	sts	0x321D, r25	; 0x80321d <mall+0x11fb>
     7ac:	80 93 3a 32 	sts	0x323A, r24	; 0x80323a <mall+0x1218>
     7b0:	90 93 3b 32 	sts	0x323B, r25	; 0x80323b <mall+0x1219>
     7b4:	80 93 58 32 	sts	0x3258, r24	; 0x803258 <mall+0x1236>
     7b8:	90 93 59 32 	sts	0x3259, r25	; 0x803259 <mall+0x1237>
     7bc:	80 93 76 32 	sts	0x3276, r24	; 0x803276 <mall+0x1254>
     7c0:	90 93 77 32 	sts	0x3277, r25	; 0x803277 <mall+0x1255>
     7c4:	80 93 94 32 	sts	0x3294, r24	; 0x803294 <mall+0x1272>
     7c8:	90 93 95 32 	sts	0x3295, r25	; 0x803295 <mall+0x1273>
     7cc:	80 93 b2 32 	sts	0x32B2, r24	; 0x8032b2 <mall+0x1290>
     7d0:	90 93 b3 32 	sts	0x32B3, r25	; 0x8032b3 <mall+0x1291>
     7d4:	80 93 d0 32 	sts	0x32D0, r24	; 0x8032d0 <mall+0x12ae>
     7d8:	90 93 d1 32 	sts	0x32D1, r25	; 0x8032d1 <mall+0x12af>
     7dc:	80 93 ee 32 	sts	0x32EE, r24	; 0x8032ee <mall+0x12cc>
     7e0:	90 93 ef 32 	sts	0x32EF, r25	; 0x8032ef <mall+0x12cd>
     7e4:	80 93 0c 33 	sts	0x330C, r24	; 0x80330c <mall+0x12ea>
     7e8:	90 93 0d 33 	sts	0x330D, r25	; 0x80330d <mall+0x12eb>
     7ec:	80 93 2a 33 	sts	0x332A, r24	; 0x80332a <mall+0x1308>
     7f0:	90 93 2b 33 	sts	0x332B, r25	; 0x80332b <mall+0x1309>
     7f4:	80 93 48 33 	sts	0x3348, r24	; 0x803348 <mall+0x1326>
     7f8:	90 93 49 33 	sts	0x3349, r25	; 0x803349 <mall+0x1327>
     7fc:	80 93 66 33 	sts	0x3366, r24	; 0x803366 <mall+0x1344>
     800:	90 93 67 33 	sts	0x3367, r25	; 0x803367 <mall+0x1345>
     804:	80 93 84 33 	sts	0x3384, r24	; 0x803384 <mall+0x1362>
     808:	90 93 85 33 	sts	0x3385, r25	; 0x803385 <mall+0x1363>
     80c:	80 93 a2 33 	sts	0x33A2, r24	; 0x8033a2 <mall+0x1380>
     810:	90 93 a3 33 	sts	0x33A3, r25	; 0x8033a3 <mall+0x1381>
     814:	80 93 c0 33 	sts	0x33C0, r24	; 0x8033c0 <mall+0x139e>
     818:	90 93 c1 33 	sts	0x33C1, r25	; 0x8033c1 <mall+0x139f>
     81c:	80 93 de 33 	sts	0x33DE, r24	; 0x8033de <mall+0x13bc>
     820:	90 93 df 33 	sts	0x33DF, r25	; 0x8033df <mall+0x13bd>
     824:	80 93 fc 33 	sts	0x33FC, r24	; 0x8033fc <mall+0x13da>
     828:	90 93 fd 33 	sts	0x33FD, r25	; 0x8033fd <mall+0x13db>
     82c:	80 93 1a 34 	sts	0x341A, r24	; 0x80341a <mall+0x13f8>
     830:	90 93 1b 34 	sts	0x341B, r25	; 0x80341b <mall+0x13f9>
     834:	80 93 38 34 	sts	0x3438, r24	; 0x803438 <mall+0x1416>
     838:	90 93 39 34 	sts	0x3439, r25	; 0x803439 <mall+0x1417>
     83c:	80 93 56 34 	sts	0x3456, r24	; 0x803456 <mall+0x1434>
     840:	90 93 57 34 	sts	0x3457, r25	; 0x803457 <mall+0x1435>
     844:	80 93 74 34 	sts	0x3474, r24	; 0x803474 <mall+0x1452>
     848:	90 93 75 34 	sts	0x3475, r25	; 0x803475 <mall+0x1453>
     84c:	80 93 92 34 	sts	0x3492, r24	; 0x803492 <mall+0x1470>
     850:	90 93 93 34 	sts	0x3493, r25	; 0x803493 <mall+0x1471>
     854:	80 93 b0 34 	sts	0x34B0, r24	; 0x8034b0 <mall+0x148e>
     858:	90 93 b1 34 	sts	0x34B1, r25	; 0x8034b1 <mall+0x148f>
     85c:	80 93 ce 34 	sts	0x34CE, r24	; 0x8034ce <mall+0x14ac>
     860:	90 93 cf 34 	sts	0x34CF, r25	; 0x8034cf <mall+0x14ad>
     864:	80 93 ec 34 	sts	0x34EC, r24	; 0x8034ec <mall+0x14ca>
     868:	90 93 ed 34 	sts	0x34ED, r25	; 0x8034ed <mall+0x14cb>
     86c:	80 93 0a 35 	sts	0x350A, r24	; 0x80350a <mall+0x14e8>
     870:	90 93 0b 35 	sts	0x350B, r25	; 0x80350b <mall+0x14e9>
     874:	80 93 28 35 	sts	0x3528, r24	; 0x803528 <mall+0x1506>
     878:	90 93 29 35 	sts	0x3529, r25	; 0x803529 <mall+0x1507>
     87c:	80 93 46 35 	sts	0x3546, r24	; 0x803546 <mall+0x1524>
     880:	90 93 47 35 	sts	0x3547, r25	; 0x803547 <mall+0x1525>
     884:	80 93 64 35 	sts	0x3564, r24	; 0x803564 <mall+0x1542>
     888:	90 93 65 35 	sts	0x3565, r25	; 0x803565 <mall+0x1543>
     88c:	80 93 82 35 	sts	0x3582, r24	; 0x803582 <mall+0x1560>
     890:	90 93 83 35 	sts	0x3583, r25	; 0x803583 <mall+0x1561>
     894:	80 93 a0 35 	sts	0x35A0, r24	; 0x8035a0 <mall+0x157e>
     898:	90 93 a1 35 	sts	0x35A1, r25	; 0x8035a1 <mall+0x157f>
     89c:	80 93 be 35 	sts	0x35BE, r24	; 0x8035be <mall+0x159c>
     8a0:	90 93 bf 35 	sts	0x35BF, r25	; 0x8035bf <mall+0x159d>
     8a4:	80 93 dc 35 	sts	0x35DC, r24	; 0x8035dc <mall+0x15ba>
     8a8:	90 93 dd 35 	sts	0x35DD, r25	; 0x8035dd <mall+0x15bb>
     8ac:	80 93 fa 35 	sts	0x35FA, r24	; 0x8035fa <mall+0x15d8>
     8b0:	90 93 fb 35 	sts	0x35FB, r25	; 0x8035fb <mall+0x15d9>
     8b4:	80 93 18 36 	sts	0x3618, r24	; 0x803618 <mall+0x15f6>
     8b8:	90 93 19 36 	sts	0x3619, r25	; 0x803619 <mall+0x15f7>
     8bc:	80 93 36 36 	sts	0x3636, r24	; 0x803636 <mall+0x1614>
     8c0:	90 93 37 36 	sts	0x3637, r25	; 0x803637 <mall+0x1615>
     8c4:	80 93 54 36 	sts	0x3654, r24	; 0x803654 <mall+0x1632>
     8c8:	90 93 55 36 	sts	0x3655, r25	; 0x803655 <mall+0x1633>
     8cc:	80 93 72 36 	sts	0x3672, r24	; 0x803672 <mall+0x1650>
     8d0:	90 93 73 36 	sts	0x3673, r25	; 0x803673 <mall+0x1651>
     8d4:	80 93 90 36 	sts	0x3690, r24	; 0x803690 <mall+0x166e>
     8d8:	90 93 91 36 	sts	0x3691, r25	; 0x803691 <mall+0x166f>
     8dc:	80 93 ae 36 	sts	0x36AE, r24	; 0x8036ae <mall+0x168c>
     8e0:	90 93 af 36 	sts	0x36AF, r25	; 0x8036af <mall+0x168d>
     8e4:	80 93 cc 36 	sts	0x36CC, r24	; 0x8036cc <mall+0x16aa>
     8e8:	90 93 cd 36 	sts	0x36CD, r25	; 0x8036cd <mall+0x16ab>
     8ec:	80 93 ea 36 	sts	0x36EA, r24	; 0x8036ea <mall+0x16c8>
     8f0:	90 93 eb 36 	sts	0x36EB, r25	; 0x8036eb <mall+0x16c9>
     8f4:	80 93 08 37 	sts	0x3708, r24	; 0x803708 <mall+0x16e6>
     8f8:	90 93 09 37 	sts	0x3709, r25	; 0x803709 <mall+0x16e7>
     8fc:	80 93 26 37 	sts	0x3726, r24	; 0x803726 <mall+0x1704>
     900:	90 93 27 37 	sts	0x3727, r25	; 0x803727 <mall+0x1705>
     904:	80 93 44 37 	sts	0x3744, r24	; 0x803744 <mall+0x1722>
     908:	90 93 45 37 	sts	0x3745, r25	; 0x803745 <mall+0x1723>
     90c:	80 93 62 37 	sts	0x3762, r24	; 0x803762 <mall+0x1740>
     910:	90 93 63 37 	sts	0x3763, r25	; 0x803763 <mall+0x1741>
     914:	80 93 80 37 	sts	0x3780, r24	; 0x803780 <mall+0x175e>
     918:	90 93 81 37 	sts	0x3781, r25	; 0x803781 <mall+0x175f>
     91c:	88 ec       	ldi	r24, 0xC8	; 200
     91e:	e8 e9       	ldi	r30, 0x98	; 152
     920:	f7 e3       	ldi	r31, 0x37	; 55
     922:	ef 01       	movw	r28, r30
     924:	19 92       	st	Y+, r1
     926:	8a 95       	dec	r24
     928:	e9 f7       	brne	.-6      	; 0x924 <__LOCK_REGION_LENGTH__+0x524>
     92a:	12 96       	adiw	r26, 0x02	; 2
     92c:	1d 92       	st	X+, r1
     92e:	1c 92       	st	X, r1
     930:	13 97       	sbiw	r26, 0x03	; 3
    node* make(){
        if(now>=max-1){ return np; }else{
            now++;
     932:	81 e0       	ldi	r24, 0x01	; 1
     934:	90 e0       	ldi	r25, 0x00	; 0
     936:	14 96       	adiw	r26, 0x04	; 4
     938:	8d 93       	st	X+, r24
     93a:	9c 93       	st	X, r25
     93c:	15 97       	sbiw	r26, 0x05	; 5
    long long unsigned int counter;//dfs's counter.
    node* ans;//dfs's answer.
    //for dfs
public:
    core(){
        now = mall.make();
     93e:	e2 e1       	ldi	r30, 0x12	; 18
     940:	f0 e2       	ldi	r31, 0x20	; 32
     942:	26 e4       	ldi	r18, 0x46	; 70
     944:	30 e2       	ldi	r19, 0x20	; 32
     946:	20 83       	st	Z, r18
     948:	31 83       	std	Z+1, r19	; 0x01
        start = now; 
     94a:	22 83       	std	Z+2, r18	; 0x02
     94c:	33 83       	std	Z+3, r19	; 0x03
        start->x=100;start->y=100;start->z=1;start->back[0]=np;start->type=v::start;start->depth=0;
     94e:	24 e6       	ldi	r18, 0x64	; 100
     950:	30 e0       	ldi	r19, 0x00	; 0
     952:	94 96       	adiw	r26, 0x24	; 36
     954:	2d 93       	st	X+, r18
     956:	3c 93       	st	X, r19
     958:	95 97       	sbiw	r26, 0x25	; 37
     95a:	96 96       	adiw	r26, 0x26	; 38
     95c:	2d 93       	st	X+, r18
     95e:	3c 93       	st	X, r19
     960:	97 97       	sbiw	r26, 0x27	; 39
     962:	98 96       	adiw	r26, 0x28	; 40
     964:	8d 93       	st	X+, r24
     966:	9c 93       	st	X, r25
     968:	99 97       	sbiw	r26, 0x29	; 41
     96a:	8f ef       	ldi	r24, 0xFF	; 255
     96c:	9f ef       	ldi	r25, 0xFF	; 255
     96e:	9c 96       	adiw	r26, 0x2c	; 44
     970:	8d 93       	st	X+, r24
     972:	9c 93       	st	X, r25
     974:	9d 97       	sbiw	r26, 0x2d	; 45
     976:	9a 96       	adiw	r26, 0x2a	; 42
     978:	1d 92       	st	X+, r1
     97a:	1c 92       	st	X, r1
     97c:	9b 97       	sbiw	r26, 0x2b	; 43
        //dir = v::left;
		dir = 0;
     97e:	14 82       	std	Z+4, r1	; 0x04
     980:	15 82       	std	Z+5, r1	; 0x05
        counter=0;
     982:	16 82       	std	Z+6, r1	; 0x06
     984:	17 82       	std	Z+7, r1	; 0x07
     986:	10 86       	std	Z+8, r1	; 0x08
     988:	11 86       	std	Z+9, r1	; 0x09
     98a:	12 86       	std	Z+10, r1	; 0x0a
     98c:	13 86       	std	Z+11, r1	; 0x0b
     98e:	14 86       	std	Z+12, r1	; 0x0c
     990:	15 86       	std	Z+13, r1	; 0x0d
        ans = np;
     992:	16 86       	std	Z+14, r1	; 0x0e
     994:	17 86       	std	Z+15, r1	; 0x0f
 */ 

#include "source/petal.hpp"
#include "source/gyro_control.hpp"
#include "source/mv_control.hpp"
usart serial(&USARTC0,&PORTC);
     996:	40 e4       	ldi	r20, 0x40	; 64
     998:	56 e0       	ldi	r21, 0x06	; 6
     99a:	60 ea       	ldi	r22, 0xA0	; 160
     99c:	78 e0       	ldi	r23, 0x08	; 8
     99e:	8e e0       	ldi	r24, 0x0E	; 14
     9a0:	90 e2       	ldi	r25, 0x20	; 32
     9a2:	0e 94 87 07 	call	0xf0e	; 0xf0e <_ZN5usartC1EP12USART_structP11PORT_struct>
		debugping(v::right);
		debugping(v::back);
		_delay_ms(500);
	}
	return 0;
     9a6:	df 91       	pop	r29
     9a8:	cf 91       	pop	r28
     9aa:	08 95       	ret

000009ac <_Z10init_colorv>:
     9ac:	87 e0       	ldi	r24, 0x07	; 7
     9ae:	80 93 a1 06 	sts	0x06A1, r24	; 0x8006a1 <__TEXT_REGION_LENGTH__+0x7006a1>
     9b2:	08 95       	ret

000009b4 <_Z10init_clockv>:
	init_color();
}


void init_clock(void){
	OSC.CTRL |= 0x02;					//32MHz内蔵発振器動作許可
     9b4:	e0 e5       	ldi	r30, 0x50	; 80
     9b6:	f0 e0       	ldi	r31, 0x00	; 0
     9b8:	80 81       	ld	r24, Z
     9ba:	82 60       	ori	r24, 0x02	; 2
     9bc:	80 83       	st	Z, r24
	while((OSC.STATUS & 0x02) == 0);	//32MHz内蔵発振器が安定するまで待つ
     9be:	81 81       	ldd	r24, Z+1	; 0x01
     9c0:	81 ff       	sbrs	r24, 1
     9c2:	fd cf       	rjmp	.-6      	; 0x9be <_Z10init_clockv+0xa>
	CPU_CCP = 0xD8;						//システムクロック制御レジスタアクセス許可を行う
     9c4:	88 ed       	ldi	r24, 0xD8	; 216
     9c6:	84 bf       	out	0x34, r24	; 52
	CLK.CTRL = 0x01;					//システムクロックを32MHzに変更
     9c8:	e0 e4       	ldi	r30, 0x40	; 64
     9ca:	f0 e0       	ldi	r31, 0x00	; 0
     9cc:	81 e0       	ldi	r24, 0x01	; 1
     9ce:	80 83       	st	Z, r24
	CLK.PSCTRL=CLK_PSADIV0_bm;		//select Prescaler A as 2, Prescaler B and Prescaler C as 1, Clksys=16MHz, Clkper4=Clkper2=Clkper=Clkcpu=8MHz
     9d0:	84 e0       	ldi	r24, 0x04	; 4
     9d2:	81 83       	std	Z+1, r24	; 0x01
	OSC.CTRL &= 0xFE;					//2MHz内蔵発振器動作停止
     9d4:	e0 e5       	ldi	r30, 0x50	; 80
     9d6:	f0 e0       	ldi	r31, 0x00	; 0
     9d8:	80 81       	ld	r24, Z
     9da:	8e 7f       	andi	r24, 0xFE	; 254
     9dc:	80 83       	st	Z, r24
     9de:	08 95       	ret

000009e0 <_Z3rtcv>:
}


void rtc(void){
	OSC.CTRL = OSC_RC32KEN_bm;
     9e0:	84 e0       	ldi	r24, 0x04	; 4
     9e2:	80 93 50 00 	sts	0x0050, r24	; 0x800050 <__TEXT_REGION_LENGTH__+0x700050>
	while((OSC_STATUS&&OSC_RC32KRDY_bm)==0);
     9e6:	e1 e5       	ldi	r30, 0x51	; 81
     9e8:	f0 e0       	ldi	r31, 0x00	; 0
     9ea:	80 81       	ld	r24, Z
     9ec:	88 23       	and	r24, r24
     9ee:	e9 f3       	breq	.-6      	; 0x9ea <_Z3rtcv+0xa>
	CLK.RTCCTRL = 0b00000001;
     9f0:	81 e0       	ldi	r24, 0x01	; 1
     9f2:	80 93 43 00 	sts	0x0043, r24	; 0x800043 <__TEXT_REGION_LENGTH__+0x700043>
	RTC.CTRL = RTC_PRESCALER_DIV1024_gc;
     9f6:	87 e0       	ldi	r24, 0x07	; 7
     9f8:	80 93 00 04 	sts	0x0400, r24	; 0x800400 <__TEXT_REGION_LENGTH__+0x700400>
     9fc:	08 95       	ret

000009fe <_Z8init_avrv>:
}

void init_avr(void){
	PORTA.DIRSET=PIN0_bm;//ブザー
     9fe:	81 e0       	ldi	r24, 0x01	; 1
     a00:	80 93 01 06 	sts	0x0601, r24	; 0x800601 <__TEXT_REGION_LENGTH__+0x700601>
	PORTQ.DIRSET = PIN0_bm|PIN1_bm|PIN2_bm;//フルカラーLED
     a04:	e0 ec       	ldi	r30, 0xC0	; 192
     a06:	f7 e0       	ldi	r31, 0x07	; 7
     a08:	87 e0       	ldi	r24, 0x07	; 7
     a0a:	81 83       	std	Z+1, r24	; 0x01
	PORTQ.OUTSET = PIN0_bm|PIN1_bm|PIN2_bm;
     a0c:	85 83       	std	Z+5, r24	; 0x05
	PORTK.DIRSET = PIN0_bm|PIN1_bm|PIN2_bm|PIN3_bm;//ステッピングinit
     a0e:	8f e0       	ldi	r24, 0x0F	; 15
     a10:	80 93 21 07 	sts	0x0721, r24	; 0x800721 <__TEXT_REGION_LENGTH__+0x700721>
	PORTB.DIRSET = PIN0_bm|PIN1_bm;//モーター用SIG
     a14:	83 e0       	ldi	r24, 0x03	; 3
     a16:	80 93 21 06 	sts	0x0621, r24	; 0x800621 <__TEXT_REGION_LENGTH__+0x700621>
     a1a:	08 95       	ret

00000a1c <_Z8init_allv>:
#include "motor_control.hpp"
#include "action.hpp"
#include "color_control.hpp"

void init_all(void){
	init_clock();
     a1c:	0e 94 da 04 	call	0x9b4	; 0x9b4 <_Z10init_clockv>
	init_avr();
     a20:	0e 94 ff 04 	call	0x9fe	; 0x9fe <_Z8init_avrv>
	init_lcd();
     a24:	0e 94 1b 05 	call	0xa36	; 0xa36 <_Z8init_lcdv>
	init_motor();
     a28:	0e 94 68 06 	call	0xcd0	; 0xcd0 <_Z10init_motorv>
	rtc();
     a2c:	0e 94 f0 04 	call	0x9e0	; 0x9e0 <_Z3rtcv>
	init_color();
     a30:	0e 94 d6 04 	call	0x9ac	; 0x9ac <_Z10init_colorv>
     a34:	08 95       	ret

00000a36 <_Z8init_lcdv>:
     a36:	cf 93       	push	r28
     a38:	df 93       	push	r29
     a3a:	cd b7       	in	r28, 0x3d	; 61
     a3c:	de b7       	in	r29, 0x3e	; 62
     a3e:	2a 97       	sbiw	r28, 0x0a	; 10
     a40:	cd bf       	out	0x3d, r28	; 61
     a42:	de bf       	out	0x3e, r29	; 62
     a44:	20 e8       	ldi	r18, 0x80	; 128
     a46:	3a e1       	ldi	r19, 0x1A	; 26
     a48:	46 e0       	ldi	r20, 0x06	; 6
     a4a:	50 e0       	ldi	r21, 0x00	; 0
     a4c:	60 e9       	ldi	r22, 0x90	; 144
     a4e:	74 e0       	ldi	r23, 0x04	; 4
     a50:	ce 01       	movw	r24, r28
     a52:	01 96       	adiw	r24, 0x01	; 1
     a54:	0e 94 dd 06 	call	0xdba	; 0xdba <_ZN3twiC1EP10TWI_structm>
     a58:	40 e0       	ldi	r20, 0x00	; 0
     a5a:	6c e7       	ldi	r22, 0x7C	; 124
     a5c:	ce 01       	movw	r24, r28
     a5e:	01 96       	adiw	r24, 0x01	; 1
     a60:	0e 94 23 07 	call	0xe46	; 0xe46 <_ZN3twi7AddressEhh>
     a64:	60 e0       	ldi	r22, 0x00	; 0
     a66:	70 e0       	ldi	r23, 0x00	; 0
     a68:	ce 01       	movw	r24, r28
     a6a:	01 96       	adiw	r24, 0x01	; 1
     a6c:	0e 94 51 07 	call	0xea2	; 0xea2 <_ZN3twi11WriteSingleEi>
     a70:	68 e3       	ldi	r22, 0x38	; 56
     a72:	70 e0       	ldi	r23, 0x00	; 0
     a74:	ce 01       	movw	r24, r28
     a76:	01 96       	adiw	r24, 0x01	; 1
     a78:	0e 94 51 07 	call	0xea2	; 0xea2 <_ZN3twi11WriteSingleEi>
     a7c:	ce 01       	movw	r24, r28
     a7e:	01 96       	adiw	r24, 0x01	; 1
     a80:	0e 94 75 07 	call	0xeea	; 0xeea <_ZN3twi4StopEv>
     a84:	2f ef       	ldi	r18, 0xFF	; 255
     a86:	81 ee       	ldi	r24, 0xE1	; 225
     a88:	94 e0       	ldi	r25, 0x04	; 4
     a8a:	21 50       	subi	r18, 0x01	; 1
     a8c:	80 40       	sbci	r24, 0x00	; 0
     a8e:	90 40       	sbci	r25, 0x00	; 0
     a90:	e1 f7       	brne	.-8      	; 0xa8a <_Z8init_lcdv+0x54>
     a92:	00 c0       	rjmp	.+0      	; 0xa94 <_Z8init_lcdv+0x5e>
     a94:	00 00       	nop
     a96:	40 e0       	ldi	r20, 0x00	; 0
     a98:	6c e7       	ldi	r22, 0x7C	; 124
     a9a:	ce 01       	movw	r24, r28
     a9c:	01 96       	adiw	r24, 0x01	; 1
     a9e:	0e 94 23 07 	call	0xe46	; 0xe46 <_ZN3twi7AddressEhh>
     aa2:	60 e0       	ldi	r22, 0x00	; 0
     aa4:	70 e0       	ldi	r23, 0x00	; 0
     aa6:	ce 01       	movw	r24, r28
     aa8:	01 96       	adiw	r24, 0x01	; 1
     aaa:	0e 94 51 07 	call	0xea2	; 0xea2 <_ZN3twi11WriteSingleEi>
     aae:	69 e3       	ldi	r22, 0x39	; 57
     ab0:	70 e0       	ldi	r23, 0x00	; 0
     ab2:	ce 01       	movw	r24, r28
     ab4:	01 96       	adiw	r24, 0x01	; 1
     ab6:	0e 94 51 07 	call	0xea2	; 0xea2 <_ZN3twi11WriteSingleEi>
     aba:	ce 01       	movw	r24, r28
     abc:	01 96       	adiw	r24, 0x01	; 1
     abe:	0e 94 75 07 	call	0xeea	; 0xeea <_ZN3twi4StopEv>
     ac2:	2f ef       	ldi	r18, 0xFF	; 255
     ac4:	81 ee       	ldi	r24, 0xE1	; 225
     ac6:	94 e0       	ldi	r25, 0x04	; 4
     ac8:	21 50       	subi	r18, 0x01	; 1
     aca:	80 40       	sbci	r24, 0x00	; 0
     acc:	90 40       	sbci	r25, 0x00	; 0
     ace:	e1 f7       	brne	.-8      	; 0xac8 <_Z8init_lcdv+0x92>
     ad0:	00 c0       	rjmp	.+0      	; 0xad2 <_Z8init_lcdv+0x9c>
     ad2:	00 00       	nop
     ad4:	40 e0       	ldi	r20, 0x00	; 0
     ad6:	6c e7       	ldi	r22, 0x7C	; 124
     ad8:	ce 01       	movw	r24, r28
     ada:	01 96       	adiw	r24, 0x01	; 1
     adc:	0e 94 23 07 	call	0xe46	; 0xe46 <_ZN3twi7AddressEhh>
     ae0:	60 e0       	ldi	r22, 0x00	; 0
     ae2:	70 e0       	ldi	r23, 0x00	; 0
     ae4:	ce 01       	movw	r24, r28
     ae6:	01 96       	adiw	r24, 0x01	; 1
     ae8:	0e 94 51 07 	call	0xea2	; 0xea2 <_ZN3twi11WriteSingleEi>
     aec:	64 e1       	ldi	r22, 0x14	; 20
     aee:	70 e0       	ldi	r23, 0x00	; 0
     af0:	ce 01       	movw	r24, r28
     af2:	01 96       	adiw	r24, 0x01	; 1
     af4:	0e 94 51 07 	call	0xea2	; 0xea2 <_ZN3twi11WriteSingleEi>
     af8:	ce 01       	movw	r24, r28
     afa:	01 96       	adiw	r24, 0x01	; 1
     afc:	0e 94 75 07 	call	0xeea	; 0xeea <_ZN3twi4StopEv>
     b00:	2f ef       	ldi	r18, 0xFF	; 255
     b02:	81 ee       	ldi	r24, 0xE1	; 225
     b04:	94 e0       	ldi	r25, 0x04	; 4
     b06:	21 50       	subi	r18, 0x01	; 1
     b08:	80 40       	sbci	r24, 0x00	; 0
     b0a:	90 40       	sbci	r25, 0x00	; 0
     b0c:	e1 f7       	brne	.-8      	; 0xb06 <_Z8init_lcdv+0xd0>
     b0e:	00 c0       	rjmp	.+0      	; 0xb10 <_Z8init_lcdv+0xda>
     b10:	00 00       	nop
     b12:	40 e0       	ldi	r20, 0x00	; 0
     b14:	6c e7       	ldi	r22, 0x7C	; 124
     b16:	ce 01       	movw	r24, r28
     b18:	01 96       	adiw	r24, 0x01	; 1
     b1a:	0e 94 23 07 	call	0xe46	; 0xe46 <_ZN3twi7AddressEhh>
     b1e:	60 e0       	ldi	r22, 0x00	; 0
     b20:	70 e0       	ldi	r23, 0x00	; 0
     b22:	ce 01       	movw	r24, r28
     b24:	01 96       	adiw	r24, 0x01	; 1
     b26:	0e 94 51 07 	call	0xea2	; 0xea2 <_ZN3twi11WriteSingleEi>
     b2a:	6e e7       	ldi	r22, 0x7E	; 126
     b2c:	70 e0       	ldi	r23, 0x00	; 0
     b2e:	ce 01       	movw	r24, r28
     b30:	01 96       	adiw	r24, 0x01	; 1
     b32:	0e 94 51 07 	call	0xea2	; 0xea2 <_ZN3twi11WriteSingleEi>
     b36:	ce 01       	movw	r24, r28
     b38:	01 96       	adiw	r24, 0x01	; 1
     b3a:	0e 94 75 07 	call	0xeea	; 0xeea <_ZN3twi4StopEv>
     b3e:	2f ef       	ldi	r18, 0xFF	; 255
     b40:	81 ee       	ldi	r24, 0xE1	; 225
     b42:	94 e0       	ldi	r25, 0x04	; 4
     b44:	21 50       	subi	r18, 0x01	; 1
     b46:	80 40       	sbci	r24, 0x00	; 0
     b48:	90 40       	sbci	r25, 0x00	; 0
     b4a:	e1 f7       	brne	.-8      	; 0xb44 <_Z8init_lcdv+0x10e>
     b4c:	00 c0       	rjmp	.+0      	; 0xb4e <_Z8init_lcdv+0x118>
     b4e:	00 00       	nop
     b50:	40 e0       	ldi	r20, 0x00	; 0
     b52:	6c e7       	ldi	r22, 0x7C	; 124
     b54:	ce 01       	movw	r24, r28
     b56:	01 96       	adiw	r24, 0x01	; 1
     b58:	0e 94 23 07 	call	0xe46	; 0xe46 <_ZN3twi7AddressEhh>
     b5c:	60 e0       	ldi	r22, 0x00	; 0
     b5e:	70 e0       	ldi	r23, 0x00	; 0
     b60:	ce 01       	movw	r24, r28
     b62:	01 96       	adiw	r24, 0x01	; 1
     b64:	0e 94 51 07 	call	0xea2	; 0xea2 <_ZN3twi11WriteSingleEi>
     b68:	65 e5       	ldi	r22, 0x55	; 85
     b6a:	70 e0       	ldi	r23, 0x00	; 0
     b6c:	ce 01       	movw	r24, r28
     b6e:	01 96       	adiw	r24, 0x01	; 1
     b70:	0e 94 51 07 	call	0xea2	; 0xea2 <_ZN3twi11WriteSingleEi>
     b74:	ce 01       	movw	r24, r28
     b76:	01 96       	adiw	r24, 0x01	; 1
     b78:	0e 94 75 07 	call	0xeea	; 0xeea <_ZN3twi4StopEv>
     b7c:	2f ef       	ldi	r18, 0xFF	; 255
     b7e:	81 ee       	ldi	r24, 0xE1	; 225
     b80:	94 e0       	ldi	r25, 0x04	; 4
     b82:	21 50       	subi	r18, 0x01	; 1
     b84:	80 40       	sbci	r24, 0x00	; 0
     b86:	90 40       	sbci	r25, 0x00	; 0
     b88:	e1 f7       	brne	.-8      	; 0xb82 <_Z8init_lcdv+0x14c>
     b8a:	00 c0       	rjmp	.+0      	; 0xb8c <_Z8init_lcdv+0x156>
     b8c:	00 00       	nop
     b8e:	40 e0       	ldi	r20, 0x00	; 0
     b90:	6c e7       	ldi	r22, 0x7C	; 124
     b92:	ce 01       	movw	r24, r28
     b94:	01 96       	adiw	r24, 0x01	; 1
     b96:	0e 94 23 07 	call	0xe46	; 0xe46 <_ZN3twi7AddressEhh>
     b9a:	60 e0       	ldi	r22, 0x00	; 0
     b9c:	70 e0       	ldi	r23, 0x00	; 0
     b9e:	ce 01       	movw	r24, r28
     ba0:	01 96       	adiw	r24, 0x01	; 1
     ba2:	0e 94 51 07 	call	0xea2	; 0xea2 <_ZN3twi11WriteSingleEi>
     ba6:	6c e6       	ldi	r22, 0x6C	; 108
     ba8:	70 e0       	ldi	r23, 0x00	; 0
     baa:	ce 01       	movw	r24, r28
     bac:	01 96       	adiw	r24, 0x01	; 1
     bae:	0e 94 51 07 	call	0xea2	; 0xea2 <_ZN3twi11WriteSingleEi>
     bb2:	ce 01       	movw	r24, r28
     bb4:	01 96       	adiw	r24, 0x01	; 1
     bb6:	0e 94 75 07 	call	0xeea	; 0xeea <_ZN3twi4StopEv>
     bba:	2f ef       	ldi	r18, 0xFF	; 255
     bbc:	83 ed       	ldi	r24, 0xD3	; 211
     bbe:	90 e3       	ldi	r25, 0x30	; 48
     bc0:	21 50       	subi	r18, 0x01	; 1
     bc2:	80 40       	sbci	r24, 0x00	; 0
     bc4:	90 40       	sbci	r25, 0x00	; 0
     bc6:	e1 f7       	brne	.-8      	; 0xbc0 <_Z8init_lcdv+0x18a>
     bc8:	00 c0       	rjmp	.+0      	; 0xbca <_Z8init_lcdv+0x194>
     bca:	00 00       	nop
     bcc:	40 e0       	ldi	r20, 0x00	; 0
     bce:	6c e7       	ldi	r22, 0x7C	; 124
     bd0:	ce 01       	movw	r24, r28
     bd2:	01 96       	adiw	r24, 0x01	; 1
     bd4:	0e 94 23 07 	call	0xe46	; 0xe46 <_ZN3twi7AddressEhh>
     bd8:	60 e0       	ldi	r22, 0x00	; 0
     bda:	70 e0       	ldi	r23, 0x00	; 0
     bdc:	ce 01       	movw	r24, r28
     bde:	01 96       	adiw	r24, 0x01	; 1
     be0:	0e 94 51 07 	call	0xea2	; 0xea2 <_ZN3twi11WriteSingleEi>
     be4:	68 e3       	ldi	r22, 0x38	; 56
     be6:	70 e0       	ldi	r23, 0x00	; 0
     be8:	ce 01       	movw	r24, r28
     bea:	01 96       	adiw	r24, 0x01	; 1
     bec:	0e 94 51 07 	call	0xea2	; 0xea2 <_ZN3twi11WriteSingleEi>
     bf0:	ce 01       	movw	r24, r28
     bf2:	01 96       	adiw	r24, 0x01	; 1
     bf4:	0e 94 75 07 	call	0xeea	; 0xeea <_ZN3twi4StopEv>
     bf8:	2f ef       	ldi	r18, 0xFF	; 255
     bfa:	81 ee       	ldi	r24, 0xE1	; 225
     bfc:	94 e0       	ldi	r25, 0x04	; 4
     bfe:	21 50       	subi	r18, 0x01	; 1
     c00:	80 40       	sbci	r24, 0x00	; 0
     c02:	90 40       	sbci	r25, 0x00	; 0
     c04:	e1 f7       	brne	.-8      	; 0xbfe <_Z8init_lcdv+0x1c8>
     c06:	00 c0       	rjmp	.+0      	; 0xc08 <_Z8init_lcdv+0x1d2>
     c08:	00 00       	nop
     c0a:	40 e0       	ldi	r20, 0x00	; 0
     c0c:	6c e7       	ldi	r22, 0x7C	; 124
     c0e:	ce 01       	movw	r24, r28
     c10:	01 96       	adiw	r24, 0x01	; 1
     c12:	0e 94 23 07 	call	0xe46	; 0xe46 <_ZN3twi7AddressEhh>
     c16:	60 e0       	ldi	r22, 0x00	; 0
     c18:	70 e0       	ldi	r23, 0x00	; 0
     c1a:	ce 01       	movw	r24, r28
     c1c:	01 96       	adiw	r24, 0x01	; 1
     c1e:	0e 94 51 07 	call	0xea2	; 0xea2 <_ZN3twi11WriteSingleEi>
     c22:	6c e0       	ldi	r22, 0x0C	; 12
     c24:	70 e0       	ldi	r23, 0x00	; 0
     c26:	ce 01       	movw	r24, r28
     c28:	01 96       	adiw	r24, 0x01	; 1
     c2a:	0e 94 51 07 	call	0xea2	; 0xea2 <_ZN3twi11WriteSingleEi>
     c2e:	ce 01       	movw	r24, r28
     c30:	01 96       	adiw	r24, 0x01	; 1
     c32:	0e 94 75 07 	call	0xeea	; 0xeea <_ZN3twi4StopEv>
     c36:	2f ef       	ldi	r18, 0xFF	; 255
     c38:	81 ee       	ldi	r24, 0xE1	; 225
     c3a:	94 e0       	ldi	r25, 0x04	; 4
     c3c:	21 50       	subi	r18, 0x01	; 1
     c3e:	80 40       	sbci	r24, 0x00	; 0
     c40:	90 40       	sbci	r25, 0x00	; 0
     c42:	e1 f7       	brne	.-8      	; 0xc3c <_Z8init_lcdv+0x206>
     c44:	00 c0       	rjmp	.+0      	; 0xc46 <_Z8init_lcdv+0x210>
     c46:	00 00       	nop
     c48:	40 e0       	ldi	r20, 0x00	; 0
     c4a:	6c e7       	ldi	r22, 0x7C	; 124
     c4c:	ce 01       	movw	r24, r28
     c4e:	01 96       	adiw	r24, 0x01	; 1
     c50:	0e 94 23 07 	call	0xe46	; 0xe46 <_ZN3twi7AddressEhh>
     c54:	60 e0       	ldi	r22, 0x00	; 0
     c56:	70 e0       	ldi	r23, 0x00	; 0
     c58:	ce 01       	movw	r24, r28
     c5a:	01 96       	adiw	r24, 0x01	; 1
     c5c:	0e 94 51 07 	call	0xea2	; 0xea2 <_ZN3twi11WriteSingleEi>
     c60:	61 e0       	ldi	r22, 0x01	; 1
     c62:	70 e0       	ldi	r23, 0x00	; 0
     c64:	ce 01       	movw	r24, r28
     c66:	01 96       	adiw	r24, 0x01	; 1
     c68:	0e 94 51 07 	call	0xea2	; 0xea2 <_ZN3twi11WriteSingleEi>
     c6c:	ce 01       	movw	r24, r28
     c6e:	01 96       	adiw	r24, 0x01	; 1
     c70:	0e 94 75 07 	call	0xeea	; 0xeea <_ZN3twi4StopEv>
     c74:	2f ef       	ldi	r18, 0xFF	; 255
     c76:	81 ee       	ldi	r24, 0xE1	; 225
     c78:	94 e0       	ldi	r25, 0x04	; 4
     c7a:	21 50       	subi	r18, 0x01	; 1
     c7c:	80 40       	sbci	r24, 0x00	; 0
     c7e:	90 40       	sbci	r25, 0x00	; 0
     c80:	e1 f7       	brne	.-8      	; 0xc7a <_Z8init_lcdv+0x244>
     c82:	00 c0       	rjmp	.+0      	; 0xc84 <_Z8init_lcdv+0x24e>
     c84:	00 00       	nop
     c86:	40 e0       	ldi	r20, 0x00	; 0
     c88:	6c e7       	ldi	r22, 0x7C	; 124
     c8a:	ce 01       	movw	r24, r28
     c8c:	01 96       	adiw	r24, 0x01	; 1
     c8e:	0e 94 23 07 	call	0xe46	; 0xe46 <_ZN3twi7AddressEhh>
     c92:	60 e0       	ldi	r22, 0x00	; 0
     c94:	70 e0       	ldi	r23, 0x00	; 0
     c96:	ce 01       	movw	r24, r28
     c98:	01 96       	adiw	r24, 0x01	; 1
     c9a:	0e 94 51 07 	call	0xea2	; 0xea2 <_ZN3twi11WriteSingleEi>
     c9e:	66 e0       	ldi	r22, 0x06	; 6
     ca0:	70 e0       	ldi	r23, 0x00	; 0
     ca2:	ce 01       	movw	r24, r28
     ca4:	01 96       	adiw	r24, 0x01	; 1
     ca6:	0e 94 51 07 	call	0xea2	; 0xea2 <_ZN3twi11WriteSingleEi>
     caa:	ce 01       	movw	r24, r28
     cac:	01 96       	adiw	r24, 0x01	; 1
     cae:	0e 94 75 07 	call	0xeea	; 0xeea <_ZN3twi4StopEv>
     cb2:	2f ef       	ldi	r18, 0xFF	; 255
     cb4:	81 ee       	ldi	r24, 0xE1	; 225
     cb6:	94 e0       	ldi	r25, 0x04	; 4
     cb8:	21 50       	subi	r18, 0x01	; 1
     cba:	80 40       	sbci	r24, 0x00	; 0
     cbc:	90 40       	sbci	r25, 0x00	; 0
     cbe:	e1 f7       	brne	.-8      	; 0xcb8 <_Z8init_lcdv+0x282>
     cc0:	00 c0       	rjmp	.+0      	; 0xcc2 <_Z8init_lcdv+0x28c>
     cc2:	00 00       	nop
     cc4:	2a 96       	adiw	r28, 0x0a	; 10
     cc6:	cd bf       	out	0x3d, r28	; 61
     cc8:	de bf       	out	0x3e, r29	; 62
     cca:	df 91       	pop	r29
     ccc:	cf 91       	pop	r28
     cce:	08 95       	ret

00000cd0 <_Z10init_motorv>:
			return 1;
		}
		else{
			return 0;
		}
	}
     cd0:	e0 e2       	ldi	r30, 0x20	; 32
     cd2:	f6 e0       	ldi	r31, 0x06	; 6
     cd4:	8c e0       	ldi	r24, 0x0C	; 12
     cd6:	81 83       	std	Z+1, r24	; 0x01
     cd8:	85 83       	std	Z+5, r24	; 0x05
     cda:	08 95       	ret

00000cdc <_GLOBAL__sub_I_motor_spi>:
#include "motor_control.hpp"
#define RightM PIN2_bm //1
#define LeftM PIN3_bm  //2


spi motor_spi(&SPIC,&PORTC,SPI_PRESCALER_DIV16_gc);
     cdc:	21 e0       	ldi	r18, 0x01	; 1
     cde:	40 e4       	ldi	r20, 0x40	; 64
     ce0:	56 e0       	ldi	r21, 0x06	; 6
     ce2:	60 ec       	ldi	r22, 0xC0	; 192
     ce4:	78 e0       	ldi	r23, 0x08	; 8
     ce6:	80 e6       	ldi	r24, 0x60	; 96
     ce8:	98 e3       	ldi	r25, 0x38	; 56
     cea:	0e 94 b9 06 	call	0xd72	; 0xd72 <_ZN3spiC1EP10SPI_structP11PORT_struct18SPI_PRESCALER_enum>
     cee:	08 95       	ret

00000cf0 <_Z7init_mvv>:
*/

#include "mv_control.hpp"
spi mv(&SPID,&PORTD,SPI_PRESCALER_DIV16_gc);
void init_mv(void){
	PORTJ.DIRSET=PIN5_bm|PIN6_bm|PIN7_bm;
     cf0:	e0 e0       	ldi	r30, 0x00	; 0
     cf2:	f7 e0       	ldi	r31, 0x07	; 7
     cf4:	80 ee       	ldi	r24, 0xE0	; 224
     cf6:	81 83       	std	Z+1, r24	; 0x01
	PORTJ.OUTSET=PIN5_bm|PIN6_bm|PIN7_bm;
     cf8:	85 83       	std	Z+5, r24	; 0x05
     cfa:	08 95       	ret

00000cfc <_Z11mv_spi_sendhh>:
	return;
}
uint8_t mv_spi_send(uint8_t val, uint8_t i){
	if (i==1){
     cfc:	61 30       	cpi	r22, 0x01	; 1
     cfe:	21 f4       	brne	.+8      	; 0xd08 <_Z11mv_spi_sendhh+0xc>
		PORTJ.OUTCLR=PIN5_bm;
     d00:	90 e2       	ldi	r25, 0x20	; 32
     d02:	90 93 06 07 	sts	0x0706, r25	; 0x800706 <__TEXT_REGION_LENGTH__+0x700706>
     d06:	0b c0       	rjmp	.+22     	; 0xd1e <_Z11mv_spi_sendhh+0x22>
	}
	else if (i==2){
     d08:	62 30       	cpi	r22, 0x02	; 2
     d0a:	21 f4       	brne	.+8      	; 0xd14 <_Z11mv_spi_sendhh+0x18>
		
		PORTJ.OUTCLR=PIN6_bm;
     d0c:	90 e4       	ldi	r25, 0x40	; 64
     d0e:	90 93 06 07 	sts	0x0706, r25	; 0x800706 <__TEXT_REGION_LENGTH__+0x700706>
     d12:	05 c0       	rjmp	.+10     	; 0xd1e <_Z11mv_spi_sendhh+0x22>
	}
	else if(i==3){
     d14:	63 30       	cpi	r22, 0x03	; 3
     d16:	91 f4       	brne	.+36     	; 0xd3c <_Z11mv_spi_sendhh+0x40>
		
		PORTJ.OUTCLR=PIN7_bm;
     d18:	90 e8       	ldi	r25, 0x80	; 128
     d1a:	90 93 06 07 	sts	0x0706, r25	; 0x800706 <__TEXT_REGION_LENGTH__+0x700706>
     d1e:	68 2f       	mov	r22, r24
     d20:	8f e3       	ldi	r24, 0x3F	; 63
     d22:	9c e9       	ldi	r25, 0x9C	; 156
     d24:	01 97       	sbiw	r24, 0x01	; 1
     d26:	f1 f7       	brne	.-4      	; 0xd24 <_Z11mv_spi_sendhh+0x28>
     d28:	00 c0       	rjmp	.+0      	; 0xd2a <_Z11mv_spi_sendhh+0x2e>
     d2a:	00 00       	nop
	else{
		return 0;
	}
	uint8_t dat = 0;
	_delay_ms(5);
	dat = mv.send(val);
     d2c:	84 e6       	ldi	r24, 0x64	; 100
     d2e:	98 e3       	ldi	r25, 0x38	; 56
     d30:	0e 94 cd 06 	call	0xd9a	; 0xd9a <_ZN3spi4sendEh>
	PORTJ.OUTSET=PIN5_bm|PIN6_bm|PIN7_bm;
     d34:	90 ee       	ldi	r25, 0xE0	; 224
     d36:	90 93 05 07 	sts	0x0705, r25	; 0x800705 <__TEXT_REGION_LENGTH__+0x700705>
	return dat;
     d3a:	08 95       	ret
	else if(i==3){
		
		PORTJ.OUTCLR=PIN7_bm;
	}
	else{
		return 0;
     d3c:	80 e0       	ldi	r24, 0x00	; 0
	uint8_t dat = 0;
	_delay_ms(5);
	dat = mv.send(val);
	PORTJ.OUTSET=PIN5_bm|PIN6_bm|PIN7_bm;
	return dat;
}
     d3e:	08 95       	ret

00000d40 <_GLOBAL__sub_I_mv>:
PJ6:MVS2
PJ7:MVS3  --SS
*/

#include "mv_control.hpp"
spi mv(&SPID,&PORTD,SPI_PRESCALER_DIV16_gc);
     d40:	21 e0       	ldi	r18, 0x01	; 1
     d42:	40 e6       	ldi	r20, 0x60	; 96
     d44:	56 e0       	ldi	r21, 0x06	; 6
     d46:	60 ec       	ldi	r22, 0xC0	; 192
     d48:	79 e0       	ldi	r23, 0x09	; 9
     d4a:	84 e6       	ldi	r24, 0x64	; 100
     d4c:	98 e3       	ldi	r25, 0x38	; 56
     d4e:	0e 94 b9 06 	call	0xd72	; 0xd72 <_ZN3spiC1EP10SPI_structP11PORT_struct18SPI_PRESCALER_enum>
     d52:	08 95       	ret

00000d54 <__vector_77>:
     d54:	1f 92       	push	r1
     d56:	0f 92       	push	r0
     d58:	0f b6       	in	r0, 0x3f	; 63
     d5a:	0f 92       	push	r0
     d5c:	11 24       	eor	r1, r1
     d5e:	08 b6       	in	r0, 0x38	; 56
     d60:	0f 92       	push	r0
     d62:	18 be       	out	0x38, r1	; 56
     d64:	0f 90       	pop	r0
     d66:	08 be       	out	0x38, r0	; 56
     d68:	0f 90       	pop	r0
     d6a:	0f be       	out	0x3f, r0	; 63
     d6c:	0f 90       	pop	r0
     d6e:	1f 90       	pop	r1
     d70:	18 95       	reti

00000d72 <_ZN3spiC1EP10SPI_structP11PORT_struct18SPI_PRESCALER_enum>:
     d72:	fc 01       	movw	r30, r24
     d74:	60 83       	st	Z, r22
     d76:	71 83       	std	Z+1, r23	; 0x01
     d78:	42 83       	std	Z+2, r20	; 0x02
     d7a:	53 83       	std	Z+3, r21	; 0x03
     d7c:	80 e4       	ldi	r24, 0x40	; 64
     d7e:	da 01       	movw	r26, r20
     d80:	12 96       	adiw	r26, 0x02	; 2
     d82:	8c 93       	st	X, r24
     d84:	a2 81       	ldd	r26, Z+2	; 0x02
     d86:	b3 81       	ldd	r27, Z+3	; 0x03
     d88:	80 eb       	ldi	r24, 0xB0	; 176
     d8a:	11 96       	adiw	r26, 0x01	; 1
     d8c:	8c 93       	st	X, r24
     d8e:	01 90       	ld	r0, Z+
     d90:	f0 81       	ld	r31, Z
     d92:	e0 2d       	mov	r30, r0
     d94:	20 65       	ori	r18, 0x50	; 80
     d96:	20 83       	st	Z, r18
     d98:	08 95       	ret

00000d9a <_ZN3spi4sendEh>:
     d9a:	dc 01       	movw	r26, r24
     d9c:	ed 91       	ld	r30, X+
     d9e:	fc 91       	ld	r31, X
     da0:	11 97       	sbiw	r26, 0x01	; 1
     da2:	63 83       	std	Z+3, r22	; 0x03
     da4:	ed 91       	ld	r30, X+
     da6:	fc 91       	ld	r31, X
     da8:	11 97       	sbiw	r26, 0x01	; 1
     daa:	92 81       	ldd	r25, Z+2	; 0x02
     dac:	99 23       	and	r25, r25
     dae:	ec f7       	brge	.-6      	; 0xdaa <_ZN3spi4sendEh+0x10>
     db0:	12 82       	std	Z+2, r1	; 0x02
     db2:	ed 91       	ld	r30, X+
     db4:	fc 91       	ld	r31, X
     db6:	83 81       	ldd	r24, Z+3	; 0x03
     db8:	08 95       	ret

00000dba <_ZN3twiC1EP10TWI_structm>:
	}

	errorCheck();

	return port->MASTER.DATA;
}
     dba:	0f 93       	push	r16
     dbc:	1f 93       	push	r17
     dbe:	cf 93       	push	r28
     dc0:	df 93       	push	r29
     dc2:	ec 01       	movw	r28, r24
     dc4:	8b 01       	movw	r16, r22
     dc6:	68 87       	std	Y+8, r22	; 0x08
     dc8:	79 87       	std	Y+9, r23	; 0x09
     dca:	22 0f       	add	r18, r18
     dcc:	33 1f       	adc	r19, r19
     dce:	44 1f       	adc	r20, r20
     dd0:	55 1f       	adc	r21, r21
     dd2:	60 e0       	ldi	r22, 0x00	; 0
     dd4:	78 e4       	ldi	r23, 0x48	; 72
     dd6:	88 ee       	ldi	r24, 0xE8	; 232
     dd8:	91 e0       	ldi	r25, 0x01	; 1
     dda:	0e 94 35 08 	call	0x106a	; 0x106a <__udivmodsi4>
     dde:	da 01       	movw	r26, r20
     de0:	c9 01       	movw	r24, r18
     de2:	05 97       	sbiw	r24, 0x05	; 5
     de4:	a1 09       	sbc	r26, r1
     de6:	b1 09       	sbc	r27, r1
     de8:	8c 83       	std	Y+4, r24	; 0x04
     dea:	9d 83       	std	Y+5, r25	; 0x05
     dec:	ae 83       	std	Y+6, r26	; 0x06
     dee:	bf 83       	std	Y+7, r27	; 0x07
     df0:	f8 01       	movw	r30, r16
     df2:	85 83       	std	Z+5, r24	; 0x05
     df4:	e8 85       	ldd	r30, Y+8	; 0x08
     df6:	f9 85       	ldd	r31, Y+9	; 0x09
     df8:	82 81       	ldd	r24, Z+2	; 0x02
     dfa:	82 83       	std	Z+2, r24	; 0x02
     dfc:	e8 85       	ldd	r30, Y+8	; 0x08
     dfe:	f9 85       	ldd	r31, Y+9	; 0x09
     e00:	81 81       	ldd	r24, Z+1	; 0x01
     e02:	88 60       	ori	r24, 0x08	; 8
     e04:	81 83       	std	Z+1, r24	; 0x01
     e06:	e8 85       	ldd	r30, Y+8	; 0x08
     e08:	f9 85       	ldd	r31, Y+9	; 0x09
     e0a:	81 e0       	ldi	r24, 0x01	; 1
     e0c:	84 83       	std	Z+4, r24	; 0x04
     e0e:	df 91       	pop	r29
     e10:	cf 91       	pop	r28
     e12:	1f 91       	pop	r17
     e14:	0f 91       	pop	r16
     e16:	08 95       	ret

00000e18 <_ZN3twi10errorCheckEv>:
     e18:	dc 01       	movw	r26, r24
     e1a:	18 96       	adiw	r26, 0x08	; 8
     e1c:	ed 91       	ld	r30, X+
     e1e:	fc 91       	ld	r31, X
     e20:	19 97       	sbiw	r26, 0x09	; 9
     e22:	84 81       	ldd	r24, Z+4	; 0x04
     e24:	82 fd       	sbrc	r24, 2
     e26:	05 c0       	rjmp	.+10     	; 0xe32 <_ZN3twi10errorCheckEv+0x1a>
     e28:	94 81       	ldd	r25, Z+4	; 0x04
     e2a:	89 2f       	mov	r24, r25
     e2c:	88 70       	andi	r24, 0x08	; 8
     e2e:	93 ff       	sbrs	r25, 3
     e30:	09 c0       	rjmp	.+18     	; 0xe44 <_ZN3twi10errorCheckEv+0x2c>
     e32:	81 e0       	ldi	r24, 0x01	; 1
     e34:	84 83       	std	Z+4, r24	; 0x04
     e36:	18 96       	adiw	r26, 0x08	; 8
     e38:	ed 91       	ld	r30, X+
     e3a:	fc 91       	ld	r31, X
     e3c:	19 97       	sbiw	r26, 0x09	; 9
     e3e:	83 e0       	ldi	r24, 0x03	; 3
     e40:	83 83       	std	Z+3, r24	; 0x03
     e42:	8f ef       	ldi	r24, 0xFF	; 255
     e44:	08 95       	ret

00000e46 <_ZN3twi7AddressEhh>:
     e46:	dc 01       	movw	r26, r24
     e48:	44 23       	and	r20, r20
     e4a:	59 f0       	breq	.+22     	; 0xe62 <_ZN3twi7AddressEhh+0x1c>
     e4c:	18 96       	adiw	r26, 0x08	; 8
     e4e:	ed 91       	ld	r30, X+
     e50:	fc 91       	ld	r31, X
     e52:	19 97       	sbiw	r26, 0x09	; 9
     e54:	61 60       	ori	r22, 0x01	; 1
     e56:	66 83       	std	Z+6, r22	; 0x06
     e58:	18 96       	adiw	r26, 0x08	; 8
     e5a:	ed 91       	ld	r30, X+
     e5c:	fc 91       	ld	r31, X
     e5e:	19 97       	sbiw	r26, 0x09	; 9
     e60:	07 c0       	rjmp	.+14     	; 0xe70 <_ZN3twi7AddressEhh+0x2a>
     e62:	18 96       	adiw	r26, 0x08	; 8
     e64:	ed 91       	ld	r30, X+
     e66:	fc 91       	ld	r31, X
     e68:	19 97       	sbiw	r26, 0x09	; 9
     e6a:	6e 7f       	andi	r22, 0xFE	; 254
     e6c:	66 83       	std	Z+6, r22	; 0x06
     e6e:	f4 cf       	rjmp	.-24     	; 0xe58 <_ZN3twi7AddressEhh+0x12>
     e70:	94 81       	ldd	r25, Z+4	; 0x04
     e72:	90 7c       	andi	r25, 0xC0	; 192
     e74:	e9 f3       	breq	.-6      	; 0xe70 <_ZN3twi7AddressEhh+0x2a>
     e76:	94 81       	ldd	r25, Z+4	; 0x04
     e78:	89 2f       	mov	r24, r25
     e7a:	80 71       	andi	r24, 0x10	; 16
     e7c:	94 ff       	sbrs	r25, 4
     e7e:	10 c0       	rjmp	.+32     	; 0xea0 <_ZN3twi7AddressEhh+0x5a>
     e80:	84 81       	ldd	r24, Z+4	; 0x04
     e82:	80 64       	ori	r24, 0x40	; 64
     e84:	84 83       	std	Z+4, r24	; 0x04
     e86:	18 96       	adiw	r26, 0x08	; 8
     e88:	ed 91       	ld	r30, X+
     e8a:	fc 91       	ld	r31, X
     e8c:	19 97       	sbiw	r26, 0x09	; 9
     e8e:	84 81       	ldd	r24, Z+4	; 0x04
     e90:	80 68       	ori	r24, 0x80	; 128
     e92:	84 83       	std	Z+4, r24	; 0x04
     e94:	18 96       	adiw	r26, 0x08	; 8
     e96:	ed 91       	ld	r30, X+
     e98:	fc 91       	ld	r31, X
     e9a:	19 97       	sbiw	r26, 0x09	; 9
     e9c:	81 e0       	ldi	r24, 0x01	; 1
     e9e:	84 83       	std	Z+4, r24	; 0x04
     ea0:	08 95       	ret

00000ea2 <_ZN3twi11WriteSingleEi>:
     ea2:	cf 93       	push	r28
     ea4:	df 93       	push	r29
     ea6:	ec 01       	movw	r28, r24
     ea8:	e8 85       	ldd	r30, Y+8	; 0x08
     eaa:	f9 85       	ldd	r31, Y+9	; 0x09
     eac:	67 83       	std	Z+7, r22	; 0x07
     eae:	e8 85       	ldd	r30, Y+8	; 0x08
     eb0:	f9 85       	ldd	r31, Y+9	; 0x09
     eb2:	84 81       	ldd	r24, Z+4	; 0x04
     eb4:	8c 7f       	andi	r24, 0xFC	; 252
     eb6:	e9 f3       	breq	.-6      	; 0xeb2 <_ZN3twi11WriteSingleEi+0x10>
     eb8:	ce 01       	movw	r24, r28
     eba:	0e 94 0c 07 	call	0xe18	; 0xe18 <_ZN3twi10errorCheckEv>
     ebe:	e8 85       	ldd	r30, Y+8	; 0x08
     ec0:	f9 85       	ldd	r31, Y+9	; 0x09
     ec2:	94 81       	ldd	r25, Z+4	; 0x04
     ec4:	89 2f       	mov	r24, r25
     ec6:	80 71       	andi	r24, 0x10	; 16
     ec8:	94 ff       	sbrs	r25, 4
     eca:	0c c0       	rjmp	.+24     	; 0xee4 <_ZN3twi11WriteSingleEi+0x42>
     ecc:	84 81       	ldd	r24, Z+4	; 0x04
     ece:	80 64       	ori	r24, 0x40	; 64
     ed0:	84 83       	std	Z+4, r24	; 0x04
     ed2:	e8 85       	ldd	r30, Y+8	; 0x08
     ed4:	f9 85       	ldd	r31, Y+9	; 0x09
     ed6:	84 81       	ldd	r24, Z+4	; 0x04
     ed8:	80 68       	ori	r24, 0x80	; 128
     eda:	84 83       	std	Z+4, r24	; 0x04
     edc:	e8 85       	ldd	r30, Y+8	; 0x08
     ede:	f9 85       	ldd	r31, Y+9	; 0x09
     ee0:	81 e0       	ldi	r24, 0x01	; 1
     ee2:	84 83       	std	Z+4, r24	; 0x04
     ee4:	df 91       	pop	r29
     ee6:	cf 91       	pop	r28
     ee8:	08 95       	ret

00000eea <_ZN3twi4StopEv>:

void twi::Stop(void)
{
     eea:	cf 93       	push	r28
     eec:	df 93       	push	r29
     eee:	ec 01       	movw	r28, r24
	while(!(port->MASTER.STATUS&0xfc));
     ef0:	e8 85       	ldd	r30, Y+8	; 0x08
     ef2:	f9 85       	ldd	r31, Y+9	; 0x09
     ef4:	84 81       	ldd	r24, Z+4	; 0x04
     ef6:	8c 7f       	andi	r24, 0xFC	; 252
     ef8:	e9 f3       	breq	.-6      	; 0xef4 <_ZN3twi4StopEv+0xa>

	errorCheck();
     efa:	ce 01       	movw	r24, r28
     efc:	0e 94 0c 07 	call	0xe18	; 0xe18 <_ZN3twi10errorCheckEv>

	port->MASTER.CTRLC=TWI_MASTER_CMD_STOP_gc;
     f00:	e8 85       	ldd	r30, Y+8	; 0x08
     f02:	f9 85       	ldd	r31, Y+9	; 0x09
     f04:	83 e0       	ldi	r24, 0x03	; 3
     f06:	83 83       	std	Z+3, r24	; 0x03
	return;
}
     f08:	df 91       	pop	r29
     f0a:	cf 91       	pop	r28
     f0c:	08 95       	ret

00000f0e <_ZN5usartC1EP12USART_structP11PORT_struct>:
     f0e:	fc 01       	movw	r30, r24
     f10:	40 83       	st	Z, r20
     f12:	51 83       	std	Z+1, r21	; 0x01
     f14:	62 83       	std	Z+2, r22	; 0x02
     f16:	73 83       	std	Z+3, r23	; 0x03
     f18:	88 e0       	ldi	r24, 0x08	; 8
     f1a:	da 01       	movw	r26, r20
     f1c:	11 96       	adiw	r26, 0x01	; 1
     f1e:	8c 93       	st	X, r24
     f20:	a0 81       	ld	r26, Z
     f22:	b1 81       	ldd	r27, Z+1	; 0x01
     f24:	84 e0       	ldi	r24, 0x04	; 4
     f26:	12 96       	adiw	r26, 0x02	; 2
     f28:	8c 93       	st	X, r24
     f2a:	a2 81       	ldd	r26, Z+2	; 0x02
     f2c:	b3 81       	ldd	r27, Z+3	; 0x03
     f2e:	83 e3       	ldi	r24, 0x33	; 51
     f30:	16 96       	adiw	r26, 0x06	; 6
     f32:	8c 93       	st	X, r24
     f34:	a2 81       	ldd	r26, Z+2	; 0x02
     f36:	b3 81       	ldd	r27, Z+3	; 0x03
     f38:	17 96       	adiw	r26, 0x07	; 7
     f3a:	1c 92       	st	X, r1
     f3c:	a2 81       	ldd	r26, Z+2	; 0x02
     f3e:	b3 81       	ldd	r27, Z+3	; 0x03
     f40:	83 e0       	ldi	r24, 0x03	; 3
     f42:	15 96       	adiw	r26, 0x05	; 5
     f44:	8c 93       	st	X, r24
     f46:	02 80       	ldd	r0, Z+2	; 0x02
     f48:	f3 81       	ldd	r31, Z+3	; 0x03
     f4a:	e0 2d       	mov	r30, r0
     f4c:	88 e1       	ldi	r24, 0x18	; 24
     f4e:	84 83       	std	Z+4, r24	; 0x04
     f50:	08 95       	ret

00000f52 <_ZN5usart4sendEc>:
     f52:	dc 01       	movw	r26, r24
     f54:	12 96       	adiw	r26, 0x02	; 2
     f56:	ed 91       	ld	r30, X+
     f58:	fc 91       	ld	r31, X
     f5a:	13 97       	sbiw	r26, 0x03	; 3
     f5c:	81 81       	ldd	r24, Z+1	; 0x01
     f5e:	85 ff       	sbrs	r24, 5
     f60:	fd cf       	rjmp	.-6      	; 0xf5c <_ZN5usart4sendEc+0xa>
     f62:	60 83       	st	Z, r22
     f64:	08 95       	ret

00000f66 <_ZN5usart6stringEPKc>:
     f66:	0f 93       	push	r16
     f68:	1f 93       	push	r17
     f6a:	cf 93       	push	r28
     f6c:	df 93       	push	r29
     f6e:	eb 01       	movw	r28, r22
     f70:	68 81       	ld	r22, Y
     f72:	66 23       	and	r22, r22
     f74:	41 f0       	breq	.+16     	; 0xf86 <_ZN5usart6stringEPKc+0x20>
     f76:	8c 01       	movw	r16, r24
     f78:	21 96       	adiw	r28, 0x01	; 1
     f7a:	c8 01       	movw	r24, r16
     f7c:	0e 94 a9 07 	call	0xf52	; 0xf52 <_ZN5usart4sendEc>
     f80:	69 91       	ld	r22, Y+
     f82:	61 11       	cpse	r22, r1
     f84:	fa cf       	rjmp	.-12     	; 0xf7a <_ZN5usart6stringEPKc+0x14>
     f86:	df 91       	pop	r29
     f88:	cf 91       	pop	r28
     f8a:	1f 91       	pop	r17
     f8c:	0f 91       	pop	r16
     f8e:	08 95       	ret

00000f90 <_ZN5usart6putdecEj>:
     f90:	ef 92       	push	r14
     f92:	ff 92       	push	r15
     f94:	0f 93       	push	r16
     f96:	1f 93       	push	r17
     f98:	cf 93       	push	r28
     f9a:	df 93       	push	r29
     f9c:	7c 01       	movw	r14, r24
     f9e:	eb 01       	movw	r28, r22
     fa0:	9b 01       	movw	r18, r22
     fa2:	36 95       	lsr	r19
     fa4:	27 95       	ror	r18
     fa6:	36 95       	lsr	r19
     fa8:	27 95       	ror	r18
     faa:	36 95       	lsr	r19
     fac:	27 95       	ror	r18
     fae:	a5 ec       	ldi	r26, 0xC5	; 197
     fb0:	b0 e2       	ldi	r27, 0x20	; 32
     fb2:	0e 94 60 08 	call	0x10c0	; 0x10c0 <__umulhisi3>
     fb6:	8c 01       	movw	r16, r24
     fb8:	12 95       	swap	r17
     fba:	02 95       	swap	r16
     fbc:	0f 70       	andi	r16, 0x0F	; 15
     fbe:	01 27       	eor	r16, r17
     fc0:	1f 70       	andi	r17, 0x0F	; 15
     fc2:	01 27       	eor	r16, r17
     fc4:	60 e3       	ldi	r22, 0x30	; 48
     fc6:	60 0f       	add	r22, r16
     fc8:	c7 01       	movw	r24, r14
     fca:	0e 94 a9 07 	call	0xf52	; 0xf52 <_ZN5usart4sendEc>
     fce:	28 ee       	ldi	r18, 0xE8	; 232
     fd0:	33 e0       	ldi	r19, 0x03	; 3
     fd2:	02 9f       	mul	r16, r18
     fd4:	c0 01       	movw	r24, r0
     fd6:	03 9f       	mul	r16, r19
     fd8:	90 0d       	add	r25, r0
     fda:	12 9f       	mul	r17, r18
     fdc:	90 0d       	add	r25, r0
     fde:	11 24       	eor	r1, r1
     fe0:	c8 1b       	sub	r28, r24
     fe2:	d9 0b       	sbc	r29, r25
     fe4:	9e 01       	movw	r18, r28
     fe6:	36 95       	lsr	r19
     fe8:	27 95       	ror	r18
     fea:	36 95       	lsr	r19
     fec:	27 95       	ror	r18
     fee:	ab e7       	ldi	r26, 0x7B	; 123
     ff0:	b4 e1       	ldi	r27, 0x14	; 20
     ff2:	0e 94 60 08 	call	0x10c0	; 0x10c0 <__umulhisi3>
     ff6:	8c 01       	movw	r16, r24
     ff8:	16 95       	lsr	r17
     ffa:	07 95       	ror	r16
     ffc:	60 e3       	ldi	r22, 0x30	; 48
     ffe:	60 0f       	add	r22, r16
    1000:	c7 01       	movw	r24, r14
    1002:	0e 94 a9 07 	call	0xf52	; 0xf52 <_ZN5usart4sendEc>
    1006:	24 e6       	ldi	r18, 0x64	; 100
    1008:	20 9f       	mul	r18, r16
    100a:	c0 01       	movw	r24, r0
    100c:	21 9f       	mul	r18, r17
    100e:	90 0d       	add	r25, r0
    1010:	11 24       	eor	r1, r1
    1012:	c8 1b       	sub	r28, r24
    1014:	d9 0b       	sbc	r29, r25
    1016:	9e 01       	movw	r18, r28
    1018:	ad ec       	ldi	r26, 0xCD	; 205
    101a:	bc ec       	ldi	r27, 0xCC	; 204
    101c:	0e 94 60 08 	call	0x10c0	; 0x10c0 <__umulhisi3>
    1020:	8c 01       	movw	r16, r24
    1022:	16 95       	lsr	r17
    1024:	07 95       	ror	r16
    1026:	16 95       	lsr	r17
    1028:	07 95       	ror	r16
    102a:	16 95       	lsr	r17
    102c:	07 95       	ror	r16
    102e:	60 e3       	ldi	r22, 0x30	; 48
    1030:	60 0f       	add	r22, r16
    1032:	c7 01       	movw	r24, r14
    1034:	0e 94 a9 07 	call	0xf52	; 0xf52 <_ZN5usart4sendEc>
    1038:	c8 01       	movw	r24, r16
    103a:	88 0f       	add	r24, r24
    103c:	99 1f       	adc	r25, r25
    103e:	00 0f       	add	r16, r16
    1040:	11 1f       	adc	r17, r17
    1042:	00 0f       	add	r16, r16
    1044:	11 1f       	adc	r17, r17
    1046:	00 0f       	add	r16, r16
    1048:	11 1f       	adc	r17, r17
    104a:	08 0f       	add	r16, r24
    104c:	19 1f       	adc	r17, r25
    104e:	c0 1b       	sub	r28, r16
    1050:	d1 0b       	sbc	r29, r17
    1052:	6c 2f       	mov	r22, r28
    1054:	60 5d       	subi	r22, 0xD0	; 208
    1056:	c7 01       	movw	r24, r14
    1058:	0e 94 a9 07 	call	0xf52	; 0xf52 <_ZN5usart4sendEc>
    105c:	df 91       	pop	r29
    105e:	cf 91       	pop	r28
    1060:	1f 91       	pop	r17
    1062:	0f 91       	pop	r16
    1064:	ff 90       	pop	r15
    1066:	ef 90       	pop	r14
    1068:	08 95       	ret

0000106a <__udivmodsi4>:
    106a:	a1 e2       	ldi	r26, 0x21	; 33
    106c:	1a 2e       	mov	r1, r26
    106e:	aa 1b       	sub	r26, r26
    1070:	bb 1b       	sub	r27, r27
    1072:	fd 01       	movw	r30, r26
    1074:	0d c0       	rjmp	.+26     	; 0x1090 <__udivmodsi4_ep>

00001076 <__udivmodsi4_loop>:
    1076:	aa 1f       	adc	r26, r26
    1078:	bb 1f       	adc	r27, r27
    107a:	ee 1f       	adc	r30, r30
    107c:	ff 1f       	adc	r31, r31
    107e:	a2 17       	cp	r26, r18
    1080:	b3 07       	cpc	r27, r19
    1082:	e4 07       	cpc	r30, r20
    1084:	f5 07       	cpc	r31, r21
    1086:	20 f0       	brcs	.+8      	; 0x1090 <__udivmodsi4_ep>
    1088:	a2 1b       	sub	r26, r18
    108a:	b3 0b       	sbc	r27, r19
    108c:	e4 0b       	sbc	r30, r20
    108e:	f5 0b       	sbc	r31, r21

00001090 <__udivmodsi4_ep>:
    1090:	66 1f       	adc	r22, r22
    1092:	77 1f       	adc	r23, r23
    1094:	88 1f       	adc	r24, r24
    1096:	99 1f       	adc	r25, r25
    1098:	1a 94       	dec	r1
    109a:	69 f7       	brne	.-38     	; 0x1076 <__udivmodsi4_loop>
    109c:	60 95       	com	r22
    109e:	70 95       	com	r23
    10a0:	80 95       	com	r24
    10a2:	90 95       	com	r25
    10a4:	9b 01       	movw	r18, r22
    10a6:	ac 01       	movw	r20, r24
    10a8:	bd 01       	movw	r22, r26
    10aa:	cf 01       	movw	r24, r30
    10ac:	08 95       	ret

000010ae <__tablejump2__>:
    10ae:	ee 0f       	add	r30, r30
    10b0:	ff 1f       	adc	r31, r31
    10b2:	88 1f       	adc	r24, r24
    10b4:	8b bf       	out	0x3b, r24	; 59
    10b6:	07 90       	elpm	r0, Z+
    10b8:	f6 91       	elpm	r31, Z
    10ba:	e0 2d       	mov	r30, r0
    10bc:	1b be       	out	0x3b, r1	; 59
    10be:	19 94       	eijmp

000010c0 <__umulhisi3>:
    10c0:	a2 9f       	mul	r26, r18
    10c2:	b0 01       	movw	r22, r0
    10c4:	b3 9f       	mul	r27, r19
    10c6:	c0 01       	movw	r24, r0
    10c8:	a3 9f       	mul	r26, r19
    10ca:	70 0d       	add	r23, r0
    10cc:	81 1d       	adc	r24, r1
    10ce:	11 24       	eor	r1, r1
    10d0:	91 1d       	adc	r25, r1
    10d2:	b2 9f       	mul	r27, r18
    10d4:	70 0d       	add	r23, r0
    10d6:	81 1d       	adc	r24, r1
    10d8:	11 24       	eor	r1, r1
    10da:	91 1d       	adc	r25, r1
    10dc:	08 95       	ret

000010de <_exit>:
    10de:	f8 94       	cli

000010e0 <__stop_program>:
    10e0:	ff cf       	rjmp	.-2      	; 0x10e0 <__stop_program>
