
Aquila.elf:     file format elf32-avr

Sections:
Idx Name          Size      VMA       LMA       File off  Algn
  0 .text         000016bc  00000000  00000000  000000b4  2**1
                  CONTENTS, ALLOC, LOAD, READONLY, CODE
  1 .data         0000001e  00802000  000016bc  00001770  2**0
                  CONTENTS, ALLOC, LOAD, DATA
  2 .bss          00001857  0080201e  0080201e  0000178e  2**0
                  ALLOC
  3 .eeprom       00000002  00810000  00810000  0000178e  2**0
                  CONTENTS, ALLOC, LOAD, DATA
  4 .comment      00000030  00000000  00000000  00001790  2**0
                  CONTENTS, READONLY
  5 .note.gnu.avr.deviceinfo 00000040  00000000  00000000  000017c0  2**2
                  CONTENTS, READONLY
  6 .debug_aranges 000003d0  00000000  00000000  00001800  2**0
                  CONTENTS, READONLY, DEBUGGING
  7 .debug_info   0001d26e  00000000  00000000  00001bd0  2**0
                  CONTENTS, READONLY, DEBUGGING
  8 .debug_abbrev 000056df  00000000  00000000  0001ee3e  2**0
                  CONTENTS, READONLY, DEBUGGING
  9 .debug_line   000064a8  00000000  00000000  0002451d  2**0
                  CONTENTS, READONLY, DEBUGGING
 10 .debug_frame  00000d08  00000000  00000000  0002a9c8  2**2
                  CONTENTS, READONLY, DEBUGGING
 11 .debug_str    00004504  00000000  00000000  0002b6d0  2**0
                  CONTENTS, READONLY, DEBUGGING
 12 .debug_loc    0000d011  00000000  00000000  0002fbd4  2**0
                  CONTENTS, READONLY, DEBUGGING
 13 .debug_ranges 00000488  00000000  00000000  0003cbe5  2**0
                  CONTENTS, READONLY, DEBUGGING

Disassembly of section .text:

00000000 <__vectors>:
       0:	0c 94 20 01 	jmp	0x240	; 0x240 <__ctors_end>
       4:	0c 94 56 01 	jmp	0x2ac	; 0x2ac <__bad_interrupt>
       8:	0c 94 56 01 	jmp	0x2ac	; 0x2ac <__bad_interrupt>
       c:	0c 94 56 01 	jmp	0x2ac	; 0x2ac <__bad_interrupt>
      10:	0c 94 56 01 	jmp	0x2ac	; 0x2ac <__bad_interrupt>
      14:	0c 94 56 01 	jmp	0x2ac	; 0x2ac <__bad_interrupt>
      18:	0c 94 56 01 	jmp	0x2ac	; 0x2ac <__bad_interrupt>
      1c:	0c 94 56 01 	jmp	0x2ac	; 0x2ac <__bad_interrupt>
      20:	0c 94 56 01 	jmp	0x2ac	; 0x2ac <__bad_interrupt>
      24:	0c 94 56 01 	jmp	0x2ac	; 0x2ac <__bad_interrupt>
      28:	0c 94 56 01 	jmp	0x2ac	; 0x2ac <__bad_interrupt>
      2c:	0c 94 56 01 	jmp	0x2ac	; 0x2ac <__bad_interrupt>
      30:	0c 94 56 01 	jmp	0x2ac	; 0x2ac <__bad_interrupt>
      34:	0c 94 56 01 	jmp	0x2ac	; 0x2ac <__bad_interrupt>
      38:	0c 94 56 01 	jmp	0x2ac	; 0x2ac <__bad_interrupt>
      3c:	0c 94 56 01 	jmp	0x2ac	; 0x2ac <__bad_interrupt>
      40:	0c 94 56 01 	jmp	0x2ac	; 0x2ac <__bad_interrupt>
      44:	0c 94 56 01 	jmp	0x2ac	; 0x2ac <__bad_interrupt>
      48:	0c 94 56 01 	jmp	0x2ac	; 0x2ac <__bad_interrupt>
      4c:	0c 94 56 01 	jmp	0x2ac	; 0x2ac <__bad_interrupt>
      50:	0c 94 56 01 	jmp	0x2ac	; 0x2ac <__bad_interrupt>
      54:	0c 94 56 01 	jmp	0x2ac	; 0x2ac <__bad_interrupt>
      58:	0c 94 56 01 	jmp	0x2ac	; 0x2ac <__bad_interrupt>
      5c:	0c 94 56 01 	jmp	0x2ac	; 0x2ac <__bad_interrupt>
      60:	0c 94 56 01 	jmp	0x2ac	; 0x2ac <__bad_interrupt>
      64:	0c 94 56 01 	jmp	0x2ac	; 0x2ac <__bad_interrupt>
      68:	0c 94 56 01 	jmp	0x2ac	; 0x2ac <__bad_interrupt>
      6c:	0c 94 56 01 	jmp	0x2ac	; 0x2ac <__bad_interrupt>
      70:	0c 94 56 01 	jmp	0x2ac	; 0x2ac <__bad_interrupt>
      74:	0c 94 56 01 	jmp	0x2ac	; 0x2ac <__bad_interrupt>
      78:	0c 94 56 01 	jmp	0x2ac	; 0x2ac <__bad_interrupt>
      7c:	0c 94 56 01 	jmp	0x2ac	; 0x2ac <__bad_interrupt>
      80:	0c 94 56 01 	jmp	0x2ac	; 0x2ac <__bad_interrupt>
      84:	0c 94 56 01 	jmp	0x2ac	; 0x2ac <__bad_interrupt>
      88:	0c 94 56 01 	jmp	0x2ac	; 0x2ac <__bad_interrupt>
      8c:	0c 94 56 01 	jmp	0x2ac	; 0x2ac <__bad_interrupt>
      90:	0c 94 56 01 	jmp	0x2ac	; 0x2ac <__bad_interrupt>
      94:	0c 94 56 01 	jmp	0x2ac	; 0x2ac <__bad_interrupt>
      98:	0c 94 56 01 	jmp	0x2ac	; 0x2ac <__bad_interrupt>
      9c:	0c 94 56 01 	jmp	0x2ac	; 0x2ac <__bad_interrupt>
      a0:	0c 94 56 01 	jmp	0x2ac	; 0x2ac <__bad_interrupt>
      a4:	0c 94 56 01 	jmp	0x2ac	; 0x2ac <__bad_interrupt>
      a8:	0c 94 56 01 	jmp	0x2ac	; 0x2ac <__bad_interrupt>
      ac:	0c 94 56 01 	jmp	0x2ac	; 0x2ac <__bad_interrupt>
      b0:	0c 94 56 01 	jmp	0x2ac	; 0x2ac <__bad_interrupt>
      b4:	0c 94 56 01 	jmp	0x2ac	; 0x2ac <__bad_interrupt>
      b8:	0c 94 56 01 	jmp	0x2ac	; 0x2ac <__bad_interrupt>
      bc:	0c 94 56 01 	jmp	0x2ac	; 0x2ac <__bad_interrupt>
      c0:	0c 94 56 01 	jmp	0x2ac	; 0x2ac <__bad_interrupt>
      c4:	0c 94 56 01 	jmp	0x2ac	; 0x2ac <__bad_interrupt>
      c8:	0c 94 56 01 	jmp	0x2ac	; 0x2ac <__bad_interrupt>
      cc:	0c 94 56 01 	jmp	0x2ac	; 0x2ac <__bad_interrupt>
      d0:	0c 94 56 01 	jmp	0x2ac	; 0x2ac <__bad_interrupt>
      d4:	0c 94 56 01 	jmp	0x2ac	; 0x2ac <__bad_interrupt>
      d8:	0c 94 56 01 	jmp	0x2ac	; 0x2ac <__bad_interrupt>
      dc:	0c 94 56 01 	jmp	0x2ac	; 0x2ac <__bad_interrupt>
      e0:	0c 94 56 01 	jmp	0x2ac	; 0x2ac <__bad_interrupt>
      e4:	0c 94 56 01 	jmp	0x2ac	; 0x2ac <__bad_interrupt>
      e8:	0c 94 56 01 	jmp	0x2ac	; 0x2ac <__bad_interrupt>
      ec:	0c 94 56 01 	jmp	0x2ac	; 0x2ac <__bad_interrupt>
      f0:	0c 94 56 01 	jmp	0x2ac	; 0x2ac <__bad_interrupt>
      f4:	0c 94 56 01 	jmp	0x2ac	; 0x2ac <__bad_interrupt>
      f8:	0c 94 56 01 	jmp	0x2ac	; 0x2ac <__bad_interrupt>
      fc:	0c 94 56 01 	jmp	0x2ac	; 0x2ac <__bad_interrupt>
     100:	0c 94 56 01 	jmp	0x2ac	; 0x2ac <__bad_interrupt>
     104:	0c 94 56 01 	jmp	0x2ac	; 0x2ac <__bad_interrupt>
     108:	0c 94 56 01 	jmp	0x2ac	; 0x2ac <__bad_interrupt>
     10c:	0c 94 56 01 	jmp	0x2ac	; 0x2ac <__bad_interrupt>
     110:	0c 94 56 01 	jmp	0x2ac	; 0x2ac <__bad_interrupt>
     114:	0c 94 56 01 	jmp	0x2ac	; 0x2ac <__bad_interrupt>
     118:	0c 94 56 01 	jmp	0x2ac	; 0x2ac <__bad_interrupt>
     11c:	0c 94 56 01 	jmp	0x2ac	; 0x2ac <__bad_interrupt>
     120:	0c 94 56 01 	jmp	0x2ac	; 0x2ac <__bad_interrupt>
     124:	0c 94 56 01 	jmp	0x2ac	; 0x2ac <__bad_interrupt>
     128:	0c 94 56 01 	jmp	0x2ac	; 0x2ac <__bad_interrupt>
     12c:	0c 94 56 01 	jmp	0x2ac	; 0x2ac <__bad_interrupt>
     130:	0c 94 56 01 	jmp	0x2ac	; 0x2ac <__bad_interrupt>
     134:	0c 94 97 09 	jmp	0x132e	; 0x132e <__vector_77>
     138:	0c 94 56 01 	jmp	0x2ac	; 0x2ac <__bad_interrupt>
     13c:	0c 94 56 01 	jmp	0x2ac	; 0x2ac <__bad_interrupt>
     140:	0c 94 56 01 	jmp	0x2ac	; 0x2ac <__bad_interrupt>
     144:	0c 94 56 01 	jmp	0x2ac	; 0x2ac <__bad_interrupt>
     148:	0c 94 56 01 	jmp	0x2ac	; 0x2ac <__bad_interrupt>
     14c:	0c 94 56 01 	jmp	0x2ac	; 0x2ac <__bad_interrupt>
     150:	0c 94 56 01 	jmp	0x2ac	; 0x2ac <__bad_interrupt>
     154:	0c 94 56 01 	jmp	0x2ac	; 0x2ac <__bad_interrupt>
     158:	0c 94 56 01 	jmp	0x2ac	; 0x2ac <__bad_interrupt>
     15c:	0c 94 56 01 	jmp	0x2ac	; 0x2ac <__bad_interrupt>
     160:	0c 94 56 01 	jmp	0x2ac	; 0x2ac <__bad_interrupt>
     164:	0c 94 56 01 	jmp	0x2ac	; 0x2ac <__bad_interrupt>
     168:	0c 94 56 01 	jmp	0x2ac	; 0x2ac <__bad_interrupt>
     16c:	0c 94 56 01 	jmp	0x2ac	; 0x2ac <__bad_interrupt>
     170:	0c 94 56 01 	jmp	0x2ac	; 0x2ac <__bad_interrupt>
     174:	0c 94 56 01 	jmp	0x2ac	; 0x2ac <__bad_interrupt>
     178:	0c 94 56 01 	jmp	0x2ac	; 0x2ac <__bad_interrupt>
     17c:	0c 94 56 01 	jmp	0x2ac	; 0x2ac <__bad_interrupt>
     180:	0c 94 56 01 	jmp	0x2ac	; 0x2ac <__bad_interrupt>
     184:	0c 94 56 01 	jmp	0x2ac	; 0x2ac <__bad_interrupt>
     188:	0c 94 56 01 	jmp	0x2ac	; 0x2ac <__bad_interrupt>
     18c:	0c 94 56 01 	jmp	0x2ac	; 0x2ac <__bad_interrupt>
     190:	0c 94 56 01 	jmp	0x2ac	; 0x2ac <__bad_interrupt>
     194:	0c 94 56 01 	jmp	0x2ac	; 0x2ac <__bad_interrupt>
     198:	0c 94 56 01 	jmp	0x2ac	; 0x2ac <__bad_interrupt>
     19c:	0c 94 56 01 	jmp	0x2ac	; 0x2ac <__bad_interrupt>
     1a0:	0c 94 56 01 	jmp	0x2ac	; 0x2ac <__bad_interrupt>
     1a4:	0c 94 56 01 	jmp	0x2ac	; 0x2ac <__bad_interrupt>
     1a8:	0c 94 56 01 	jmp	0x2ac	; 0x2ac <__bad_interrupt>
     1ac:	0c 94 56 01 	jmp	0x2ac	; 0x2ac <__bad_interrupt>
     1b0:	0c 94 56 01 	jmp	0x2ac	; 0x2ac <__bad_interrupt>
     1b4:	0c 94 56 01 	jmp	0x2ac	; 0x2ac <__bad_interrupt>
     1b8:	0c 94 56 01 	jmp	0x2ac	; 0x2ac <__bad_interrupt>
     1bc:	0c 94 56 01 	jmp	0x2ac	; 0x2ac <__bad_interrupt>
     1c0:	0c 94 56 01 	jmp	0x2ac	; 0x2ac <__bad_interrupt>
     1c4:	0c 94 56 01 	jmp	0x2ac	; 0x2ac <__bad_interrupt>
     1c8:	0c 94 56 01 	jmp	0x2ac	; 0x2ac <__bad_interrupt>
     1cc:	0c 94 56 01 	jmp	0x2ac	; 0x2ac <__bad_interrupt>
     1d0:	0c 94 56 01 	jmp	0x2ac	; 0x2ac <__bad_interrupt>
     1d4:	0c 94 56 01 	jmp	0x2ac	; 0x2ac <__bad_interrupt>
     1d8:	0c 94 56 01 	jmp	0x2ac	; 0x2ac <__bad_interrupt>
     1dc:	0c 94 56 01 	jmp	0x2ac	; 0x2ac <__bad_interrupt>
     1e0:	0c 94 56 01 	jmp	0x2ac	; 0x2ac <__bad_interrupt>
     1e4:	0c 94 56 01 	jmp	0x2ac	; 0x2ac <__bad_interrupt>
     1e8:	0c 94 56 01 	jmp	0x2ac	; 0x2ac <__bad_interrupt>
     1ec:	0c 94 56 01 	jmp	0x2ac	; 0x2ac <__bad_interrupt>
     1f0:	0c 94 56 01 	jmp	0x2ac	; 0x2ac <__bad_interrupt>
     1f4:	0c 94 56 01 	jmp	0x2ac	; 0x2ac <__bad_interrupt>
     1f8:	0c 94 56 01 	jmp	0x2ac	; 0x2ac <__bad_interrupt>
     1fc:	03 09       	sbc	r16, r3
     1fe:	12 09       	sbc	r17, r2
     200:	7b 09       	sbc	r23, r11
     202:	7b 09       	sbc	r23, r11
     204:	21 09       	sbc	r18, r1
     206:	30 09       	sbc	r19, r0
     208:	3f 09       	sbc	r19, r15
     20a:	4e 09       	sbc	r20, r14
     20c:	5d 09       	sbc	r21, r13
     20e:	6c 09       	sbc	r22, r12

00000210 <__trampolines_start>:
     210:	0c 94 4e 09 	jmp	0x129c	; 0x129c <_ZN5motor4moveEh+0xba>
     214:	0c 94 8d 09 	jmp	0x131a	; 0x131a <_GLOBAL__sub_I_motor_spi>
     218:	0c 94 3f 09 	jmp	0x127e	; 0x127e <_ZN5motor4moveEh+0x9c>
     21c:	0c 94 5d 09 	jmp	0x12ba	; 0x12ba <_ZN5motor4moveEh+0xd8>
     220:	0c 94 03 09 	jmp	0x1206	; 0x1206 <_ZN5motor4moveEh+0x24>
     224:	0c 94 7b 09 	jmp	0x12f6	; 0x12f6 <_ZN5motor4moveEh+0x114>
     228:	0c 94 85 01 	jmp	0x30a	; 0x30a <_GLOBAL__sub_I_mall>
     22c:	0c 94 12 09 	jmp	0x1224	; 0x1224 <_ZN5motor4moveEh+0x42>
     230:	0c 94 30 09 	jmp	0x1260	; 0x1260 <_ZN5motor4moveEh+0x7e>
     234:	0c 94 6c 09 	jmp	0x12d8	; 0x12d8 <_ZN5motor4moveEh+0xf6>
     238:	0c 94 21 09 	jmp	0x1242	; 0x1242 <_ZN5motor4moveEh+0x60>

0000023c <__ctors_start>:
     23c:	85 01       	movw	r16, r10
     23e:	8d 09       	sbc	r24, r13

00000240 <__ctors_end>:
     240:	11 24       	eor	r1, r1
     242:	1f be       	out	0x3f, r1	; 63
     244:	cf ef       	ldi	r28, 0xFF	; 255
     246:	cd bf       	out	0x3d, r28	; 61
     248:	df e3       	ldi	r29, 0x3F	; 63
     24a:	de bf       	out	0x3e, r29	; 62
     24c:	00 e0       	ldi	r16, 0x00	; 0
     24e:	0c bf       	out	0x3c, r16	; 60
     250:	18 be       	out	0x38, r1	; 56
     252:	19 be       	out	0x39, r1	; 57
     254:	1a be       	out	0x3a, r1	; 58
     256:	1b be       	out	0x3b, r1	; 59

00000258 <__do_copy_data>:
     258:	10 e2       	ldi	r17, 0x20	; 32
     25a:	a0 e0       	ldi	r26, 0x00	; 0
     25c:	b0 e2       	ldi	r27, 0x20	; 32
     25e:	ec eb       	ldi	r30, 0xBC	; 188
     260:	f6 e1       	ldi	r31, 0x16	; 22
     262:	00 e0       	ldi	r16, 0x00	; 0
     264:	0b bf       	out	0x3b, r16	; 59
     266:	02 c0       	rjmp	.+4      	; 0x26c <__do_copy_data+0x14>
     268:	07 90       	elpm	r0, Z+
     26a:	0d 92       	st	X+, r0
     26c:	ae 31       	cpi	r26, 0x1E	; 30
     26e:	b1 07       	cpc	r27, r17
     270:	d9 f7       	brne	.-10     	; 0x268 <__do_copy_data+0x10>
     272:	1b be       	out	0x3b, r1	; 59

00000274 <__do_clear_bss>:
     274:	28 e3       	ldi	r18, 0x38	; 56
     276:	ae e1       	ldi	r26, 0x1E	; 30
     278:	b0 e2       	ldi	r27, 0x20	; 32
     27a:	01 c0       	rjmp	.+2      	; 0x27e <.do_clear_bss_start>

0000027c <.do_clear_bss_loop>:
     27c:	1d 92       	st	X+, r1

0000027e <.do_clear_bss_start>:
     27e:	a5 37       	cpi	r26, 0x75	; 117
     280:	b2 07       	cpc	r27, r18
     282:	e1 f7       	brne	.-8      	; 0x27c <.do_clear_bss_loop>

00000284 <__do_global_ctors>:
     284:	11 e0       	ldi	r17, 0x01	; 1
     286:	c0 e2       	ldi	r28, 0x20	; 32
     288:	d1 e0       	ldi	r29, 0x01	; 1
     28a:	00 e0       	ldi	r16, 0x00	; 0
     28c:	06 c0       	rjmp	.+12     	; 0x29a <__do_global_ctors+0x16>
     28e:	21 97       	sbiw	r28, 0x01	; 1
     290:	01 09       	sbc	r16, r1
     292:	80 2f       	mov	r24, r16
     294:	fe 01       	movw	r30, r28
     296:	0e 94 44 0b 	call	0x1688	; 0x1688 <__tablejump2__>
     29a:	ce 31       	cpi	r28, 0x1E	; 30
     29c:	d1 07       	cpc	r29, r17
     29e:	80 e0       	ldi	r24, 0x00	; 0
     2a0:	08 07       	cpc	r16, r24
     2a2:	a9 f7       	brne	.-22     	; 0x28e <__do_global_ctors+0xa>
     2a4:	0e 94 58 01 	call	0x2b0	; 0x2b0 <main>
     2a8:	0c 94 5c 0b 	jmp	0x16b8	; 0x16b8 <_exit>

000002ac <__bad_interrupt>:
     2ac:	0c 94 00 00 	jmp	0	; 0x0 <__vectors>

000002b0 <main>:
	lcd_clear();
	//ping->for_cp(ping_control)->for_write_walls1->write_walls(petal)
}

int main(){	
	init_all();
     2b0:	0e 94 9d 06 	call	0xd3a	; 0xd3a <_Z8init_allv>
	#else
		//round up by default
		__ticks_dc = (uint32_t)(ceil(fabs(__tmp)));
	#endif

	__builtin_avr_delay_cycles(__ticks_dc);
     2b4:	2f ef       	ldi	r18, 0xFF	; 255
     2b6:	87 e8       	ldi	r24, 0x87	; 135
     2b8:	93 e1       	ldi	r25, 0x13	; 19
     2ba:	21 50       	subi	r18, 0x01	; 1
     2bc:	80 40       	sbci	r24, 0x00	; 0
     2be:	90 40       	sbci	r25, 0x00	; 0
     2c0:	e1 f7       	brne	.-8      	; 0x2ba <main+0xa>
     2c2:	00 c0       	rjmp	.+0      	; 0x2c4 <main+0x14>
     2c4:	00 00       	nop
	_delay_ms(200);
	lcd_putstr(LCD1_TWI,"Hello");
     2c6:	68 e0       	ldi	r22, 0x08	; 8
     2c8:	70 e2       	ldi	r23, 0x20	; 32
     2ca:	80 eb       	ldi	r24, 0xB0	; 176
     2cc:	94 e0       	ldi	r25, 0x04	; 4
     2ce:	0e 94 f7 07 	call	0xfee	; 0xfee <_Z10lcd_putstrP10TWI_structPKc>
	motor::wait();
     2d2:	0e 94 e4 08 	call	0x11c8	; 0x11c8 <_ZN5motor4waitEv>
	lcd_clear();
     2d6:	0e 94 59 08 	call	0x10b2	; 0x10b2 <_Z9lcd_clearv>
	lcd_putstr(LCD1_TWI,"Ready!");
     2da:	6e e0       	ldi	r22, 0x0E	; 14
     2dc:	70 e2       	ldi	r23, 0x20	; 32
     2de:	80 eb       	ldi	r24, 0xB0	; 176
     2e0:	94 e0       	ldi	r25, 0x04	; 4
     2e2:	0e 94 f7 07 	call	0xfee	; 0xfee <_Z10lcd_putstrP10TWI_structPKc>
	//lcd_clear();
	serial.string("wake_up\n");
     2e6:	65 e1       	ldi	r22, 0x15	; 21
     2e8:	70 e2       	ldi	r23, 0x20	; 32
     2ea:	8e e1       	ldi	r24, 0x1E	; 30
     2ec:	90 e2       	ldi	r25, 0x20	; 32
     2ee:	0e 94 a0 0a 	call	0x1540	; 0x1540 <_ZN5usart6stringEPKc>
// 	while(1){
// 		serial.putdec(1);
// 	}serial.string("wake_up\n");
	serial.putdec(3.14*100);
     2f2:	6a e3       	ldi	r22, 0x3A	; 58
     2f4:	71 e0       	ldi	r23, 0x01	; 1
     2f6:	8e e1       	ldi	r24, 0x1E	; 30
     2f8:	90 e2       	ldi	r25, 0x20	; 32
     2fa:	0e 94 b5 0a 	call	0x156a	; 0x156a <_ZN5usart6putdecEj>
	init_bmx055();
     2fe:	0e 94 02 05 	call	0xa04	; 0xa04 <_Z11init_bmx055v>
	while(1){
		motor::move(0);
     302:	80 e0       	ldi	r24, 0x00	; 0
     304:	0e 94 f1 08 	call	0x11e2	; 0x11e2 <_ZN5motor4moveEh>
     308:	fc cf       	rjmp	.-8      	; 0x302 <main+0x52>

0000030a <_GLOBAL__sub_I_mall>:
		debugping(v::right);
		debugping(v::back);
		_delay_ms(500);
	}
	return 0;
     30a:	cf 93       	push	r28
     30c:	df 93       	push	r29
    ci max=200;
    int size,now;
    node mal[200];
    bl box[200]={0};
public:
    nodes(){size=0;now=0;};
     30e:	a2 e3       	ldi	r26, 0x32	; 50
     310:	b0 e2       	ldi	r27, 0x20	; 32
     312:	88 ec       	ldi	r24, 0xC8	; 200
     314:	90 e0       	ldi	r25, 0x00	; 0
     316:	8d 93       	st	X+, r24
     318:	9c 93       	st	X, r25
     31a:	11 97       	sbiw	r26, 0x01	; 1
     31c:	80 e7       	ldi	r24, 0x70	; 112
     31e:	97 e1       	ldi	r25, 0x17	; 23
     320:	e8 e3       	ldi	r30, 0x38	; 56
     322:	f0 e2       	ldi	r31, 0x20	; 32
     324:	ef 01       	movw	r28, r30
     326:	9c 01       	movw	r18, r24
     328:	19 92       	st	Y+, r1
     32a:	21 50       	subi	r18, 0x01	; 1
     32c:	30 40       	sbci	r19, 0x00	; 0
     32e:	e1 f7       	brne	.-8      	; 0x328 <_GLOBAL__sub_I_mall+0x1e>
     330:	88 ee       	ldi	r24, 0xE8	; 232
     332:	93 e0       	ldi	r25, 0x03	; 3
     334:	1c 96       	adiw	r26, 0x0c	; 12
     336:	8d 93       	st	X+, r24
     338:	9c 93       	st	X, r25
     33a:	1d 97       	sbiw	r26, 0x0d	; 13
     33c:	80 93 7a 20 	sts	0x207A, r24	; 0x80207a <mall+0x48>
     340:	90 93 7b 20 	sts	0x207B, r25	; 0x80207b <mall+0x49>
     344:	80 93 98 20 	sts	0x2098, r24	; 0x802098 <mall+0x66>
     348:	90 93 99 20 	sts	0x2099, r25	; 0x802099 <mall+0x67>
     34c:	80 93 b6 20 	sts	0x20B6, r24	; 0x8020b6 <mall+0x84>
     350:	90 93 b7 20 	sts	0x20B7, r25	; 0x8020b7 <mall+0x85>
     354:	80 93 d4 20 	sts	0x20D4, r24	; 0x8020d4 <mall+0xa2>
     358:	90 93 d5 20 	sts	0x20D5, r25	; 0x8020d5 <mall+0xa3>
     35c:	80 93 f2 20 	sts	0x20F2, r24	; 0x8020f2 <mall+0xc0>
     360:	90 93 f3 20 	sts	0x20F3, r25	; 0x8020f3 <mall+0xc1>
     364:	80 93 10 21 	sts	0x2110, r24	; 0x802110 <mall+0xde>
     368:	90 93 11 21 	sts	0x2111, r25	; 0x802111 <mall+0xdf>
     36c:	80 93 2e 21 	sts	0x212E, r24	; 0x80212e <mall+0xfc>
     370:	90 93 2f 21 	sts	0x212F, r25	; 0x80212f <mall+0xfd>
     374:	80 93 4c 21 	sts	0x214C, r24	; 0x80214c <mall+0x11a>
     378:	90 93 4d 21 	sts	0x214D, r25	; 0x80214d <mall+0x11b>
     37c:	80 93 6a 21 	sts	0x216A, r24	; 0x80216a <mall+0x138>
     380:	90 93 6b 21 	sts	0x216B, r25	; 0x80216b <mall+0x139>
     384:	80 93 88 21 	sts	0x2188, r24	; 0x802188 <mall+0x156>
     388:	90 93 89 21 	sts	0x2189, r25	; 0x802189 <mall+0x157>
     38c:	80 93 a6 21 	sts	0x21A6, r24	; 0x8021a6 <mall+0x174>
     390:	90 93 a7 21 	sts	0x21A7, r25	; 0x8021a7 <mall+0x175>
     394:	80 93 c4 21 	sts	0x21C4, r24	; 0x8021c4 <mall+0x192>
     398:	90 93 c5 21 	sts	0x21C5, r25	; 0x8021c5 <mall+0x193>
     39c:	80 93 e2 21 	sts	0x21E2, r24	; 0x8021e2 <mall+0x1b0>
     3a0:	90 93 e3 21 	sts	0x21E3, r25	; 0x8021e3 <mall+0x1b1>
     3a4:	80 93 00 22 	sts	0x2200, r24	; 0x802200 <mall+0x1ce>
     3a8:	90 93 01 22 	sts	0x2201, r25	; 0x802201 <mall+0x1cf>
     3ac:	80 93 1e 22 	sts	0x221E, r24	; 0x80221e <mall+0x1ec>
     3b0:	90 93 1f 22 	sts	0x221F, r25	; 0x80221f <mall+0x1ed>
     3b4:	80 93 3c 22 	sts	0x223C, r24	; 0x80223c <mall+0x20a>
     3b8:	90 93 3d 22 	sts	0x223D, r25	; 0x80223d <mall+0x20b>
     3bc:	80 93 5a 22 	sts	0x225A, r24	; 0x80225a <mall+0x228>
     3c0:	90 93 5b 22 	sts	0x225B, r25	; 0x80225b <mall+0x229>
     3c4:	80 93 78 22 	sts	0x2278, r24	; 0x802278 <mall+0x246>
     3c8:	90 93 79 22 	sts	0x2279, r25	; 0x802279 <mall+0x247>
     3cc:	80 93 96 22 	sts	0x2296, r24	; 0x802296 <mall+0x264>
     3d0:	90 93 97 22 	sts	0x2297, r25	; 0x802297 <mall+0x265>
     3d4:	80 93 b4 22 	sts	0x22B4, r24	; 0x8022b4 <mall+0x282>
     3d8:	90 93 b5 22 	sts	0x22B5, r25	; 0x8022b5 <mall+0x283>
     3dc:	80 93 d2 22 	sts	0x22D2, r24	; 0x8022d2 <mall+0x2a0>
     3e0:	90 93 d3 22 	sts	0x22D3, r25	; 0x8022d3 <mall+0x2a1>
     3e4:	80 93 f0 22 	sts	0x22F0, r24	; 0x8022f0 <mall+0x2be>
     3e8:	90 93 f1 22 	sts	0x22F1, r25	; 0x8022f1 <mall+0x2bf>
     3ec:	80 93 0e 23 	sts	0x230E, r24	; 0x80230e <mall+0x2dc>
     3f0:	90 93 0f 23 	sts	0x230F, r25	; 0x80230f <mall+0x2dd>
     3f4:	80 93 2c 23 	sts	0x232C, r24	; 0x80232c <mall+0x2fa>
     3f8:	90 93 2d 23 	sts	0x232D, r25	; 0x80232d <mall+0x2fb>
     3fc:	80 93 4a 23 	sts	0x234A, r24	; 0x80234a <mall+0x318>
     400:	90 93 4b 23 	sts	0x234B, r25	; 0x80234b <mall+0x319>
     404:	80 93 68 23 	sts	0x2368, r24	; 0x802368 <mall+0x336>
     408:	90 93 69 23 	sts	0x2369, r25	; 0x802369 <mall+0x337>
     40c:	80 93 86 23 	sts	0x2386, r24	; 0x802386 <mall+0x354>
     410:	90 93 87 23 	sts	0x2387, r25	; 0x802387 <mall+0x355>
     414:	80 93 a4 23 	sts	0x23A4, r24	; 0x8023a4 <mall+0x372>
     418:	90 93 a5 23 	sts	0x23A5, r25	; 0x8023a5 <mall+0x373>
     41c:	80 93 c2 23 	sts	0x23C2, r24	; 0x8023c2 <mall+0x390>
     420:	90 93 c3 23 	sts	0x23C3, r25	; 0x8023c3 <mall+0x391>
     424:	80 93 e0 23 	sts	0x23E0, r24	; 0x8023e0 <mall+0x3ae>
     428:	90 93 e1 23 	sts	0x23E1, r25	; 0x8023e1 <mall+0x3af>
     42c:	80 93 fe 23 	sts	0x23FE, r24	; 0x8023fe <mall+0x3cc>
     430:	90 93 ff 23 	sts	0x23FF, r25	; 0x8023ff <mall+0x3cd>
     434:	80 93 1c 24 	sts	0x241C, r24	; 0x80241c <mall+0x3ea>
     438:	90 93 1d 24 	sts	0x241D, r25	; 0x80241d <mall+0x3eb>
     43c:	80 93 3a 24 	sts	0x243A, r24	; 0x80243a <mall+0x408>
     440:	90 93 3b 24 	sts	0x243B, r25	; 0x80243b <mall+0x409>
     444:	80 93 58 24 	sts	0x2458, r24	; 0x802458 <mall+0x426>
     448:	90 93 59 24 	sts	0x2459, r25	; 0x802459 <mall+0x427>
     44c:	80 93 76 24 	sts	0x2476, r24	; 0x802476 <mall+0x444>
     450:	90 93 77 24 	sts	0x2477, r25	; 0x802477 <mall+0x445>
     454:	80 93 94 24 	sts	0x2494, r24	; 0x802494 <mall+0x462>
     458:	90 93 95 24 	sts	0x2495, r25	; 0x802495 <mall+0x463>
     45c:	80 93 b2 24 	sts	0x24B2, r24	; 0x8024b2 <mall+0x480>
     460:	90 93 b3 24 	sts	0x24B3, r25	; 0x8024b3 <mall+0x481>
     464:	80 93 d0 24 	sts	0x24D0, r24	; 0x8024d0 <mall+0x49e>
     468:	90 93 d1 24 	sts	0x24D1, r25	; 0x8024d1 <mall+0x49f>
     46c:	80 93 ee 24 	sts	0x24EE, r24	; 0x8024ee <mall+0x4bc>
     470:	90 93 ef 24 	sts	0x24EF, r25	; 0x8024ef <mall+0x4bd>
     474:	80 93 0c 25 	sts	0x250C, r24	; 0x80250c <mall+0x4da>
     478:	90 93 0d 25 	sts	0x250D, r25	; 0x80250d <mall+0x4db>
     47c:	80 93 2a 25 	sts	0x252A, r24	; 0x80252a <mall+0x4f8>
     480:	90 93 2b 25 	sts	0x252B, r25	; 0x80252b <mall+0x4f9>
     484:	80 93 48 25 	sts	0x2548, r24	; 0x802548 <mall+0x516>
     488:	90 93 49 25 	sts	0x2549, r25	; 0x802549 <mall+0x517>
     48c:	80 93 66 25 	sts	0x2566, r24	; 0x802566 <mall+0x534>
     490:	90 93 67 25 	sts	0x2567, r25	; 0x802567 <mall+0x535>
     494:	80 93 84 25 	sts	0x2584, r24	; 0x802584 <mall+0x552>
     498:	90 93 85 25 	sts	0x2585, r25	; 0x802585 <mall+0x553>
     49c:	80 93 a2 25 	sts	0x25A2, r24	; 0x8025a2 <mall+0x570>
     4a0:	90 93 a3 25 	sts	0x25A3, r25	; 0x8025a3 <mall+0x571>
     4a4:	80 93 c0 25 	sts	0x25C0, r24	; 0x8025c0 <mall+0x58e>
     4a8:	90 93 c1 25 	sts	0x25C1, r25	; 0x8025c1 <mall+0x58f>
     4ac:	80 93 de 25 	sts	0x25DE, r24	; 0x8025de <mall+0x5ac>
     4b0:	90 93 df 25 	sts	0x25DF, r25	; 0x8025df <mall+0x5ad>
     4b4:	80 93 fc 25 	sts	0x25FC, r24	; 0x8025fc <mall+0x5ca>
     4b8:	90 93 fd 25 	sts	0x25FD, r25	; 0x8025fd <mall+0x5cb>
     4bc:	80 93 1a 26 	sts	0x261A, r24	; 0x80261a <mall+0x5e8>
     4c0:	90 93 1b 26 	sts	0x261B, r25	; 0x80261b <mall+0x5e9>
     4c4:	80 93 38 26 	sts	0x2638, r24	; 0x802638 <mall+0x606>
     4c8:	90 93 39 26 	sts	0x2639, r25	; 0x802639 <mall+0x607>
     4cc:	80 93 56 26 	sts	0x2656, r24	; 0x802656 <mall+0x624>
     4d0:	90 93 57 26 	sts	0x2657, r25	; 0x802657 <mall+0x625>
     4d4:	80 93 74 26 	sts	0x2674, r24	; 0x802674 <mall+0x642>
     4d8:	90 93 75 26 	sts	0x2675, r25	; 0x802675 <mall+0x643>
     4dc:	80 93 92 26 	sts	0x2692, r24	; 0x802692 <mall+0x660>
     4e0:	90 93 93 26 	sts	0x2693, r25	; 0x802693 <mall+0x661>
     4e4:	80 93 b0 26 	sts	0x26B0, r24	; 0x8026b0 <mall+0x67e>
     4e8:	90 93 b1 26 	sts	0x26B1, r25	; 0x8026b1 <mall+0x67f>
     4ec:	80 93 ce 26 	sts	0x26CE, r24	; 0x8026ce <mall+0x69c>
     4f0:	90 93 cf 26 	sts	0x26CF, r25	; 0x8026cf <mall+0x69d>
     4f4:	80 93 ec 26 	sts	0x26EC, r24	; 0x8026ec <mall+0x6ba>
     4f8:	90 93 ed 26 	sts	0x26ED, r25	; 0x8026ed <mall+0x6bb>
     4fc:	80 93 0a 27 	sts	0x270A, r24	; 0x80270a <mall+0x6d8>
     500:	90 93 0b 27 	sts	0x270B, r25	; 0x80270b <mall+0x6d9>
     504:	80 93 28 27 	sts	0x2728, r24	; 0x802728 <mall+0x6f6>
     508:	90 93 29 27 	sts	0x2729, r25	; 0x802729 <mall+0x6f7>
     50c:	80 93 46 27 	sts	0x2746, r24	; 0x802746 <mall+0x714>
     510:	90 93 47 27 	sts	0x2747, r25	; 0x802747 <mall+0x715>
     514:	80 93 64 27 	sts	0x2764, r24	; 0x802764 <mall+0x732>
     518:	90 93 65 27 	sts	0x2765, r25	; 0x802765 <mall+0x733>
     51c:	80 93 82 27 	sts	0x2782, r24	; 0x802782 <mall+0x750>
     520:	90 93 83 27 	sts	0x2783, r25	; 0x802783 <mall+0x751>
     524:	80 93 a0 27 	sts	0x27A0, r24	; 0x8027a0 <mall+0x76e>
     528:	90 93 a1 27 	sts	0x27A1, r25	; 0x8027a1 <mall+0x76f>
     52c:	80 93 be 27 	sts	0x27BE, r24	; 0x8027be <mall+0x78c>
     530:	90 93 bf 27 	sts	0x27BF, r25	; 0x8027bf <mall+0x78d>
     534:	80 93 dc 27 	sts	0x27DC, r24	; 0x8027dc <mall+0x7aa>
     538:	90 93 dd 27 	sts	0x27DD, r25	; 0x8027dd <mall+0x7ab>
     53c:	80 93 fa 27 	sts	0x27FA, r24	; 0x8027fa <mall+0x7c8>
     540:	90 93 fb 27 	sts	0x27FB, r25	; 0x8027fb <mall+0x7c9>
     544:	80 93 18 28 	sts	0x2818, r24	; 0x802818 <mall+0x7e6>
     548:	90 93 19 28 	sts	0x2819, r25	; 0x802819 <mall+0x7e7>
     54c:	80 93 36 28 	sts	0x2836, r24	; 0x802836 <mall+0x804>
     550:	90 93 37 28 	sts	0x2837, r25	; 0x802837 <mall+0x805>
     554:	80 93 54 28 	sts	0x2854, r24	; 0x802854 <mall+0x822>
     558:	90 93 55 28 	sts	0x2855, r25	; 0x802855 <mall+0x823>
     55c:	80 93 72 28 	sts	0x2872, r24	; 0x802872 <mall+0x840>
     560:	90 93 73 28 	sts	0x2873, r25	; 0x802873 <mall+0x841>
     564:	80 93 90 28 	sts	0x2890, r24	; 0x802890 <mall+0x85e>
     568:	90 93 91 28 	sts	0x2891, r25	; 0x802891 <mall+0x85f>
     56c:	80 93 ae 28 	sts	0x28AE, r24	; 0x8028ae <mall+0x87c>
     570:	90 93 af 28 	sts	0x28AF, r25	; 0x8028af <mall+0x87d>
     574:	80 93 cc 28 	sts	0x28CC, r24	; 0x8028cc <mall+0x89a>
     578:	90 93 cd 28 	sts	0x28CD, r25	; 0x8028cd <mall+0x89b>
     57c:	80 93 ea 28 	sts	0x28EA, r24	; 0x8028ea <mall+0x8b8>
     580:	90 93 eb 28 	sts	0x28EB, r25	; 0x8028eb <mall+0x8b9>
     584:	80 93 08 29 	sts	0x2908, r24	; 0x802908 <mall+0x8d6>
     588:	90 93 09 29 	sts	0x2909, r25	; 0x802909 <mall+0x8d7>
     58c:	80 93 26 29 	sts	0x2926, r24	; 0x802926 <mall+0x8f4>
     590:	90 93 27 29 	sts	0x2927, r25	; 0x802927 <mall+0x8f5>
     594:	80 93 44 29 	sts	0x2944, r24	; 0x802944 <mall+0x912>
     598:	90 93 45 29 	sts	0x2945, r25	; 0x802945 <mall+0x913>
     59c:	80 93 62 29 	sts	0x2962, r24	; 0x802962 <mall+0x930>
     5a0:	90 93 63 29 	sts	0x2963, r25	; 0x802963 <mall+0x931>
     5a4:	80 93 80 29 	sts	0x2980, r24	; 0x802980 <mall+0x94e>
     5a8:	90 93 81 29 	sts	0x2981, r25	; 0x802981 <mall+0x94f>
     5ac:	80 93 9e 29 	sts	0x299E, r24	; 0x80299e <mall+0x96c>
     5b0:	90 93 9f 29 	sts	0x299F, r25	; 0x80299f <mall+0x96d>
     5b4:	80 93 bc 29 	sts	0x29BC, r24	; 0x8029bc <mall+0x98a>
     5b8:	90 93 bd 29 	sts	0x29BD, r25	; 0x8029bd <mall+0x98b>
     5bc:	80 93 da 29 	sts	0x29DA, r24	; 0x8029da <mall+0x9a8>
     5c0:	90 93 db 29 	sts	0x29DB, r25	; 0x8029db <mall+0x9a9>
     5c4:	80 93 f8 29 	sts	0x29F8, r24	; 0x8029f8 <mall+0x9c6>
     5c8:	90 93 f9 29 	sts	0x29F9, r25	; 0x8029f9 <mall+0x9c7>
     5cc:	80 93 16 2a 	sts	0x2A16, r24	; 0x802a16 <mall+0x9e4>
     5d0:	90 93 17 2a 	sts	0x2A17, r25	; 0x802a17 <mall+0x9e5>
     5d4:	80 93 34 2a 	sts	0x2A34, r24	; 0x802a34 <mall+0xa02>
     5d8:	90 93 35 2a 	sts	0x2A35, r25	; 0x802a35 <mall+0xa03>
     5dc:	80 93 52 2a 	sts	0x2A52, r24	; 0x802a52 <mall+0xa20>
     5e0:	90 93 53 2a 	sts	0x2A53, r25	; 0x802a53 <mall+0xa21>
     5e4:	80 93 70 2a 	sts	0x2A70, r24	; 0x802a70 <mall+0xa3e>
     5e8:	90 93 71 2a 	sts	0x2A71, r25	; 0x802a71 <mall+0xa3f>
     5ec:	80 93 8e 2a 	sts	0x2A8E, r24	; 0x802a8e <mall+0xa5c>
     5f0:	90 93 8f 2a 	sts	0x2A8F, r25	; 0x802a8f <mall+0xa5d>
     5f4:	80 93 ac 2a 	sts	0x2AAC, r24	; 0x802aac <mall+0xa7a>
     5f8:	90 93 ad 2a 	sts	0x2AAD, r25	; 0x802aad <mall+0xa7b>
     5fc:	80 93 ca 2a 	sts	0x2ACA, r24	; 0x802aca <mall+0xa98>
     600:	90 93 cb 2a 	sts	0x2ACB, r25	; 0x802acb <mall+0xa99>
     604:	80 93 e8 2a 	sts	0x2AE8, r24	; 0x802ae8 <mall+0xab6>
     608:	90 93 e9 2a 	sts	0x2AE9, r25	; 0x802ae9 <mall+0xab7>
     60c:	80 93 06 2b 	sts	0x2B06, r24	; 0x802b06 <mall+0xad4>
     610:	90 93 07 2b 	sts	0x2B07, r25	; 0x802b07 <mall+0xad5>
     614:	80 93 24 2b 	sts	0x2B24, r24	; 0x802b24 <mall+0xaf2>
     618:	90 93 25 2b 	sts	0x2B25, r25	; 0x802b25 <mall+0xaf3>
     61c:	80 93 42 2b 	sts	0x2B42, r24	; 0x802b42 <mall+0xb10>
     620:	90 93 43 2b 	sts	0x2B43, r25	; 0x802b43 <mall+0xb11>
     624:	80 93 60 2b 	sts	0x2B60, r24	; 0x802b60 <mall+0xb2e>
     628:	90 93 61 2b 	sts	0x2B61, r25	; 0x802b61 <mall+0xb2f>
     62c:	80 93 7e 2b 	sts	0x2B7E, r24	; 0x802b7e <mall+0xb4c>
     630:	90 93 7f 2b 	sts	0x2B7F, r25	; 0x802b7f <mall+0xb4d>
     634:	80 93 9c 2b 	sts	0x2B9C, r24	; 0x802b9c <mall+0xb6a>
     638:	90 93 9d 2b 	sts	0x2B9D, r25	; 0x802b9d <mall+0xb6b>
     63c:	80 93 ba 2b 	sts	0x2BBA, r24	; 0x802bba <mall+0xb88>
     640:	90 93 bb 2b 	sts	0x2BBB, r25	; 0x802bbb <mall+0xb89>
     644:	80 93 d8 2b 	sts	0x2BD8, r24	; 0x802bd8 <mall+0xba6>
     648:	90 93 d9 2b 	sts	0x2BD9, r25	; 0x802bd9 <mall+0xba7>
     64c:	80 93 f6 2b 	sts	0x2BF6, r24	; 0x802bf6 <mall+0xbc4>
     650:	90 93 f7 2b 	sts	0x2BF7, r25	; 0x802bf7 <mall+0xbc5>
     654:	80 93 14 2c 	sts	0x2C14, r24	; 0x802c14 <mall+0xbe2>
     658:	90 93 15 2c 	sts	0x2C15, r25	; 0x802c15 <mall+0xbe3>
     65c:	80 93 32 2c 	sts	0x2C32, r24	; 0x802c32 <mall+0xc00>
     660:	90 93 33 2c 	sts	0x2C33, r25	; 0x802c33 <mall+0xc01>
     664:	80 93 50 2c 	sts	0x2C50, r24	; 0x802c50 <mall+0xc1e>
     668:	90 93 51 2c 	sts	0x2C51, r25	; 0x802c51 <mall+0xc1f>
     66c:	80 93 6e 2c 	sts	0x2C6E, r24	; 0x802c6e <mall+0xc3c>
     670:	90 93 6f 2c 	sts	0x2C6F, r25	; 0x802c6f <mall+0xc3d>
     674:	80 93 8c 2c 	sts	0x2C8C, r24	; 0x802c8c <mall+0xc5a>
     678:	90 93 8d 2c 	sts	0x2C8D, r25	; 0x802c8d <mall+0xc5b>
     67c:	80 93 aa 2c 	sts	0x2CAA, r24	; 0x802caa <mall+0xc78>
     680:	90 93 ab 2c 	sts	0x2CAB, r25	; 0x802cab <mall+0xc79>
     684:	80 93 c8 2c 	sts	0x2CC8, r24	; 0x802cc8 <mall+0xc96>
     688:	90 93 c9 2c 	sts	0x2CC9, r25	; 0x802cc9 <mall+0xc97>
     68c:	80 93 e6 2c 	sts	0x2CE6, r24	; 0x802ce6 <mall+0xcb4>
     690:	90 93 e7 2c 	sts	0x2CE7, r25	; 0x802ce7 <mall+0xcb5>
     694:	80 93 04 2d 	sts	0x2D04, r24	; 0x802d04 <mall+0xcd2>
     698:	90 93 05 2d 	sts	0x2D05, r25	; 0x802d05 <mall+0xcd3>
     69c:	80 93 22 2d 	sts	0x2D22, r24	; 0x802d22 <mall+0xcf0>
     6a0:	90 93 23 2d 	sts	0x2D23, r25	; 0x802d23 <mall+0xcf1>
     6a4:	80 93 40 2d 	sts	0x2D40, r24	; 0x802d40 <mall+0xd0e>
     6a8:	90 93 41 2d 	sts	0x2D41, r25	; 0x802d41 <mall+0xd0f>
     6ac:	80 93 5e 2d 	sts	0x2D5E, r24	; 0x802d5e <mall+0xd2c>
     6b0:	90 93 5f 2d 	sts	0x2D5F, r25	; 0x802d5f <mall+0xd2d>
     6b4:	80 93 7c 2d 	sts	0x2D7C, r24	; 0x802d7c <mall+0xd4a>
     6b8:	90 93 7d 2d 	sts	0x2D7D, r25	; 0x802d7d <mall+0xd4b>
     6bc:	80 93 9a 2d 	sts	0x2D9A, r24	; 0x802d9a <mall+0xd68>
     6c0:	90 93 9b 2d 	sts	0x2D9B, r25	; 0x802d9b <mall+0xd69>
     6c4:	80 93 b8 2d 	sts	0x2DB8, r24	; 0x802db8 <mall+0xd86>
     6c8:	90 93 b9 2d 	sts	0x2DB9, r25	; 0x802db9 <mall+0xd87>
     6cc:	80 93 d6 2d 	sts	0x2DD6, r24	; 0x802dd6 <mall+0xda4>
     6d0:	90 93 d7 2d 	sts	0x2DD7, r25	; 0x802dd7 <mall+0xda5>
     6d4:	80 93 f4 2d 	sts	0x2DF4, r24	; 0x802df4 <mall+0xdc2>
     6d8:	90 93 f5 2d 	sts	0x2DF5, r25	; 0x802df5 <mall+0xdc3>
     6dc:	80 93 12 2e 	sts	0x2E12, r24	; 0x802e12 <mall+0xde0>
     6e0:	90 93 13 2e 	sts	0x2E13, r25	; 0x802e13 <mall+0xde1>
     6e4:	80 93 30 2e 	sts	0x2E30, r24	; 0x802e30 <mall+0xdfe>
     6e8:	90 93 31 2e 	sts	0x2E31, r25	; 0x802e31 <mall+0xdff>
     6ec:	80 93 4e 2e 	sts	0x2E4E, r24	; 0x802e4e <mall+0xe1c>
     6f0:	90 93 4f 2e 	sts	0x2E4F, r25	; 0x802e4f <mall+0xe1d>
     6f4:	80 93 6c 2e 	sts	0x2E6C, r24	; 0x802e6c <mall+0xe3a>
     6f8:	90 93 6d 2e 	sts	0x2E6D, r25	; 0x802e6d <mall+0xe3b>
     6fc:	80 93 8a 2e 	sts	0x2E8A, r24	; 0x802e8a <mall+0xe58>
     700:	90 93 8b 2e 	sts	0x2E8B, r25	; 0x802e8b <mall+0xe59>
     704:	80 93 a8 2e 	sts	0x2EA8, r24	; 0x802ea8 <mall+0xe76>
     708:	90 93 a9 2e 	sts	0x2EA9, r25	; 0x802ea9 <mall+0xe77>
     70c:	80 93 c6 2e 	sts	0x2EC6, r24	; 0x802ec6 <mall+0xe94>
     710:	90 93 c7 2e 	sts	0x2EC7, r25	; 0x802ec7 <mall+0xe95>
     714:	80 93 e4 2e 	sts	0x2EE4, r24	; 0x802ee4 <mall+0xeb2>
     718:	90 93 e5 2e 	sts	0x2EE5, r25	; 0x802ee5 <mall+0xeb3>
     71c:	80 93 02 2f 	sts	0x2F02, r24	; 0x802f02 <mall+0xed0>
     720:	90 93 03 2f 	sts	0x2F03, r25	; 0x802f03 <mall+0xed1>
     724:	80 93 20 2f 	sts	0x2F20, r24	; 0x802f20 <mall+0xeee>
     728:	90 93 21 2f 	sts	0x2F21, r25	; 0x802f21 <mall+0xeef>
     72c:	80 93 3e 2f 	sts	0x2F3E, r24	; 0x802f3e <mall+0xf0c>
     730:	90 93 3f 2f 	sts	0x2F3F, r25	; 0x802f3f <mall+0xf0d>
     734:	80 93 5c 2f 	sts	0x2F5C, r24	; 0x802f5c <mall+0xf2a>
     738:	90 93 5d 2f 	sts	0x2F5D, r25	; 0x802f5d <mall+0xf2b>
     73c:	80 93 7a 2f 	sts	0x2F7A, r24	; 0x802f7a <mall+0xf48>
     740:	90 93 7b 2f 	sts	0x2F7B, r25	; 0x802f7b <mall+0xf49>
     744:	80 93 98 2f 	sts	0x2F98, r24	; 0x802f98 <mall+0xf66>
     748:	90 93 99 2f 	sts	0x2F99, r25	; 0x802f99 <mall+0xf67>
     74c:	80 93 b6 2f 	sts	0x2FB6, r24	; 0x802fb6 <mall+0xf84>
     750:	90 93 b7 2f 	sts	0x2FB7, r25	; 0x802fb7 <mall+0xf85>
     754:	80 93 d4 2f 	sts	0x2FD4, r24	; 0x802fd4 <mall+0xfa2>
     758:	90 93 d5 2f 	sts	0x2FD5, r25	; 0x802fd5 <mall+0xfa3>
     75c:	80 93 f2 2f 	sts	0x2FF2, r24	; 0x802ff2 <mall+0xfc0>
     760:	90 93 f3 2f 	sts	0x2FF3, r25	; 0x802ff3 <mall+0xfc1>
     764:	80 93 10 30 	sts	0x3010, r24	; 0x803010 <mall+0xfde>
     768:	90 93 11 30 	sts	0x3011, r25	; 0x803011 <mall+0xfdf>
     76c:	80 93 2e 30 	sts	0x302E, r24	; 0x80302e <mall+0xffc>
     770:	90 93 2f 30 	sts	0x302F, r25	; 0x80302f <mall+0xffd>
     774:	80 93 4c 30 	sts	0x304C, r24	; 0x80304c <mall+0x101a>
     778:	90 93 4d 30 	sts	0x304D, r25	; 0x80304d <mall+0x101b>
     77c:	80 93 6a 30 	sts	0x306A, r24	; 0x80306a <mall+0x1038>
     780:	90 93 6b 30 	sts	0x306B, r25	; 0x80306b <mall+0x1039>
     784:	80 93 88 30 	sts	0x3088, r24	; 0x803088 <mall+0x1056>
     788:	90 93 89 30 	sts	0x3089, r25	; 0x803089 <mall+0x1057>
     78c:	80 93 a6 30 	sts	0x30A6, r24	; 0x8030a6 <mall+0x1074>
     790:	90 93 a7 30 	sts	0x30A7, r25	; 0x8030a7 <mall+0x1075>
     794:	80 93 c4 30 	sts	0x30C4, r24	; 0x8030c4 <mall+0x1092>
     798:	90 93 c5 30 	sts	0x30C5, r25	; 0x8030c5 <mall+0x1093>
     79c:	80 93 e2 30 	sts	0x30E2, r24	; 0x8030e2 <mall+0x10b0>
     7a0:	90 93 e3 30 	sts	0x30E3, r25	; 0x8030e3 <mall+0x10b1>
     7a4:	80 93 00 31 	sts	0x3100, r24	; 0x803100 <mall+0x10ce>
     7a8:	90 93 01 31 	sts	0x3101, r25	; 0x803101 <mall+0x10cf>
     7ac:	80 93 1e 31 	sts	0x311E, r24	; 0x80311e <mall+0x10ec>
     7b0:	90 93 1f 31 	sts	0x311F, r25	; 0x80311f <mall+0x10ed>
     7b4:	80 93 3c 31 	sts	0x313C, r24	; 0x80313c <mall+0x110a>
     7b8:	90 93 3d 31 	sts	0x313D, r25	; 0x80313d <mall+0x110b>
     7bc:	80 93 5a 31 	sts	0x315A, r24	; 0x80315a <mall+0x1128>
     7c0:	90 93 5b 31 	sts	0x315B, r25	; 0x80315b <mall+0x1129>
     7c4:	80 93 78 31 	sts	0x3178, r24	; 0x803178 <mall+0x1146>
     7c8:	90 93 79 31 	sts	0x3179, r25	; 0x803179 <mall+0x1147>
     7cc:	80 93 96 31 	sts	0x3196, r24	; 0x803196 <mall+0x1164>
     7d0:	90 93 97 31 	sts	0x3197, r25	; 0x803197 <mall+0x1165>
     7d4:	80 93 b4 31 	sts	0x31B4, r24	; 0x8031b4 <mall+0x1182>
     7d8:	90 93 b5 31 	sts	0x31B5, r25	; 0x8031b5 <mall+0x1183>
     7dc:	80 93 d2 31 	sts	0x31D2, r24	; 0x8031d2 <mall+0x11a0>
     7e0:	90 93 d3 31 	sts	0x31D3, r25	; 0x8031d3 <mall+0x11a1>
     7e4:	80 93 f0 31 	sts	0x31F0, r24	; 0x8031f0 <mall+0x11be>
     7e8:	90 93 f1 31 	sts	0x31F1, r25	; 0x8031f1 <mall+0x11bf>
     7ec:	80 93 0e 32 	sts	0x320E, r24	; 0x80320e <mall+0x11dc>
     7f0:	90 93 0f 32 	sts	0x320F, r25	; 0x80320f <mall+0x11dd>
     7f4:	80 93 2c 32 	sts	0x322C, r24	; 0x80322c <mall+0x11fa>
     7f8:	90 93 2d 32 	sts	0x322D, r25	; 0x80322d <mall+0x11fb>
     7fc:	80 93 4a 32 	sts	0x324A, r24	; 0x80324a <mall+0x1218>
     800:	90 93 4b 32 	sts	0x324B, r25	; 0x80324b <mall+0x1219>
     804:	80 93 68 32 	sts	0x3268, r24	; 0x803268 <mall+0x1236>
     808:	90 93 69 32 	sts	0x3269, r25	; 0x803269 <mall+0x1237>
     80c:	80 93 86 32 	sts	0x3286, r24	; 0x803286 <mall+0x1254>
     810:	90 93 87 32 	sts	0x3287, r25	; 0x803287 <mall+0x1255>
     814:	80 93 a4 32 	sts	0x32A4, r24	; 0x8032a4 <mall+0x1272>
     818:	90 93 a5 32 	sts	0x32A5, r25	; 0x8032a5 <mall+0x1273>
     81c:	80 93 c2 32 	sts	0x32C2, r24	; 0x8032c2 <mall+0x1290>
     820:	90 93 c3 32 	sts	0x32C3, r25	; 0x8032c3 <mall+0x1291>
     824:	80 93 e0 32 	sts	0x32E0, r24	; 0x8032e0 <mall+0x12ae>
     828:	90 93 e1 32 	sts	0x32E1, r25	; 0x8032e1 <mall+0x12af>
     82c:	80 93 fe 32 	sts	0x32FE, r24	; 0x8032fe <mall+0x12cc>
     830:	90 93 ff 32 	sts	0x32FF, r25	; 0x8032ff <mall+0x12cd>
     834:	80 93 1c 33 	sts	0x331C, r24	; 0x80331c <mall+0x12ea>
     838:	90 93 1d 33 	sts	0x331D, r25	; 0x80331d <mall+0x12eb>
     83c:	80 93 3a 33 	sts	0x333A, r24	; 0x80333a <mall+0x1308>
     840:	90 93 3b 33 	sts	0x333B, r25	; 0x80333b <mall+0x1309>
     844:	80 93 58 33 	sts	0x3358, r24	; 0x803358 <mall+0x1326>
     848:	90 93 59 33 	sts	0x3359, r25	; 0x803359 <mall+0x1327>
     84c:	80 93 76 33 	sts	0x3376, r24	; 0x803376 <mall+0x1344>
     850:	90 93 77 33 	sts	0x3377, r25	; 0x803377 <mall+0x1345>
     854:	80 93 94 33 	sts	0x3394, r24	; 0x803394 <mall+0x1362>
     858:	90 93 95 33 	sts	0x3395, r25	; 0x803395 <mall+0x1363>
     85c:	80 93 b2 33 	sts	0x33B2, r24	; 0x8033b2 <mall+0x1380>
     860:	90 93 b3 33 	sts	0x33B3, r25	; 0x8033b3 <mall+0x1381>
     864:	80 93 d0 33 	sts	0x33D0, r24	; 0x8033d0 <mall+0x139e>
     868:	90 93 d1 33 	sts	0x33D1, r25	; 0x8033d1 <mall+0x139f>
     86c:	80 93 ee 33 	sts	0x33EE, r24	; 0x8033ee <mall+0x13bc>
     870:	90 93 ef 33 	sts	0x33EF, r25	; 0x8033ef <mall+0x13bd>
     874:	80 93 0c 34 	sts	0x340C, r24	; 0x80340c <mall+0x13da>
     878:	90 93 0d 34 	sts	0x340D, r25	; 0x80340d <mall+0x13db>
     87c:	80 93 2a 34 	sts	0x342A, r24	; 0x80342a <mall+0x13f8>
     880:	90 93 2b 34 	sts	0x342B, r25	; 0x80342b <mall+0x13f9>
     884:	80 93 48 34 	sts	0x3448, r24	; 0x803448 <mall+0x1416>
     888:	90 93 49 34 	sts	0x3449, r25	; 0x803449 <mall+0x1417>
     88c:	80 93 66 34 	sts	0x3466, r24	; 0x803466 <mall+0x1434>
     890:	90 93 67 34 	sts	0x3467, r25	; 0x803467 <mall+0x1435>
     894:	80 93 84 34 	sts	0x3484, r24	; 0x803484 <mall+0x1452>
     898:	90 93 85 34 	sts	0x3485, r25	; 0x803485 <mall+0x1453>
     89c:	80 93 a2 34 	sts	0x34A2, r24	; 0x8034a2 <mall+0x1470>
     8a0:	90 93 a3 34 	sts	0x34A3, r25	; 0x8034a3 <mall+0x1471>
     8a4:	80 93 c0 34 	sts	0x34C0, r24	; 0x8034c0 <mall+0x148e>
     8a8:	90 93 c1 34 	sts	0x34C1, r25	; 0x8034c1 <mall+0x148f>
     8ac:	80 93 de 34 	sts	0x34DE, r24	; 0x8034de <mall+0x14ac>
     8b0:	90 93 df 34 	sts	0x34DF, r25	; 0x8034df <mall+0x14ad>
     8b4:	80 93 fc 34 	sts	0x34FC, r24	; 0x8034fc <mall+0x14ca>
     8b8:	90 93 fd 34 	sts	0x34FD, r25	; 0x8034fd <mall+0x14cb>
     8bc:	80 93 1a 35 	sts	0x351A, r24	; 0x80351a <mall+0x14e8>
     8c0:	90 93 1b 35 	sts	0x351B, r25	; 0x80351b <mall+0x14e9>
     8c4:	80 93 38 35 	sts	0x3538, r24	; 0x803538 <mall+0x1506>
     8c8:	90 93 39 35 	sts	0x3539, r25	; 0x803539 <mall+0x1507>
     8cc:	80 93 56 35 	sts	0x3556, r24	; 0x803556 <mall+0x1524>
     8d0:	90 93 57 35 	sts	0x3557, r25	; 0x803557 <mall+0x1525>
     8d4:	80 93 74 35 	sts	0x3574, r24	; 0x803574 <mall+0x1542>
     8d8:	90 93 75 35 	sts	0x3575, r25	; 0x803575 <mall+0x1543>
     8dc:	80 93 92 35 	sts	0x3592, r24	; 0x803592 <mall+0x1560>
     8e0:	90 93 93 35 	sts	0x3593, r25	; 0x803593 <mall+0x1561>
     8e4:	80 93 b0 35 	sts	0x35B0, r24	; 0x8035b0 <mall+0x157e>
     8e8:	90 93 b1 35 	sts	0x35B1, r25	; 0x8035b1 <mall+0x157f>
     8ec:	80 93 ce 35 	sts	0x35CE, r24	; 0x8035ce <mall+0x159c>
     8f0:	90 93 cf 35 	sts	0x35CF, r25	; 0x8035cf <mall+0x159d>
     8f4:	80 93 ec 35 	sts	0x35EC, r24	; 0x8035ec <mall+0x15ba>
     8f8:	90 93 ed 35 	sts	0x35ED, r25	; 0x8035ed <mall+0x15bb>
     8fc:	80 93 0a 36 	sts	0x360A, r24	; 0x80360a <mall+0x15d8>
     900:	90 93 0b 36 	sts	0x360B, r25	; 0x80360b <mall+0x15d9>
     904:	80 93 28 36 	sts	0x3628, r24	; 0x803628 <mall+0x15f6>
     908:	90 93 29 36 	sts	0x3629, r25	; 0x803629 <mall+0x15f7>
     90c:	80 93 46 36 	sts	0x3646, r24	; 0x803646 <mall+0x1614>
     910:	90 93 47 36 	sts	0x3647, r25	; 0x803647 <mall+0x1615>
     914:	80 93 64 36 	sts	0x3664, r24	; 0x803664 <mall+0x1632>
     918:	90 93 65 36 	sts	0x3665, r25	; 0x803665 <mall+0x1633>
     91c:	80 93 82 36 	sts	0x3682, r24	; 0x803682 <mall+0x1650>
     920:	90 93 83 36 	sts	0x3683, r25	; 0x803683 <mall+0x1651>
     924:	80 93 a0 36 	sts	0x36A0, r24	; 0x8036a0 <mall+0x166e>
     928:	90 93 a1 36 	sts	0x36A1, r25	; 0x8036a1 <mall+0x166f>
     92c:	80 93 be 36 	sts	0x36BE, r24	; 0x8036be <mall+0x168c>
     930:	90 93 bf 36 	sts	0x36BF, r25	; 0x8036bf <mall+0x168d>
     934:	80 93 dc 36 	sts	0x36DC, r24	; 0x8036dc <mall+0x16aa>
     938:	90 93 dd 36 	sts	0x36DD, r25	; 0x8036dd <mall+0x16ab>
     93c:	80 93 fa 36 	sts	0x36FA, r24	; 0x8036fa <mall+0x16c8>
     940:	90 93 fb 36 	sts	0x36FB, r25	; 0x8036fb <mall+0x16c9>
     944:	80 93 18 37 	sts	0x3718, r24	; 0x803718 <mall+0x16e6>
     948:	90 93 19 37 	sts	0x3719, r25	; 0x803719 <mall+0x16e7>
     94c:	80 93 36 37 	sts	0x3736, r24	; 0x803736 <mall+0x1704>
     950:	90 93 37 37 	sts	0x3737, r25	; 0x803737 <mall+0x1705>
     954:	80 93 54 37 	sts	0x3754, r24	; 0x803754 <mall+0x1722>
     958:	90 93 55 37 	sts	0x3755, r25	; 0x803755 <mall+0x1723>
     95c:	80 93 72 37 	sts	0x3772, r24	; 0x803772 <mall+0x1740>
     960:	90 93 73 37 	sts	0x3773, r25	; 0x803773 <mall+0x1741>
     964:	80 93 90 37 	sts	0x3790, r24	; 0x803790 <mall+0x175e>
     968:	90 93 91 37 	sts	0x3791, r25	; 0x803791 <mall+0x175f>
     96c:	88 ec       	ldi	r24, 0xC8	; 200
     96e:	e8 ea       	ldi	r30, 0xA8	; 168
     970:	f7 e3       	ldi	r31, 0x37	; 55
     972:	ef 01       	movw	r28, r30
     974:	19 92       	st	Y+, r1
     976:	8a 95       	dec	r24
     978:	e9 f7       	brne	.-6      	; 0x974 <__LOCK_REGION_LENGTH__+0x574>
     97a:	12 96       	adiw	r26, 0x02	; 2
     97c:	1d 92       	st	X+, r1
     97e:	1c 92       	st	X, r1
     980:	13 97       	sbiw	r26, 0x03	; 3
    node* make(){
        if(now>=max-1){ return np; }else{
            now++;
     982:	81 e0       	ldi	r24, 0x01	; 1
     984:	90 e0       	ldi	r25, 0x00	; 0
     986:	14 96       	adiw	r26, 0x04	; 4
     988:	8d 93       	st	X+, r24
     98a:	9c 93       	st	X, r25
     98c:	15 97       	sbiw	r26, 0x05	; 5
    long long unsigned int counter;//dfs's counter.
    node* ans;//dfs's answer.
    //for dfs
public:
    core(){
        now = mall.make();
     98e:	e2 e2       	ldi	r30, 0x22	; 34
     990:	f0 e2       	ldi	r31, 0x20	; 32
     992:	26 e5       	ldi	r18, 0x56	; 86
     994:	30 e2       	ldi	r19, 0x20	; 32
     996:	20 83       	st	Z, r18
     998:	31 83       	std	Z+1, r19	; 0x01
        start = now; 
     99a:	22 83       	std	Z+2, r18	; 0x02
     99c:	33 83       	std	Z+3, r19	; 0x03
        start->x=100;start->y=100;start->z=1;start->back[0]=np;start->type=v::start;start->depth=0;
     99e:	24 e6       	ldi	r18, 0x64	; 100
     9a0:	30 e0       	ldi	r19, 0x00	; 0
     9a2:	94 96       	adiw	r26, 0x24	; 36
     9a4:	2d 93       	st	X+, r18
     9a6:	3c 93       	st	X, r19
     9a8:	95 97       	sbiw	r26, 0x25	; 37
     9aa:	96 96       	adiw	r26, 0x26	; 38
     9ac:	2d 93       	st	X+, r18
     9ae:	3c 93       	st	X, r19
     9b0:	97 97       	sbiw	r26, 0x27	; 39
     9b2:	98 96       	adiw	r26, 0x28	; 40
     9b4:	8d 93       	st	X+, r24
     9b6:	9c 93       	st	X, r25
     9b8:	99 97       	sbiw	r26, 0x29	; 41
     9ba:	8f ef       	ldi	r24, 0xFF	; 255
     9bc:	9f ef       	ldi	r25, 0xFF	; 255
     9be:	9c 96       	adiw	r26, 0x2c	; 44
     9c0:	8d 93       	st	X+, r24
     9c2:	9c 93       	st	X, r25
     9c4:	9d 97       	sbiw	r26, 0x2d	; 45
     9c6:	9a 96       	adiw	r26, 0x2a	; 42
     9c8:	1d 92       	st	X+, r1
     9ca:	1c 92       	st	X, r1
     9cc:	9b 97       	sbiw	r26, 0x2b	; 43
        //dir = v::left;
		dir = 0;
     9ce:	14 82       	std	Z+4, r1	; 0x04
     9d0:	15 82       	std	Z+5, r1	; 0x05
        counter=0;
     9d2:	16 82       	std	Z+6, r1	; 0x06
     9d4:	17 82       	std	Z+7, r1	; 0x07
     9d6:	10 86       	std	Z+8, r1	; 0x08
     9d8:	11 86       	std	Z+9, r1	; 0x09
     9da:	12 86       	std	Z+10, r1	; 0x0a
     9dc:	13 86       	std	Z+11, r1	; 0x0b
     9de:	14 86       	std	Z+12, r1	; 0x0c
     9e0:	15 86       	std	Z+13, r1	; 0x0d
        ans = np;
     9e2:	16 86       	std	Z+14, r1	; 0x0e
     9e4:	17 86       	std	Z+15, r1	; 0x0f
 *  Author: TOMOKI
 */ 

#include "source/petal.hpp"
#include "source/gyro_control.hpp"
usart serial(&USARTC0,&PORTC);
     9e6:	40 e4       	ldi	r20, 0x40	; 64
     9e8:	56 e0       	ldi	r21, 0x06	; 6
     9ea:	60 ea       	ldi	r22, 0xA0	; 160
     9ec:	78 e0       	ldi	r23, 0x08	; 8
     9ee:	8e e1       	ldi	r24, 0x1E	; 30
     9f0:	90 e2       	ldi	r25, 0x20	; 32
     9f2:	0e 94 74 0a 	call	0x14e8	; 0x14e8 <_ZN5usartC1EP12USART_structP11PORT_struct>
		debugping(v::right);
		debugping(v::back);
		_delay_ms(500);
	}
	return 0;
     9f6:	df 91       	pop	r29
     9f8:	cf 91       	pop	r28
     9fa:	08 95       	ret

000009fc <_Z10init_colorv>:
     9fc:	87 e0       	ldi	r24, 0x07	; 7
     9fe:	80 93 a1 06 	sts	0x06A1, r24	; 0x8006a1 <__TEXT_REGION_LENGTH__+0x7006a1>
     a02:	08 95       	ret

00000a04 <_Z11init_bmx055v>:
int xMag=0;
int yMag=0;
int zMag=0;


void init_bmx055(void){
     a04:	cf 93       	push	r28
     a06:	df 93       	push	r29
     a08:	cd b7       	in	r28, 0x3d	; 61
     a0a:	de b7       	in	r29, 0x3e	; 62
     a0c:	2a 97       	sbiw	r28, 0x0a	; 10
     a0e:	cd bf       	out	0x3d, r28	; 61
     a10:	de bf       	out	0x3e, r29	; 62
	twi bmx(&TWIC,bmx_fre);
     a12:	20 e4       	ldi	r18, 0x40	; 64
     a14:	3d e0       	ldi	r19, 0x0D	; 13
     a16:	43 e0       	ldi	r20, 0x03	; 3
     a18:	50 e0       	ldi	r21, 0x00	; 0
     a1a:	60 e8       	ldi	r22, 0x80	; 128
     a1c:	74 e0       	ldi	r23, 0x04	; 4
     a1e:	ce 01       	movw	r24, r28
     a20:	01 96       	adiw	r24, 0x01	; 1
     a22:	0e 94 ca 09 	call	0x1394	; 0x1394 <_ZN3twiC1EP10TWI_structm>

	//------------------------------------------------------------//
	bmx.Address(Addr_Accl,0);
     a26:	40 e0       	ldi	r20, 0x00	; 0
     a28:	69 e1       	ldi	r22, 0x19	; 25
     a2a:	ce 01       	movw	r24, r28
     a2c:	01 96       	adiw	r24, 0x01	; 1
     a2e:	0e 94 10 0a 	call	0x1420	; 0x1420 <_ZN3twi7AddressEhh>
	bmx.WriteSingle(0x0F); // Select PMU_Range register
     a32:	6f e0       	ldi	r22, 0x0F	; 15
     a34:	70 e0       	ldi	r23, 0x00	; 0
     a36:	ce 01       	movw	r24, r28
     a38:	01 96       	adiw	r24, 0x01	; 1
     a3a:	0e 94 3e 0a 	call	0x147c	; 0x147c <_ZN3twi11WriteSingleEi>
	bmx.WriteSingle(0x03);   // Range = +/- 2g
     a3e:	63 e0       	ldi	r22, 0x03	; 3
     a40:	70 e0       	ldi	r23, 0x00	; 0
     a42:	ce 01       	movw	r24, r28
     a44:	01 96       	adiw	r24, 0x01	; 1
     a46:	0e 94 3e 0a 	call	0x147c	; 0x147c <_ZN3twi11WriteSingleEi>
	bmx.Stop();
     a4a:	ce 01       	movw	r24, r28
     a4c:	01 96       	adiw	r24, 0x01	; 1
     a4e:	0e 94 62 0a 	call	0x14c4	; 0x14c4 <_ZN3twi4StopEv>
     a52:	2f ef       	ldi	r18, 0xFF	; 255
     a54:	83 ec       	ldi	r24, 0xC3	; 195
     a56:	99 e0       	ldi	r25, 0x09	; 9
     a58:	21 50       	subi	r18, 0x01	; 1
     a5a:	80 40       	sbci	r24, 0x00	; 0
     a5c:	90 40       	sbci	r25, 0x00	; 0
     a5e:	e1 f7       	brne	.-8      	; 0xa58 <_Z11init_bmx055v+0x54>
     a60:	00 c0       	rjmp	.+0      	; 0xa62 <_Z11init_bmx055v+0x5e>
     a62:	00 00       	nop
	_delay_ms(100);
	//------------------------------------------------------------//
	bmx.Address(Addr_Accl,0);
     a64:	40 e0       	ldi	r20, 0x00	; 0
     a66:	69 e1       	ldi	r22, 0x19	; 25
     a68:	ce 01       	movw	r24, r28
     a6a:	01 96       	adiw	r24, 0x01	; 1
     a6c:	0e 94 10 0a 	call	0x1420	; 0x1420 <_ZN3twi7AddressEhh>
	bmx.WriteSingle(0x10);  // Select PMU_BW register
     a70:	60 e1       	ldi	r22, 0x10	; 16
     a72:	70 e0       	ldi	r23, 0x00	; 0
     a74:	ce 01       	movw	r24, r28
     a76:	01 96       	adiw	r24, 0x01	; 1
     a78:	0e 94 3e 0a 	call	0x147c	; 0x147c <_ZN3twi11WriteSingleEi>
	bmx.WriteSingle(0x08);  // Bandwidth = 7.81 Hz
     a7c:	68 e0       	ldi	r22, 0x08	; 8
     a7e:	70 e0       	ldi	r23, 0x00	; 0
     a80:	ce 01       	movw	r24, r28
     a82:	01 96       	adiw	r24, 0x01	; 1
     a84:	0e 94 3e 0a 	call	0x147c	; 0x147c <_ZN3twi11WriteSingleEi>
	bmx.Stop();
     a88:	ce 01       	movw	r24, r28
     a8a:	01 96       	adiw	r24, 0x01	; 1
     a8c:	0e 94 62 0a 	call	0x14c4	; 0x14c4 <_ZN3twi4StopEv>
     a90:	2f ef       	ldi	r18, 0xFF	; 255
     a92:	83 ec       	ldi	r24, 0xC3	; 195
     a94:	99 e0       	ldi	r25, 0x09	; 9
     a96:	21 50       	subi	r18, 0x01	; 1
     a98:	80 40       	sbci	r24, 0x00	; 0
     a9a:	90 40       	sbci	r25, 0x00	; 0
     a9c:	e1 f7       	brne	.-8      	; 0xa96 <_Z11init_bmx055v+0x92>
     a9e:	00 c0       	rjmp	.+0      	; 0xaa0 <_Z11init_bmx055v+0x9c>
     aa0:	00 00       	nop
	_delay_ms(100);
	//------------------------------------------------------------//
	bmx.Address(Addr_Accl,0);
     aa2:	40 e0       	ldi	r20, 0x00	; 0
     aa4:	69 e1       	ldi	r22, 0x19	; 25
     aa6:	ce 01       	movw	r24, r28
     aa8:	01 96       	adiw	r24, 0x01	; 1
     aaa:	0e 94 10 0a 	call	0x1420	; 0x1420 <_ZN3twi7AddressEhh>
	bmx.WriteSingle(0x11);  // Select PMU_LPW register
     aae:	61 e1       	ldi	r22, 0x11	; 17
     ab0:	70 e0       	ldi	r23, 0x00	; 0
     ab2:	ce 01       	movw	r24, r28
     ab4:	01 96       	adiw	r24, 0x01	; 1
     ab6:	0e 94 3e 0a 	call	0x147c	; 0x147c <_ZN3twi11WriteSingleEi>
	bmx.WriteSingle(0x00);  // Normal mode, Sleep duration = 0.5ms
     aba:	60 e0       	ldi	r22, 0x00	; 0
     abc:	70 e0       	ldi	r23, 0x00	; 0
     abe:	ce 01       	movw	r24, r28
     ac0:	01 96       	adiw	r24, 0x01	; 1
     ac2:	0e 94 3e 0a 	call	0x147c	; 0x147c <_ZN3twi11WriteSingleEi>
	bmx.Stop();
     ac6:	ce 01       	movw	r24, r28
     ac8:	01 96       	adiw	r24, 0x01	; 1
     aca:	0e 94 62 0a 	call	0x14c4	; 0x14c4 <_ZN3twi4StopEv>
     ace:	2f ef       	ldi	r18, 0xFF	; 255
     ad0:	83 ec       	ldi	r24, 0xC3	; 195
     ad2:	99 e0       	ldi	r25, 0x09	; 9
     ad4:	21 50       	subi	r18, 0x01	; 1
     ad6:	80 40       	sbci	r24, 0x00	; 0
     ad8:	90 40       	sbci	r25, 0x00	; 0
     ada:	e1 f7       	brne	.-8      	; 0xad4 <_Z11init_bmx055v+0xd0>
     adc:	00 c0       	rjmp	.+0      	; 0xade <_Z11init_bmx055v+0xda>
     ade:	00 00       	nop
	_delay_ms(100);
	//------------------------------------------------------------//
	bmx.Address(Addr_Gyro,0);
     ae0:	40 e0       	ldi	r20, 0x00	; 0
     ae2:	69 e6       	ldi	r22, 0x69	; 105
     ae4:	ce 01       	movw	r24, r28
     ae6:	01 96       	adiw	r24, 0x01	; 1
     ae8:	0e 94 10 0a 	call	0x1420	; 0x1420 <_ZN3twi7AddressEhh>
	bmx.WriteSingle(0x0F);  // Select Range register
     aec:	6f e0       	ldi	r22, 0x0F	; 15
     aee:	70 e0       	ldi	r23, 0x00	; 0
     af0:	ce 01       	movw	r24, r28
     af2:	01 96       	adiw	r24, 0x01	; 1
     af4:	0e 94 3e 0a 	call	0x147c	; 0x147c <_ZN3twi11WriteSingleEi>
	bmx.WriteSingle(0x04);  // Full scale = +/- 125 degree/s
     af8:	64 e0       	ldi	r22, 0x04	; 4
     afa:	70 e0       	ldi	r23, 0x00	; 0
     afc:	ce 01       	movw	r24, r28
     afe:	01 96       	adiw	r24, 0x01	; 1
     b00:	0e 94 3e 0a 	call	0x147c	; 0x147c <_ZN3twi11WriteSingleEi>
	bmx.Stop();
     b04:	ce 01       	movw	r24, r28
     b06:	01 96       	adiw	r24, 0x01	; 1
     b08:	0e 94 62 0a 	call	0x14c4	; 0x14c4 <_ZN3twi4StopEv>
     b0c:	2f ef       	ldi	r18, 0xFF	; 255
     b0e:	83 ec       	ldi	r24, 0xC3	; 195
     b10:	99 e0       	ldi	r25, 0x09	; 9
     b12:	21 50       	subi	r18, 0x01	; 1
     b14:	80 40       	sbci	r24, 0x00	; 0
     b16:	90 40       	sbci	r25, 0x00	; 0
     b18:	e1 f7       	brne	.-8      	; 0xb12 <_Z11init_bmx055v+0x10e>
     b1a:	00 c0       	rjmp	.+0      	; 0xb1c <_Z11init_bmx055v+0x118>
     b1c:	00 00       	nop
	_delay_ms(100);
	//------------------------------------------------------------//
	bmx.Address(Addr_Gyro,0);
     b1e:	40 e0       	ldi	r20, 0x00	; 0
     b20:	69 e6       	ldi	r22, 0x69	; 105
     b22:	ce 01       	movw	r24, r28
     b24:	01 96       	adiw	r24, 0x01	; 1
     b26:	0e 94 10 0a 	call	0x1420	; 0x1420 <_ZN3twi7AddressEhh>
	bmx.WriteSingle(0x10);  // Select Bandwidth register
     b2a:	60 e1       	ldi	r22, 0x10	; 16
     b2c:	70 e0       	ldi	r23, 0x00	; 0
     b2e:	ce 01       	movw	r24, r28
     b30:	01 96       	adiw	r24, 0x01	; 1
     b32:	0e 94 3e 0a 	call	0x147c	; 0x147c <_ZN3twi11WriteSingleEi>
	bmx.WriteSingle(0x07);  // ODR = 100 Hz
     b36:	67 e0       	ldi	r22, 0x07	; 7
     b38:	70 e0       	ldi	r23, 0x00	; 0
     b3a:	ce 01       	movw	r24, r28
     b3c:	01 96       	adiw	r24, 0x01	; 1
     b3e:	0e 94 3e 0a 	call	0x147c	; 0x147c <_ZN3twi11WriteSingleEi>
	bmx.Stop();
     b42:	ce 01       	movw	r24, r28
     b44:	01 96       	adiw	r24, 0x01	; 1
     b46:	0e 94 62 0a 	call	0x14c4	; 0x14c4 <_ZN3twi4StopEv>
     b4a:	2f ef       	ldi	r18, 0xFF	; 255
     b4c:	83 ec       	ldi	r24, 0xC3	; 195
     b4e:	99 e0       	ldi	r25, 0x09	; 9
     b50:	21 50       	subi	r18, 0x01	; 1
     b52:	80 40       	sbci	r24, 0x00	; 0
     b54:	90 40       	sbci	r25, 0x00	; 0
     b56:	e1 f7       	brne	.-8      	; 0xb50 <_Z11init_bmx055v+0x14c>
     b58:	00 c0       	rjmp	.+0      	; 0xb5a <_Z11init_bmx055v+0x156>
     b5a:	00 00       	nop
	_delay_ms(100);
	//------------------------------------------------------------//
	bmx.Address(Addr_Gyro,0);
     b5c:	40 e0       	ldi	r20, 0x00	; 0
     b5e:	69 e6       	ldi	r22, 0x69	; 105
     b60:	ce 01       	movw	r24, r28
     b62:	01 96       	adiw	r24, 0x01	; 1
     b64:	0e 94 10 0a 	call	0x1420	; 0x1420 <_ZN3twi7AddressEhh>
	bmx.WriteSingle(0x11);  // Select LPM1 register
     b68:	61 e1       	ldi	r22, 0x11	; 17
     b6a:	70 e0       	ldi	r23, 0x00	; 0
     b6c:	ce 01       	movw	r24, r28
     b6e:	01 96       	adiw	r24, 0x01	; 1
     b70:	0e 94 3e 0a 	call	0x147c	; 0x147c <_ZN3twi11WriteSingleEi>
	bmx.WriteSingle(0x00);  // Normal mode, Sleep duration = 2ms
     b74:	60 e0       	ldi	r22, 0x00	; 0
     b76:	70 e0       	ldi	r23, 0x00	; 0
     b78:	ce 01       	movw	r24, r28
     b7a:	01 96       	adiw	r24, 0x01	; 1
     b7c:	0e 94 3e 0a 	call	0x147c	; 0x147c <_ZN3twi11WriteSingleEi>
	bmx.Stop();
     b80:	ce 01       	movw	r24, r28
     b82:	01 96       	adiw	r24, 0x01	; 1
     b84:	0e 94 62 0a 	call	0x14c4	; 0x14c4 <_ZN3twi4StopEv>
     b88:	2f ef       	ldi	r18, 0xFF	; 255
     b8a:	83 ec       	ldi	r24, 0xC3	; 195
     b8c:	99 e0       	ldi	r25, 0x09	; 9
     b8e:	21 50       	subi	r18, 0x01	; 1
     b90:	80 40       	sbci	r24, 0x00	; 0
     b92:	90 40       	sbci	r25, 0x00	; 0
     b94:	e1 f7       	brne	.-8      	; 0xb8e <_Z11init_bmx055v+0x18a>
     b96:	00 c0       	rjmp	.+0      	; 0xb98 <_Z11init_bmx055v+0x194>
     b98:	00 00       	nop
	_delay_ms(100);
	//------------------------------------------------------------//
	bmx.Address(Addr_Mag,0);
     b9a:	40 e0       	ldi	r20, 0x00	; 0
     b9c:	63 e1       	ldi	r22, 0x13	; 19
     b9e:	ce 01       	movw	r24, r28
     ba0:	01 96       	adiw	r24, 0x01	; 1
     ba2:	0e 94 10 0a 	call	0x1420	; 0x1420 <_ZN3twi7AddressEhh>
	bmx.WriteSingle(0x4B);  // Select Mag register
     ba6:	6b e4       	ldi	r22, 0x4B	; 75
     ba8:	70 e0       	ldi	r23, 0x00	; 0
     baa:	ce 01       	movw	r24, r28
     bac:	01 96       	adiw	r24, 0x01	; 1
     bae:	0e 94 3e 0a 	call	0x147c	; 0x147c <_ZN3twi11WriteSingleEi>
	bmx.WriteSingle(0x83);  // Soft reset
     bb2:	63 e8       	ldi	r22, 0x83	; 131
     bb4:	70 e0       	ldi	r23, 0x00	; 0
     bb6:	ce 01       	movw	r24, r28
     bb8:	01 96       	adiw	r24, 0x01	; 1
     bba:	0e 94 3e 0a 	call	0x147c	; 0x147c <_ZN3twi11WriteSingleEi>
	bmx.Stop();
     bbe:	ce 01       	movw	r24, r28
     bc0:	01 96       	adiw	r24, 0x01	; 1
     bc2:	0e 94 62 0a 	call	0x14c4	; 0x14c4 <_ZN3twi4StopEv>
     bc6:	2f ef       	ldi	r18, 0xFF	; 255
     bc8:	83 ec       	ldi	r24, 0xC3	; 195
     bca:	99 e0       	ldi	r25, 0x09	; 9
     bcc:	21 50       	subi	r18, 0x01	; 1
     bce:	80 40       	sbci	r24, 0x00	; 0
     bd0:	90 40       	sbci	r25, 0x00	; 0
     bd2:	e1 f7       	brne	.-8      	; 0xbcc <_Z11init_bmx055v+0x1c8>
     bd4:	00 c0       	rjmp	.+0      	; 0xbd6 <_Z11init_bmx055v+0x1d2>
     bd6:	00 00       	nop
	_delay_ms(100);
	//------------------------------------------------------------//
	bmx.Address(Addr_Mag,0);
     bd8:	40 e0       	ldi	r20, 0x00	; 0
     bda:	63 e1       	ldi	r22, 0x13	; 19
     bdc:	ce 01       	movw	r24, r28
     bde:	01 96       	adiw	r24, 0x01	; 1
     be0:	0e 94 10 0a 	call	0x1420	; 0x1420 <_ZN3twi7AddressEhh>
	bmx.WriteSingle(0x4B);  // Select Mag register
     be4:	6b e4       	ldi	r22, 0x4B	; 75
     be6:	70 e0       	ldi	r23, 0x00	; 0
     be8:	ce 01       	movw	r24, r28
     bea:	01 96       	adiw	r24, 0x01	; 1
     bec:	0e 94 3e 0a 	call	0x147c	; 0x147c <_ZN3twi11WriteSingleEi>
	bmx.WriteSingle(0x01);  // Soft reset
     bf0:	61 e0       	ldi	r22, 0x01	; 1
     bf2:	70 e0       	ldi	r23, 0x00	; 0
     bf4:	ce 01       	movw	r24, r28
     bf6:	01 96       	adiw	r24, 0x01	; 1
     bf8:	0e 94 3e 0a 	call	0x147c	; 0x147c <_ZN3twi11WriteSingleEi>
	bmx.Stop();
     bfc:	ce 01       	movw	r24, r28
     bfe:	01 96       	adiw	r24, 0x01	; 1
     c00:	0e 94 62 0a 	call	0x14c4	; 0x14c4 <_ZN3twi4StopEv>
     c04:	2f ef       	ldi	r18, 0xFF	; 255
     c06:	83 ec       	ldi	r24, 0xC3	; 195
     c08:	99 e0       	ldi	r25, 0x09	; 9
     c0a:	21 50       	subi	r18, 0x01	; 1
     c0c:	80 40       	sbci	r24, 0x00	; 0
     c0e:	90 40       	sbci	r25, 0x00	; 0
     c10:	e1 f7       	brne	.-8      	; 0xc0a <_Z11init_bmx055v+0x206>
     c12:	00 c0       	rjmp	.+0      	; 0xc14 <_Z11init_bmx055v+0x210>
     c14:	00 00       	nop
	_delay_ms(100);
	//------------------------------------------------------------//
	bmx.Address(Addr_Mag,0);
     c16:	40 e0       	ldi	r20, 0x00	; 0
     c18:	63 e1       	ldi	r22, 0x13	; 19
     c1a:	ce 01       	movw	r24, r28
     c1c:	01 96       	adiw	r24, 0x01	; 1
     c1e:	0e 94 10 0a 	call	0x1420	; 0x1420 <_ZN3twi7AddressEhh>
	bmx.WriteSingle(0x4C);  // Select Mag register
     c22:	6c e4       	ldi	r22, 0x4C	; 76
     c24:	70 e0       	ldi	r23, 0x00	; 0
     c26:	ce 01       	movw	r24, r28
     c28:	01 96       	adiw	r24, 0x01	; 1
     c2a:	0e 94 3e 0a 	call	0x147c	; 0x147c <_ZN3twi11WriteSingleEi>
	bmx.WriteSingle(0x00);  // Normal Mode, ODR = 10 Hz
     c2e:	60 e0       	ldi	r22, 0x00	; 0
     c30:	70 e0       	ldi	r23, 0x00	; 0
     c32:	ce 01       	movw	r24, r28
     c34:	01 96       	adiw	r24, 0x01	; 1
     c36:	0e 94 3e 0a 	call	0x147c	; 0x147c <_ZN3twi11WriteSingleEi>
	bmx.Stop();
     c3a:	ce 01       	movw	r24, r28
     c3c:	01 96       	adiw	r24, 0x01	; 1
     c3e:	0e 94 62 0a 	call	0x14c4	; 0x14c4 <_ZN3twi4StopEv>
	//------------------------------------------------------------//
	bmx.Address(Addr_Mag,0);
     c42:	40 e0       	ldi	r20, 0x00	; 0
     c44:	63 e1       	ldi	r22, 0x13	; 19
     c46:	ce 01       	movw	r24, r28
     c48:	01 96       	adiw	r24, 0x01	; 1
     c4a:	0e 94 10 0a 	call	0x1420	; 0x1420 <_ZN3twi7AddressEhh>
	bmx.WriteSingle(0x4E);  // Select Mag register
     c4e:	6e e4       	ldi	r22, 0x4E	; 78
     c50:	70 e0       	ldi	r23, 0x00	; 0
     c52:	ce 01       	movw	r24, r28
     c54:	01 96       	adiw	r24, 0x01	; 1
     c56:	0e 94 3e 0a 	call	0x147c	; 0x147c <_ZN3twi11WriteSingleEi>
	bmx.WriteSingle(0x84);  // X, Y, Z-Axis enabled
     c5a:	64 e8       	ldi	r22, 0x84	; 132
     c5c:	70 e0       	ldi	r23, 0x00	; 0
     c5e:	ce 01       	movw	r24, r28
     c60:	01 96       	adiw	r24, 0x01	; 1
     c62:	0e 94 3e 0a 	call	0x147c	; 0x147c <_ZN3twi11WriteSingleEi>
	bmx.Stop();
     c66:	ce 01       	movw	r24, r28
     c68:	01 96       	adiw	r24, 0x01	; 1
     c6a:	0e 94 62 0a 	call	0x14c4	; 0x14c4 <_ZN3twi4StopEv>
	//------------------------------------------------------------//
	bmx.Address(Addr_Mag,0);
     c6e:	40 e0       	ldi	r20, 0x00	; 0
     c70:	63 e1       	ldi	r22, 0x13	; 19
     c72:	ce 01       	movw	r24, r28
     c74:	01 96       	adiw	r24, 0x01	; 1
     c76:	0e 94 10 0a 	call	0x1420	; 0x1420 <_ZN3twi7AddressEhh>
	bmx.WriteSingle(0x51);  // Select Mag register
     c7a:	61 e5       	ldi	r22, 0x51	; 81
     c7c:	70 e0       	ldi	r23, 0x00	; 0
     c7e:	ce 01       	movw	r24, r28
     c80:	01 96       	adiw	r24, 0x01	; 1
     c82:	0e 94 3e 0a 	call	0x147c	; 0x147c <_ZN3twi11WriteSingleEi>
	bmx.WriteSingle(0x04);  // No. of Repetitions for X-Y Axis = 9
     c86:	64 e0       	ldi	r22, 0x04	; 4
     c88:	70 e0       	ldi	r23, 0x00	; 0
     c8a:	ce 01       	movw	r24, r28
     c8c:	01 96       	adiw	r24, 0x01	; 1
     c8e:	0e 94 3e 0a 	call	0x147c	; 0x147c <_ZN3twi11WriteSingleEi>
	bmx.Stop();
     c92:	ce 01       	movw	r24, r28
     c94:	01 96       	adiw	r24, 0x01	; 1
     c96:	0e 94 62 0a 	call	0x14c4	; 0x14c4 <_ZN3twi4StopEv>
	//------------------------------------------------------------//
	bmx.Address(Addr_Mag,0);
     c9a:	40 e0       	ldi	r20, 0x00	; 0
     c9c:	63 e1       	ldi	r22, 0x13	; 19
     c9e:	ce 01       	movw	r24, r28
     ca0:	01 96       	adiw	r24, 0x01	; 1
     ca2:	0e 94 10 0a 	call	0x1420	; 0x1420 <_ZN3twi7AddressEhh>
	bmx.WriteSingle(0x52);  // Select Mag register
     ca6:	62 e5       	ldi	r22, 0x52	; 82
     ca8:	70 e0       	ldi	r23, 0x00	; 0
     caa:	ce 01       	movw	r24, r28
     cac:	01 96       	adiw	r24, 0x01	; 1
     cae:	0e 94 3e 0a 	call	0x147c	; 0x147c <_ZN3twi11WriteSingleEi>
	bmx.WriteSingle(0x16);  // No. of Repetitions for Z-Axis = 15
     cb2:	66 e1       	ldi	r22, 0x16	; 22
     cb4:	70 e0       	ldi	r23, 0x00	; 0
     cb6:	ce 01       	movw	r24, r28
     cb8:	01 96       	adiw	r24, 0x01	; 1
     cba:	0e 94 3e 0a 	call	0x147c	; 0x147c <_ZN3twi11WriteSingleEi>
	bmx.Stop();
     cbe:	ce 01       	movw	r24, r28
     cc0:	01 96       	adiw	r24, 0x01	; 1
     cc2:	0e 94 62 0a 	call	0x14c4	; 0x14c4 <_ZN3twi4StopEv>
}
     cc6:	2a 96       	adiw	r28, 0x0a	; 10
     cc8:	cd bf       	out	0x3d, r28	; 61
     cca:	de bf       	out	0x3e, r29	; 62
     ccc:	df 91       	pop	r29
     cce:	cf 91       	pop	r28
     cd0:	08 95       	ret

00000cd2 <_Z10init_clockv>:
	init_color();
}


void init_clock(void){
	OSC.CTRL |= 0x02;					//32MHzU
     cd2:	e0 e5       	ldi	r30, 0x50	; 80
     cd4:	f0 e0       	ldi	r31, 0x00	; 0
     cd6:	80 81       	ld	r24, Z
     cd8:	82 60       	ori	r24, 0x02	; 2
     cda:	80 83       	st	Z, r24
	while((OSC.STATUS & 0x02) == 0);	//32MHzU
     cdc:	81 81       	ldd	r24, Z+1	; 0x01
     cde:	81 ff       	sbrs	r24, 1
     ce0:	fd cf       	rjmp	.-6      	; 0xcdc <_Z10init_clockv+0xa>
	CPU_CCP = 0xD8;						//VXeNbNWX^ANZXs
     ce2:	88 ed       	ldi	r24, 0xD8	; 216
     ce4:	84 bf       	out	0x34, r24	; 52
	CLK.CTRL = 0x01;					//VXeNbN32MHzX
     ce6:	e0 e4       	ldi	r30, 0x40	; 64
     ce8:	f0 e0       	ldi	r31, 0x00	; 0
     cea:	81 e0       	ldi	r24, 0x01	; 1
     cec:	80 83       	st	Z, r24
	CLK.PSCTRL=CLK_PSADIV0_bm;		//select Prescaler A as 2, Prescaler B and Prescaler C as 1, Clksys=16MHz, Clkper4=Clkper2=Clkper=Clkcpu=8MHz
     cee:	84 e0       	ldi	r24, 0x04	; 4
     cf0:	81 83       	std	Z+1, r24	; 0x01
	OSC.CTRL &= 0xFE;					//2MHzU~
     cf2:	e0 e5       	ldi	r30, 0x50	; 80
     cf4:	f0 e0       	ldi	r31, 0x00	; 0
     cf6:	80 81       	ld	r24, Z
     cf8:	8e 7f       	andi	r24, 0xFE	; 254
     cfa:	80 83       	st	Z, r24
     cfc:	08 95       	ret

00000cfe <_Z3rtcv>:
}


void rtc(void){
	OSC.CTRL = OSC_RC32KEN_bm;
     cfe:	84 e0       	ldi	r24, 0x04	; 4
     d00:	80 93 50 00 	sts	0x0050, r24	; 0x800050 <__TEXT_REGION_LENGTH__+0x700050>
	while((OSC_STATUS&&OSC_RC32KRDY_bm)==0);
     d04:	e1 e5       	ldi	r30, 0x51	; 81
     d06:	f0 e0       	ldi	r31, 0x00	; 0
     d08:	80 81       	ld	r24, Z
     d0a:	88 23       	and	r24, r24
     d0c:	e9 f3       	breq	.-6      	; 0xd08 <_Z3rtcv+0xa>
	CLK.RTCCTRL = 0b00000001;
     d0e:	81 e0       	ldi	r24, 0x01	; 1
     d10:	80 93 43 00 	sts	0x0043, r24	; 0x800043 <__TEXT_REGION_LENGTH__+0x700043>
	RTC.CTRL = RTC_PRESCALER_DIV1024_gc;
     d14:	87 e0       	ldi	r24, 0x07	; 7
     d16:	80 93 00 04 	sts	0x0400, r24	; 0x800400 <__TEXT_REGION_LENGTH__+0x700400>
     d1a:	08 95       	ret

00000d1c <_Z8init_avrv>:
}

void init_avr(void){
	PORTA.DIRSET=PIN0_bm;//uU[
     d1c:	81 e0       	ldi	r24, 0x01	; 1
     d1e:	80 93 01 06 	sts	0x0601, r24	; 0x800601 <__TEXT_REGION_LENGTH__+0x700601>
	PORTQ.DIRSET = PIN0_bm|PIN1_bm|PIN2_bm;//tJ[LED
     d22:	e0 ec       	ldi	r30, 0xC0	; 192
     d24:	f7 e0       	ldi	r31, 0x07	; 7
     d26:	87 e0       	ldi	r24, 0x07	; 7
     d28:	81 83       	std	Z+1, r24	; 0x01
	PORTQ.OUTSET = PIN0_bm|PIN1_bm|PIN2_bm;
     d2a:	85 83       	std	Z+5, r24	; 0x05
	PORTK.DIRSET = PIN0_bm|PIN1_bm|PIN2_bm|PIN3_bm;//XebsOinit
     d2c:	8f e0       	ldi	r24, 0x0F	; 15
     d2e:	80 93 21 07 	sts	0x0721, r24	; 0x800721 <__TEXT_REGION_LENGTH__+0x700721>
	PORTB.DIRSET = PIN0_bm|PIN1_bm;//[^[pSIG
     d32:	83 e0       	ldi	r24, 0x03	; 3
     d34:	80 93 21 06 	sts	0x0621, r24	; 0x800621 <__TEXT_REGION_LENGTH__+0x700621>
     d38:	08 95       	ret

00000d3a <_Z8init_allv>:
#include "motor_control.hpp"
#include "action.hpp"
#include "color_control.hpp"

void init_all(void){
	init_clock();
     d3a:	0e 94 69 06 	call	0xcd2	; 0xcd2 <_Z10init_clockv>
	init_avr();
     d3e:	0e 94 8e 06 	call	0xd1c	; 0xd1c <_Z8init_avrv>
	init_lcd();
     d42:	0e 94 aa 06 	call	0xd54	; 0xd54 <_Z8init_lcdv>
	init_motor();
     d46:	0e 94 8c 08 	call	0x1118	; 0x1118 <_Z10init_motorv>
	rtc();
     d4a:	0e 94 7f 06 	call	0xcfe	; 0xcfe <_Z3rtcv>
	init_color();
     d4e:	0e 94 fe 04 	call	0x9fc	; 0x9fc <_Z10init_colorv>
     d52:	08 95       	ret

00000d54 <_Z8init_lcdv>:
     d54:	cf 93       	push	r28
     d56:	df 93       	push	r29
     d58:	cd b7       	in	r28, 0x3d	; 61
     d5a:	de b7       	in	r29, 0x3e	; 62
     d5c:	2a 97       	sbiw	r28, 0x0a	; 10
     d5e:	cd bf       	out	0x3d, r28	; 61
     d60:	de bf       	out	0x3e, r29	; 62
     d62:	20 e8       	ldi	r18, 0x80	; 128
     d64:	3a e1       	ldi	r19, 0x1A	; 26
     d66:	46 e0       	ldi	r20, 0x06	; 6
     d68:	50 e0       	ldi	r21, 0x00	; 0
     d6a:	60 e9       	ldi	r22, 0x90	; 144
     d6c:	74 e0       	ldi	r23, 0x04	; 4
     d6e:	ce 01       	movw	r24, r28
     d70:	01 96       	adiw	r24, 0x01	; 1
     d72:	0e 94 ca 09 	call	0x1394	; 0x1394 <_ZN3twiC1EP10TWI_structm>
     d76:	40 e0       	ldi	r20, 0x00	; 0
     d78:	6c e7       	ldi	r22, 0x7C	; 124
     d7a:	ce 01       	movw	r24, r28
     d7c:	01 96       	adiw	r24, 0x01	; 1
     d7e:	0e 94 10 0a 	call	0x1420	; 0x1420 <_ZN3twi7AddressEhh>
     d82:	60 e0       	ldi	r22, 0x00	; 0
     d84:	70 e0       	ldi	r23, 0x00	; 0
     d86:	ce 01       	movw	r24, r28
     d88:	01 96       	adiw	r24, 0x01	; 1
     d8a:	0e 94 3e 0a 	call	0x147c	; 0x147c <_ZN3twi11WriteSingleEi>
     d8e:	68 e3       	ldi	r22, 0x38	; 56
     d90:	70 e0       	ldi	r23, 0x00	; 0
     d92:	ce 01       	movw	r24, r28
     d94:	01 96       	adiw	r24, 0x01	; 1
     d96:	0e 94 3e 0a 	call	0x147c	; 0x147c <_ZN3twi11WriteSingleEi>
     d9a:	ce 01       	movw	r24, r28
     d9c:	01 96       	adiw	r24, 0x01	; 1
     d9e:	0e 94 62 0a 	call	0x14c4	; 0x14c4 <_ZN3twi4StopEv>
     da2:	2f ef       	ldi	r18, 0xFF	; 255
     da4:	81 ee       	ldi	r24, 0xE1	; 225
     da6:	94 e0       	ldi	r25, 0x04	; 4
     da8:	21 50       	subi	r18, 0x01	; 1
     daa:	80 40       	sbci	r24, 0x00	; 0
     dac:	90 40       	sbci	r25, 0x00	; 0
     dae:	e1 f7       	brne	.-8      	; 0xda8 <_Z8init_lcdv+0x54>
     db0:	00 c0       	rjmp	.+0      	; 0xdb2 <_Z8init_lcdv+0x5e>
     db2:	00 00       	nop
     db4:	40 e0       	ldi	r20, 0x00	; 0
     db6:	6c e7       	ldi	r22, 0x7C	; 124
     db8:	ce 01       	movw	r24, r28
     dba:	01 96       	adiw	r24, 0x01	; 1
     dbc:	0e 94 10 0a 	call	0x1420	; 0x1420 <_ZN3twi7AddressEhh>
     dc0:	60 e0       	ldi	r22, 0x00	; 0
     dc2:	70 e0       	ldi	r23, 0x00	; 0
     dc4:	ce 01       	movw	r24, r28
     dc6:	01 96       	adiw	r24, 0x01	; 1
     dc8:	0e 94 3e 0a 	call	0x147c	; 0x147c <_ZN3twi11WriteSingleEi>
     dcc:	69 e3       	ldi	r22, 0x39	; 57
     dce:	70 e0       	ldi	r23, 0x00	; 0
     dd0:	ce 01       	movw	r24, r28
     dd2:	01 96       	adiw	r24, 0x01	; 1
     dd4:	0e 94 3e 0a 	call	0x147c	; 0x147c <_ZN3twi11WriteSingleEi>
     dd8:	ce 01       	movw	r24, r28
     dda:	01 96       	adiw	r24, 0x01	; 1
     ddc:	0e 94 62 0a 	call	0x14c4	; 0x14c4 <_ZN3twi4StopEv>
     de0:	2f ef       	ldi	r18, 0xFF	; 255
     de2:	81 ee       	ldi	r24, 0xE1	; 225
     de4:	94 e0       	ldi	r25, 0x04	; 4
     de6:	21 50       	subi	r18, 0x01	; 1
     de8:	80 40       	sbci	r24, 0x00	; 0
     dea:	90 40       	sbci	r25, 0x00	; 0
     dec:	e1 f7       	brne	.-8      	; 0xde6 <_Z8init_lcdv+0x92>
     dee:	00 c0       	rjmp	.+0      	; 0xdf0 <_Z8init_lcdv+0x9c>
     df0:	00 00       	nop
     df2:	40 e0       	ldi	r20, 0x00	; 0
     df4:	6c e7       	ldi	r22, 0x7C	; 124
     df6:	ce 01       	movw	r24, r28
     df8:	01 96       	adiw	r24, 0x01	; 1
     dfa:	0e 94 10 0a 	call	0x1420	; 0x1420 <_ZN3twi7AddressEhh>
     dfe:	60 e0       	ldi	r22, 0x00	; 0
     e00:	70 e0       	ldi	r23, 0x00	; 0
     e02:	ce 01       	movw	r24, r28
     e04:	01 96       	adiw	r24, 0x01	; 1
     e06:	0e 94 3e 0a 	call	0x147c	; 0x147c <_ZN3twi11WriteSingleEi>
     e0a:	64 e1       	ldi	r22, 0x14	; 20
     e0c:	70 e0       	ldi	r23, 0x00	; 0
     e0e:	ce 01       	movw	r24, r28
     e10:	01 96       	adiw	r24, 0x01	; 1
     e12:	0e 94 3e 0a 	call	0x147c	; 0x147c <_ZN3twi11WriteSingleEi>
     e16:	ce 01       	movw	r24, r28
     e18:	01 96       	adiw	r24, 0x01	; 1
     e1a:	0e 94 62 0a 	call	0x14c4	; 0x14c4 <_ZN3twi4StopEv>
     e1e:	2f ef       	ldi	r18, 0xFF	; 255
     e20:	81 ee       	ldi	r24, 0xE1	; 225
     e22:	94 e0       	ldi	r25, 0x04	; 4
     e24:	21 50       	subi	r18, 0x01	; 1
     e26:	80 40       	sbci	r24, 0x00	; 0
     e28:	90 40       	sbci	r25, 0x00	; 0
     e2a:	e1 f7       	brne	.-8      	; 0xe24 <_Z8init_lcdv+0xd0>
     e2c:	00 c0       	rjmp	.+0      	; 0xe2e <_Z8init_lcdv+0xda>
     e2e:	00 00       	nop
     e30:	40 e0       	ldi	r20, 0x00	; 0
     e32:	6c e7       	ldi	r22, 0x7C	; 124
     e34:	ce 01       	movw	r24, r28
     e36:	01 96       	adiw	r24, 0x01	; 1
     e38:	0e 94 10 0a 	call	0x1420	; 0x1420 <_ZN3twi7AddressEhh>
     e3c:	60 e0       	ldi	r22, 0x00	; 0
     e3e:	70 e0       	ldi	r23, 0x00	; 0
     e40:	ce 01       	movw	r24, r28
     e42:	01 96       	adiw	r24, 0x01	; 1
     e44:	0e 94 3e 0a 	call	0x147c	; 0x147c <_ZN3twi11WriteSingleEi>
     e48:	6e e7       	ldi	r22, 0x7E	; 126
     e4a:	70 e0       	ldi	r23, 0x00	; 0
     e4c:	ce 01       	movw	r24, r28
     e4e:	01 96       	adiw	r24, 0x01	; 1
     e50:	0e 94 3e 0a 	call	0x147c	; 0x147c <_ZN3twi11WriteSingleEi>
     e54:	ce 01       	movw	r24, r28
     e56:	01 96       	adiw	r24, 0x01	; 1
     e58:	0e 94 62 0a 	call	0x14c4	; 0x14c4 <_ZN3twi4StopEv>
     e5c:	2f ef       	ldi	r18, 0xFF	; 255
     e5e:	81 ee       	ldi	r24, 0xE1	; 225
     e60:	94 e0       	ldi	r25, 0x04	; 4
     e62:	21 50       	subi	r18, 0x01	; 1
     e64:	80 40       	sbci	r24, 0x00	; 0
     e66:	90 40       	sbci	r25, 0x00	; 0
     e68:	e1 f7       	brne	.-8      	; 0xe62 <_Z8init_lcdv+0x10e>
     e6a:	00 c0       	rjmp	.+0      	; 0xe6c <_Z8init_lcdv+0x118>
     e6c:	00 00       	nop
     e6e:	40 e0       	ldi	r20, 0x00	; 0
     e70:	6c e7       	ldi	r22, 0x7C	; 124
     e72:	ce 01       	movw	r24, r28
     e74:	01 96       	adiw	r24, 0x01	; 1
     e76:	0e 94 10 0a 	call	0x1420	; 0x1420 <_ZN3twi7AddressEhh>
     e7a:	60 e0       	ldi	r22, 0x00	; 0
     e7c:	70 e0       	ldi	r23, 0x00	; 0
     e7e:	ce 01       	movw	r24, r28
     e80:	01 96       	adiw	r24, 0x01	; 1
     e82:	0e 94 3e 0a 	call	0x147c	; 0x147c <_ZN3twi11WriteSingleEi>
     e86:	65 e5       	ldi	r22, 0x55	; 85
     e88:	70 e0       	ldi	r23, 0x00	; 0
     e8a:	ce 01       	movw	r24, r28
     e8c:	01 96       	adiw	r24, 0x01	; 1
     e8e:	0e 94 3e 0a 	call	0x147c	; 0x147c <_ZN3twi11WriteSingleEi>
     e92:	ce 01       	movw	r24, r28
     e94:	01 96       	adiw	r24, 0x01	; 1
     e96:	0e 94 62 0a 	call	0x14c4	; 0x14c4 <_ZN3twi4StopEv>
     e9a:	2f ef       	ldi	r18, 0xFF	; 255
     e9c:	81 ee       	ldi	r24, 0xE1	; 225
     e9e:	94 e0       	ldi	r25, 0x04	; 4
     ea0:	21 50       	subi	r18, 0x01	; 1
     ea2:	80 40       	sbci	r24, 0x00	; 0
     ea4:	90 40       	sbci	r25, 0x00	; 0
     ea6:	e1 f7       	brne	.-8      	; 0xea0 <_Z8init_lcdv+0x14c>
     ea8:	00 c0       	rjmp	.+0      	; 0xeaa <_Z8init_lcdv+0x156>
     eaa:	00 00       	nop
     eac:	40 e0       	ldi	r20, 0x00	; 0
     eae:	6c e7       	ldi	r22, 0x7C	; 124
     eb0:	ce 01       	movw	r24, r28
     eb2:	01 96       	adiw	r24, 0x01	; 1
     eb4:	0e 94 10 0a 	call	0x1420	; 0x1420 <_ZN3twi7AddressEhh>
     eb8:	60 e0       	ldi	r22, 0x00	; 0
     eba:	70 e0       	ldi	r23, 0x00	; 0
     ebc:	ce 01       	movw	r24, r28
     ebe:	01 96       	adiw	r24, 0x01	; 1
     ec0:	0e 94 3e 0a 	call	0x147c	; 0x147c <_ZN3twi11WriteSingleEi>
     ec4:	6c e6       	ldi	r22, 0x6C	; 108
     ec6:	70 e0       	ldi	r23, 0x00	; 0
     ec8:	ce 01       	movw	r24, r28
     eca:	01 96       	adiw	r24, 0x01	; 1
     ecc:	0e 94 3e 0a 	call	0x147c	; 0x147c <_ZN3twi11WriteSingleEi>
     ed0:	ce 01       	movw	r24, r28
     ed2:	01 96       	adiw	r24, 0x01	; 1
     ed4:	0e 94 62 0a 	call	0x14c4	; 0x14c4 <_ZN3twi4StopEv>
     ed8:	2f ef       	ldi	r18, 0xFF	; 255
     eda:	83 ed       	ldi	r24, 0xD3	; 211
     edc:	90 e3       	ldi	r25, 0x30	; 48
     ede:	21 50       	subi	r18, 0x01	; 1
     ee0:	80 40       	sbci	r24, 0x00	; 0
     ee2:	90 40       	sbci	r25, 0x00	; 0
     ee4:	e1 f7       	brne	.-8      	; 0xede <_Z8init_lcdv+0x18a>
     ee6:	00 c0       	rjmp	.+0      	; 0xee8 <_Z8init_lcdv+0x194>
     ee8:	00 00       	nop
     eea:	40 e0       	ldi	r20, 0x00	; 0
     eec:	6c e7       	ldi	r22, 0x7C	; 124
     eee:	ce 01       	movw	r24, r28
     ef0:	01 96       	adiw	r24, 0x01	; 1
     ef2:	0e 94 10 0a 	call	0x1420	; 0x1420 <_ZN3twi7AddressEhh>
     ef6:	60 e0       	ldi	r22, 0x00	; 0
     ef8:	70 e0       	ldi	r23, 0x00	; 0
     efa:	ce 01       	movw	r24, r28
     efc:	01 96       	adiw	r24, 0x01	; 1
     efe:	0e 94 3e 0a 	call	0x147c	; 0x147c <_ZN3twi11WriteSingleEi>
     f02:	68 e3       	ldi	r22, 0x38	; 56
     f04:	70 e0       	ldi	r23, 0x00	; 0
     f06:	ce 01       	movw	r24, r28
     f08:	01 96       	adiw	r24, 0x01	; 1
     f0a:	0e 94 3e 0a 	call	0x147c	; 0x147c <_ZN3twi11WriteSingleEi>
     f0e:	ce 01       	movw	r24, r28
     f10:	01 96       	adiw	r24, 0x01	; 1
     f12:	0e 94 62 0a 	call	0x14c4	; 0x14c4 <_ZN3twi4StopEv>
     f16:	2f ef       	ldi	r18, 0xFF	; 255
     f18:	81 ee       	ldi	r24, 0xE1	; 225
     f1a:	94 e0       	ldi	r25, 0x04	; 4
     f1c:	21 50       	subi	r18, 0x01	; 1
     f1e:	80 40       	sbci	r24, 0x00	; 0
     f20:	90 40       	sbci	r25, 0x00	; 0
     f22:	e1 f7       	brne	.-8      	; 0xf1c <_Z8init_lcdv+0x1c8>
     f24:	00 c0       	rjmp	.+0      	; 0xf26 <_Z8init_lcdv+0x1d2>
     f26:	00 00       	nop
     f28:	40 e0       	ldi	r20, 0x00	; 0
     f2a:	6c e7       	ldi	r22, 0x7C	; 124
     f2c:	ce 01       	movw	r24, r28
     f2e:	01 96       	adiw	r24, 0x01	; 1
     f30:	0e 94 10 0a 	call	0x1420	; 0x1420 <_ZN3twi7AddressEhh>
     f34:	60 e0       	ldi	r22, 0x00	; 0
     f36:	70 e0       	ldi	r23, 0x00	; 0
     f38:	ce 01       	movw	r24, r28
     f3a:	01 96       	adiw	r24, 0x01	; 1
     f3c:	0e 94 3e 0a 	call	0x147c	; 0x147c <_ZN3twi11WriteSingleEi>
     f40:	6c e0       	ldi	r22, 0x0C	; 12
     f42:	70 e0       	ldi	r23, 0x00	; 0
     f44:	ce 01       	movw	r24, r28
     f46:	01 96       	adiw	r24, 0x01	; 1
     f48:	0e 94 3e 0a 	call	0x147c	; 0x147c <_ZN3twi11WriteSingleEi>
     f4c:	ce 01       	movw	r24, r28
     f4e:	01 96       	adiw	r24, 0x01	; 1
     f50:	0e 94 62 0a 	call	0x14c4	; 0x14c4 <_ZN3twi4StopEv>
     f54:	2f ef       	ldi	r18, 0xFF	; 255
     f56:	81 ee       	ldi	r24, 0xE1	; 225
     f58:	94 e0       	ldi	r25, 0x04	; 4
     f5a:	21 50       	subi	r18, 0x01	; 1
     f5c:	80 40       	sbci	r24, 0x00	; 0
     f5e:	90 40       	sbci	r25, 0x00	; 0
     f60:	e1 f7       	brne	.-8      	; 0xf5a <_Z8init_lcdv+0x206>
     f62:	00 c0       	rjmp	.+0      	; 0xf64 <_Z8init_lcdv+0x210>
     f64:	00 00       	nop
     f66:	40 e0       	ldi	r20, 0x00	; 0
     f68:	6c e7       	ldi	r22, 0x7C	; 124
     f6a:	ce 01       	movw	r24, r28
     f6c:	01 96       	adiw	r24, 0x01	; 1
     f6e:	0e 94 10 0a 	call	0x1420	; 0x1420 <_ZN3twi7AddressEhh>
     f72:	60 e0       	ldi	r22, 0x00	; 0
     f74:	70 e0       	ldi	r23, 0x00	; 0
     f76:	ce 01       	movw	r24, r28
     f78:	01 96       	adiw	r24, 0x01	; 1
     f7a:	0e 94 3e 0a 	call	0x147c	; 0x147c <_ZN3twi11WriteSingleEi>
     f7e:	61 e0       	ldi	r22, 0x01	; 1
     f80:	70 e0       	ldi	r23, 0x00	; 0
     f82:	ce 01       	movw	r24, r28
     f84:	01 96       	adiw	r24, 0x01	; 1
     f86:	0e 94 3e 0a 	call	0x147c	; 0x147c <_ZN3twi11WriteSingleEi>
     f8a:	ce 01       	movw	r24, r28
     f8c:	01 96       	adiw	r24, 0x01	; 1
     f8e:	0e 94 62 0a 	call	0x14c4	; 0x14c4 <_ZN3twi4StopEv>
     f92:	2f ef       	ldi	r18, 0xFF	; 255
     f94:	81 ee       	ldi	r24, 0xE1	; 225
     f96:	94 e0       	ldi	r25, 0x04	; 4
     f98:	21 50       	subi	r18, 0x01	; 1
     f9a:	80 40       	sbci	r24, 0x00	; 0
     f9c:	90 40       	sbci	r25, 0x00	; 0
     f9e:	e1 f7       	brne	.-8      	; 0xf98 <_Z8init_lcdv+0x244>
     fa0:	00 c0       	rjmp	.+0      	; 0xfa2 <_Z8init_lcdv+0x24e>
     fa2:	00 00       	nop
     fa4:	40 e0       	ldi	r20, 0x00	; 0
     fa6:	6c e7       	ldi	r22, 0x7C	; 124
     fa8:	ce 01       	movw	r24, r28
     faa:	01 96       	adiw	r24, 0x01	; 1
     fac:	0e 94 10 0a 	call	0x1420	; 0x1420 <_ZN3twi7AddressEhh>
     fb0:	60 e0       	ldi	r22, 0x00	; 0
     fb2:	70 e0       	ldi	r23, 0x00	; 0
     fb4:	ce 01       	movw	r24, r28
     fb6:	01 96       	adiw	r24, 0x01	; 1
     fb8:	0e 94 3e 0a 	call	0x147c	; 0x147c <_ZN3twi11WriteSingleEi>
     fbc:	66 e0       	ldi	r22, 0x06	; 6
     fbe:	70 e0       	ldi	r23, 0x00	; 0
     fc0:	ce 01       	movw	r24, r28
     fc2:	01 96       	adiw	r24, 0x01	; 1
     fc4:	0e 94 3e 0a 	call	0x147c	; 0x147c <_ZN3twi11WriteSingleEi>
     fc8:	ce 01       	movw	r24, r28
     fca:	01 96       	adiw	r24, 0x01	; 1
     fcc:	0e 94 62 0a 	call	0x14c4	; 0x14c4 <_ZN3twi4StopEv>
     fd0:	2f ef       	ldi	r18, 0xFF	; 255
     fd2:	81 ee       	ldi	r24, 0xE1	; 225
     fd4:	94 e0       	ldi	r25, 0x04	; 4
     fd6:	21 50       	subi	r18, 0x01	; 1
     fd8:	80 40       	sbci	r24, 0x00	; 0
     fda:	90 40       	sbci	r25, 0x00	; 0
     fdc:	e1 f7       	brne	.-8      	; 0xfd6 <_Z8init_lcdv+0x282>
     fde:	00 c0       	rjmp	.+0      	; 0xfe0 <_Z8init_lcdv+0x28c>
     fe0:	00 00       	nop
     fe2:	2a 96       	adiw	r28, 0x0a	; 10
     fe4:	cd bf       	out	0x3d, r28	; 61
     fe6:	de bf       	out	0x3e, r29	; 62
     fe8:	df 91       	pop	r29
     fea:	cf 91       	pop	r28
     fec:	08 95       	ret

00000fee <_Z10lcd_putstrP10TWI_structPKc>:
     fee:	af 92       	push	r10
     ff0:	bf 92       	push	r11
     ff2:	cf 92       	push	r12
     ff4:	df 92       	push	r13
     ff6:	ef 92       	push	r14
     ff8:	ff 92       	push	r15
     ffa:	1f 93       	push	r17
     ffc:	cf 93       	push	r28
     ffe:	df 93       	push	r29
    1000:	cd b7       	in	r28, 0x3d	; 61
    1002:	de b7       	in	r29, 0x3e	; 62
    1004:	2a 97       	sbiw	r28, 0x0a	; 10
    1006:	cd bf       	out	0x3d, r28	; 61
    1008:	de bf       	out	0x3e, r29	; 62
    100a:	7b 01       	movw	r14, r22
    100c:	20 e8       	ldi	r18, 0x80	; 128
    100e:	3a e1       	ldi	r19, 0x1A	; 26
    1010:	46 e0       	ldi	r20, 0x06	; 6
    1012:	50 e0       	ldi	r21, 0x00	; 0
    1014:	60 e9       	ldi	r22, 0x90	; 144
    1016:	74 e0       	ldi	r23, 0x04	; 4
    1018:	ce 01       	movw	r24, r28
    101a:	01 96       	adiw	r24, 0x01	; 1
    101c:	0e 94 ca 09 	call	0x1394	; 0x1394 <_ZN3twiC1EP10TWI_structm>
    1020:	40 e0       	ldi	r20, 0x00	; 0
    1022:	6c e7       	ldi	r22, 0x7C	; 124
    1024:	ce 01       	movw	r24, r28
    1026:	01 96       	adiw	r24, 0x01	; 1
    1028:	0e 94 10 0a 	call	0x1420	; 0x1420 <_ZN3twi7AddressEhh>
    102c:	f7 01       	movw	r30, r14
    102e:	01 90       	ld	r0, Z+
    1030:	00 20       	and	r0, r0
    1032:	e9 f7       	brne	.-6      	; 0x102e <_Z10lcd_putstrP10TWI_structPKc+0x40>
    1034:	31 97       	sbiw	r30, 0x01	; 1
    1036:	6f 01       	movw	r12, r30
    1038:	ce 18       	sub	r12, r14
    103a:	df 08       	sbc	r13, r15
    103c:	49 f1       	breq	.+82     	; 0x1090 <_Z10lcd_putstrP10TWI_structPKc+0xa2>
    103e:	80 e0       	ldi	r24, 0x00	; 0
    1040:	90 e0       	ldi	r25, 0x00	; 0
    1042:	10 e0       	ldi	r17, 0x00	; 0
    1044:	56 01       	movw	r10, r12
    1046:	21 e0       	ldi	r18, 0x01	; 1
    1048:	a2 1a       	sub	r10, r18
    104a:	b1 08       	sbc	r11, r1
    104c:	a8 16       	cp	r10, r24
    104e:	b9 06       	cpc	r11, r25
    1050:	39 f4       	brne	.+14     	; 0x1060 <_Z10lcd_putstrP10TWI_structPKc+0x72>
    1052:	60 e4       	ldi	r22, 0x40	; 64
    1054:	70 e0       	ldi	r23, 0x00	; 0
    1056:	ce 01       	movw	r24, r28
    1058:	01 96       	adiw	r24, 0x01	; 1
    105a:	0e 94 3e 0a 	call	0x147c	; 0x147c <_ZN3twi11WriteSingleEi>
    105e:	06 c0       	rjmp	.+12     	; 0x106c <_Z10lcd_putstrP10TWI_structPKc+0x7e>
    1060:	60 ec       	ldi	r22, 0xC0	; 192
    1062:	70 e0       	ldi	r23, 0x00	; 0
    1064:	ce 01       	movw	r24, r28
    1066:	01 96       	adiw	r24, 0x01	; 1
    1068:	0e 94 3e 0a 	call	0x147c	; 0x147c <_ZN3twi11WriteSingleEi>
    106c:	f7 01       	movw	r30, r14
    106e:	61 91       	ld	r22, Z+
    1070:	7f 01       	movw	r14, r30
    1072:	70 e0       	ldi	r23, 0x00	; 0
    1074:	ce 01       	movw	r24, r28
    1076:	01 96       	adiw	r24, 0x01	; 1
    1078:	0e 94 3e 0a 	call	0x147c	; 0x147c <_ZN3twi11WriteSingleEi>
    107c:	fa e6       	ldi	r31, 0x6A	; 106
    107e:	fa 95       	dec	r31
    1080:	f1 f7       	brne	.-4      	; 0x107e <_Z10lcd_putstrP10TWI_structPKc+0x90>
    1082:	00 c0       	rjmp	.+0      	; 0x1084 <_Z10lcd_putstrP10TWI_structPKc+0x96>
    1084:	1f 5f       	subi	r17, 0xFF	; 255
    1086:	81 2f       	mov	r24, r17
    1088:	90 e0       	ldi	r25, 0x00	; 0
    108a:	8c 15       	cp	r24, r12
    108c:	9d 05       	cpc	r25, r13
    108e:	f0 f2       	brcs	.-68     	; 0x104c <_Z10lcd_putstrP10TWI_structPKc+0x5e>
    1090:	ce 01       	movw	r24, r28
    1092:	01 96       	adiw	r24, 0x01	; 1
    1094:	0e 94 62 0a 	call	0x14c4	; 0x14c4 <_ZN3twi4StopEv>
    1098:	2a 96       	adiw	r28, 0x0a	; 10
    109a:	cd bf       	out	0x3d, r28	; 61
    109c:	de bf       	out	0x3e, r29	; 62
    109e:	df 91       	pop	r29
    10a0:	cf 91       	pop	r28
    10a2:	1f 91       	pop	r17
    10a4:	ff 90       	pop	r15
    10a6:	ef 90       	pop	r14
    10a8:	df 90       	pop	r13
    10aa:	cf 90       	pop	r12
    10ac:	bf 90       	pop	r11
    10ae:	af 90       	pop	r10
    10b0:	08 95       	ret

000010b2 <_Z9lcd_clearv>:
    10b2:	cf 93       	push	r28
    10b4:	df 93       	push	r29
    10b6:	cd b7       	in	r28, 0x3d	; 61
    10b8:	de b7       	in	r29, 0x3e	; 62
    10ba:	2a 97       	sbiw	r28, 0x0a	; 10
    10bc:	cd bf       	out	0x3d, r28	; 61
    10be:	de bf       	out	0x3e, r29	; 62
    10c0:	20 e8       	ldi	r18, 0x80	; 128
    10c2:	3a e1       	ldi	r19, 0x1A	; 26
    10c4:	46 e0       	ldi	r20, 0x06	; 6
    10c6:	50 e0       	ldi	r21, 0x00	; 0
    10c8:	60 e9       	ldi	r22, 0x90	; 144
    10ca:	74 e0       	ldi	r23, 0x04	; 4
    10cc:	ce 01       	movw	r24, r28
    10ce:	01 96       	adiw	r24, 0x01	; 1
    10d0:	0e 94 ca 09 	call	0x1394	; 0x1394 <_ZN3twiC1EP10TWI_structm>
    10d4:	40 e0       	ldi	r20, 0x00	; 0
    10d6:	6c e7       	ldi	r22, 0x7C	; 124
    10d8:	ce 01       	movw	r24, r28
    10da:	01 96       	adiw	r24, 0x01	; 1
    10dc:	0e 94 10 0a 	call	0x1420	; 0x1420 <_ZN3twi7AddressEhh>
    10e0:	60 e0       	ldi	r22, 0x00	; 0
    10e2:	70 e0       	ldi	r23, 0x00	; 0
    10e4:	ce 01       	movw	r24, r28
    10e6:	01 96       	adiw	r24, 0x01	; 1
    10e8:	0e 94 3e 0a 	call	0x147c	; 0x147c <_ZN3twi11WriteSingleEi>
    10ec:	61 e0       	ldi	r22, 0x01	; 1
    10ee:	70 e0       	ldi	r23, 0x00	; 0
    10f0:	ce 01       	movw	r24, r28
    10f2:	01 96       	adiw	r24, 0x01	; 1
    10f4:	0e 94 3e 0a 	call	0x147c	; 0x147c <_ZN3twi11WriteSingleEi>
    10f8:	ce 01       	movw	r24, r28
    10fa:	01 96       	adiw	r24, 0x01	; 1
    10fc:	0e 94 62 0a 	call	0x14c4	; 0x14c4 <_ZN3twi4StopEv>
	#else
		//round up by default
		__ticks_dc = (uint32_t)(ceil(fabs(__tmp)));
	#endif

	__builtin_avr_delay_cycles(__ticks_dc);
    1100:	8f eb       	ldi	r24, 0xBF	; 191
    1102:	92 e1       	ldi	r25, 0x12	; 18
    1104:	01 97       	sbiw	r24, 0x01	; 1
    1106:	f1 f7       	brne	.-4      	; 0x1104 <_Z9lcd_clearv+0x52>
    1108:	00 c0       	rjmp	.+0      	; 0x110a <_Z9lcd_clearv+0x58>
    110a:	00 00       	nop
    110c:	2a 96       	adiw	r28, 0x0a	; 10
    110e:	cd bf       	out	0x3d, r28	; 61
    1110:	de bf       	out	0x3e, r29	; 62
    1112:	df 91       	pop	r29
    1114:	cf 91       	pop	r28
    1116:	08 95       	ret

00001118 <_Z10init_motorv>:
			return 1;
		}
		else{
			return 0;
		}
	}
    1118:	e0 e2       	ldi	r30, 0x20	; 32
    111a:	f6 e0       	ldi	r31, 0x06	; 6
    111c:	8c e0       	ldi	r24, 0x0C	; 12
    111e:	81 83       	std	Z+1, r24	; 0x01
    1120:	85 83       	std	Z+5, r24	; 0x05
    1122:	08 95       	ret

00001124 <_Z4mspihh>:
    1124:	62 30       	cpi	r22, 0x02	; 2
    1126:	21 f4       	brne	.+8      	; 0x1130 <_Z4mspihh+0xc>
    1128:	98 e0       	ldi	r25, 0x08	; 8
    112a:	90 93 26 06 	sts	0x0626, r25	; 0x800626 <__TEXT_REGION_LENGTH__+0x700626>
    112e:	05 c0       	rjmp	.+10     	; 0x113a <_Z4mspihh+0x16>
    1130:	61 30       	cpi	r22, 0x01	; 1
    1132:	79 f4       	brne	.+30     	; 0x1152 <_Z4mspihh+0x2e>
    1134:	94 e0       	ldi	r25, 0x04	; 4
    1136:	90 93 26 06 	sts	0x0626, r25	; 0x800626 <__TEXT_REGION_LENGTH__+0x700626>
    113a:	68 2f       	mov	r22, r24
    113c:	8f e3       	ldi	r24, 0x3F	; 63
    113e:	9c e9       	ldi	r25, 0x9C	; 156
    1140:	01 97       	sbiw	r24, 0x01	; 1
    1142:	f1 f7       	brne	.-4      	; 0x1140 <_Z4mspihh+0x1c>
    1144:	00 c0       	rjmp	.+0      	; 0x1146 <_Z4mspihh+0x22>
    1146:	00 00       	nop
    1148:	81 e7       	ldi	r24, 0x71	; 113
    114a:	98 e3       	ldi	r25, 0x38	; 56
    114c:	0e 94 ba 09 	call	0x1374	; 0x1374 <_ZN3spi4sendEh>
    1150:	08 95       	ret
    1152:	80 e0       	ldi	r24, 0x00	; 0
    1154:	08 95       	ret

00001156 <_Z6m_sendhhhh>:
    1156:	48 30       	cpi	r20, 0x08	; 8
    1158:	08 f0       	brcs	.+2      	; 0x115c <_Z6m_sendhhhh+0x6>
    115a:	47 e0       	ldi	r20, 0x07	; 7
    115c:	50 e0       	ldi	r21, 0x00	; 0
    115e:	44 0f       	add	r20, r20
    1160:	55 1f       	adc	r21, r21
    1162:	44 0f       	add	r20, r20
    1164:	55 1f       	adc	r21, r21
    1166:	44 0f       	add	r20, r20
    1168:	55 1f       	adc	r21, r21
    116a:	28 30       	cpi	r18, 0x08	; 8
    116c:	08 f0       	brcs	.+2      	; 0x1170 <_Z6m_sendhhhh+0x1a>
    116e:	27 e0       	ldi	r18, 0x07	; 7
    1170:	42 2b       	or	r20, r18
    1172:	64 30       	cpi	r22, 0x04	; 4
    1174:	08 f0       	brcs	.+2      	; 0x1178 <_Z6m_sendhhhh+0x22>
    1176:	63 e0       	ldi	r22, 0x03	; 3
    1178:	90 e4       	ldi	r25, 0x40	; 64
    117a:	69 9f       	mul	r22, r25
    117c:	b0 01       	movw	r22, r0
    117e:	11 24       	eor	r1, r1
    1180:	46 2b       	or	r20, r22
    1182:	40 93 70 38 	sts	0x3870, r20	; 0x803870 <data>
    1186:	81 30       	cpi	r24, 0x01	; 1
    1188:	21 f4       	brne	.+8      	; 0x1192 <_Z6m_sendhhhh+0x3c>
    118a:	84 e0       	ldi	r24, 0x04	; 4
    118c:	80 93 26 06 	sts	0x0626, r24	; 0x800626 <__TEXT_REGION_LENGTH__+0x700626>
    1190:	05 c0       	rjmp	.+10     	; 0x119c <_Z6m_sendhhhh+0x46>
    1192:	82 30       	cpi	r24, 0x02	; 2
    1194:	91 f4       	brne	.+36     	; 0x11ba <_Z6m_sendhhhh+0x64>
    1196:	88 e0       	ldi	r24, 0x08	; 8
    1198:	80 93 26 06 	sts	0x0626, r24	; 0x800626 <__TEXT_REGION_LENGTH__+0x700626>
    119c:	8f e3       	ldi	r24, 0x3F	; 63
    119e:	9c e9       	ldi	r25, 0x9C	; 156
    11a0:	01 97       	sbiw	r24, 0x01	; 1
    11a2:	f1 f7       	brne	.-4      	; 0x11a0 <_Z6m_sendhhhh+0x4a>
    11a4:	00 c0       	rjmp	.+0      	; 0x11a6 <_Z6m_sendhhhh+0x50>
    11a6:	00 00       	nop
    11a8:	60 91 70 38 	lds	r22, 0x3870	; 0x803870 <data>
    11ac:	81 e7       	ldi	r24, 0x71	; 113
    11ae:	98 e3       	ldi	r25, 0x38	; 56
    11b0:	0e 94 ba 09 	call	0x1374	; 0x1374 <_ZN3spi4sendEh>
    11b4:	8c e0       	ldi	r24, 0x0C	; 12
    11b6:	80 93 25 06 	sts	0x0625, r24	; 0x800625 <__TEXT_REGION_LENGTH__+0x700625>
    11ba:	08 95       	ret

000011bc <_ZN5motor5brakeEh>:
    11bc:	20 e0       	ldi	r18, 0x00	; 0
    11be:	40 e0       	ldi	r20, 0x00	; 0
    11c0:	63 e0       	ldi	r22, 0x03	; 3
    11c2:	0e 94 ab 08 	call	0x1156	; 0x1156 <_Z6m_sendhhhh>
    11c6:	08 95       	ret

000011c8 <_ZN5motor4waitEv>:
    11c8:	61 e0       	ldi	r22, 0x01	; 1
    11ca:	80 e0       	ldi	r24, 0x00	; 0
    11cc:	0e 94 92 08 	call	0x1124	; 0x1124 <_Z4mspihh>
    11d0:	81 30       	cpi	r24, 0x01	; 1
    11d2:	d1 f7       	brne	.-12     	; 0x11c8 <_ZN5motor4waitEv>
    11d4:	62 e0       	ldi	r22, 0x02	; 2
    11d6:	80 e0       	ldi	r24, 0x00	; 0
    11d8:	0e 94 92 08 	call	0x1124	; 0x1124 <_Z4mspihh>
    11dc:	81 30       	cpi	r24, 0x01	; 1
    11de:	d1 f7       	brne	.-12     	; 0x11d4 <_ZN5motor4waitEv+0xc>
    11e0:	08 95       	ret

000011e2 <_ZN5motor4moveEh>:
    11e2:	ef e3       	ldi	r30, 0x3F	; 63
    11e4:	fc e9       	ldi	r31, 0x9C	; 156
    11e6:	31 97       	sbiw	r30, 0x01	; 1
    11e8:	f1 f7       	brne	.-4      	; 0x11e6 <_ZN5motor4moveEh+0x4>
    11ea:	00 c0       	rjmp	.+0      	; 0x11ec <_ZN5motor4moveEh+0xa>
    11ec:	00 00       	nop
    11ee:	90 e0       	ldi	r25, 0x00	; 0
    11f0:	8a 30       	cpi	r24, 0x0A	; 10
    11f2:	91 05       	cpc	r25, r1
    11f4:	08 f0       	brcs	.+2      	; 0x11f8 <_ZN5motor4moveEh+0x16>
    11f6:	7f c0       	rjmp	.+254    	; 0x12f6 <_ZN5motor4moveEh+0x114>
    11f8:	fc 01       	movw	r30, r24
    11fa:	88 27       	eor	r24, r24
    11fc:	e2 50       	subi	r30, 0x02	; 2
    11fe:	ff 4f       	sbci	r31, 0xFF	; 255
    1200:	8f 4f       	sbci	r24, 0xFF	; 255
    1202:	0c 94 44 0b 	jmp	0x1688	; 0x1688 <__tablejump2__>
    1206:	21 e0       	ldi	r18, 0x01	; 1
    1208:	47 e0       	ldi	r20, 0x07	; 7
    120a:	62 e0       	ldi	r22, 0x02	; 2
    120c:	82 e0       	ldi	r24, 0x02	; 2
    120e:	0e 94 ab 08 	call	0x1156	; 0x1156 <_Z6m_sendhhhh>
    1212:	21 e0       	ldi	r18, 0x01	; 1
    1214:	47 e0       	ldi	r20, 0x07	; 7
    1216:	62 e0       	ldi	r22, 0x02	; 2
    1218:	81 e0       	ldi	r24, 0x01	; 1
    121a:	0e 94 ab 08 	call	0x1156	; 0x1156 <_Z6m_sendhhhh>
    121e:	0e 94 e4 08 	call	0x11c8	; 0x11c8 <_ZN5motor4waitEv>
    1222:	71 c0       	rjmp	.+226    	; 0x1306 <_ZN5motor4moveEh+0x124>
    1224:	22 e0       	ldi	r18, 0x02	; 2
    1226:	47 e0       	ldi	r20, 0x07	; 7
    1228:	62 e0       	ldi	r22, 0x02	; 2
    122a:	81 e0       	ldi	r24, 0x01	; 1
    122c:	0e 94 ab 08 	call	0x1156	; 0x1156 <_Z6m_sendhhhh>
    1230:	22 e0       	ldi	r18, 0x02	; 2
    1232:	47 e0       	ldi	r20, 0x07	; 7
    1234:	62 e0       	ldi	r22, 0x02	; 2
    1236:	82 e0       	ldi	r24, 0x02	; 2
    1238:	0e 94 ab 08 	call	0x1156	; 0x1156 <_Z6m_sendhhhh>
    123c:	0e 94 e4 08 	call	0x11c8	; 0x11c8 <_ZN5motor4waitEv>
    1240:	62 c0       	rjmp	.+196    	; 0x1306 <_ZN5motor4moveEh+0x124>
    1242:	21 e0       	ldi	r18, 0x01	; 1
    1244:	47 e0       	ldi	r20, 0x07	; 7
    1246:	61 e0       	ldi	r22, 0x01	; 1
    1248:	81 e0       	ldi	r24, 0x01	; 1
    124a:	0e 94 ab 08 	call	0x1156	; 0x1156 <_Z6m_sendhhhh>
    124e:	21 e0       	ldi	r18, 0x01	; 1
    1250:	47 e0       	ldi	r20, 0x07	; 7
    1252:	61 e0       	ldi	r22, 0x01	; 1
    1254:	82 e0       	ldi	r24, 0x02	; 2
    1256:	0e 94 ab 08 	call	0x1156	; 0x1156 <_Z6m_sendhhhh>
    125a:	0e 94 e4 08 	call	0x11c8	; 0x11c8 <_ZN5motor4waitEv>
    125e:	53 c0       	rjmp	.+166    	; 0x1306 <_ZN5motor4moveEh+0x124>
    1260:	22 e0       	ldi	r18, 0x02	; 2
    1262:	47 e0       	ldi	r20, 0x07	; 7
    1264:	61 e0       	ldi	r22, 0x01	; 1
    1266:	81 e0       	ldi	r24, 0x01	; 1
    1268:	0e 94 ab 08 	call	0x1156	; 0x1156 <_Z6m_sendhhhh>
    126c:	22 e0       	ldi	r18, 0x02	; 2
    126e:	47 e0       	ldi	r20, 0x07	; 7
    1270:	61 e0       	ldi	r22, 0x01	; 1
    1272:	82 e0       	ldi	r24, 0x02	; 2
    1274:	0e 94 ab 08 	call	0x1156	; 0x1156 <_Z6m_sendhhhh>
    1278:	0e 94 e4 08 	call	0x11c8	; 0x11c8 <_ZN5motor4waitEv>
    127c:	44 c0       	rjmp	.+136    	; 0x1306 <_ZN5motor4moveEh+0x124>
    127e:	24 e0       	ldi	r18, 0x04	; 4
    1280:	47 e0       	ldi	r20, 0x07	; 7
    1282:	62 e0       	ldi	r22, 0x02	; 2
    1284:	81 e0       	ldi	r24, 0x01	; 1
    1286:	0e 94 ab 08 	call	0x1156	; 0x1156 <_Z6m_sendhhhh>
    128a:	24 e0       	ldi	r18, 0x04	; 4
    128c:	47 e0       	ldi	r20, 0x07	; 7
    128e:	62 e0       	ldi	r22, 0x02	; 2
    1290:	82 e0       	ldi	r24, 0x02	; 2
    1292:	0e 94 ab 08 	call	0x1156	; 0x1156 <_Z6m_sendhhhh>
    1296:	0e 94 e4 08 	call	0x11c8	; 0x11c8 <_ZN5motor4waitEv>
    129a:	35 c0       	rjmp	.+106    	; 0x1306 <_ZN5motor4moveEh+0x124>
    129c:	24 e0       	ldi	r18, 0x04	; 4
    129e:	47 e0       	ldi	r20, 0x07	; 7
    12a0:	61 e0       	ldi	r22, 0x01	; 1
    12a2:	81 e0       	ldi	r24, 0x01	; 1
    12a4:	0e 94 ab 08 	call	0x1156	; 0x1156 <_Z6m_sendhhhh>
    12a8:	24 e0       	ldi	r18, 0x04	; 4
    12aa:	47 e0       	ldi	r20, 0x07	; 7
    12ac:	61 e0       	ldi	r22, 0x01	; 1
    12ae:	82 e0       	ldi	r24, 0x02	; 2
    12b0:	0e 94 ab 08 	call	0x1156	; 0x1156 <_Z6m_sendhhhh>
    12b4:	0e 94 e4 08 	call	0x11c8	; 0x11c8 <_ZN5motor4waitEv>
    12b8:	26 c0       	rjmp	.+76     	; 0x1306 <_ZN5motor4moveEh+0x124>
    12ba:	23 e0       	ldi	r18, 0x03	; 3
    12bc:	45 e0       	ldi	r20, 0x05	; 5
    12be:	62 e0       	ldi	r22, 0x02	; 2
    12c0:	81 e0       	ldi	r24, 0x01	; 1
    12c2:	0e 94 ab 08 	call	0x1156	; 0x1156 <_Z6m_sendhhhh>
    12c6:	23 e0       	ldi	r18, 0x03	; 3
    12c8:	45 e0       	ldi	r20, 0x05	; 5
    12ca:	61 e0       	ldi	r22, 0x01	; 1
    12cc:	82 e0       	ldi	r24, 0x02	; 2
    12ce:	0e 94 ab 08 	call	0x1156	; 0x1156 <_Z6m_sendhhhh>
    12d2:	0e 94 e4 08 	call	0x11c8	; 0x11c8 <_ZN5motor4waitEv>
    12d6:	17 c0       	rjmp	.+46     	; 0x1306 <_ZN5motor4moveEh+0x124>
    12d8:	23 e0       	ldi	r18, 0x03	; 3
    12da:	45 e0       	ldi	r20, 0x05	; 5
    12dc:	61 e0       	ldi	r22, 0x01	; 1
    12de:	81 e0       	ldi	r24, 0x01	; 1
    12e0:	0e 94 ab 08 	call	0x1156	; 0x1156 <_Z6m_sendhhhh>
    12e4:	23 e0       	ldi	r18, 0x03	; 3
    12e6:	45 e0       	ldi	r20, 0x05	; 5
    12e8:	62 e0       	ldi	r22, 0x02	; 2
    12ea:	82 e0       	ldi	r24, 0x02	; 2
    12ec:	0e 94 ab 08 	call	0x1156	; 0x1156 <_Z6m_sendhhhh>
    12f0:	0e 94 e4 08 	call	0x11c8	; 0x11c8 <_ZN5motor4waitEv>
    12f4:	08 c0       	rjmp	.+16     	; 0x1306 <_ZN5motor4moveEh+0x124>
    12f6:	81 e0       	ldi	r24, 0x01	; 1
    12f8:	0e 94 de 08 	call	0x11bc	; 0x11bc <_ZN5motor5brakeEh>
    12fc:	82 e0       	ldi	r24, 0x02	; 2
    12fe:	0e 94 de 08 	call	0x11bc	; 0x11bc <_ZN5motor5brakeEh>
    1302:	0e 94 e4 08 	call	0x11c8	; 0x11c8 <_ZN5motor4waitEv>
    1306:	ff ef       	ldi	r31, 0xFF	; 255
    1308:	23 ef       	ldi	r18, 0xF3	; 243
    130a:	81 e0       	ldi	r24, 0x01	; 1
    130c:	f1 50       	subi	r31, 0x01	; 1
    130e:	20 40       	sbci	r18, 0x00	; 0
    1310:	80 40       	sbci	r24, 0x00	; 0
    1312:	e1 f7       	brne	.-8      	; 0x130c <_ZN5motor4moveEh+0x12a>
    1314:	00 c0       	rjmp	.+0      	; 0x1316 <_ZN5motor4moveEh+0x134>
    1316:	00 00       	nop
    1318:	08 95       	ret

0000131a <_GLOBAL__sub_I_motor_spi>:
#include "motor_control.hpp"
#define RightM PIN2_bm //1
#define LeftM PIN3_bm  //2


spi motor_spi(&SPIC,&PORTC,SPI_PRESCALER_DIV16_gc);
    131a:	21 e0       	ldi	r18, 0x01	; 1
    131c:	40 e4       	ldi	r20, 0x40	; 64
    131e:	56 e0       	ldi	r21, 0x06	; 6
    1320:	60 ec       	ldi	r22, 0xC0	; 192
    1322:	78 e0       	ldi	r23, 0x08	; 8
    1324:	81 e7       	ldi	r24, 0x71	; 113
    1326:	98 e3       	ldi	r25, 0x38	; 56
    1328:	0e 94 a6 09 	call	0x134c	; 0x134c <_ZN3spiC1EP10SPI_structP11PORT_struct18SPI_PRESCALER_enum>
    132c:	08 95       	ret

0000132e <__vector_77>:
    132e:	1f 92       	push	r1
    1330:	0f 92       	push	r0
    1332:	0f b6       	in	r0, 0x3f	; 63
    1334:	0f 92       	push	r0
    1336:	11 24       	eor	r1, r1
    1338:	08 b6       	in	r0, 0x38	; 56
    133a:	0f 92       	push	r0
    133c:	18 be       	out	0x38, r1	; 56
    133e:	0f 90       	pop	r0
    1340:	08 be       	out	0x38, r0	; 56
    1342:	0f 90       	pop	r0
    1344:	0f be       	out	0x3f, r0	; 63
    1346:	0f 90       	pop	r0
    1348:	1f 90       	pop	r1
    134a:	18 95       	reti

0000134c <_ZN3spiC1EP10SPI_structP11PORT_struct18SPI_PRESCALER_enum>:
    134c:	fc 01       	movw	r30, r24
    134e:	60 83       	st	Z, r22
    1350:	71 83       	std	Z+1, r23	; 0x01
    1352:	42 83       	std	Z+2, r20	; 0x02
    1354:	53 83       	std	Z+3, r21	; 0x03
    1356:	80 e4       	ldi	r24, 0x40	; 64
    1358:	da 01       	movw	r26, r20
    135a:	12 96       	adiw	r26, 0x02	; 2
    135c:	8c 93       	st	X, r24
    135e:	a2 81       	ldd	r26, Z+2	; 0x02
    1360:	b3 81       	ldd	r27, Z+3	; 0x03
    1362:	80 eb       	ldi	r24, 0xB0	; 176
    1364:	11 96       	adiw	r26, 0x01	; 1
    1366:	8c 93       	st	X, r24
    1368:	01 90       	ld	r0, Z+
    136a:	f0 81       	ld	r31, Z
    136c:	e0 2d       	mov	r30, r0
    136e:	20 65       	ori	r18, 0x50	; 80
    1370:	20 83       	st	Z, r18
    1372:	08 95       	ret

00001374 <_ZN3spi4sendEh>:
    1374:	dc 01       	movw	r26, r24
    1376:	ed 91       	ld	r30, X+
    1378:	fc 91       	ld	r31, X
    137a:	11 97       	sbiw	r26, 0x01	; 1
    137c:	63 83       	std	Z+3, r22	; 0x03
    137e:	ed 91       	ld	r30, X+
    1380:	fc 91       	ld	r31, X
    1382:	11 97       	sbiw	r26, 0x01	; 1
    1384:	92 81       	ldd	r25, Z+2	; 0x02
    1386:	99 23       	and	r25, r25
    1388:	ec f7       	brge	.-6      	; 0x1384 <_ZN3spi4sendEh+0x10>
    138a:	12 82       	std	Z+2, r1	; 0x02
    138c:	ed 91       	ld	r30, X+
    138e:	fc 91       	ld	r31, X
    1390:	83 81       	ldd	r24, Z+3	; 0x03
    1392:	08 95       	ret

00001394 <_ZN3twiC1EP10TWI_structm>:
	}

	errorCheck();

	return port->MASTER.DATA;
}
    1394:	0f 93       	push	r16
    1396:	1f 93       	push	r17
    1398:	cf 93       	push	r28
    139a:	df 93       	push	r29
    139c:	ec 01       	movw	r28, r24
    139e:	8b 01       	movw	r16, r22
    13a0:	68 87       	std	Y+8, r22	; 0x08
    13a2:	79 87       	std	Y+9, r23	; 0x09
    13a4:	22 0f       	add	r18, r18
    13a6:	33 1f       	adc	r19, r19
    13a8:	44 1f       	adc	r20, r20
    13aa:	55 1f       	adc	r21, r21
    13ac:	60 e0       	ldi	r22, 0x00	; 0
    13ae:	78 e4       	ldi	r23, 0x48	; 72
    13b0:	88 ee       	ldi	r24, 0xE8	; 232
    13b2:	91 e0       	ldi	r25, 0x01	; 1
    13b4:	0e 94 22 0b 	call	0x1644	; 0x1644 <__udivmodsi4>
    13b8:	da 01       	movw	r26, r20
    13ba:	c9 01       	movw	r24, r18
    13bc:	05 97       	sbiw	r24, 0x05	; 5
    13be:	a1 09       	sbc	r26, r1
    13c0:	b1 09       	sbc	r27, r1
    13c2:	8c 83       	std	Y+4, r24	; 0x04
    13c4:	9d 83       	std	Y+5, r25	; 0x05
    13c6:	ae 83       	std	Y+6, r26	; 0x06
    13c8:	bf 83       	std	Y+7, r27	; 0x07
    13ca:	f8 01       	movw	r30, r16
    13cc:	85 83       	std	Z+5, r24	; 0x05
    13ce:	e8 85       	ldd	r30, Y+8	; 0x08
    13d0:	f9 85       	ldd	r31, Y+9	; 0x09
    13d2:	82 81       	ldd	r24, Z+2	; 0x02
    13d4:	82 83       	std	Z+2, r24	; 0x02
    13d6:	e8 85       	ldd	r30, Y+8	; 0x08
    13d8:	f9 85       	ldd	r31, Y+9	; 0x09
    13da:	81 81       	ldd	r24, Z+1	; 0x01
    13dc:	88 60       	ori	r24, 0x08	; 8
    13de:	81 83       	std	Z+1, r24	; 0x01
    13e0:	e8 85       	ldd	r30, Y+8	; 0x08
    13e2:	f9 85       	ldd	r31, Y+9	; 0x09
    13e4:	81 e0       	ldi	r24, 0x01	; 1
    13e6:	84 83       	std	Z+4, r24	; 0x04
    13e8:	df 91       	pop	r29
    13ea:	cf 91       	pop	r28
    13ec:	1f 91       	pop	r17
    13ee:	0f 91       	pop	r16
    13f0:	08 95       	ret

000013f2 <_ZN3twi10errorCheckEv>:
    13f2:	dc 01       	movw	r26, r24
    13f4:	18 96       	adiw	r26, 0x08	; 8
    13f6:	ed 91       	ld	r30, X+
    13f8:	fc 91       	ld	r31, X
    13fa:	19 97       	sbiw	r26, 0x09	; 9
    13fc:	84 81       	ldd	r24, Z+4	; 0x04
    13fe:	82 fd       	sbrc	r24, 2
    1400:	05 c0       	rjmp	.+10     	; 0x140c <_ZN3twi10errorCheckEv+0x1a>
    1402:	94 81       	ldd	r25, Z+4	; 0x04
    1404:	89 2f       	mov	r24, r25
    1406:	88 70       	andi	r24, 0x08	; 8
    1408:	93 ff       	sbrs	r25, 3
    140a:	09 c0       	rjmp	.+18     	; 0x141e <_ZN3twi10errorCheckEv+0x2c>
    140c:	81 e0       	ldi	r24, 0x01	; 1
    140e:	84 83       	std	Z+4, r24	; 0x04
    1410:	18 96       	adiw	r26, 0x08	; 8
    1412:	ed 91       	ld	r30, X+
    1414:	fc 91       	ld	r31, X
    1416:	19 97       	sbiw	r26, 0x09	; 9
    1418:	83 e0       	ldi	r24, 0x03	; 3
    141a:	83 83       	std	Z+3, r24	; 0x03
    141c:	8f ef       	ldi	r24, 0xFF	; 255
    141e:	08 95       	ret

00001420 <_ZN3twi7AddressEhh>:
    1420:	dc 01       	movw	r26, r24
    1422:	44 23       	and	r20, r20
    1424:	59 f0       	breq	.+22     	; 0x143c <_ZN3twi7AddressEhh+0x1c>
    1426:	18 96       	adiw	r26, 0x08	; 8
    1428:	ed 91       	ld	r30, X+
    142a:	fc 91       	ld	r31, X
    142c:	19 97       	sbiw	r26, 0x09	; 9
    142e:	61 60       	ori	r22, 0x01	; 1
    1430:	66 83       	std	Z+6, r22	; 0x06
    1432:	18 96       	adiw	r26, 0x08	; 8
    1434:	ed 91       	ld	r30, X+
    1436:	fc 91       	ld	r31, X
    1438:	19 97       	sbiw	r26, 0x09	; 9
    143a:	07 c0       	rjmp	.+14     	; 0x144a <_ZN3twi7AddressEhh+0x2a>
    143c:	18 96       	adiw	r26, 0x08	; 8
    143e:	ed 91       	ld	r30, X+
    1440:	fc 91       	ld	r31, X
    1442:	19 97       	sbiw	r26, 0x09	; 9
    1444:	6e 7f       	andi	r22, 0xFE	; 254
    1446:	66 83       	std	Z+6, r22	; 0x06
    1448:	f4 cf       	rjmp	.-24     	; 0x1432 <_ZN3twi7AddressEhh+0x12>
    144a:	94 81       	ldd	r25, Z+4	; 0x04
    144c:	90 7c       	andi	r25, 0xC0	; 192
    144e:	e9 f3       	breq	.-6      	; 0x144a <_ZN3twi7AddressEhh+0x2a>
    1450:	94 81       	ldd	r25, Z+4	; 0x04
    1452:	89 2f       	mov	r24, r25
    1454:	80 71       	andi	r24, 0x10	; 16
    1456:	94 ff       	sbrs	r25, 4
    1458:	10 c0       	rjmp	.+32     	; 0x147a <_ZN3twi7AddressEhh+0x5a>
    145a:	84 81       	ldd	r24, Z+4	; 0x04
    145c:	80 64       	ori	r24, 0x40	; 64
    145e:	84 83       	std	Z+4, r24	; 0x04
    1460:	18 96       	adiw	r26, 0x08	; 8
    1462:	ed 91       	ld	r30, X+
    1464:	fc 91       	ld	r31, X
    1466:	19 97       	sbiw	r26, 0x09	; 9
    1468:	84 81       	ldd	r24, Z+4	; 0x04
    146a:	80 68       	ori	r24, 0x80	; 128
    146c:	84 83       	std	Z+4, r24	; 0x04
    146e:	18 96       	adiw	r26, 0x08	; 8
    1470:	ed 91       	ld	r30, X+
    1472:	fc 91       	ld	r31, X
    1474:	19 97       	sbiw	r26, 0x09	; 9
    1476:	81 e0       	ldi	r24, 0x01	; 1
    1478:	84 83       	std	Z+4, r24	; 0x04
    147a:	08 95       	ret

0000147c <_ZN3twi11WriteSingleEi>:
    147c:	cf 93       	push	r28
    147e:	df 93       	push	r29
    1480:	ec 01       	movw	r28, r24
    1482:	e8 85       	ldd	r30, Y+8	; 0x08
    1484:	f9 85       	ldd	r31, Y+9	; 0x09
    1486:	67 83       	std	Z+7, r22	; 0x07
    1488:	e8 85       	ldd	r30, Y+8	; 0x08
    148a:	f9 85       	ldd	r31, Y+9	; 0x09
    148c:	84 81       	ldd	r24, Z+4	; 0x04
    148e:	8c 7f       	andi	r24, 0xFC	; 252
    1490:	e9 f3       	breq	.-6      	; 0x148c <_ZN3twi11WriteSingleEi+0x10>
    1492:	ce 01       	movw	r24, r28
    1494:	0e 94 f9 09 	call	0x13f2	; 0x13f2 <_ZN3twi10errorCheckEv>
    1498:	e8 85       	ldd	r30, Y+8	; 0x08
    149a:	f9 85       	ldd	r31, Y+9	; 0x09
    149c:	94 81       	ldd	r25, Z+4	; 0x04
    149e:	89 2f       	mov	r24, r25
    14a0:	80 71       	andi	r24, 0x10	; 16
    14a2:	94 ff       	sbrs	r25, 4
    14a4:	0c c0       	rjmp	.+24     	; 0x14be <_ZN3twi11WriteSingleEi+0x42>
    14a6:	84 81       	ldd	r24, Z+4	; 0x04
    14a8:	80 64       	ori	r24, 0x40	; 64
    14aa:	84 83       	std	Z+4, r24	; 0x04
    14ac:	e8 85       	ldd	r30, Y+8	; 0x08
    14ae:	f9 85       	ldd	r31, Y+9	; 0x09
    14b0:	84 81       	ldd	r24, Z+4	; 0x04
    14b2:	80 68       	ori	r24, 0x80	; 128
    14b4:	84 83       	std	Z+4, r24	; 0x04
    14b6:	e8 85       	ldd	r30, Y+8	; 0x08
    14b8:	f9 85       	ldd	r31, Y+9	; 0x09
    14ba:	81 e0       	ldi	r24, 0x01	; 1
    14bc:	84 83       	std	Z+4, r24	; 0x04
    14be:	df 91       	pop	r29
    14c0:	cf 91       	pop	r28
    14c2:	08 95       	ret

000014c4 <_ZN3twi4StopEv>:

void twi::Stop(void)
{
    14c4:	cf 93       	push	r28
    14c6:	df 93       	push	r29
    14c8:	ec 01       	movw	r28, r24
	while(!(port->MASTER.STATUS&0xfc));
    14ca:	e8 85       	ldd	r30, Y+8	; 0x08
    14cc:	f9 85       	ldd	r31, Y+9	; 0x09
    14ce:	84 81       	ldd	r24, Z+4	; 0x04
    14d0:	8c 7f       	andi	r24, 0xFC	; 252
    14d2:	e9 f3       	breq	.-6      	; 0x14ce <_ZN3twi4StopEv+0xa>

	errorCheck();
    14d4:	ce 01       	movw	r24, r28
    14d6:	0e 94 f9 09 	call	0x13f2	; 0x13f2 <_ZN3twi10errorCheckEv>

	port->MASTER.CTRLC=TWI_MASTER_CMD_STOP_gc;
    14da:	e8 85       	ldd	r30, Y+8	; 0x08
    14dc:	f9 85       	ldd	r31, Y+9	; 0x09
    14de:	83 e0       	ldi	r24, 0x03	; 3
    14e0:	83 83       	std	Z+3, r24	; 0x03
	return;
}
    14e2:	df 91       	pop	r29
    14e4:	cf 91       	pop	r28
    14e6:	08 95       	ret

000014e8 <_ZN5usartC1EP12USART_structP11PORT_struct>:
    14e8:	fc 01       	movw	r30, r24
    14ea:	40 83       	st	Z, r20
    14ec:	51 83       	std	Z+1, r21	; 0x01
    14ee:	62 83       	std	Z+2, r22	; 0x02
    14f0:	73 83       	std	Z+3, r23	; 0x03
    14f2:	88 e0       	ldi	r24, 0x08	; 8
    14f4:	da 01       	movw	r26, r20
    14f6:	11 96       	adiw	r26, 0x01	; 1
    14f8:	8c 93       	st	X, r24
    14fa:	a0 81       	ld	r26, Z
    14fc:	b1 81       	ldd	r27, Z+1	; 0x01
    14fe:	84 e0       	ldi	r24, 0x04	; 4
    1500:	12 96       	adiw	r26, 0x02	; 2
    1502:	8c 93       	st	X, r24
    1504:	a2 81       	ldd	r26, Z+2	; 0x02
    1506:	b3 81       	ldd	r27, Z+3	; 0x03
    1508:	83 e3       	ldi	r24, 0x33	; 51
    150a:	16 96       	adiw	r26, 0x06	; 6
    150c:	8c 93       	st	X, r24
    150e:	a2 81       	ldd	r26, Z+2	; 0x02
    1510:	b3 81       	ldd	r27, Z+3	; 0x03
    1512:	17 96       	adiw	r26, 0x07	; 7
    1514:	1c 92       	st	X, r1
    1516:	a2 81       	ldd	r26, Z+2	; 0x02
    1518:	b3 81       	ldd	r27, Z+3	; 0x03
    151a:	83 e0       	ldi	r24, 0x03	; 3
    151c:	15 96       	adiw	r26, 0x05	; 5
    151e:	8c 93       	st	X, r24
    1520:	02 80       	ldd	r0, Z+2	; 0x02
    1522:	f3 81       	ldd	r31, Z+3	; 0x03
    1524:	e0 2d       	mov	r30, r0
    1526:	88 e1       	ldi	r24, 0x18	; 24
    1528:	84 83       	std	Z+4, r24	; 0x04
    152a:	08 95       	ret

0000152c <_ZN5usart4sendEc>:
    152c:	dc 01       	movw	r26, r24
    152e:	12 96       	adiw	r26, 0x02	; 2
    1530:	ed 91       	ld	r30, X+
    1532:	fc 91       	ld	r31, X
    1534:	13 97       	sbiw	r26, 0x03	; 3
    1536:	81 81       	ldd	r24, Z+1	; 0x01
    1538:	85 ff       	sbrs	r24, 5
    153a:	fd cf       	rjmp	.-6      	; 0x1536 <_ZN5usart4sendEc+0xa>
    153c:	60 83       	st	Z, r22
    153e:	08 95       	ret

00001540 <_ZN5usart6stringEPKc>:
    1540:	0f 93       	push	r16
    1542:	1f 93       	push	r17
    1544:	cf 93       	push	r28
    1546:	df 93       	push	r29
    1548:	eb 01       	movw	r28, r22
    154a:	68 81       	ld	r22, Y
    154c:	66 23       	and	r22, r22
    154e:	41 f0       	breq	.+16     	; 0x1560 <_ZN5usart6stringEPKc+0x20>
    1550:	8c 01       	movw	r16, r24
    1552:	21 96       	adiw	r28, 0x01	; 1
    1554:	c8 01       	movw	r24, r16
    1556:	0e 94 96 0a 	call	0x152c	; 0x152c <_ZN5usart4sendEc>
    155a:	69 91       	ld	r22, Y+
    155c:	61 11       	cpse	r22, r1
    155e:	fa cf       	rjmp	.-12     	; 0x1554 <_ZN5usart6stringEPKc+0x14>
    1560:	df 91       	pop	r29
    1562:	cf 91       	pop	r28
    1564:	1f 91       	pop	r17
    1566:	0f 91       	pop	r16
    1568:	08 95       	ret

0000156a <_ZN5usart6putdecEj>:
    156a:	ef 92       	push	r14
    156c:	ff 92       	push	r15
    156e:	0f 93       	push	r16
    1570:	1f 93       	push	r17
    1572:	cf 93       	push	r28
    1574:	df 93       	push	r29
    1576:	7c 01       	movw	r14, r24
    1578:	eb 01       	movw	r28, r22
    157a:	9b 01       	movw	r18, r22
    157c:	36 95       	lsr	r19
    157e:	27 95       	ror	r18
    1580:	36 95       	lsr	r19
    1582:	27 95       	ror	r18
    1584:	36 95       	lsr	r19
    1586:	27 95       	ror	r18
    1588:	a5 ec       	ldi	r26, 0xC5	; 197
    158a:	b0 e2       	ldi	r27, 0x20	; 32
    158c:	0e 94 4d 0b 	call	0x169a	; 0x169a <__umulhisi3>
    1590:	8c 01       	movw	r16, r24
    1592:	12 95       	swap	r17
    1594:	02 95       	swap	r16
    1596:	0f 70       	andi	r16, 0x0F	; 15
    1598:	01 27       	eor	r16, r17
    159a:	1f 70       	andi	r17, 0x0F	; 15
    159c:	01 27       	eor	r16, r17
    159e:	60 e3       	ldi	r22, 0x30	; 48
    15a0:	60 0f       	add	r22, r16
    15a2:	c7 01       	movw	r24, r14
    15a4:	0e 94 96 0a 	call	0x152c	; 0x152c <_ZN5usart4sendEc>
    15a8:	28 ee       	ldi	r18, 0xE8	; 232
    15aa:	33 e0       	ldi	r19, 0x03	; 3
    15ac:	02 9f       	mul	r16, r18
    15ae:	c0 01       	movw	r24, r0
    15b0:	03 9f       	mul	r16, r19
    15b2:	90 0d       	add	r25, r0
    15b4:	12 9f       	mul	r17, r18
    15b6:	90 0d       	add	r25, r0
    15b8:	11 24       	eor	r1, r1
    15ba:	c8 1b       	sub	r28, r24
    15bc:	d9 0b       	sbc	r29, r25
    15be:	9e 01       	movw	r18, r28
    15c0:	36 95       	lsr	r19
    15c2:	27 95       	ror	r18
    15c4:	36 95       	lsr	r19
    15c6:	27 95       	ror	r18
    15c8:	ab e7       	ldi	r26, 0x7B	; 123
    15ca:	b4 e1       	ldi	r27, 0x14	; 20
    15cc:	0e 94 4d 0b 	call	0x169a	; 0x169a <__umulhisi3>
    15d0:	8c 01       	movw	r16, r24
    15d2:	16 95       	lsr	r17
    15d4:	07 95       	ror	r16
    15d6:	60 e3       	ldi	r22, 0x30	; 48
    15d8:	60 0f       	add	r22, r16
    15da:	c7 01       	movw	r24, r14
    15dc:	0e 94 96 0a 	call	0x152c	; 0x152c <_ZN5usart4sendEc>
    15e0:	24 e6       	ldi	r18, 0x64	; 100
    15e2:	20 9f       	mul	r18, r16
    15e4:	c0 01       	movw	r24, r0
    15e6:	21 9f       	mul	r18, r17
    15e8:	90 0d       	add	r25, r0
    15ea:	11 24       	eor	r1, r1
    15ec:	c8 1b       	sub	r28, r24
    15ee:	d9 0b       	sbc	r29, r25
    15f0:	9e 01       	movw	r18, r28
    15f2:	ad ec       	ldi	r26, 0xCD	; 205
    15f4:	bc ec       	ldi	r27, 0xCC	; 204
    15f6:	0e 94 4d 0b 	call	0x169a	; 0x169a <__umulhisi3>
    15fa:	8c 01       	movw	r16, r24
    15fc:	16 95       	lsr	r17
    15fe:	07 95       	ror	r16
    1600:	16 95       	lsr	r17
    1602:	07 95       	ror	r16
    1604:	16 95       	lsr	r17
    1606:	07 95       	ror	r16
    1608:	60 e3       	ldi	r22, 0x30	; 48
    160a:	60 0f       	add	r22, r16
    160c:	c7 01       	movw	r24, r14
    160e:	0e 94 96 0a 	call	0x152c	; 0x152c <_ZN5usart4sendEc>
    1612:	c8 01       	movw	r24, r16
    1614:	88 0f       	add	r24, r24
    1616:	99 1f       	adc	r25, r25
    1618:	00 0f       	add	r16, r16
    161a:	11 1f       	adc	r17, r17
    161c:	00 0f       	add	r16, r16
    161e:	11 1f       	adc	r17, r17
    1620:	00 0f       	add	r16, r16
    1622:	11 1f       	adc	r17, r17
    1624:	08 0f       	add	r16, r24
    1626:	19 1f       	adc	r17, r25
    1628:	c0 1b       	sub	r28, r16
    162a:	d1 0b       	sbc	r29, r17
    162c:	6c 2f       	mov	r22, r28
    162e:	60 5d       	subi	r22, 0xD0	; 208
    1630:	c7 01       	movw	r24, r14
    1632:	0e 94 96 0a 	call	0x152c	; 0x152c <_ZN5usart4sendEc>
    1636:	df 91       	pop	r29
    1638:	cf 91       	pop	r28
    163a:	1f 91       	pop	r17
    163c:	0f 91       	pop	r16
    163e:	ff 90       	pop	r15
    1640:	ef 90       	pop	r14
    1642:	08 95       	ret

00001644 <__udivmodsi4>:
    1644:	a1 e2       	ldi	r26, 0x21	; 33
    1646:	1a 2e       	mov	r1, r26
    1648:	aa 1b       	sub	r26, r26
    164a:	bb 1b       	sub	r27, r27
    164c:	fd 01       	movw	r30, r26
    164e:	0d c0       	rjmp	.+26     	; 0x166a <__udivmodsi4_ep>

00001650 <__udivmodsi4_loop>:
    1650:	aa 1f       	adc	r26, r26
    1652:	bb 1f       	adc	r27, r27
    1654:	ee 1f       	adc	r30, r30
    1656:	ff 1f       	adc	r31, r31
    1658:	a2 17       	cp	r26, r18
    165a:	b3 07       	cpc	r27, r19
    165c:	e4 07       	cpc	r30, r20
    165e:	f5 07       	cpc	r31, r21
    1660:	20 f0       	brcs	.+8      	; 0x166a <__udivmodsi4_ep>
    1662:	a2 1b       	sub	r26, r18
    1664:	b3 0b       	sbc	r27, r19
    1666:	e4 0b       	sbc	r30, r20
    1668:	f5 0b       	sbc	r31, r21

0000166a <__udivmodsi4_ep>:
    166a:	66 1f       	adc	r22, r22
    166c:	77 1f       	adc	r23, r23
    166e:	88 1f       	adc	r24, r24
    1670:	99 1f       	adc	r25, r25
    1672:	1a 94       	dec	r1
    1674:	69 f7       	brne	.-38     	; 0x1650 <__udivmodsi4_loop>
    1676:	60 95       	com	r22
    1678:	70 95       	com	r23
    167a:	80 95       	com	r24
    167c:	90 95       	com	r25
    167e:	9b 01       	movw	r18, r22
    1680:	ac 01       	movw	r20, r24
    1682:	bd 01       	movw	r22, r26
    1684:	cf 01       	movw	r24, r30
    1686:	08 95       	ret

00001688 <__tablejump2__>:
    1688:	ee 0f       	add	r30, r30
    168a:	ff 1f       	adc	r31, r31
    168c:	88 1f       	adc	r24, r24
    168e:	8b bf       	out	0x3b, r24	; 59
    1690:	07 90       	elpm	r0, Z+
    1692:	f6 91       	elpm	r31, Z
    1694:	e0 2d       	mov	r30, r0
    1696:	1b be       	out	0x3b, r1	; 59
    1698:	19 94       	eijmp

0000169a <__umulhisi3>:
    169a:	a2 9f       	mul	r26, r18
    169c:	b0 01       	movw	r22, r0
    169e:	b3 9f       	mul	r27, r19
    16a0:	c0 01       	movw	r24, r0
    16a2:	a3 9f       	mul	r26, r19
    16a4:	70 0d       	add	r23, r0
    16a6:	81 1d       	adc	r24, r1
    16a8:	11 24       	eor	r1, r1
    16aa:	91 1d       	adc	r25, r1
    16ac:	b2 9f       	mul	r27, r18
    16ae:	70 0d       	add	r23, r0
    16b0:	81 1d       	adc	r24, r1
    16b2:	11 24       	eor	r1, r1
    16b4:	91 1d       	adc	r25, r1
    16b6:	08 95       	ret

000016b8 <_exit>:
    16b8:	f8 94       	cli

000016ba <__stop_program>:
    16ba:	ff cf       	rjmp	.-2      	; 0x16ba <__stop_program>
