
Aquila.elf:     file format elf32-avr

Sections:
Idx Name          Size      VMA       LMA       File off  Algn
  0 .text         000022aa  00000000  00000000  000000b4  2**1
                  CONTENTS, ALLOC, LOAD, READONLY, CODE
  1 .data         000000ca  00802000  000022aa  0000235e  2**0
                  CONTENTS, ALLOC, LOAD, DATA
  2 .bss          0000199c  008020ca  008020ca  00002428  2**0
                  ALLOC
  3 .eeprom       00000002  00810000  00810000  00002428  2**0
                  CONTENTS, ALLOC, LOAD, DATA
  4 .comment      00000030  00000000  00000000  0000242a  2**0
                  CONTENTS, READONLY
  5 .note.gnu.avr.deviceinfo 00000040  00000000  00000000  0000245c  2**2
                  CONTENTS, READONLY
  6 .debug_aranges 000005a0  00000000  00000000  0000249c  2**0
                  CONTENTS, READONLY, DEBUGGING
  7 .debug_info   00024a2f  00000000  00000000  00002a3c  2**0
                  CONTENTS, READONLY, DEBUGGING
  8 .debug_abbrev 0000632e  00000000  00000000  0002746b  2**0
                  CONTENTS, READONLY, DEBUGGING
  9 .debug_line   00008d29  00000000  00000000  0002d799  2**0
                  CONTENTS, READONLY, DEBUGGING
 10 .debug_frame  000013a8  00000000  00000000  000364c4  2**2
                  CONTENTS, READONLY, DEBUGGING
 11 .debug_str    00005092  00000000  00000000  0003786c  2**0
                  CONTENTS, READONLY, DEBUGGING
 12 .debug_loc    0000f97f  00000000  00000000  0003c8fe  2**0
                  CONTENTS, READONLY, DEBUGGING
 13 .debug_ranges 00000aa0  00000000  00000000  0004c27d  2**0
                  CONTENTS, READONLY, DEBUGGING

Disassembly of section .text:

00000000 <__vectors>:
       0:	0c 94 2b 01 	jmp	0x256	; 0x256 <__ctors_end>
       4:	0c 94 61 01 	jmp	0x2c2	; 0x2c2 <__bad_interrupt>
       8:	0c 94 61 01 	jmp	0x2c2	; 0x2c2 <__bad_interrupt>
       c:	0c 94 61 01 	jmp	0x2c2	; 0x2c2 <__bad_interrupt>
      10:	0c 94 61 01 	jmp	0x2c2	; 0x2c2 <__bad_interrupt>
      14:	0c 94 61 01 	jmp	0x2c2	; 0x2c2 <__bad_interrupt>
      18:	0c 94 61 01 	jmp	0x2c2	; 0x2c2 <__bad_interrupt>
      1c:	0c 94 61 01 	jmp	0x2c2	; 0x2c2 <__bad_interrupt>
      20:	0c 94 61 01 	jmp	0x2c2	; 0x2c2 <__bad_interrupt>
      24:	0c 94 61 01 	jmp	0x2c2	; 0x2c2 <__bad_interrupt>
      28:	0c 94 61 01 	jmp	0x2c2	; 0x2c2 <__bad_interrupt>
      2c:	0c 94 61 01 	jmp	0x2c2	; 0x2c2 <__bad_interrupt>
      30:	0c 94 61 01 	jmp	0x2c2	; 0x2c2 <__bad_interrupt>
      34:	0c 94 61 01 	jmp	0x2c2	; 0x2c2 <__bad_interrupt>
      38:	0c 94 61 01 	jmp	0x2c2	; 0x2c2 <__bad_interrupt>
      3c:	0c 94 61 01 	jmp	0x2c2	; 0x2c2 <__bad_interrupt>
      40:	0c 94 61 01 	jmp	0x2c2	; 0x2c2 <__bad_interrupt>
      44:	0c 94 61 01 	jmp	0x2c2	; 0x2c2 <__bad_interrupt>
      48:	0c 94 61 01 	jmp	0x2c2	; 0x2c2 <__bad_interrupt>
      4c:	0c 94 61 01 	jmp	0x2c2	; 0x2c2 <__bad_interrupt>
      50:	0c 94 61 01 	jmp	0x2c2	; 0x2c2 <__bad_interrupt>
      54:	0c 94 61 01 	jmp	0x2c2	; 0x2c2 <__bad_interrupt>
      58:	0c 94 61 01 	jmp	0x2c2	; 0x2c2 <__bad_interrupt>
      5c:	0c 94 61 01 	jmp	0x2c2	; 0x2c2 <__bad_interrupt>
      60:	0c 94 61 01 	jmp	0x2c2	; 0x2c2 <__bad_interrupt>
      64:	0c 94 61 01 	jmp	0x2c2	; 0x2c2 <__bad_interrupt>
      68:	0c 94 61 01 	jmp	0x2c2	; 0x2c2 <__bad_interrupt>
      6c:	0c 94 61 01 	jmp	0x2c2	; 0x2c2 <__bad_interrupt>
      70:	0c 94 61 01 	jmp	0x2c2	; 0x2c2 <__bad_interrupt>
      74:	0c 94 61 01 	jmp	0x2c2	; 0x2c2 <__bad_interrupt>
      78:	0c 94 61 01 	jmp	0x2c2	; 0x2c2 <__bad_interrupt>
      7c:	0c 94 61 01 	jmp	0x2c2	; 0x2c2 <__bad_interrupt>
      80:	0c 94 61 01 	jmp	0x2c2	; 0x2c2 <__bad_interrupt>
      84:	0c 94 61 01 	jmp	0x2c2	; 0x2c2 <__bad_interrupt>
      88:	0c 94 61 01 	jmp	0x2c2	; 0x2c2 <__bad_interrupt>
      8c:	0c 94 61 01 	jmp	0x2c2	; 0x2c2 <__bad_interrupt>
      90:	0c 94 61 01 	jmp	0x2c2	; 0x2c2 <__bad_interrupt>
      94:	0c 94 61 01 	jmp	0x2c2	; 0x2c2 <__bad_interrupt>
      98:	0c 94 61 01 	jmp	0x2c2	; 0x2c2 <__bad_interrupt>
      9c:	0c 94 61 01 	jmp	0x2c2	; 0x2c2 <__bad_interrupt>
      a0:	0c 94 61 01 	jmp	0x2c2	; 0x2c2 <__bad_interrupt>
      a4:	0c 94 61 01 	jmp	0x2c2	; 0x2c2 <__bad_interrupt>
      a8:	0c 94 61 01 	jmp	0x2c2	; 0x2c2 <__bad_interrupt>
      ac:	0c 94 61 01 	jmp	0x2c2	; 0x2c2 <__bad_interrupt>
      b0:	0c 94 61 01 	jmp	0x2c2	; 0x2c2 <__bad_interrupt>
      b4:	0c 94 61 01 	jmp	0x2c2	; 0x2c2 <__bad_interrupt>
      b8:	0c 94 61 01 	jmp	0x2c2	; 0x2c2 <__bad_interrupt>
      bc:	0c 94 61 01 	jmp	0x2c2	; 0x2c2 <__bad_interrupt>
      c0:	0c 94 61 01 	jmp	0x2c2	; 0x2c2 <__bad_interrupt>
      c4:	0c 94 61 01 	jmp	0x2c2	; 0x2c2 <__bad_interrupt>
      c8:	0c 94 61 01 	jmp	0x2c2	; 0x2c2 <__bad_interrupt>
      cc:	0c 94 61 01 	jmp	0x2c2	; 0x2c2 <__bad_interrupt>
      d0:	0c 94 61 01 	jmp	0x2c2	; 0x2c2 <__bad_interrupt>
      d4:	0c 94 61 01 	jmp	0x2c2	; 0x2c2 <__bad_interrupt>
      d8:	0c 94 61 01 	jmp	0x2c2	; 0x2c2 <__bad_interrupt>
      dc:	0c 94 61 01 	jmp	0x2c2	; 0x2c2 <__bad_interrupt>
      e0:	0c 94 61 01 	jmp	0x2c2	; 0x2c2 <__bad_interrupt>
      e4:	0c 94 61 01 	jmp	0x2c2	; 0x2c2 <__bad_interrupt>
      e8:	0c 94 61 01 	jmp	0x2c2	; 0x2c2 <__bad_interrupt>
      ec:	0c 94 61 01 	jmp	0x2c2	; 0x2c2 <__bad_interrupt>
      f0:	0c 94 61 01 	jmp	0x2c2	; 0x2c2 <__bad_interrupt>
      f4:	0c 94 61 01 	jmp	0x2c2	; 0x2c2 <__bad_interrupt>
      f8:	0c 94 61 01 	jmp	0x2c2	; 0x2c2 <__bad_interrupt>
      fc:	0c 94 61 01 	jmp	0x2c2	; 0x2c2 <__bad_interrupt>
     100:	0c 94 61 01 	jmp	0x2c2	; 0x2c2 <__bad_interrupt>
     104:	0c 94 61 01 	jmp	0x2c2	; 0x2c2 <__bad_interrupt>
     108:	0c 94 61 01 	jmp	0x2c2	; 0x2c2 <__bad_interrupt>
     10c:	0c 94 61 01 	jmp	0x2c2	; 0x2c2 <__bad_interrupt>
     110:	0c 94 61 01 	jmp	0x2c2	; 0x2c2 <__bad_interrupt>
     114:	0c 94 61 01 	jmp	0x2c2	; 0x2c2 <__bad_interrupt>
     118:	0c 94 61 01 	jmp	0x2c2	; 0x2c2 <__bad_interrupt>
     11c:	0c 94 61 01 	jmp	0x2c2	; 0x2c2 <__bad_interrupt>
     120:	0c 94 61 01 	jmp	0x2c2	; 0x2c2 <__bad_interrupt>
     124:	0c 94 61 01 	jmp	0x2c2	; 0x2c2 <__bad_interrupt>
     128:	0c 94 61 01 	jmp	0x2c2	; 0x2c2 <__bad_interrupt>
     12c:	0c 94 61 01 	jmp	0x2c2	; 0x2c2 <__bad_interrupt>
     130:	0c 94 61 01 	jmp	0x2c2	; 0x2c2 <__bad_interrupt>
     134:	0c 94 2b 0d 	jmp	0x1a56	; 0x1a56 <__vector_77>
     138:	0c 94 61 01 	jmp	0x2c2	; 0x2c2 <__bad_interrupt>
     13c:	0c 94 61 01 	jmp	0x2c2	; 0x2c2 <__bad_interrupt>
     140:	0c 94 61 01 	jmp	0x2c2	; 0x2c2 <__bad_interrupt>
     144:	0c 94 61 01 	jmp	0x2c2	; 0x2c2 <__bad_interrupt>
     148:	0c 94 61 01 	jmp	0x2c2	; 0x2c2 <__bad_interrupt>
     14c:	0c 94 61 01 	jmp	0x2c2	; 0x2c2 <__bad_interrupt>
     150:	0c 94 61 01 	jmp	0x2c2	; 0x2c2 <__bad_interrupt>
     154:	0c 94 61 01 	jmp	0x2c2	; 0x2c2 <__bad_interrupt>
     158:	0c 94 61 01 	jmp	0x2c2	; 0x2c2 <__bad_interrupt>
     15c:	0c 94 61 01 	jmp	0x2c2	; 0x2c2 <__bad_interrupt>
     160:	0c 94 61 01 	jmp	0x2c2	; 0x2c2 <__bad_interrupt>
     164:	0c 94 61 01 	jmp	0x2c2	; 0x2c2 <__bad_interrupt>
     168:	0c 94 61 01 	jmp	0x2c2	; 0x2c2 <__bad_interrupt>
     16c:	0c 94 61 01 	jmp	0x2c2	; 0x2c2 <__bad_interrupt>
     170:	0c 94 61 01 	jmp	0x2c2	; 0x2c2 <__bad_interrupt>
     174:	0c 94 61 01 	jmp	0x2c2	; 0x2c2 <__bad_interrupt>
     178:	0c 94 61 01 	jmp	0x2c2	; 0x2c2 <__bad_interrupt>
     17c:	0c 94 61 01 	jmp	0x2c2	; 0x2c2 <__bad_interrupt>
     180:	0c 94 61 01 	jmp	0x2c2	; 0x2c2 <__bad_interrupt>
     184:	0c 94 61 01 	jmp	0x2c2	; 0x2c2 <__bad_interrupt>
     188:	0c 94 61 01 	jmp	0x2c2	; 0x2c2 <__bad_interrupt>
     18c:	0c 94 61 01 	jmp	0x2c2	; 0x2c2 <__bad_interrupt>
     190:	0c 94 61 01 	jmp	0x2c2	; 0x2c2 <__bad_interrupt>
     194:	0c 94 61 01 	jmp	0x2c2	; 0x2c2 <__bad_interrupt>
     198:	0c 94 61 01 	jmp	0x2c2	; 0x2c2 <__bad_interrupt>
     19c:	0c 94 61 01 	jmp	0x2c2	; 0x2c2 <__bad_interrupt>
     1a0:	0c 94 61 01 	jmp	0x2c2	; 0x2c2 <__bad_interrupt>
     1a4:	0c 94 61 01 	jmp	0x2c2	; 0x2c2 <__bad_interrupt>
     1a8:	0c 94 61 01 	jmp	0x2c2	; 0x2c2 <__bad_interrupt>
     1ac:	0c 94 61 01 	jmp	0x2c2	; 0x2c2 <__bad_interrupt>
     1b0:	0c 94 61 01 	jmp	0x2c2	; 0x2c2 <__bad_interrupt>
     1b4:	0c 94 61 01 	jmp	0x2c2	; 0x2c2 <__bad_interrupt>
     1b8:	0c 94 61 01 	jmp	0x2c2	; 0x2c2 <__bad_interrupt>
     1bc:	0c 94 61 01 	jmp	0x2c2	; 0x2c2 <__bad_interrupt>
     1c0:	0c 94 61 01 	jmp	0x2c2	; 0x2c2 <__bad_interrupt>
     1c4:	0c 94 61 01 	jmp	0x2c2	; 0x2c2 <__bad_interrupt>
     1c8:	0c 94 61 01 	jmp	0x2c2	; 0x2c2 <__bad_interrupt>
     1cc:	0c 94 61 01 	jmp	0x2c2	; 0x2c2 <__bad_interrupt>
     1d0:	0c 94 61 01 	jmp	0x2c2	; 0x2c2 <__bad_interrupt>
     1d4:	0c 94 61 01 	jmp	0x2c2	; 0x2c2 <__bad_interrupt>
     1d8:	0c 94 61 01 	jmp	0x2c2	; 0x2c2 <__bad_interrupt>
     1dc:	0c 94 61 01 	jmp	0x2c2	; 0x2c2 <__bad_interrupt>
     1e0:	0c 94 61 01 	jmp	0x2c2	; 0x2c2 <__bad_interrupt>
     1e4:	0c 94 61 01 	jmp	0x2c2	; 0x2c2 <__bad_interrupt>
     1e8:	0c 94 61 01 	jmp	0x2c2	; 0x2c2 <__bad_interrupt>
     1ec:	0c 94 61 01 	jmp	0x2c2	; 0x2c2 <__bad_interrupt>
     1f0:	0c 94 61 01 	jmp	0x2c2	; 0x2c2 <__bad_interrupt>
     1f4:	0c 94 61 01 	jmp	0x2c2	; 0x2c2 <__bad_interrupt>
     1f8:	0c 94 61 01 	jmp	0x2c2	; 0x2c2 <__bad_interrupt>
     1fc:	37 06       	cpc	r3, r23
     1fe:	47 06       	cpc	r4, r23
     200:	57 06       	cpc	r5, r23
     202:	d6 06       	cpc	r13, r22
     204:	58 07       	cpc	r21, r24
     206:	68 07       	cpc	r22, r24
     208:	78 07       	cpc	r23, r24
     20a:	88 07       	cpc	r24, r24
     20c:	98 07       	cpc	r25, r24
     20e:	a8 07       	cpc	r26, r24

00000210 <__trampolines_start>:
     210:	0c 94 78 07 	jmp	0xef0	; 0xef0 <_ZN5motor4moveEh+0x2d8>
     214:	0c 94 98 07 	jmp	0xf30	; 0xf30 <_ZN5motor4moveEh+0x318>
     218:	0c 94 58 07 	jmp	0xeb0	; 0xeb0 <_ZN5motor4moveEh+0x298>
     21c:	0c 94 c2 0c 	jmp	0x1984	; 0x1984 <_GLOBAL__sub_I_mv>
     220:	0c 94 a8 07 	jmp	0xf50	; 0xf50 <_ZN5motor4moveEh+0x338>
     224:	0c 94 47 06 	jmp	0xc8e	; 0xc8e <_ZN5motor4moveEh+0x76>
     228:	0c 94 68 07 	jmp	0xed0	; 0xed0 <_ZN5motor4moveEh+0x2b8>
     22c:	0c 94 d6 06 	jmp	0xdac	; 0xdac <_ZN5motor4moveEh+0x194>
     230:	0c 94 9e 01 	jmp	0x33c	; 0x33c <_GLOBAL__sub_I__Z3maxii>
     234:	0c 94 d7 02 	jmp	0x5ae	; 0x5ae <_GLOBAL__sub_I_gyro>
     238:	0c 94 ae 0d 	jmp	0x1b5c	; 0x1b5c <_GLOBAL__sub_I_vl>
     23c:	0c 94 37 06 	jmp	0xc6e	; 0xc6e <_ZN5motor4moveEh+0x56>
     240:	0c 94 8d 0b 	jmp	0x171a	; 0x171a <_GLOBAL__sub_I_motor_spi>
     244:	0c 94 88 07 	jmp	0xf10	; 0xf10 <_ZN5motor4moveEh+0x2f8>
     248:	0c 94 57 06 	jmp	0xcae	; 0xcae <_ZN5motor4moveEh+0x96>

0000024c <__ctors_start>:
     24c:	9e 01       	movw	r18, r28
     24e:	d7 02       	muls	r29, r23
     250:	8d 0b       	sbc	r24, r29
     252:	c2 0c       	add	r12, r2
     254:	ae 0d       	add	r26, r14

00000256 <__ctors_end>:
     256:	11 24       	eor	r1, r1
     258:	1f be       	out	0x3f, r1	; 63
     25a:	cf ef       	ldi	r28, 0xFF	; 255
     25c:	cd bf       	out	0x3d, r28	; 61
     25e:	df e3       	ldi	r29, 0x3F	; 63
     260:	de bf       	out	0x3e, r29	; 62
     262:	00 e0       	ldi	r16, 0x00	; 0
     264:	0c bf       	out	0x3c, r16	; 60
     266:	18 be       	out	0x38, r1	; 56
     268:	19 be       	out	0x39, r1	; 57
     26a:	1a be       	out	0x3a, r1	; 58
     26c:	1b be       	out	0x3b, r1	; 59

0000026e <__do_copy_data>:
     26e:	10 e2       	ldi	r17, 0x20	; 32
     270:	a0 e0       	ldi	r26, 0x00	; 0
     272:	b0 e2       	ldi	r27, 0x20	; 32
     274:	ea ea       	ldi	r30, 0xAA	; 170
     276:	f2 e2       	ldi	r31, 0x22	; 34
     278:	00 e0       	ldi	r16, 0x00	; 0
     27a:	0b bf       	out	0x3b, r16	; 59
     27c:	02 c0       	rjmp	.+4      	; 0x282 <__do_copy_data+0x14>
     27e:	07 90       	elpm	r0, Z+
     280:	0d 92       	st	X+, r0
     282:	aa 3c       	cpi	r26, 0xCA	; 202
     284:	b1 07       	cpc	r27, r17
     286:	d9 f7       	brne	.-10     	; 0x27e <__do_copy_data+0x10>
     288:	1b be       	out	0x3b, r1	; 59

0000028a <__do_clear_bss>:
     28a:	2a e3       	ldi	r18, 0x3A	; 58
     28c:	aa ec       	ldi	r26, 0xCA	; 202
     28e:	b0 e2       	ldi	r27, 0x20	; 32
     290:	01 c0       	rjmp	.+2      	; 0x294 <.do_clear_bss_start>

00000292 <.do_clear_bss_loop>:
     292:	1d 92       	st	X+, r1

00000294 <.do_clear_bss_start>:
     294:	a6 36       	cpi	r26, 0x66	; 102
     296:	b2 07       	cpc	r27, r18
     298:	e1 f7       	brne	.-8      	; 0x292 <.do_clear_bss_loop>

0000029a <__do_global_ctors>:
     29a:	11 e0       	ldi	r17, 0x01	; 1
     29c:	cb e2       	ldi	r28, 0x2B	; 43
     29e:	d1 e0       	ldi	r29, 0x01	; 1
     2a0:	00 e0       	ldi	r16, 0x00	; 0
     2a2:	06 c0       	rjmp	.+12     	; 0x2b0 <__do_global_ctors+0x16>
     2a4:	21 97       	sbiw	r28, 0x01	; 1
     2a6:	01 09       	sbc	r16, r1
     2a8:	80 2f       	mov	r24, r16
     2aa:	fe 01       	movw	r30, r28
     2ac:	0e 94 3b 11 	call	0x2276	; 0x2276 <__tablejump2__>
     2b0:	c6 32       	cpi	r28, 0x26	; 38
     2b2:	d1 07       	cpc	r29, r17
     2b4:	80 e0       	ldi	r24, 0x00	; 0
     2b6:	08 07       	cpc	r16, r24
     2b8:	a9 f7       	brne	.-22     	; 0x2a4 <__do_global_ctors+0xa>
     2ba:	0e 94 63 01 	call	0x2c6	; 0x2c6 <main>
     2be:	0c 94 53 11 	jmp	0x22a6	; 0x22a6 <_exit>

000002c2 <__bad_interrupt>:
     2c2:	0c 94 00 00 	jmp	0	; 0x0 <__vectors>

000002c6 <main>:
#include "source/vl53lox.hpp"
#include "source/initializing.hpp"
#include <string.h>

int main(){	
	init_all();
     2c6:	0e 94 16 03 	call	0x62c	; 0x62c <_Z8init_allv>
	init_mv();
     2ca:	0e 94 97 0b 	call	0x172e	; 0x172e <_Z7init_mvv>
	#else
		//round up by default
		__ticks_dc = (uint32_t)(ceil(fabs(__tmp)));
	#endif

	__builtin_avr_delay_cycles(__ticks_dc);
     2ce:	2f ef       	ldi	r18, 0xFF	; 255
     2d0:	87 e8       	ldi	r24, 0x87	; 135
     2d2:	93 e1       	ldi	r25, 0x13	; 19
     2d4:	21 50       	subi	r18, 0x01	; 1
     2d6:	80 40       	sbci	r24, 0x00	; 0
     2d8:	90 40       	sbci	r25, 0x00	; 0
     2da:	e1 f7       	brne	.-8      	; 0x2d4 <main+0xe>
     2dc:	00 c0       	rjmp	.+0      	; 0x2de <main+0x18>
     2de:	00 00       	nop
	//finded_victim(1);
	_delay_ms(200);
	lcd_putstr(LCD1_TWI,"Hello");
     2e0:	61 e4       	ldi	r22, 0x41	; 65
     2e2:	70 e2       	ldi	r23, 0x20	; 32
     2e4:	80 eb       	ldi	r24, 0xB0	; 176
     2e6:	94 e0       	ldi	r25, 0x04	; 4
     2e8:	0e 94 70 04 	call	0x8e0	; 0x8e0 <_Z10lcd_putstrP10TWI_structPKc>
	motor::wait();
     2ec:	81 e0       	ldi	r24, 0x01	; 1
     2ee:	0e 94 67 05 	call	0xace	; 0xace <_ZN5motor4waitEb>
	lcd_clear();
     2f2:	0e 94 d2 04 	call	0x9a4	; 0x9a4 <_Z9lcd_clearv>
	lcd_putstr(LCD1_TWI,"Ready!");
     2f6:	67 e4       	ldi	r22, 0x47	; 71
     2f8:	70 e2       	ldi	r23, 0x20	; 32
     2fa:	80 eb       	ldi	r24, 0xB0	; 176
     2fc:	94 e0       	ldi	r25, 0x04	; 4
     2fe:	0e 94 70 04 	call	0x8e0	; 0x8e0 <_Z10lcd_putstrP10TWI_structPKc>
	lcd_clear();
     302:	0e 94 d2 04 	call	0x9a4	; 0x9a4 <_Z9lcd_clearv>
	serial.string("wake_up\n");
     306:	6e e4       	ldi	r22, 0x4E	; 78
     308:	70 e2       	ldi	r23, 0x20	; 32
     30a:	8a ec       	ldi	r24, 0xCA	; 202
     30c:	90 e2       	ldi	r25, 0x20	; 32
     30e:	0e 94 cb 0e 	call	0x1d96	; 0x1d96 <_ZN5usart6stringEPKc>
	buzzer();
     312:	80 e2       	ldi	r24, 0x20	; 32
     314:	93 e0       	ldi	r25, 0x03	; 3
     316:	0e 94 46 0d 	call	0x1a8c	; 0x1a8c <_Z6buzzerj>
	while(1){
		motor::move(0);
     31a:	80 e0       	ldi	r24, 0x00	; 0
     31c:	0e 94 0c 06 	call	0xc18	; 0xc18 <_ZN5motor4moveEh>
		motor::fix_angle();
     320:	0e 94 f3 09 	call	0x13e6	; 0x13e6 <_ZN5motor9fix_angleEv>
		motor::move(0);
     324:	80 e0       	ldi	r24, 0x00	; 0
     326:	0e 94 0c 06 	call	0xc18	; 0xc18 <_ZN5motor4moveEh>
		motor::turn_fix();
     32a:	80 e0       	ldi	r24, 0x00	; 0
     32c:	0e 94 c2 08 	call	0x1184	; 0x1184 <_ZN5motor8turn_fixEh>
		motor::gb_fix();
     330:	0e 94 d8 07 	call	0xfb0	; 0xfb0 <_ZN5motor6gb_fixEv>
		motor::turn_fix();
     334:	80 e0       	ldi	r24, 0x00	; 0
     336:	0e 94 c2 08 	call	0x1184	; 0x1184 <_ZN5motor8turn_fixEh>
     33a:	ef cf       	rjmp	.-34     	; 0x31a <main+0x54>

0000033c <_GLOBAL__sub_I__Z3maxii>:
	stack_dfs(ta.r_start());
	stack_dfs();
	lcd_clear();
	lcd_putstr(LCD1_TWI,"END");
	return 0;*/
     33c:	cf 93       	push	r28
     33e:	df 93       	push	r29
     340:	e8 ec       	ldi	r30, 0xC8	; 200
     342:	f4 e2       	ldi	r31, 0x24	; 36
     344:	6a e4       	ldi	r22, 0x4A	; 74
     346:	79 e3       	ldi	r23, 0x39	; 57
	ci white = 0;
	ci gray = 1;
	ci black = 2;
}

struct node{
     348:	24 e6       	ldi	r18, 0x64	; 100
     34a:	41 e0       	ldi	r20, 0x01	; 1
     34c:	88 ee       	ldi	r24, 0xE8	; 232
     34e:	93 e0       	ldi	r25, 0x03	; 3
     350:	38 e0       	ldi	r19, 0x08	; 8
     352:	20 83       	st	Z, r18
     354:	21 83       	std	Z+1, r18	; 0x01
     356:	42 83       	std	Z+2, r20	; 0x02
     358:	86 83       	std	Z+6, r24	; 0x06
     35a:	97 83       	std	Z+7, r25	; 0x07
     35c:	80 87       	std	Z+8, r24	; 0x08
     35e:	91 87       	std	Z+9, r25	; 0x09
     360:	12 86       	std	Z+10, r1	; 0x0a
     362:	df 01       	movw	r26, r30
     364:	1b 96       	adiw	r26, 0x0b	; 11
     366:	ed 01       	movw	r28, r26
     368:	53 2f       	mov	r21, r19
     36a:	19 92       	st	Y+, r1
     36c:	5a 95       	dec	r21
     36e:	e9 f7       	brne	.-6      	; 0x36a <_GLOBAL__sub_I__Z3maxii+0x2e>
     370:	13 8a       	std	Z+19, r1	; 0x13
     372:	14 8a       	std	Z+20, r1	; 0x14
     374:	75 96       	adiw	r30, 0x15	; 21
class nodes{
    int size,now;
    node mal[max_size];
    bl box[max_size]={0};
public:
    nodes(){size=0;now=0;};
     376:	e6 17       	cp	r30, r22
     378:	f7 07       	cpc	r31, r23
     37a:	59 f7       	brne	.-42     	; 0x352 <_GLOBAL__sub_I__Z3maxii+0x16>
     37c:	8a ef       	ldi	r24, 0xFA	; 250
     37e:	ea e4       	ldi	r30, 0x4A	; 74
     380:	f9 e3       	ldi	r31, 0x39	; 57
     382:	df 01       	movw	r26, r30
     384:	1d 92       	st	X+, r1
     386:	8a 95       	dec	r24
     388:	e9 f7       	brne	.-6      	; 0x384 <_GLOBAL__sub_I__Z3maxii+0x48>
     38a:	e4 ec       	ldi	r30, 0xC4	; 196
     38c:	f4 e2       	ldi	r31, 0x24	; 36
     38e:	10 82       	st	Z, r1
     390:	11 82       	std	Z+1, r1	; 0x01
    node* make(int x,int y,int z,int flag){
        if(now>=max_size-1){ return np; }else{
            now++;mal[now].dist=1000;mal[now].depth=1000;//init
     392:	81 e0       	ldi	r24, 0x01	; 1
     394:	90 e0       	ldi	r25, 0x00	; 0
     396:	82 83       	std	Z+2, r24	; 0x02
     398:	93 83       	std	Z+3, r25	; 0x03
     39a:	88 ee       	ldi	r24, 0xE8	; 232
     39c:	93 e0       	ldi	r25, 0x03	; 3
     39e:	81 a3       	std	Z+33, r24	; 0x21
     3a0:	92 a3       	std	Z+34, r25	; 0x22
     3a2:	87 8f       	std	Z+31, r24	; 0x1f
     3a4:	90 a3       	std	Z+32, r25	; 0x20
            mal[now].x=x; mal[now].y=y; mal[now].z=z; mal[now].flag=flag;
     3a6:	84 e6       	ldi	r24, 0x64	; 100
     3a8:	81 8f       	std	Z+25, r24	; 0x19
     3aa:	82 8f       	std	Z+26, r24	; 0x1a
     3ac:	81 e0       	ldi	r24, 0x01	; 1
     3ae:	83 8f       	std	Z+27, r24	; 0x1b
     3b0:	84 8f       	std	Z+28, r24	; 0x1c
			mal[now].color=color::white;
     3b2:	16 8e       	std	Z+30, r1	; 0x1e
			mal[now].ac=false;
     3b4:	13 a2       	std	Z+35, r1	; 0x23
     * use ans,flg (also in bfs)
     */
public:
	stack stk;
    core(){
        now=mall.make(100,100,1,1);
     3b6:	ee ec       	ldi	r30, 0xCE	; 206
     3b8:	f0 e2       	ldi	r31, 0x20	; 32
     3ba:	8d ed       	ldi	r24, 0xDD	; 221
     3bc:	94 e2       	ldi	r25, 0x24	; 36
     3be:	80 83       	st	Z, r24
     3c0:	91 83       	std	Z+1, r25	; 0x01
        flg=0;
     3c2:	10 86       	std	Z+8, r1	; 0x08
     3c4:	11 86       	std	Z+9, r1	; 0x09
        ans = np;
     3c6:	16 82       	std	Z+6, r1	; 0x06
     3c8:	17 82       	std	Z+7, r1	; 0x07
        start=now;
     3ca:	82 83       	std	Z+2, r24	; 0x02
     3cc:	93 83       	std	Z+3, r25	; 0x03
        dir=0;
     3ce:	14 82       	std	Z+4, r1	; 0x04
     3d0:	15 82       	std	Z+5, r1	; 0x05
 *  Author: TOMOKI
 */ 

#include "source/iris.hpp"
#include "source/mv_control.hpp"
usart serial(&USARTC0,&PORTC);
     3d2:	40 e4       	ldi	r20, 0x40	; 64
     3d4:	56 e0       	ldi	r21, 0x06	; 6
     3d6:	60 ea       	ldi	r22, 0xA0	; 160
     3d8:	78 e0       	ldi	r23, 0x08	; 8
     3da:	8a ec       	ldi	r24, 0xCA	; 202
     3dc:	90 e2       	ldi	r25, 0x20	; 32
     3de:	0e 94 9f 0e 	call	0x1d3e	; 0x1d3e <_ZN5usartC1EP12USART_structP11PORT_struct>
	stack_dfs(ta.r_start());
	stack_dfs();
	lcd_clear();
	lcd_putstr(LCD1_TWI,"END");
	return 0;*/
     3e2:	df 91       	pop	r29
     3e4:	cf 91       	pop	r28
     3e6:	08 95       	ret

000003e8 <_Z13finded_victimh>:
     3e8:	0f 93       	push	r16
     3ea:	1f 93       	push	r17
     3ec:	cf 93       	push	r28
     3ee:	df 93       	push	r29
     3f0:	c8 2f       	mov	r28, r24
     3f2:	61 e0       	ldi	r22, 0x01	; 1
     3f4:	82 e0       	ldi	r24, 0x02	; 2
     3f6:	0e 94 79 0d 	call	0x1af2	; 0x1af2 <_Z3ledhh>
     3fa:	61 e0       	ldi	r22, 0x01	; 1
     3fc:	84 e0       	ldi	r24, 0x04	; 4
     3fe:	0e 94 79 0d 	call	0x1af2	; 0x1af2 <_Z3ledhh>
     402:	61 e0       	ldi	r22, 0x01	; 1
     404:	81 e0       	ldi	r24, 0x01	; 1
     406:	0e 94 79 0d 	call	0x1af2	; 0x1af2 <_Z3ledhh>
     40a:	28 e2       	ldi	r18, 0x28	; 40
     40c:	c2 9f       	mul	r28, r18
     40e:	80 01       	movw	r16, r0
     410:	11 24       	eor	r1, r1
     412:	20 e0       	ldi	r18, 0x00	; 0
     414:	30 e0       	ldi	r19, 0x00	; 0
     416:	e0 e2       	ldi	r30, 0x20	; 32
     418:	f7 e0       	ldi	r31, 0x07	; 7
     41a:	d1 e0       	ldi	r29, 0x01	; 1
     41c:	ce e0       	ldi	r28, 0x0E	; 14
     41e:	b2 e0       	ldi	r27, 0x02	; 2
     420:	ad e0       	ldi	r26, 0x0D	; 13
     422:	74 e0       	ldi	r23, 0x04	; 4
     424:	6b e0       	ldi	r22, 0x0B	; 11
     426:	58 e0       	ldi	r21, 0x08	; 8
     428:	47 e0       	ldi	r20, 0x07	; 7
     42a:	d5 83       	std	Z+5, r29	; 0x05
     42c:	c6 83       	std	Z+6, r28	; 0x06
     42e:	8f e7       	ldi	r24, 0x7F	; 127
     430:	9e e3       	ldi	r25, 0x3E	; 62
     432:	01 97       	sbiw	r24, 0x01	; 1
     434:	f1 f7       	brne	.-4      	; 0x432 <__LOCK_REGION_LENGTH__+0x32>
     436:	00 c0       	rjmp	.+0      	; 0x438 <__LOCK_REGION_LENGTH__+0x38>
     438:	00 00       	nop
     43a:	b5 83       	std	Z+5, r27	; 0x05
     43c:	a6 83       	std	Z+6, r26	; 0x06
     43e:	8f e7       	ldi	r24, 0x7F	; 127
     440:	9e e3       	ldi	r25, 0x3E	; 62
     442:	01 97       	sbiw	r24, 0x01	; 1
     444:	f1 f7       	brne	.-4      	; 0x442 <__LOCK_REGION_LENGTH__+0x42>
     446:	00 c0       	rjmp	.+0      	; 0x448 <__LOCK_REGION_LENGTH__+0x48>
     448:	00 00       	nop
     44a:	75 83       	std	Z+5, r23	; 0x05
     44c:	66 83       	std	Z+6, r22	; 0x06
     44e:	8f e7       	ldi	r24, 0x7F	; 127
     450:	9e e3       	ldi	r25, 0x3E	; 62
     452:	01 97       	sbiw	r24, 0x01	; 1
     454:	f1 f7       	brne	.-4      	; 0x452 <__LOCK_REGION_LENGTH__+0x52>
     456:	00 c0       	rjmp	.+0      	; 0x458 <__LOCK_REGION_LENGTH__+0x58>
     458:	00 00       	nop
     45a:	55 83       	std	Z+5, r21	; 0x05
     45c:	46 83       	std	Z+6, r20	; 0x06
     45e:	8f e7       	ldi	r24, 0x7F	; 127
     460:	9e e3       	ldi	r25, 0x3E	; 62
     462:	01 97       	sbiw	r24, 0x01	; 1
     464:	f1 f7       	brne	.-4      	; 0x462 <__LOCK_REGION_LENGTH__+0x62>
     466:	00 c0       	rjmp	.+0      	; 0x468 <__LOCK_REGION_LENGTH__+0x68>
     468:	00 00       	nop
     46a:	2f 5f       	subi	r18, 0xFF	; 255
     46c:	3f 4f       	sbci	r19, 0xFF	; 255
     46e:	02 17       	cp	r16, r18
     470:	13 07       	cpc	r17, r19
     472:	dc f6       	brge	.-74     	; 0x42a <__LOCK_REGION_LENGTH__+0x2a>
     474:	8f e0       	ldi	r24, 0x0F	; 15
     476:	80 93 26 07 	sts	0x0726, r24	; 0x800726 <__TEXT_REGION_LENGTH__+0x700726>
     47a:	60 e0       	ldi	r22, 0x00	; 0
     47c:	82 e0       	ldi	r24, 0x02	; 2
     47e:	0e 94 79 0d 	call	0x1af2	; 0x1af2 <_Z3ledhh>
     482:	60 e0       	ldi	r22, 0x00	; 0
     484:	84 e0       	ldi	r24, 0x04	; 4
     486:	0e 94 79 0d 	call	0x1af2	; 0x1af2 <_Z3ledhh>
     48a:	60 e0       	ldi	r22, 0x00	; 0
     48c:	81 e0       	ldi	r24, 0x01	; 1
     48e:	0e 94 79 0d 	call	0x1af2	; 0x1af2 <_Z3ledhh>
     492:	61 e0       	ldi	r22, 0x01	; 1
     494:	81 e0       	ldi	r24, 0x01	; 1
     496:	0e 94 87 0d 	call	0x1b0e	; 0x1b0e <_Z9error_ledhh>
     49a:	cb e0       	ldi	r28, 0x0B	; 11
     49c:	d0 e0       	ldi	r29, 0x00	; 0
     49e:	63 e0       	ldi	r22, 0x03	; 3
     4a0:	81 e0       	ldi	r24, 0x01	; 1
     4a2:	0e 94 87 0d 	call	0x1b0e	; 0x1b0e <_Z9error_ledhh>
     4a6:	64 e0       	ldi	r22, 0x04	; 4
     4a8:	82 e0       	ldi	r24, 0x02	; 2
     4aa:	0e 94 87 0d 	call	0x1b0e	; 0x1b0e <_Z9error_ledhh>
     4ae:	80 e2       	ldi	r24, 0x20	; 32
     4b0:	93 e0       	ldi	r25, 0x03	; 3
     4b2:	0e 94 46 0d 	call	0x1a8c	; 0x1a8c <_Z6buzzerj>
     4b6:	9f ef       	ldi	r25, 0xFF	; 255
     4b8:	2b e4       	ldi	r18, 0x4B	; 75
     4ba:	8d e1       	ldi	r24, 0x1D	; 29
     4bc:	91 50       	subi	r25, 0x01	; 1
     4be:	20 40       	sbci	r18, 0x00	; 0
     4c0:	80 40       	sbci	r24, 0x00	; 0
     4c2:	e1 f7       	brne	.-8      	; 0x4bc <__LOCK_REGION_LENGTH__+0xbc>
     4c4:	00 c0       	rjmp	.+0      	; 0x4c6 <__LOCK_REGION_LENGTH__+0xc6>
     4c6:	00 00       	nop
     4c8:	21 97       	sbiw	r28, 0x01	; 1
     4ca:	49 f7       	brne	.-46     	; 0x49e <__LOCK_REGION_LENGTH__+0x9e>
     4cc:	60 e0       	ldi	r22, 0x00	; 0
     4ce:	81 e0       	ldi	r24, 0x01	; 1
     4d0:	0e 94 87 0d 	call	0x1b0e	; 0x1b0e <_Z9error_ledhh>
     4d4:	60 e0       	ldi	r22, 0x00	; 0
     4d6:	82 e0       	ldi	r24, 0x02	; 2
     4d8:	0e 94 87 0d 	call	0x1b0e	; 0x1b0e <_Z9error_ledhh>
     4dc:	df 91       	pop	r29
     4de:	cf 91       	pop	r28
     4e0:	1f 91       	pop	r17
     4e2:	0f 91       	pop	r16
     4e4:	08 95       	ret

000004e6 <_Z10init_colorv>:

uint16_t red=0, green=0, blue=0;	//値
uint16_t high=800, low=500;	//しきい値 白>800  700<銀<=800

void init_color(void){	//initialize
	PORTF.DIRSET = PIN0_bm|PIN1_bm|PIN2_bm;
     4e6:	87 e0       	ldi	r24, 0x07	; 7
     4e8:	80 93 a1 06 	sts	0x06A1, r24	; 0x8006a1 <__TEXT_REGION_LENGTH__+0x7006a1>
     4ec:	08 95       	ret

000004ee <_Z10jy_recv_wdhPi>:
	int16_t data[2];
	jy_recv_wd(0x3f,data);
	serial.putfloat(((float)((data[1] << 8) | data[0])  / 32768 * 180) + 180);
	//serial.string("\n\r");
	return;
}
     4ee:	1f 93       	push	r17
     4f0:	cf 93       	push	r28
     4f2:	df 93       	push	r29
     4f4:	18 2f       	mov	r17, r24
     4f6:	eb 01       	movw	r28, r22
     4f8:	40 e0       	ldi	r20, 0x00	; 0
     4fa:	60 ea       	ldi	r22, 0xA0	; 160
     4fc:	84 e4       	ldi	r24, 0x44	; 68
     4fe:	9a e3       	ldi	r25, 0x3A	; 58
     500:	0e 94 23 0e 	call	0x1c46	; 0x1c46 <_ZN3twi7AddressEhh>
     504:	61 2f       	mov	r22, r17
     506:	70 e0       	ldi	r23, 0x00	; 0
     508:	84 e4       	ldi	r24, 0x44	; 68
     50a:	9a e3       	ldi	r25, 0x3A	; 58
     50c:	0e 94 51 0e 	call	0x1ca2	; 0x1ca2 <_ZN3twi11WriteSingleEi>
     510:	41 e0       	ldi	r20, 0x01	; 1
     512:	60 ea       	ldi	r22, 0xA0	; 160
     514:	84 e4       	ldi	r24, 0x44	; 68
     516:	9a e3       	ldi	r25, 0x3A	; 58
     518:	0e 94 23 0e 	call	0x1c46	; 0x1c46 <_ZN3twi7AddressEhh>
     51c:	61 e0       	ldi	r22, 0x01	; 1
     51e:	84 e4       	ldi	r24, 0x44	; 68
     520:	9a e3       	ldi	r25, 0x3A	; 58
     522:	0e 94 75 0e 	call	0x1cea	; 0x1cea <_ZN3twi10ReadSingleEh>
     526:	90 e0       	ldi	r25, 0x00	; 0
     528:	88 83       	st	Y, r24
     52a:	99 83       	std	Y+1, r25	; 0x01
     52c:	60 e0       	ldi	r22, 0x00	; 0
     52e:	84 e4       	ldi	r24, 0x44	; 68
     530:	9a e3       	ldi	r25, 0x3A	; 58
     532:	0e 94 75 0e 	call	0x1cea	; 0x1cea <_ZN3twi10ReadSingleEh>
     536:	90 e0       	ldi	r25, 0x00	; 0
     538:	8a 83       	std	Y+2, r24	; 0x02
     53a:	9b 83       	std	Y+3, r25	; 0x03
     53c:	84 e4       	ldi	r24, 0x44	; 68
     53e:	9a e3       	ldi	r25, 0x3A	; 58
     540:	0e 94 8d 0e 	call	0x1d1a	; 0x1d1a <_ZN3twi4StopEv>
     544:	df 91       	pop	r29
     546:	cf 91       	pop	r28
     548:	1f 91       	pop	r17
     54a:	08 95       	ret

0000054c <_Z10gyro_anglev>:
     54c:	cf 93       	push	r28
     54e:	df 93       	push	r29
     550:	00 d0       	rcall	.+0      	; 0x552 <_Z10gyro_anglev+0x6>
     552:	1f 92       	push	r1
     554:	cd b7       	in	r28, 0x3d	; 61
     556:	de b7       	in	r29, 0x3e	; 62
     558:	be 01       	movw	r22, r28
     55a:	6f 5f       	subi	r22, 0xFF	; 255
     55c:	7f 4f       	sbci	r23, 0xFF	; 255
     55e:	8f e3       	ldi	r24, 0x3F	; 63
     560:	0e 94 77 02 	call	0x4ee	; 0x4ee <_Z10jy_recv_wdhPi>
     564:	60 e0       	ldi	r22, 0x00	; 0
     566:	70 e0       	ldi	r23, 0x00	; 0
     568:	7b 81       	ldd	r23, Y+3	; 0x03
     56a:	89 81       	ldd	r24, Y+1	; 0x01
     56c:	9a 81       	ldd	r25, Y+2	; 0x02
     56e:	68 2b       	or	r22, r24
     570:	79 2b       	or	r23, r25
     572:	07 2e       	mov	r0, r23
     574:	00 0c       	add	r0, r0
     576:	88 0b       	sbc	r24, r24
     578:	99 0b       	sbc	r25, r25
     57a:	0e 94 f7 0f 	call	0x1fee	; 0x1fee <__floatsisf>
     57e:	20 e0       	ldi	r18, 0x00	; 0
     580:	30 e0       	ldi	r19, 0x00	; 0
     582:	40 e0       	ldi	r20, 0x00	; 0
     584:	58 e3       	ldi	r21, 0x38	; 56
     586:	0e 94 ac 10 	call	0x2158	; 0x2158 <__mulsf3>
     58a:	20 e0       	ldi	r18, 0x00	; 0
     58c:	30 e0       	ldi	r19, 0x00	; 0
     58e:	44 e3       	ldi	r20, 0x34	; 52
     590:	53 e4       	ldi	r21, 0x43	; 67
     592:	0e 94 ac 10 	call	0x2158	; 0x2158 <__mulsf3>
     596:	20 e0       	ldi	r18, 0x00	; 0
     598:	30 e0       	ldi	r19, 0x00	; 0
     59a:	44 e3       	ldi	r20, 0x34	; 52
     59c:	53 e4       	ldi	r21, 0x43	; 67
     59e:	0e 94 4e 0f 	call	0x1e9c	; 0x1e9c <__addsf3>
     5a2:	24 96       	adiw	r28, 0x04	; 4
     5a4:	cd bf       	out	0x3d, r28	; 61
     5a6:	de bf       	out	0x3e, r29	; 62
     5a8:	df 91       	pop	r29
     5aa:	cf 91       	pop	r28
     5ac:	08 95       	ret

000005ae <_GLOBAL__sub_I_gyro>:
 * Created: 2018/08/28 11:18:39
 *  Author: shun2
 */ 

#include "gyro_control.hpp"
twi gyro(&TWIC,250000);
     5ae:	20 e9       	ldi	r18, 0x90	; 144
     5b0:	30 ed       	ldi	r19, 0xD0	; 208
     5b2:	43 e0       	ldi	r20, 0x03	; 3
     5b4:	50 e0       	ldi	r21, 0x00	; 0
     5b6:	60 e8       	ldi	r22, 0x80	; 128
     5b8:	74 e0       	ldi	r23, 0x04	; 4
     5ba:	84 e4       	ldi	r24, 0x44	; 68
     5bc:	9a e3       	ldi	r25, 0x3A	; 58
     5be:	0e 94 dd 0d 	call	0x1bba	; 0x1bba <_ZN3twiC1EP10TWI_structm>
     5c2:	08 95       	ret

000005c4 <_Z10init_clockv>:
	init_color();
}


void init_clock(void){
	OSC.CTRL |= 0x02;					//32MHz内蔵発振器動作許可
     5c4:	e0 e5       	ldi	r30, 0x50	; 80
     5c6:	f0 e0       	ldi	r31, 0x00	; 0
     5c8:	80 81       	ld	r24, Z
     5ca:	82 60       	ori	r24, 0x02	; 2
     5cc:	80 83       	st	Z, r24
	while((OSC.STATUS & 0x02) == 0);	//32MHz内蔵発振器が安定するまで待つ
     5ce:	81 81       	ldd	r24, Z+1	; 0x01
     5d0:	81 ff       	sbrs	r24, 1
     5d2:	fd cf       	rjmp	.-6      	; 0x5ce <_Z10init_clockv+0xa>
	CPU_CCP = 0xD8;						//システムクロック制御レジスタアクセス許可を行う
     5d4:	88 ed       	ldi	r24, 0xD8	; 216
     5d6:	84 bf       	out	0x34, r24	; 52
	CLK.CTRL = 0x01;					//システムクロックを32MHzに変更
     5d8:	e0 e4       	ldi	r30, 0x40	; 64
     5da:	f0 e0       	ldi	r31, 0x00	; 0
     5dc:	81 e0       	ldi	r24, 0x01	; 1
     5de:	80 83       	st	Z, r24
	CLK.PSCTRL=CLK_PSADIV0_bm;		//select Prescaler A as 2, Prescaler B and Prescaler C as 1, Clksys=16MHz, Clkper4=Clkper2=Clkper=Clkcpu=8MHz
     5e0:	84 e0       	ldi	r24, 0x04	; 4
     5e2:	81 83       	std	Z+1, r24	; 0x01
	OSC.CTRL &= 0xFE;					//2MHz内蔵発振器動作停止
     5e4:	e0 e5       	ldi	r30, 0x50	; 80
     5e6:	f0 e0       	ldi	r31, 0x00	; 0
     5e8:	80 81       	ld	r24, Z
     5ea:	8e 7f       	andi	r24, 0xFE	; 254
     5ec:	80 83       	st	Z, r24
     5ee:	08 95       	ret

000005f0 <_Z3rtcv>:
}


void rtc(void){
	OSC.CTRL = OSC_RC32KEN_bm;
     5f0:	84 e0       	ldi	r24, 0x04	; 4
     5f2:	80 93 50 00 	sts	0x0050, r24	; 0x800050 <__TEXT_REGION_LENGTH__+0x700050>
	while((OSC_STATUS&&OSC_RC32KRDY_bm)==0);
     5f6:	e1 e5       	ldi	r30, 0x51	; 81
     5f8:	f0 e0       	ldi	r31, 0x00	; 0
     5fa:	80 81       	ld	r24, Z
     5fc:	88 23       	and	r24, r24
     5fe:	e9 f3       	breq	.-6      	; 0x5fa <_Z3rtcv+0xa>
	CLK.RTCCTRL = 0b00000001;
     600:	81 e0       	ldi	r24, 0x01	; 1
     602:	80 93 43 00 	sts	0x0043, r24	; 0x800043 <__TEXT_REGION_LENGTH__+0x700043>
	RTC.CTRL = RTC_PRESCALER_DIV1024_gc;
     606:	87 e0       	ldi	r24, 0x07	; 7
     608:	80 93 00 04 	sts	0x0400, r24	; 0x800400 <__TEXT_REGION_LENGTH__+0x700400>
     60c:	08 95       	ret

0000060e <_Z8init_avrv>:
}

void init_avr(void){
	PORTA.DIRSET=PIN0_bm;//ブザー
     60e:	81 e0       	ldi	r24, 0x01	; 1
     610:	80 93 01 06 	sts	0x0601, r24	; 0x800601 <__TEXT_REGION_LENGTH__+0x700601>
	PORTQ.DIRSET = PIN0_bm|PIN1_bm|PIN2_bm;//フルカラーLED
     614:	e0 ec       	ldi	r30, 0xC0	; 192
     616:	f7 e0       	ldi	r31, 0x07	; 7
     618:	87 e0       	ldi	r24, 0x07	; 7
     61a:	81 83       	std	Z+1, r24	; 0x01
	PORTQ.OUTSET = PIN0_bm|PIN1_bm|PIN2_bm;
     61c:	85 83       	std	Z+5, r24	; 0x05
	PORTK.DIRSET = PIN0_bm|PIN1_bm|PIN2_bm|PIN3_bm;//ステッピングinit
     61e:	8f e0       	ldi	r24, 0x0F	; 15
     620:	80 93 21 07 	sts	0x0721, r24	; 0x800721 <__TEXT_REGION_LENGTH__+0x700721>
	PORTB.DIRSET = PIN0_bm|PIN1_bm;//モーター用SIG
     624:	83 e0       	ldi	r24, 0x03	; 3
     626:	80 93 21 06 	sts	0x0621, r24	; 0x800621 <__TEXT_REGION_LENGTH__+0x700621>
     62a:	08 95       	ret

0000062c <_Z8init_allv>:
#include "motor_control.hpp"
#include "action.hpp"
#include "color_control.hpp"

void init_all(void){
	init_clock();
     62c:	0e 94 e2 02 	call	0x5c4	; 0x5c4 <_Z10init_clockv>
	init_avr();
     630:	0e 94 07 03 	call	0x60e	; 0x60e <_Z8init_avrv>
	init_lcd();
     634:	0e 94 23 03 	call	0x646	; 0x646 <_Z8init_lcdv>
	init_motor();
     638:	0e 94 05 05 	call	0xa0a	; 0xa0a <_Z10init_motorv>
	rtc();
     63c:	0e 94 f8 02 	call	0x5f0	; 0x5f0 <_Z3rtcv>
	init_color();
     640:	0e 94 73 02 	call	0x4e6	; 0x4e6 <_Z10init_colorv>
     644:	08 95       	ret

00000646 <_Z8init_lcdv>:
     646:	cf 93       	push	r28
     648:	df 93       	push	r29
     64a:	cd b7       	in	r28, 0x3d	; 61
     64c:	de b7       	in	r29, 0x3e	; 62
     64e:	2a 97       	sbiw	r28, 0x0a	; 10
     650:	cd bf       	out	0x3d, r28	; 61
     652:	de bf       	out	0x3e, r29	; 62
     654:	20 ee       	ldi	r18, 0xE0	; 224
     656:	33 e9       	ldi	r19, 0x93	; 147
     658:	44 e0       	ldi	r20, 0x04	; 4
     65a:	50 e0       	ldi	r21, 0x00	; 0
     65c:	60 e9       	ldi	r22, 0x90	; 144
     65e:	74 e0       	ldi	r23, 0x04	; 4
     660:	ce 01       	movw	r24, r28
     662:	01 96       	adiw	r24, 0x01	; 1
     664:	0e 94 dd 0d 	call	0x1bba	; 0x1bba <_ZN3twiC1EP10TWI_structm>
     668:	40 e0       	ldi	r20, 0x00	; 0
     66a:	6c e7       	ldi	r22, 0x7C	; 124
     66c:	ce 01       	movw	r24, r28
     66e:	01 96       	adiw	r24, 0x01	; 1
     670:	0e 94 23 0e 	call	0x1c46	; 0x1c46 <_ZN3twi7AddressEhh>
     674:	60 e0       	ldi	r22, 0x00	; 0
     676:	70 e0       	ldi	r23, 0x00	; 0
     678:	ce 01       	movw	r24, r28
     67a:	01 96       	adiw	r24, 0x01	; 1
     67c:	0e 94 51 0e 	call	0x1ca2	; 0x1ca2 <_ZN3twi11WriteSingleEi>
     680:	68 e3       	ldi	r22, 0x38	; 56
     682:	70 e0       	ldi	r23, 0x00	; 0
     684:	ce 01       	movw	r24, r28
     686:	01 96       	adiw	r24, 0x01	; 1
     688:	0e 94 51 0e 	call	0x1ca2	; 0x1ca2 <_ZN3twi11WriteSingleEi>
     68c:	ce 01       	movw	r24, r28
     68e:	01 96       	adiw	r24, 0x01	; 1
     690:	0e 94 8d 0e 	call	0x1d1a	; 0x1d1a <_ZN3twi4StopEv>
     694:	2f ef       	ldi	r18, 0xFF	; 255
     696:	81 ee       	ldi	r24, 0xE1	; 225
     698:	94 e0       	ldi	r25, 0x04	; 4
     69a:	21 50       	subi	r18, 0x01	; 1
     69c:	80 40       	sbci	r24, 0x00	; 0
     69e:	90 40       	sbci	r25, 0x00	; 0
     6a0:	e1 f7       	brne	.-8      	; 0x69a <_Z8init_lcdv+0x54>
     6a2:	00 c0       	rjmp	.+0      	; 0x6a4 <_Z8init_lcdv+0x5e>
     6a4:	00 00       	nop
     6a6:	40 e0       	ldi	r20, 0x00	; 0
     6a8:	6c e7       	ldi	r22, 0x7C	; 124
     6aa:	ce 01       	movw	r24, r28
     6ac:	01 96       	adiw	r24, 0x01	; 1
     6ae:	0e 94 23 0e 	call	0x1c46	; 0x1c46 <_ZN3twi7AddressEhh>
     6b2:	60 e0       	ldi	r22, 0x00	; 0
     6b4:	70 e0       	ldi	r23, 0x00	; 0
     6b6:	ce 01       	movw	r24, r28
     6b8:	01 96       	adiw	r24, 0x01	; 1
     6ba:	0e 94 51 0e 	call	0x1ca2	; 0x1ca2 <_ZN3twi11WriteSingleEi>
     6be:	69 e3       	ldi	r22, 0x39	; 57
     6c0:	70 e0       	ldi	r23, 0x00	; 0
     6c2:	ce 01       	movw	r24, r28
     6c4:	01 96       	adiw	r24, 0x01	; 1
     6c6:	0e 94 51 0e 	call	0x1ca2	; 0x1ca2 <_ZN3twi11WriteSingleEi>
     6ca:	ce 01       	movw	r24, r28
     6cc:	01 96       	adiw	r24, 0x01	; 1
     6ce:	0e 94 8d 0e 	call	0x1d1a	; 0x1d1a <_ZN3twi4StopEv>
     6d2:	2f ef       	ldi	r18, 0xFF	; 255
     6d4:	81 ee       	ldi	r24, 0xE1	; 225
     6d6:	94 e0       	ldi	r25, 0x04	; 4
     6d8:	21 50       	subi	r18, 0x01	; 1
     6da:	80 40       	sbci	r24, 0x00	; 0
     6dc:	90 40       	sbci	r25, 0x00	; 0
     6de:	e1 f7       	brne	.-8      	; 0x6d8 <_Z8init_lcdv+0x92>
     6e0:	00 c0       	rjmp	.+0      	; 0x6e2 <_Z8init_lcdv+0x9c>
     6e2:	00 00       	nop
     6e4:	40 e0       	ldi	r20, 0x00	; 0
     6e6:	6c e7       	ldi	r22, 0x7C	; 124
     6e8:	ce 01       	movw	r24, r28
     6ea:	01 96       	adiw	r24, 0x01	; 1
     6ec:	0e 94 23 0e 	call	0x1c46	; 0x1c46 <_ZN3twi7AddressEhh>
     6f0:	60 e0       	ldi	r22, 0x00	; 0
     6f2:	70 e0       	ldi	r23, 0x00	; 0
     6f4:	ce 01       	movw	r24, r28
     6f6:	01 96       	adiw	r24, 0x01	; 1
     6f8:	0e 94 51 0e 	call	0x1ca2	; 0x1ca2 <_ZN3twi11WriteSingleEi>
     6fc:	64 e1       	ldi	r22, 0x14	; 20
     6fe:	70 e0       	ldi	r23, 0x00	; 0
     700:	ce 01       	movw	r24, r28
     702:	01 96       	adiw	r24, 0x01	; 1
     704:	0e 94 51 0e 	call	0x1ca2	; 0x1ca2 <_ZN3twi11WriteSingleEi>
     708:	ce 01       	movw	r24, r28
     70a:	01 96       	adiw	r24, 0x01	; 1
     70c:	0e 94 8d 0e 	call	0x1d1a	; 0x1d1a <_ZN3twi4StopEv>
     710:	2f ef       	ldi	r18, 0xFF	; 255
     712:	81 ee       	ldi	r24, 0xE1	; 225
     714:	94 e0       	ldi	r25, 0x04	; 4
     716:	21 50       	subi	r18, 0x01	; 1
     718:	80 40       	sbci	r24, 0x00	; 0
     71a:	90 40       	sbci	r25, 0x00	; 0
     71c:	e1 f7       	brne	.-8      	; 0x716 <_Z8init_lcdv+0xd0>
     71e:	00 c0       	rjmp	.+0      	; 0x720 <_Z8init_lcdv+0xda>
     720:	00 00       	nop
     722:	40 e0       	ldi	r20, 0x00	; 0
     724:	6c e7       	ldi	r22, 0x7C	; 124
     726:	ce 01       	movw	r24, r28
     728:	01 96       	adiw	r24, 0x01	; 1
     72a:	0e 94 23 0e 	call	0x1c46	; 0x1c46 <_ZN3twi7AddressEhh>
     72e:	60 e0       	ldi	r22, 0x00	; 0
     730:	70 e0       	ldi	r23, 0x00	; 0
     732:	ce 01       	movw	r24, r28
     734:	01 96       	adiw	r24, 0x01	; 1
     736:	0e 94 51 0e 	call	0x1ca2	; 0x1ca2 <_ZN3twi11WriteSingleEi>
     73a:	6e e7       	ldi	r22, 0x7E	; 126
     73c:	70 e0       	ldi	r23, 0x00	; 0
     73e:	ce 01       	movw	r24, r28
     740:	01 96       	adiw	r24, 0x01	; 1
     742:	0e 94 51 0e 	call	0x1ca2	; 0x1ca2 <_ZN3twi11WriteSingleEi>
     746:	ce 01       	movw	r24, r28
     748:	01 96       	adiw	r24, 0x01	; 1
     74a:	0e 94 8d 0e 	call	0x1d1a	; 0x1d1a <_ZN3twi4StopEv>
     74e:	2f ef       	ldi	r18, 0xFF	; 255
     750:	81 ee       	ldi	r24, 0xE1	; 225
     752:	94 e0       	ldi	r25, 0x04	; 4
     754:	21 50       	subi	r18, 0x01	; 1
     756:	80 40       	sbci	r24, 0x00	; 0
     758:	90 40       	sbci	r25, 0x00	; 0
     75a:	e1 f7       	brne	.-8      	; 0x754 <_Z8init_lcdv+0x10e>
     75c:	00 c0       	rjmp	.+0      	; 0x75e <_Z8init_lcdv+0x118>
     75e:	00 00       	nop
     760:	40 e0       	ldi	r20, 0x00	; 0
     762:	6c e7       	ldi	r22, 0x7C	; 124
     764:	ce 01       	movw	r24, r28
     766:	01 96       	adiw	r24, 0x01	; 1
     768:	0e 94 23 0e 	call	0x1c46	; 0x1c46 <_ZN3twi7AddressEhh>
     76c:	60 e0       	ldi	r22, 0x00	; 0
     76e:	70 e0       	ldi	r23, 0x00	; 0
     770:	ce 01       	movw	r24, r28
     772:	01 96       	adiw	r24, 0x01	; 1
     774:	0e 94 51 0e 	call	0x1ca2	; 0x1ca2 <_ZN3twi11WriteSingleEi>
     778:	65 e5       	ldi	r22, 0x55	; 85
     77a:	70 e0       	ldi	r23, 0x00	; 0
     77c:	ce 01       	movw	r24, r28
     77e:	01 96       	adiw	r24, 0x01	; 1
     780:	0e 94 51 0e 	call	0x1ca2	; 0x1ca2 <_ZN3twi11WriteSingleEi>
     784:	ce 01       	movw	r24, r28
     786:	01 96       	adiw	r24, 0x01	; 1
     788:	0e 94 8d 0e 	call	0x1d1a	; 0x1d1a <_ZN3twi4StopEv>
     78c:	2f ef       	ldi	r18, 0xFF	; 255
     78e:	81 ee       	ldi	r24, 0xE1	; 225
     790:	94 e0       	ldi	r25, 0x04	; 4
     792:	21 50       	subi	r18, 0x01	; 1
     794:	80 40       	sbci	r24, 0x00	; 0
     796:	90 40       	sbci	r25, 0x00	; 0
     798:	e1 f7       	brne	.-8      	; 0x792 <_Z8init_lcdv+0x14c>
     79a:	00 c0       	rjmp	.+0      	; 0x79c <_Z8init_lcdv+0x156>
     79c:	00 00       	nop
     79e:	40 e0       	ldi	r20, 0x00	; 0
     7a0:	6c e7       	ldi	r22, 0x7C	; 124
     7a2:	ce 01       	movw	r24, r28
     7a4:	01 96       	adiw	r24, 0x01	; 1
     7a6:	0e 94 23 0e 	call	0x1c46	; 0x1c46 <_ZN3twi7AddressEhh>
     7aa:	60 e0       	ldi	r22, 0x00	; 0
     7ac:	70 e0       	ldi	r23, 0x00	; 0
     7ae:	ce 01       	movw	r24, r28
     7b0:	01 96       	adiw	r24, 0x01	; 1
     7b2:	0e 94 51 0e 	call	0x1ca2	; 0x1ca2 <_ZN3twi11WriteSingleEi>
     7b6:	6c e6       	ldi	r22, 0x6C	; 108
     7b8:	70 e0       	ldi	r23, 0x00	; 0
     7ba:	ce 01       	movw	r24, r28
     7bc:	01 96       	adiw	r24, 0x01	; 1
     7be:	0e 94 51 0e 	call	0x1ca2	; 0x1ca2 <_ZN3twi11WriteSingleEi>
     7c2:	ce 01       	movw	r24, r28
     7c4:	01 96       	adiw	r24, 0x01	; 1
     7c6:	0e 94 8d 0e 	call	0x1d1a	; 0x1d1a <_ZN3twi4StopEv>
     7ca:	2f ef       	ldi	r18, 0xFF	; 255
     7cc:	83 ed       	ldi	r24, 0xD3	; 211
     7ce:	90 e3       	ldi	r25, 0x30	; 48
     7d0:	21 50       	subi	r18, 0x01	; 1
     7d2:	80 40       	sbci	r24, 0x00	; 0
     7d4:	90 40       	sbci	r25, 0x00	; 0
     7d6:	e1 f7       	brne	.-8      	; 0x7d0 <_Z8init_lcdv+0x18a>
     7d8:	00 c0       	rjmp	.+0      	; 0x7da <_Z8init_lcdv+0x194>
     7da:	00 00       	nop
     7dc:	40 e0       	ldi	r20, 0x00	; 0
     7de:	6c e7       	ldi	r22, 0x7C	; 124
     7e0:	ce 01       	movw	r24, r28
     7e2:	01 96       	adiw	r24, 0x01	; 1
     7e4:	0e 94 23 0e 	call	0x1c46	; 0x1c46 <_ZN3twi7AddressEhh>
     7e8:	60 e0       	ldi	r22, 0x00	; 0
     7ea:	70 e0       	ldi	r23, 0x00	; 0
     7ec:	ce 01       	movw	r24, r28
     7ee:	01 96       	adiw	r24, 0x01	; 1
     7f0:	0e 94 51 0e 	call	0x1ca2	; 0x1ca2 <_ZN3twi11WriteSingleEi>
     7f4:	68 e3       	ldi	r22, 0x38	; 56
     7f6:	70 e0       	ldi	r23, 0x00	; 0
     7f8:	ce 01       	movw	r24, r28
     7fa:	01 96       	adiw	r24, 0x01	; 1
     7fc:	0e 94 51 0e 	call	0x1ca2	; 0x1ca2 <_ZN3twi11WriteSingleEi>
     800:	ce 01       	movw	r24, r28
     802:	01 96       	adiw	r24, 0x01	; 1
     804:	0e 94 8d 0e 	call	0x1d1a	; 0x1d1a <_ZN3twi4StopEv>
     808:	2f ef       	ldi	r18, 0xFF	; 255
     80a:	81 ee       	ldi	r24, 0xE1	; 225
     80c:	94 e0       	ldi	r25, 0x04	; 4
     80e:	21 50       	subi	r18, 0x01	; 1
     810:	80 40       	sbci	r24, 0x00	; 0
     812:	90 40       	sbci	r25, 0x00	; 0
     814:	e1 f7       	brne	.-8      	; 0x80e <_Z8init_lcdv+0x1c8>
     816:	00 c0       	rjmp	.+0      	; 0x818 <_Z8init_lcdv+0x1d2>
     818:	00 00       	nop
     81a:	40 e0       	ldi	r20, 0x00	; 0
     81c:	6c e7       	ldi	r22, 0x7C	; 124
     81e:	ce 01       	movw	r24, r28
     820:	01 96       	adiw	r24, 0x01	; 1
     822:	0e 94 23 0e 	call	0x1c46	; 0x1c46 <_ZN3twi7AddressEhh>
     826:	60 e0       	ldi	r22, 0x00	; 0
     828:	70 e0       	ldi	r23, 0x00	; 0
     82a:	ce 01       	movw	r24, r28
     82c:	01 96       	adiw	r24, 0x01	; 1
     82e:	0e 94 51 0e 	call	0x1ca2	; 0x1ca2 <_ZN3twi11WriteSingleEi>
     832:	6c e0       	ldi	r22, 0x0C	; 12
     834:	70 e0       	ldi	r23, 0x00	; 0
     836:	ce 01       	movw	r24, r28
     838:	01 96       	adiw	r24, 0x01	; 1
     83a:	0e 94 51 0e 	call	0x1ca2	; 0x1ca2 <_ZN3twi11WriteSingleEi>
     83e:	ce 01       	movw	r24, r28
     840:	01 96       	adiw	r24, 0x01	; 1
     842:	0e 94 8d 0e 	call	0x1d1a	; 0x1d1a <_ZN3twi4StopEv>
     846:	2f ef       	ldi	r18, 0xFF	; 255
     848:	81 ee       	ldi	r24, 0xE1	; 225
     84a:	94 e0       	ldi	r25, 0x04	; 4
     84c:	21 50       	subi	r18, 0x01	; 1
     84e:	80 40       	sbci	r24, 0x00	; 0
     850:	90 40       	sbci	r25, 0x00	; 0
     852:	e1 f7       	brne	.-8      	; 0x84c <_Z8init_lcdv+0x206>
     854:	00 c0       	rjmp	.+0      	; 0x856 <_Z8init_lcdv+0x210>
     856:	00 00       	nop
     858:	40 e0       	ldi	r20, 0x00	; 0
     85a:	6c e7       	ldi	r22, 0x7C	; 124
     85c:	ce 01       	movw	r24, r28
     85e:	01 96       	adiw	r24, 0x01	; 1
     860:	0e 94 23 0e 	call	0x1c46	; 0x1c46 <_ZN3twi7AddressEhh>
     864:	60 e0       	ldi	r22, 0x00	; 0
     866:	70 e0       	ldi	r23, 0x00	; 0
     868:	ce 01       	movw	r24, r28
     86a:	01 96       	adiw	r24, 0x01	; 1
     86c:	0e 94 51 0e 	call	0x1ca2	; 0x1ca2 <_ZN3twi11WriteSingleEi>
     870:	61 e0       	ldi	r22, 0x01	; 1
     872:	70 e0       	ldi	r23, 0x00	; 0
     874:	ce 01       	movw	r24, r28
     876:	01 96       	adiw	r24, 0x01	; 1
     878:	0e 94 51 0e 	call	0x1ca2	; 0x1ca2 <_ZN3twi11WriteSingleEi>
     87c:	ce 01       	movw	r24, r28
     87e:	01 96       	adiw	r24, 0x01	; 1
     880:	0e 94 8d 0e 	call	0x1d1a	; 0x1d1a <_ZN3twi4StopEv>
     884:	2f ef       	ldi	r18, 0xFF	; 255
     886:	81 ee       	ldi	r24, 0xE1	; 225
     888:	94 e0       	ldi	r25, 0x04	; 4
     88a:	21 50       	subi	r18, 0x01	; 1
     88c:	80 40       	sbci	r24, 0x00	; 0
     88e:	90 40       	sbci	r25, 0x00	; 0
     890:	e1 f7       	brne	.-8      	; 0x88a <_Z8init_lcdv+0x244>
     892:	00 c0       	rjmp	.+0      	; 0x894 <_Z8init_lcdv+0x24e>
     894:	00 00       	nop
     896:	40 e0       	ldi	r20, 0x00	; 0
     898:	6c e7       	ldi	r22, 0x7C	; 124
     89a:	ce 01       	movw	r24, r28
     89c:	01 96       	adiw	r24, 0x01	; 1
     89e:	0e 94 23 0e 	call	0x1c46	; 0x1c46 <_ZN3twi7AddressEhh>
     8a2:	60 e0       	ldi	r22, 0x00	; 0
     8a4:	70 e0       	ldi	r23, 0x00	; 0
     8a6:	ce 01       	movw	r24, r28
     8a8:	01 96       	adiw	r24, 0x01	; 1
     8aa:	0e 94 51 0e 	call	0x1ca2	; 0x1ca2 <_ZN3twi11WriteSingleEi>
     8ae:	66 e0       	ldi	r22, 0x06	; 6
     8b0:	70 e0       	ldi	r23, 0x00	; 0
     8b2:	ce 01       	movw	r24, r28
     8b4:	01 96       	adiw	r24, 0x01	; 1
     8b6:	0e 94 51 0e 	call	0x1ca2	; 0x1ca2 <_ZN3twi11WriteSingleEi>
     8ba:	ce 01       	movw	r24, r28
     8bc:	01 96       	adiw	r24, 0x01	; 1
     8be:	0e 94 8d 0e 	call	0x1d1a	; 0x1d1a <_ZN3twi4StopEv>
     8c2:	2f ef       	ldi	r18, 0xFF	; 255
     8c4:	81 ee       	ldi	r24, 0xE1	; 225
     8c6:	94 e0       	ldi	r25, 0x04	; 4
     8c8:	21 50       	subi	r18, 0x01	; 1
     8ca:	80 40       	sbci	r24, 0x00	; 0
     8cc:	90 40       	sbci	r25, 0x00	; 0
     8ce:	e1 f7       	brne	.-8      	; 0x8c8 <_Z8init_lcdv+0x282>
     8d0:	00 c0       	rjmp	.+0      	; 0x8d2 <_Z8init_lcdv+0x28c>
     8d2:	00 00       	nop
     8d4:	2a 96       	adiw	r28, 0x0a	; 10
     8d6:	cd bf       	out	0x3d, r28	; 61
     8d8:	de bf       	out	0x3e, r29	; 62
     8da:	df 91       	pop	r29
     8dc:	cf 91       	pop	r28
     8de:	08 95       	ret

000008e0 <_Z10lcd_putstrP10TWI_structPKc>:
     8e0:	af 92       	push	r10
     8e2:	bf 92       	push	r11
     8e4:	cf 92       	push	r12
     8e6:	df 92       	push	r13
     8e8:	ef 92       	push	r14
     8ea:	ff 92       	push	r15
     8ec:	1f 93       	push	r17
     8ee:	cf 93       	push	r28
     8f0:	df 93       	push	r29
     8f2:	cd b7       	in	r28, 0x3d	; 61
     8f4:	de b7       	in	r29, 0x3e	; 62
     8f6:	2a 97       	sbiw	r28, 0x0a	; 10
     8f8:	cd bf       	out	0x3d, r28	; 61
     8fa:	de bf       	out	0x3e, r29	; 62
     8fc:	7b 01       	movw	r14, r22
     8fe:	20 ee       	ldi	r18, 0xE0	; 224
     900:	33 e9       	ldi	r19, 0x93	; 147
     902:	44 e0       	ldi	r20, 0x04	; 4
     904:	50 e0       	ldi	r21, 0x00	; 0
     906:	60 e9       	ldi	r22, 0x90	; 144
     908:	74 e0       	ldi	r23, 0x04	; 4
     90a:	ce 01       	movw	r24, r28
     90c:	01 96       	adiw	r24, 0x01	; 1
     90e:	0e 94 dd 0d 	call	0x1bba	; 0x1bba <_ZN3twiC1EP10TWI_structm>
     912:	40 e0       	ldi	r20, 0x00	; 0
     914:	6c e7       	ldi	r22, 0x7C	; 124
     916:	ce 01       	movw	r24, r28
     918:	01 96       	adiw	r24, 0x01	; 1
     91a:	0e 94 23 0e 	call	0x1c46	; 0x1c46 <_ZN3twi7AddressEhh>
     91e:	f7 01       	movw	r30, r14
     920:	01 90       	ld	r0, Z+
     922:	00 20       	and	r0, r0
     924:	e9 f7       	brne	.-6      	; 0x920 <_Z10lcd_putstrP10TWI_structPKc+0x40>
     926:	31 97       	sbiw	r30, 0x01	; 1
     928:	6f 01       	movw	r12, r30
     92a:	ce 18       	sub	r12, r14
     92c:	df 08       	sbc	r13, r15
     92e:	49 f1       	breq	.+82     	; 0x982 <_Z10lcd_putstrP10TWI_structPKc+0xa2>
     930:	80 e0       	ldi	r24, 0x00	; 0
     932:	90 e0       	ldi	r25, 0x00	; 0
     934:	10 e0       	ldi	r17, 0x00	; 0
     936:	56 01       	movw	r10, r12
     938:	21 e0       	ldi	r18, 0x01	; 1
     93a:	a2 1a       	sub	r10, r18
     93c:	b1 08       	sbc	r11, r1
     93e:	a8 16       	cp	r10, r24
     940:	b9 06       	cpc	r11, r25
     942:	39 f4       	brne	.+14     	; 0x952 <_Z10lcd_putstrP10TWI_structPKc+0x72>
     944:	60 e4       	ldi	r22, 0x40	; 64
     946:	70 e0       	ldi	r23, 0x00	; 0
     948:	ce 01       	movw	r24, r28
     94a:	01 96       	adiw	r24, 0x01	; 1
     94c:	0e 94 51 0e 	call	0x1ca2	; 0x1ca2 <_ZN3twi11WriteSingleEi>
     950:	06 c0       	rjmp	.+12     	; 0x95e <_Z10lcd_putstrP10TWI_structPKc+0x7e>
     952:	60 ec       	ldi	r22, 0xC0	; 192
     954:	70 e0       	ldi	r23, 0x00	; 0
     956:	ce 01       	movw	r24, r28
     958:	01 96       	adiw	r24, 0x01	; 1
     95a:	0e 94 51 0e 	call	0x1ca2	; 0x1ca2 <_ZN3twi11WriteSingleEi>
     95e:	f7 01       	movw	r30, r14
     960:	61 91       	ld	r22, Z+
     962:	7f 01       	movw	r14, r30
     964:	70 e0       	ldi	r23, 0x00	; 0
     966:	ce 01       	movw	r24, r28
     968:	01 96       	adiw	r24, 0x01	; 1
     96a:	0e 94 51 0e 	call	0x1ca2	; 0x1ca2 <_ZN3twi11WriteSingleEi>
     96e:	fa e6       	ldi	r31, 0x6A	; 106
     970:	fa 95       	dec	r31
     972:	f1 f7       	brne	.-4      	; 0x970 <_Z10lcd_putstrP10TWI_structPKc+0x90>
     974:	00 c0       	rjmp	.+0      	; 0x976 <_Z10lcd_putstrP10TWI_structPKc+0x96>
     976:	1f 5f       	subi	r17, 0xFF	; 255
     978:	81 2f       	mov	r24, r17
     97a:	90 e0       	ldi	r25, 0x00	; 0
     97c:	8c 15       	cp	r24, r12
     97e:	9d 05       	cpc	r25, r13
     980:	f0 f2       	brcs	.-68     	; 0x93e <_Z10lcd_putstrP10TWI_structPKc+0x5e>
     982:	ce 01       	movw	r24, r28
     984:	01 96       	adiw	r24, 0x01	; 1
     986:	0e 94 8d 0e 	call	0x1d1a	; 0x1d1a <_ZN3twi4StopEv>
     98a:	2a 96       	adiw	r28, 0x0a	; 10
     98c:	cd bf       	out	0x3d, r28	; 61
     98e:	de bf       	out	0x3e, r29	; 62
     990:	df 91       	pop	r29
     992:	cf 91       	pop	r28
     994:	1f 91       	pop	r17
     996:	ff 90       	pop	r15
     998:	ef 90       	pop	r14
     99a:	df 90       	pop	r13
     99c:	cf 90       	pop	r12
     99e:	bf 90       	pop	r11
     9a0:	af 90       	pop	r10
     9a2:	08 95       	ret

000009a4 <_Z9lcd_clearv>:
     9a4:	cf 93       	push	r28
     9a6:	df 93       	push	r29
     9a8:	cd b7       	in	r28, 0x3d	; 61
     9aa:	de b7       	in	r29, 0x3e	; 62
     9ac:	2a 97       	sbiw	r28, 0x0a	; 10
     9ae:	cd bf       	out	0x3d, r28	; 61
     9b0:	de bf       	out	0x3e, r29	; 62
     9b2:	20 ee       	ldi	r18, 0xE0	; 224
     9b4:	33 e9       	ldi	r19, 0x93	; 147
     9b6:	44 e0       	ldi	r20, 0x04	; 4
     9b8:	50 e0       	ldi	r21, 0x00	; 0
     9ba:	60 e9       	ldi	r22, 0x90	; 144
     9bc:	74 e0       	ldi	r23, 0x04	; 4
     9be:	ce 01       	movw	r24, r28
     9c0:	01 96       	adiw	r24, 0x01	; 1
     9c2:	0e 94 dd 0d 	call	0x1bba	; 0x1bba <_ZN3twiC1EP10TWI_structm>
     9c6:	40 e0       	ldi	r20, 0x00	; 0
     9c8:	6c e7       	ldi	r22, 0x7C	; 124
     9ca:	ce 01       	movw	r24, r28
     9cc:	01 96       	adiw	r24, 0x01	; 1
     9ce:	0e 94 23 0e 	call	0x1c46	; 0x1c46 <_ZN3twi7AddressEhh>
     9d2:	60 e0       	ldi	r22, 0x00	; 0
     9d4:	70 e0       	ldi	r23, 0x00	; 0
     9d6:	ce 01       	movw	r24, r28
     9d8:	01 96       	adiw	r24, 0x01	; 1
     9da:	0e 94 51 0e 	call	0x1ca2	; 0x1ca2 <_ZN3twi11WriteSingleEi>
     9de:	61 e0       	ldi	r22, 0x01	; 1
     9e0:	70 e0       	ldi	r23, 0x00	; 0
     9e2:	ce 01       	movw	r24, r28
     9e4:	01 96       	adiw	r24, 0x01	; 1
     9e6:	0e 94 51 0e 	call	0x1ca2	; 0x1ca2 <_ZN3twi11WriteSingleEi>
     9ea:	ce 01       	movw	r24, r28
     9ec:	01 96       	adiw	r24, 0x01	; 1
     9ee:	0e 94 8d 0e 	call	0x1d1a	; 0x1d1a <_ZN3twi4StopEv>
	#else
		//round up by default
		__ticks_dc = (uint32_t)(ceil(fabs(__tmp)));
	#endif

	__builtin_avr_delay_cycles(__ticks_dc);
     9f2:	8f eb       	ldi	r24, 0xBF	; 191
     9f4:	92 e1       	ldi	r25, 0x12	; 18
     9f6:	01 97       	sbiw	r24, 0x01	; 1
     9f8:	f1 f7       	brne	.-4      	; 0x9f6 <_Z9lcd_clearv+0x52>
     9fa:	00 c0       	rjmp	.+0      	; 0x9fc <_Z9lcd_clearv+0x58>
     9fc:	00 00       	nop
     9fe:	2a 96       	adiw	r28, 0x0a	; 10
     a00:	cd bf       	out	0x3d, r28	; 61
     a02:	de bf       	out	0x3e, r29	; 62
     a04:	df 91       	pop	r29
     a06:	cf 91       	pop	r28
     a08:	08 95       	ret

00000a0a <_Z10init_motorv>:
				}
			}
		}
		else{
			motor::brake(1);
			motor::brake(2);
     a0a:	e0 e2       	ldi	r30, 0x20	; 32
     a0c:	f6 e0       	ldi	r31, 0x06	; 6
     a0e:	8f e0       	ldi	r24, 0x0F	; 15
     a10:	81 83       	std	Z+1, r24	; 0x01
     a12:	85 83       	std	Z+5, r24	; 0x05
     a14:	83 e0       	ldi	r24, 0x03	; 3
     a16:	86 83       	std	Z+6, r24	; 0x06
     a18:	08 95       	ret

00000a1a <_Z4mspihh>:
     a1a:	62 30       	cpi	r22, 0x02	; 2
     a1c:	21 f4       	brne	.+8      	; 0xa26 <_Z4mspihh+0xc>
     a1e:	98 e0       	ldi	r25, 0x08	; 8
     a20:	90 93 26 06 	sts	0x0626, r25	; 0x800626 <__TEXT_REGION_LENGTH__+0x700626>
     a24:	05 c0       	rjmp	.+10     	; 0xa30 <_Z4mspihh+0x16>
     a26:	61 30       	cpi	r22, 0x01	; 1
     a28:	91 f4       	brne	.+36     	; 0xa4e <_Z4mspihh+0x34>
     a2a:	94 e0       	ldi	r25, 0x04	; 4
     a2c:	90 93 26 06 	sts	0x0626, r25	; 0x800626 <__TEXT_REGION_LENGTH__+0x700626>
     a30:	68 2f       	mov	r22, r24
     a32:	8f e3       	ldi	r24, 0x3F	; 63
     a34:	9c e9       	ldi	r25, 0x9C	; 156
     a36:	01 97       	sbiw	r24, 0x01	; 1
     a38:	f1 f7       	brne	.-4      	; 0xa36 <_Z4mspihh+0x1c>
     a3a:	00 c0       	rjmp	.+0      	; 0xa3c <_Z4mspihh+0x22>
     a3c:	00 00       	nop
     a3e:	83 e5       	ldi	r24, 0x53	; 83
     a40:	9a e3       	ldi	r25, 0x3A	; 58
     a42:	0e 94 cd 0d 	call	0x1b9a	; 0x1b9a <_ZN3spi4sendEh>
     a46:	9c e0       	ldi	r25, 0x0C	; 12
     a48:	90 93 25 06 	sts	0x0625, r25	; 0x800625 <__TEXT_REGION_LENGTH__+0x700625>
     a4c:	08 95       	ret
     a4e:	80 e0       	ldi	r24, 0x00	; 0
     a50:	08 95       	ret

00000a52 <_Z6m_sendhhhh>:
     a52:	48 30       	cpi	r20, 0x08	; 8
     a54:	08 f0       	brcs	.+2      	; 0xa58 <_Z6m_sendhhhh+0x6>
     a56:	47 e0       	ldi	r20, 0x07	; 7
     a58:	50 e0       	ldi	r21, 0x00	; 0
     a5a:	44 0f       	add	r20, r20
     a5c:	55 1f       	adc	r21, r21
     a5e:	44 0f       	add	r20, r20
     a60:	55 1f       	adc	r21, r21
     a62:	44 0f       	add	r20, r20
     a64:	55 1f       	adc	r21, r21
     a66:	28 30       	cpi	r18, 0x08	; 8
     a68:	08 f0       	brcs	.+2      	; 0xa6c <_Z6m_sendhhhh+0x1a>
     a6a:	27 e0       	ldi	r18, 0x07	; 7
     a6c:	42 2b       	or	r20, r18
     a6e:	64 30       	cpi	r22, 0x04	; 4
     a70:	08 f0       	brcs	.+2      	; 0xa74 <_Z6m_sendhhhh+0x22>
     a72:	63 e0       	ldi	r22, 0x03	; 3
     a74:	90 e4       	ldi	r25, 0x40	; 64
     a76:	69 9f       	mul	r22, r25
     a78:	b0 01       	movw	r22, r0
     a7a:	11 24       	eor	r1, r1
     a7c:	46 2b       	or	r20, r22
     a7e:	40 93 52 3a 	sts	0x3A52, r20	; 0x803a52 <data>
     a82:	81 30       	cpi	r24, 0x01	; 1
     a84:	21 f4       	brne	.+8      	; 0xa8e <_Z6m_sendhhhh+0x3c>
     a86:	84 e0       	ldi	r24, 0x04	; 4
     a88:	80 93 26 06 	sts	0x0626, r24	; 0x800626 <__TEXT_REGION_LENGTH__+0x700626>
     a8c:	05 c0       	rjmp	.+10     	; 0xa98 <_Z6m_sendhhhh+0x46>
     a8e:	82 30       	cpi	r24, 0x02	; 2
     a90:	91 f4       	brne	.+36     	; 0xab6 <_Z6m_sendhhhh+0x64>
     a92:	88 e0       	ldi	r24, 0x08	; 8
     a94:	80 93 26 06 	sts	0x0626, r24	; 0x800626 <__TEXT_REGION_LENGTH__+0x700626>
     a98:	8f e3       	ldi	r24, 0x3F	; 63
     a9a:	9c e9       	ldi	r25, 0x9C	; 156
     a9c:	01 97       	sbiw	r24, 0x01	; 1
     a9e:	f1 f7       	brne	.-4      	; 0xa9c <_Z6m_sendhhhh+0x4a>
     aa0:	00 c0       	rjmp	.+0      	; 0xaa2 <_Z6m_sendhhhh+0x50>
     aa2:	00 00       	nop
     aa4:	60 91 52 3a 	lds	r22, 0x3A52	; 0x803a52 <data>
     aa8:	83 e5       	ldi	r24, 0x53	; 83
     aaa:	9a e3       	ldi	r25, 0x3A	; 58
     aac:	0e 94 cd 0d 	call	0x1b9a	; 0x1b9a <_ZN3spi4sendEh>
     ab0:	8c e0       	ldi	r24, 0x0C	; 12
     ab2:	80 93 25 06 	sts	0x0625, r24	; 0x800625 <__TEXT_REGION_LENGTH__+0x700625>
     ab6:	08 95       	ret

00000ab8 <_ZN5motor5brakeEh>:
     ab8:	20 e0       	ldi	r18, 0x00	; 0
     aba:	40 e0       	ldi	r20, 0x00	; 0
     abc:	63 e0       	ldi	r22, 0x03	; 3
     abe:	0e 94 29 05 	call	0xa52	; 0xa52 <_Z6m_sendhhhh>
     ac2:	08 95       	ret

00000ac4 <_ZN5motor6statusEh>:
     ac4:	68 2f       	mov	r22, r24
     ac6:	80 e0       	ldi	r24, 0x00	; 0
     ac8:	0e 94 0d 05 	call	0xa1a	; 0xa1a <_Z4mspihh>
     acc:	08 95       	ret

00000ace <_ZN5motor4waitEb>:
     ace:	0f 93       	push	r16
     ad0:	1f 93       	push	r17
     ad2:	cf 93       	push	r28
     ad4:	c8 2f       	mov	r28, r24
     ad6:	00 e0       	ldi	r16, 0x00	; 0
     ad8:	17 e0       	ldi	r17, 0x07	; 7
     ada:	61 e0       	ldi	r22, 0x01	; 1
     adc:	80 e0       	ldi	r24, 0x00	; 0
     ade:	0e 94 0d 05 	call	0xa1a	; 0xa1a <_Z4mspihh>
     ae2:	81 30       	cpi	r24, 0x01	; 1
     ae4:	99 f0       	breq	.+38     	; 0xb0c <_ZN5motor4waitEb+0x3e>
     ae6:	f8 01       	movw	r30, r16
     ae8:	80 85       	ldd	r24, Z+8	; 0x08
     aea:	85 fd       	sbrc	r24, 5
     aec:	02 c0       	rjmp	.+4      	; 0xaf2 <_ZN5motor4waitEb+0x24>
     aee:	c1 11       	cpse	r28, r1
     af0:	29 c0       	rjmp	.+82     	; 0xb44 <_ZN5motor4waitEb+0x76>
     af2:	f8 01       	movw	r30, r16
     af4:	80 85       	ldd	r24, Z+8	; 0x08
     af6:	86 fd       	sbrc	r24, 6
     af8:	02 c0       	rjmp	.+4      	; 0xafe <_ZN5motor4waitEb+0x30>
     afa:	c1 11       	cpse	r28, r1
     afc:	34 c0       	rjmp	.+104    	; 0xb66 <_ZN5motor4waitEb+0x98>
     afe:	f8 01       	movw	r30, r16
     b00:	80 85       	ldd	r24, Z+8	; 0x08
     b02:	88 23       	and	r24, r24
     b04:	54 f3       	brlt	.-44     	; 0xada <_ZN5motor4waitEb+0xc>
     b06:	cc 23       	and	r28, r28
     b08:	41 f3       	breq	.-48     	; 0xada <_ZN5motor4waitEb+0xc>
     b0a:	3e c0       	rjmp	.+124    	; 0xb88 <_ZN5motor4waitEb+0xba>
     b0c:	00 e0       	ldi	r16, 0x00	; 0
     b0e:	17 e0       	ldi	r17, 0x07	; 7
     b10:	62 e0       	ldi	r22, 0x02	; 2
     b12:	80 e0       	ldi	r24, 0x00	; 0
     b14:	0e 94 0d 05 	call	0xa1a	; 0xa1a <_Z4mspihh>
     b18:	81 30       	cpi	r24, 0x01	; 1
     b1a:	09 f4       	brne	.+2      	; 0xb1e <_ZN5motor4waitEb+0x50>
     b1c:	79 c0       	rjmp	.+242    	; 0xc10 <_ZN5motor4waitEb+0x142>
     b1e:	f8 01       	movw	r30, r16
     b20:	80 85       	ldd	r24, Z+8	; 0x08
     b22:	85 fd       	sbrc	r24, 5
     b24:	02 c0       	rjmp	.+4      	; 0xb2a <_ZN5motor4waitEb+0x5c>
     b26:	c1 11       	cpse	r28, r1
     b28:	40 c0       	rjmp	.+128    	; 0xbaa <_ZN5motor4waitEb+0xdc>
     b2a:	f8 01       	movw	r30, r16
     b2c:	80 85       	ldd	r24, Z+8	; 0x08
     b2e:	86 fd       	sbrc	r24, 6
     b30:	02 c0       	rjmp	.+4      	; 0xb36 <_ZN5motor4waitEb+0x68>
     b32:	c1 11       	cpse	r28, r1
     b34:	4b c0       	rjmp	.+150    	; 0xbcc <_ZN5motor4waitEb+0xfe>
     b36:	f8 01       	movw	r30, r16
     b38:	80 85       	ldd	r24, Z+8	; 0x08
     b3a:	88 23       	and	r24, r24
     b3c:	4c f3       	brlt	.-46     	; 0xb10 <_ZN5motor4waitEb+0x42>
     b3e:	cc 23       	and	r28, r28
     b40:	39 f3       	breq	.-50     	; 0xb10 <_ZN5motor4waitEb+0x42>
     b42:	55 c0       	rjmp	.+170    	; 0xbee <_ZN5motor4waitEb+0x120>
     b44:	81 e0       	ldi	r24, 0x01	; 1
     b46:	0e 94 34 0c 	call	0x1868	; 0x1868 <_Z8check_mvh>
     b4a:	60 e0       	ldi	r22, 0x00	; 0
     b4c:	81 e0       	ldi	r24, 0x01	; 1
     b4e:	0e 94 a5 0b 	call	0x174a	; 0x174a <_Z6mv_caphb>
     b52:	60 e0       	ldi	r22, 0x00	; 0
     b54:	82 e0       	ldi	r24, 0x02	; 2
     b56:	0e 94 a5 0b 	call	0x174a	; 0x174a <_Z6mv_caphb>
     b5a:	60 e0       	ldi	r22, 0x00	; 0
     b5c:	83 e0       	ldi	r24, 0x03	; 3
     b5e:	0e 94 a5 0b 	call	0x174a	; 0x174a <_Z6mv_caphb>
     b62:	c0 e0       	ldi	r28, 0x00	; 0
     b64:	c6 cf       	rjmp	.-116    	; 0xaf2 <_ZN5motor4waitEb+0x24>
     b66:	82 e0       	ldi	r24, 0x02	; 2
     b68:	0e 94 34 0c 	call	0x1868	; 0x1868 <_Z8check_mvh>
     b6c:	60 e0       	ldi	r22, 0x00	; 0
     b6e:	81 e0       	ldi	r24, 0x01	; 1
     b70:	0e 94 a5 0b 	call	0x174a	; 0x174a <_Z6mv_caphb>
     b74:	60 e0       	ldi	r22, 0x00	; 0
     b76:	82 e0       	ldi	r24, 0x02	; 2
     b78:	0e 94 a5 0b 	call	0x174a	; 0x174a <_Z6mv_caphb>
     b7c:	60 e0       	ldi	r22, 0x00	; 0
     b7e:	83 e0       	ldi	r24, 0x03	; 3
     b80:	0e 94 a5 0b 	call	0x174a	; 0x174a <_Z6mv_caphb>
     b84:	c0 e0       	ldi	r28, 0x00	; 0
     b86:	bb cf       	rjmp	.-138    	; 0xafe <_ZN5motor4waitEb+0x30>
     b88:	83 e0       	ldi	r24, 0x03	; 3
     b8a:	0e 94 34 0c 	call	0x1868	; 0x1868 <_Z8check_mvh>
     b8e:	60 e0       	ldi	r22, 0x00	; 0
     b90:	81 e0       	ldi	r24, 0x01	; 1
     b92:	0e 94 a5 0b 	call	0x174a	; 0x174a <_Z6mv_caphb>
     b96:	60 e0       	ldi	r22, 0x00	; 0
     b98:	82 e0       	ldi	r24, 0x02	; 2
     b9a:	0e 94 a5 0b 	call	0x174a	; 0x174a <_Z6mv_caphb>
     b9e:	60 e0       	ldi	r22, 0x00	; 0
     ba0:	83 e0       	ldi	r24, 0x03	; 3
     ba2:	0e 94 a5 0b 	call	0x174a	; 0x174a <_Z6mv_caphb>
     ba6:	c0 e0       	ldi	r28, 0x00	; 0
     ba8:	98 cf       	rjmp	.-208    	; 0xada <_ZN5motor4waitEb+0xc>
     baa:	81 e0       	ldi	r24, 0x01	; 1
     bac:	0e 94 34 0c 	call	0x1868	; 0x1868 <_Z8check_mvh>
     bb0:	60 e0       	ldi	r22, 0x00	; 0
     bb2:	81 e0       	ldi	r24, 0x01	; 1
     bb4:	0e 94 a5 0b 	call	0x174a	; 0x174a <_Z6mv_caphb>
     bb8:	60 e0       	ldi	r22, 0x00	; 0
     bba:	82 e0       	ldi	r24, 0x02	; 2
     bbc:	0e 94 a5 0b 	call	0x174a	; 0x174a <_Z6mv_caphb>
     bc0:	60 e0       	ldi	r22, 0x00	; 0
     bc2:	83 e0       	ldi	r24, 0x03	; 3
     bc4:	0e 94 a5 0b 	call	0x174a	; 0x174a <_Z6mv_caphb>
     bc8:	c0 e0       	ldi	r28, 0x00	; 0
     bca:	af cf       	rjmp	.-162    	; 0xb2a <_ZN5motor4waitEb+0x5c>
     bcc:	82 e0       	ldi	r24, 0x02	; 2
     bce:	0e 94 34 0c 	call	0x1868	; 0x1868 <_Z8check_mvh>
     bd2:	60 e0       	ldi	r22, 0x00	; 0
     bd4:	81 e0       	ldi	r24, 0x01	; 1
     bd6:	0e 94 a5 0b 	call	0x174a	; 0x174a <_Z6mv_caphb>
     bda:	60 e0       	ldi	r22, 0x00	; 0
     bdc:	82 e0       	ldi	r24, 0x02	; 2
     bde:	0e 94 a5 0b 	call	0x174a	; 0x174a <_Z6mv_caphb>
     be2:	60 e0       	ldi	r22, 0x00	; 0
     be4:	83 e0       	ldi	r24, 0x03	; 3
     be6:	0e 94 a5 0b 	call	0x174a	; 0x174a <_Z6mv_caphb>
     bea:	c0 e0       	ldi	r28, 0x00	; 0
     bec:	a4 cf       	rjmp	.-184    	; 0xb36 <_ZN5motor4waitEb+0x68>
     bee:	83 e0       	ldi	r24, 0x03	; 3
     bf0:	0e 94 34 0c 	call	0x1868	; 0x1868 <_Z8check_mvh>
     bf4:	60 e0       	ldi	r22, 0x00	; 0
     bf6:	81 e0       	ldi	r24, 0x01	; 1
     bf8:	0e 94 a5 0b 	call	0x174a	; 0x174a <_Z6mv_caphb>
     bfc:	60 e0       	ldi	r22, 0x00	; 0
     bfe:	82 e0       	ldi	r24, 0x02	; 2
     c00:	0e 94 a5 0b 	call	0x174a	; 0x174a <_Z6mv_caphb>
     c04:	60 e0       	ldi	r22, 0x00	; 0
     c06:	83 e0       	ldi	r24, 0x03	; 3
     c08:	0e 94 a5 0b 	call	0x174a	; 0x174a <_Z6mv_caphb>
     c0c:	c0 e0       	ldi	r28, 0x00	; 0
     c0e:	80 cf       	rjmp	.-256    	; 0xb10 <_ZN5motor4waitEb+0x42>
     c10:	cf 91       	pop	r28
     c12:	1f 91       	pop	r17
     c14:	0f 91       	pop	r16
     c16:	08 95       	ret

00000c18 <_ZN5motor4moveEh>:
     c18:	4f 92       	push	r4
     c1a:	5f 92       	push	r5
     c1c:	6f 92       	push	r6
     c1e:	7f 92       	push	r7
     c20:	8f 92       	push	r8
     c22:	9f 92       	push	r9
     c24:	af 92       	push	r10
     c26:	bf 92       	push	r11
     c28:	cf 92       	push	r12
     c2a:	df 92       	push	r13
     c2c:	ef 92       	push	r14
     c2e:	ff 92       	push	r15
     c30:	cf 93       	push	r28
     c32:	f8 2e       	mov	r15, r24
     c34:	8f e3       	ldi	r24, 0x3F	; 63
     c36:	9c e9       	ldi	r25, 0x9C	; 156
     c38:	01 97       	sbiw	r24, 0x01	; 1
     c3a:	f1 f7       	brne	.-4      	; 0xc38 <_ZN5motor4moveEh+0x20>
     c3c:	00 c0       	rjmp	.+0      	; 0xc3e <_ZN5motor4moveEh+0x26>
     c3e:	00 00       	nop
     c40:	0e 94 a6 02 	call	0x54c	; 0x54c <_Z10gyro_anglev>
     c44:	60 93 4e 3a 	sts	0x3A4E, r22	; 0x803a4e <_ZN5motor7b_angleE>
     c48:	70 93 4f 3a 	sts	0x3A4F, r23	; 0x803a4f <_ZN5motor7b_angleE+0x1>
     c4c:	80 93 50 3a 	sts	0x3A50, r24	; 0x803a50 <_ZN5motor7b_angleE+0x2>
     c50:	90 93 51 3a 	sts	0x3A51, r25	; 0x803a51 <_ZN5motor7b_angleE+0x3>
     c54:	8f 2d       	mov	r24, r15
     c56:	90 e0       	ldi	r25, 0x00	; 0
     c58:	8a 30       	cpi	r24, 0x0A	; 10
     c5a:	91 05       	cpc	r25, r1
     c5c:	08 f0       	brcs	.+2      	; 0xc60 <_ZN5motor4moveEh+0x48>
     c5e:	88 c1       	rjmp	.+784    	; 0xf70 <_ZN5motor4moveEh+0x358>
     c60:	fc 01       	movw	r30, r24
     c62:	88 27       	eor	r24, r24
     c64:	e2 50       	subi	r30, 0x02	; 2
     c66:	ff 4f       	sbci	r31, 0xFF	; 255
     c68:	8f 4f       	sbci	r24, 0xFF	; 255
     c6a:	0c 94 3b 11 	jmp	0x2276	; 0x2276 <__tablejump2__>
     c6e:	21 e0       	ldi	r18, 0x01	; 1
     c70:	47 e0       	ldi	r20, 0x07	; 7
     c72:	62 e0       	ldi	r22, 0x02	; 2
     c74:	82 e0       	ldi	r24, 0x02	; 2
     c76:	0e 94 29 05 	call	0xa52	; 0xa52 <_Z6m_sendhhhh>
     c7a:	21 e0       	ldi	r18, 0x01	; 1
     c7c:	47 e0       	ldi	r20, 0x07	; 7
     c7e:	62 e0       	ldi	r22, 0x02	; 2
     c80:	81 e0       	ldi	r24, 0x01	; 1
     c82:	0e 94 29 05 	call	0xa52	; 0xa52 <_Z6m_sendhhhh>
     c86:	81 e0       	ldi	r24, 0x01	; 1
     c88:	0e 94 67 05 	call	0xace	; 0xace <_ZN5motor4waitEb>
     c8c:	7a c1       	rjmp	.+756    	; 0xf82 <_ZN5motor4moveEh+0x36a>
     c8e:	22 e0       	ldi	r18, 0x02	; 2
     c90:	47 e0       	ldi	r20, 0x07	; 7
     c92:	62 e0       	ldi	r22, 0x02	; 2
     c94:	81 e0       	ldi	r24, 0x01	; 1
     c96:	0e 94 29 05 	call	0xa52	; 0xa52 <_Z6m_sendhhhh>
     c9a:	22 e0       	ldi	r18, 0x02	; 2
     c9c:	47 e0       	ldi	r20, 0x07	; 7
     c9e:	62 e0       	ldi	r22, 0x02	; 2
     ca0:	82 e0       	ldi	r24, 0x02	; 2
     ca2:	0e 94 29 05 	call	0xa52	; 0xa52 <_Z6m_sendhhhh>
     ca6:	81 e0       	ldi	r24, 0x01	; 1
     ca8:	0e 94 67 05 	call	0xace	; 0xace <_ZN5motor4waitEb>
     cac:	6a c1       	rjmp	.+724    	; 0xf82 <_ZN5motor4moveEh+0x36a>
     cae:	0e 94 a6 02 	call	0x54c	; 0x54c <_Z10gyro_anglev>
     cb2:	4b 01       	movw	r8, r22
     cb4:	5c 01       	movw	r10, r24
     cb6:	25 e0       	ldi	r18, 0x05	; 5
     cb8:	45 e0       	ldi	r20, 0x05	; 5
     cba:	62 e0       	ldi	r22, 0x02	; 2
     cbc:	81 e0       	ldi	r24, 0x01	; 1
     cbe:	0e 94 29 05 	call	0xa52	; 0xa52 <_Z6m_sendhhhh>
     cc2:	25 e0       	ldi	r18, 0x05	; 5
     cc4:	45 e0       	ldi	r20, 0x05	; 5
     cc6:	61 e0       	ldi	r22, 0x01	; 1
     cc8:	82 e0       	ldi	r24, 0x02	; 2
     cca:	0e 94 29 05 	call	0xa52	; 0xa52 <_Z6m_sendhhhh>
     cce:	9f ef       	ldi	r25, 0xFF	; 255
     cd0:	29 ef       	ldi	r18, 0xF9	; 249
     cd2:	80 e0       	ldi	r24, 0x00	; 0
     cd4:	91 50       	subi	r25, 0x01	; 1
     cd6:	20 40       	sbci	r18, 0x00	; 0
     cd8:	80 40       	sbci	r24, 0x00	; 0
     cda:	e1 f7       	brne	.-8      	; 0xcd4 <_ZN5motor4moveEh+0xbc>
     cdc:	00 c0       	rjmp	.+0      	; 0xcde <_ZN5motor4moveEh+0xc6>
     cde:	00 00       	nop
     ce0:	0e 94 a6 02 	call	0x54c	; 0x54c <_Z10gyro_anglev>
     ce4:	c1 e0       	ldi	r28, 0x01	; 1
     ce6:	0e 94 a6 02 	call	0x54c	; 0x54c <_Z10gyro_anglev>
     cea:	6b 01       	movw	r12, r22
     cec:	7c 01       	movw	r14, r24
     cee:	9b 01       	movw	r18, r22
     cf0:	ac 01       	movw	r20, r24
     cf2:	c5 01       	movw	r24, r10
     cf4:	b4 01       	movw	r22, r8
     cf6:	0e 94 ba 0f 	call	0x1f74	; 0x1f74 <__cmpsf2>
     cfa:	88 23       	and	r24, r24
     cfc:	7c f4       	brge	.+30     	; 0xd1c <_ZN5motor4moveEh+0x104>
     cfe:	a5 01       	movw	r20, r10
     d00:	94 01       	movw	r18, r8
     d02:	c7 01       	movw	r24, r14
     d04:	b6 01       	movw	r22, r12
     d06:	0e 94 4d 0f 	call	0x1e9a	; 0x1e9a <__subsf3>
     d0a:	20 e0       	ldi	r18, 0x00	; 0
     d0c:	30 e0       	ldi	r19, 0x00	; 0
     d0e:	47 e8       	ldi	r20, 0x87	; 135
     d10:	53 e4       	ldi	r21, 0x43	; 67
     d12:	0e 94 a7 10 	call	0x214e	; 0x214e <__gesf2>
     d16:	18 16       	cp	r1, r24
     d18:	34 f3       	brlt	.-52     	; 0xce6 <_ZN5motor4moveEh+0xce>
     d1a:	1e c0       	rjmp	.+60     	; 0xd58 <_ZN5motor4moveEh+0x140>
     d1c:	a5 01       	movw	r20, r10
     d1e:	94 01       	movw	r18, r8
     d20:	c7 01       	movw	r24, r14
     d22:	b6 01       	movw	r22, r12
     d24:	0e 94 4d 0f 	call	0x1e9a	; 0x1e9a <__subsf3>
     d28:	20 e0       	ldi	r18, 0x00	; 0
     d2a:	30 e0       	ldi	r19, 0x00	; 0
     d2c:	44 eb       	ldi	r20, 0xB4	; 180
     d2e:	53 e4       	ldi	r21, 0x43	; 67
     d30:	0e 94 4e 0f 	call	0x1e9c	; 0x1e9c <__addsf3>
     d34:	2b 01       	movw	r4, r22
     d36:	3c 01       	movw	r6, r24
     d38:	20 e0       	ldi	r18, 0x00	; 0
     d3a:	30 e0       	ldi	r19, 0x00	; 0
     d3c:	47 e8       	ldi	r20, 0x87	; 135
     d3e:	53 e4       	ldi	r21, 0x43	; 67
     d40:	0e 94 a7 10 	call	0x214e	; 0x214e <__gesf2>
     d44:	18 16       	cp	r1, r24
     d46:	7c f2       	brlt	.-98     	; 0xce6 <_ZN5motor4moveEh+0xce>
     d48:	a7 01       	movw	r20, r14
     d4a:	96 01       	movw	r18, r12
     d4c:	c5 01       	movw	r24, r10
     d4e:	b4 01       	movw	r22, r8
     d50:	0e 94 ba 0f 	call	0x1f74	; 0x1f74 <__cmpsf2>
     d54:	88 23       	and	r24, r24
     d56:	8c f4       	brge	.+34     	; 0xd7a <_ZN5motor4moveEh+0x162>
     d58:	a5 01       	movw	r20, r10
     d5a:	94 01       	movw	r18, r8
     d5c:	c7 01       	movw	r24, r14
     d5e:	b6 01       	movw	r22, r12
     d60:	0e 94 4d 0f 	call	0x1e9a	; 0x1e9a <__subsf3>
     d64:	20 e0       	ldi	r18, 0x00	; 0
     d66:	30 e0       	ldi	r19, 0x00	; 0
     d68:	44 eb       	ldi	r20, 0xB4	; 180
     d6a:	52 e4       	ldi	r21, 0x42	; 66
     d6c:	0e 94 ba 0f 	call	0x1f74	; 0x1f74 <__cmpsf2>
     d70:	88 0f       	add	r24, r24
     d72:	88 0b       	sbc	r24, r24
     d74:	8c 23       	and	r24, r28
     d76:	8c 27       	eor	r24, r28
     d78:	0c c0       	rjmp	.+24     	; 0xd92 <_ZN5motor4moveEh+0x17a>
     d7a:	20 e0       	ldi	r18, 0x00	; 0
     d7c:	30 e0       	ldi	r19, 0x00	; 0
     d7e:	44 eb       	ldi	r20, 0xB4	; 180
     d80:	52 e4       	ldi	r21, 0x42	; 66
     d82:	c3 01       	movw	r24, r6
     d84:	b2 01       	movw	r22, r4
     d86:	0e 94 ba 0f 	call	0x1f74	; 0x1f74 <__cmpsf2>
     d8a:	88 0f       	add	r24, r24
     d8c:	88 0b       	sbc	r24, r24
     d8e:	8c 23       	and	r24, r28
     d90:	8c 27       	eor	r24, r28
     d92:	88 23       	and	r24, r24
     d94:	09 f4       	brne	.+2      	; 0xd98 <_ZN5motor4moveEh+0x180>
     d96:	a7 cf       	rjmp	.-178    	; 0xce6 <_ZN5motor4moveEh+0xce>
     d98:	81 e0       	ldi	r24, 0x01	; 1
     d9a:	0e 94 5c 05 	call	0xab8	; 0xab8 <_ZN5motor5brakeEh>
     d9e:	82 e0       	ldi	r24, 0x02	; 2
     da0:	0e 94 5c 05 	call	0xab8	; 0xab8 <_ZN5motor5brakeEh>
     da4:	81 e0       	ldi	r24, 0x01	; 1
     da6:	0e 94 67 05 	call	0xace	; 0xace <_ZN5motor4waitEb>
     daa:	eb c0       	rjmp	.+470    	; 0xf82 <_ZN5motor4moveEh+0x36a>
     dac:	0e 94 a6 02 	call	0x54c	; 0x54c <_Z10gyro_anglev>
     db0:	4b 01       	movw	r8, r22
     db2:	5c 01       	movw	r10, r24
     db4:	25 e0       	ldi	r18, 0x05	; 5
     db6:	45 e0       	ldi	r20, 0x05	; 5
     db8:	61 e0       	ldi	r22, 0x01	; 1
     dba:	81 e0       	ldi	r24, 0x01	; 1
     dbc:	0e 94 29 05 	call	0xa52	; 0xa52 <_Z6m_sendhhhh>
     dc0:	25 e0       	ldi	r18, 0x05	; 5
     dc2:	45 e0       	ldi	r20, 0x05	; 5
     dc4:	62 e0       	ldi	r22, 0x02	; 2
     dc6:	82 e0       	ldi	r24, 0x02	; 2
     dc8:	0e 94 29 05 	call	0xa52	; 0xa52 <_Z6m_sendhhhh>
     dcc:	9f ef       	ldi	r25, 0xFF	; 255
     dce:	29 ef       	ldi	r18, 0xF9	; 249
     dd0:	80 e0       	ldi	r24, 0x00	; 0
     dd2:	91 50       	subi	r25, 0x01	; 1
     dd4:	20 40       	sbci	r18, 0x00	; 0
     dd6:	80 40       	sbci	r24, 0x00	; 0
     dd8:	e1 f7       	brne	.-8      	; 0xdd2 <_ZN5motor4moveEh+0x1ba>
     dda:	00 c0       	rjmp	.+0      	; 0xddc <_ZN5motor4moveEh+0x1c4>
     ddc:	00 00       	nop
     dde:	0e 94 a6 02 	call	0x54c	; 0x54c <_Z10gyro_anglev>
     de2:	0e 94 a6 02 	call	0x54c	; 0x54c <_Z10gyro_anglev>
     de6:	6b 01       	movw	r12, r22
     de8:	7c 01       	movw	r14, r24
     dea:	9b 01       	movw	r18, r22
     dec:	ac 01       	movw	r20, r24
     dee:	c5 01       	movw	r24, r10
     df0:	b4 01       	movw	r22, r8
     df2:	0e 94 ba 0f 	call	0x1f74	; 0x1f74 <__cmpsf2>
     df6:	88 23       	and	r24, r24
     df8:	7c f4       	brge	.+30     	; 0xe18 <_ZN5motor4moveEh+0x200>
     dfa:	a5 01       	movw	r20, r10
     dfc:	94 01       	movw	r18, r8
     dfe:	c7 01       	movw	r24, r14
     e00:	b6 01       	movw	r22, r12
     e02:	0e 94 4d 0f 	call	0x1e9a	; 0x1e9a <__subsf3>
     e06:	20 e0       	ldi	r18, 0x00	; 0
     e08:	30 e0       	ldi	r19, 0x00	; 0
     e0a:	44 eb       	ldi	r20, 0xB4	; 180
     e0c:	52 e4       	ldi	r21, 0x42	; 66
     e0e:	0e 94 ba 0f 	call	0x1f74	; 0x1f74 <__cmpsf2>
     e12:	88 23       	and	r24, r24
     e14:	34 f3       	brlt	.-52     	; 0xde2 <_ZN5motor4moveEh+0x1ca>
     e16:	1e c0       	rjmp	.+60     	; 0xe54 <_ZN5motor4moveEh+0x23c>
     e18:	a5 01       	movw	r20, r10
     e1a:	94 01       	movw	r18, r8
     e1c:	c7 01       	movw	r24, r14
     e1e:	b6 01       	movw	r22, r12
     e20:	0e 94 4d 0f 	call	0x1e9a	; 0x1e9a <__subsf3>
     e24:	20 e0       	ldi	r18, 0x00	; 0
     e26:	30 e0       	ldi	r19, 0x00	; 0
     e28:	44 eb       	ldi	r20, 0xB4	; 180
     e2a:	53 e4       	ldi	r21, 0x43	; 67
     e2c:	0e 94 4e 0f 	call	0x1e9c	; 0x1e9c <__addsf3>
     e30:	2b 01       	movw	r4, r22
     e32:	3c 01       	movw	r6, r24
     e34:	20 e0       	ldi	r18, 0x00	; 0
     e36:	30 e0       	ldi	r19, 0x00	; 0
     e38:	44 eb       	ldi	r20, 0xB4	; 180
     e3a:	52 e4       	ldi	r21, 0x42	; 66
     e3c:	0e 94 ba 0f 	call	0x1f74	; 0x1f74 <__cmpsf2>
     e40:	88 23       	and	r24, r24
     e42:	7c f2       	brlt	.-98     	; 0xde2 <_ZN5motor4moveEh+0x1ca>
     e44:	a7 01       	movw	r20, r14
     e46:	96 01       	movw	r18, r12
     e48:	c5 01       	movw	r24, r10
     e4a:	b4 01       	movw	r22, r8
     e4c:	0e 94 ba 0f 	call	0x1f74	; 0x1f74 <__cmpsf2>
     e50:	88 23       	and	r24, r24
     e52:	9c f4       	brge	.+38     	; 0xe7a <_ZN5motor4moveEh+0x262>
     e54:	a5 01       	movw	r20, r10
     e56:	94 01       	movw	r18, r8
     e58:	c7 01       	movw	r24, r14
     e5a:	b6 01       	movw	r22, r12
     e5c:	0e 94 4d 0f 	call	0x1e9a	; 0x1e9a <__subsf3>
     e60:	c1 e0       	ldi	r28, 0x01	; 1
     e62:	20 e0       	ldi	r18, 0x00	; 0
     e64:	30 e0       	ldi	r19, 0x00	; 0
     e66:	47 e8       	ldi	r20, 0x87	; 135
     e68:	53 e4       	ldi	r21, 0x43	; 67
     e6a:	0e 94 a7 10 	call	0x214e	; 0x214e <__gesf2>
     e6e:	18 16       	cp	r1, r24
     e70:	0c f0       	brlt	.+2      	; 0xe74 <_ZN5motor4moveEh+0x25c>
     e72:	c0 e0       	ldi	r28, 0x00	; 0
     e74:	81 e0       	ldi	r24, 0x01	; 1
     e76:	8c 27       	eor	r24, r28
     e78:	0e c0       	rjmp	.+28     	; 0xe96 <_ZN5motor4moveEh+0x27e>
     e7a:	c1 e0       	ldi	r28, 0x01	; 1
     e7c:	20 e0       	ldi	r18, 0x00	; 0
     e7e:	30 e0       	ldi	r19, 0x00	; 0
     e80:	47 e8       	ldi	r20, 0x87	; 135
     e82:	53 e4       	ldi	r21, 0x43	; 67
     e84:	c3 01       	movw	r24, r6
     e86:	b2 01       	movw	r22, r4
     e88:	0e 94 a7 10 	call	0x214e	; 0x214e <__gesf2>
     e8c:	18 16       	cp	r1, r24
     e8e:	0c f0       	brlt	.+2      	; 0xe92 <_ZN5motor4moveEh+0x27a>
     e90:	c0 e0       	ldi	r28, 0x00	; 0
     e92:	81 e0       	ldi	r24, 0x01	; 1
     e94:	8c 27       	eor	r24, r28
     e96:	88 23       	and	r24, r24
     e98:	09 f4       	brne	.+2      	; 0xe9c <_ZN5motor4moveEh+0x284>
     e9a:	a3 cf       	rjmp	.-186    	; 0xde2 <_ZN5motor4moveEh+0x1ca>
     e9c:	81 e0       	ldi	r24, 0x01	; 1
     e9e:	0e 94 5c 05 	call	0xab8	; 0xab8 <_ZN5motor5brakeEh>
     ea2:	82 e0       	ldi	r24, 0x02	; 2
     ea4:	0e 94 5c 05 	call	0xab8	; 0xab8 <_ZN5motor5brakeEh>
     ea8:	81 e0       	ldi	r24, 0x01	; 1
     eaa:	0e 94 67 05 	call	0xace	; 0xace <_ZN5motor4waitEb>
     eae:	69 c0       	rjmp	.+210    	; 0xf82 <_ZN5motor4moveEh+0x36a>
     eb0:	21 e0       	ldi	r18, 0x01	; 1
     eb2:	47 e0       	ldi	r20, 0x07	; 7
     eb4:	61 e0       	ldi	r22, 0x01	; 1
     eb6:	81 e0       	ldi	r24, 0x01	; 1
     eb8:	0e 94 29 05 	call	0xa52	; 0xa52 <_Z6m_sendhhhh>
     ebc:	21 e0       	ldi	r18, 0x01	; 1
     ebe:	47 e0       	ldi	r20, 0x07	; 7
     ec0:	61 e0       	ldi	r22, 0x01	; 1
     ec2:	82 e0       	ldi	r24, 0x02	; 2
     ec4:	0e 94 29 05 	call	0xa52	; 0xa52 <_Z6m_sendhhhh>
     ec8:	81 e0       	ldi	r24, 0x01	; 1
     eca:	0e 94 67 05 	call	0xace	; 0xace <_ZN5motor4waitEb>
     ece:	59 c0       	rjmp	.+178    	; 0xf82 <_ZN5motor4moveEh+0x36a>
     ed0:	22 e0       	ldi	r18, 0x02	; 2
     ed2:	47 e0       	ldi	r20, 0x07	; 7
     ed4:	61 e0       	ldi	r22, 0x01	; 1
     ed6:	81 e0       	ldi	r24, 0x01	; 1
     ed8:	0e 94 29 05 	call	0xa52	; 0xa52 <_Z6m_sendhhhh>
     edc:	22 e0       	ldi	r18, 0x02	; 2
     ede:	47 e0       	ldi	r20, 0x07	; 7
     ee0:	61 e0       	ldi	r22, 0x01	; 1
     ee2:	82 e0       	ldi	r24, 0x02	; 2
     ee4:	0e 94 29 05 	call	0xa52	; 0xa52 <_Z6m_sendhhhh>
     ee8:	81 e0       	ldi	r24, 0x01	; 1
     eea:	0e 94 67 05 	call	0xace	; 0xace <_ZN5motor4waitEb>
     eee:	49 c0       	rjmp	.+146    	; 0xf82 <_ZN5motor4moveEh+0x36a>
     ef0:	24 e0       	ldi	r18, 0x04	; 4
     ef2:	47 e0       	ldi	r20, 0x07	; 7
     ef4:	62 e0       	ldi	r22, 0x02	; 2
     ef6:	81 e0       	ldi	r24, 0x01	; 1
     ef8:	0e 94 29 05 	call	0xa52	; 0xa52 <_Z6m_sendhhhh>
     efc:	24 e0       	ldi	r18, 0x04	; 4
     efe:	47 e0       	ldi	r20, 0x07	; 7
     f00:	62 e0       	ldi	r22, 0x02	; 2
     f02:	82 e0       	ldi	r24, 0x02	; 2
     f04:	0e 94 29 05 	call	0xa52	; 0xa52 <_Z6m_sendhhhh>
     f08:	81 e0       	ldi	r24, 0x01	; 1
     f0a:	0e 94 67 05 	call	0xace	; 0xace <_ZN5motor4waitEb>
     f0e:	39 c0       	rjmp	.+114    	; 0xf82 <_ZN5motor4moveEh+0x36a>
     f10:	24 e0       	ldi	r18, 0x04	; 4
     f12:	47 e0       	ldi	r20, 0x07	; 7
     f14:	61 e0       	ldi	r22, 0x01	; 1
     f16:	81 e0       	ldi	r24, 0x01	; 1
     f18:	0e 94 29 05 	call	0xa52	; 0xa52 <_Z6m_sendhhhh>
     f1c:	24 e0       	ldi	r18, 0x04	; 4
     f1e:	47 e0       	ldi	r20, 0x07	; 7
     f20:	61 e0       	ldi	r22, 0x01	; 1
     f22:	82 e0       	ldi	r24, 0x02	; 2
     f24:	0e 94 29 05 	call	0xa52	; 0xa52 <_Z6m_sendhhhh>
     f28:	81 e0       	ldi	r24, 0x01	; 1
     f2a:	0e 94 67 05 	call	0xace	; 0xace <_ZN5motor4waitEb>
     f2e:	29 c0       	rjmp	.+82     	; 0xf82 <_ZN5motor4moveEh+0x36a>
     f30:	23 e0       	ldi	r18, 0x03	; 3
     f32:	45 e0       	ldi	r20, 0x05	; 5
     f34:	62 e0       	ldi	r22, 0x02	; 2
     f36:	81 e0       	ldi	r24, 0x01	; 1
     f38:	0e 94 29 05 	call	0xa52	; 0xa52 <_Z6m_sendhhhh>
     f3c:	23 e0       	ldi	r18, 0x03	; 3
     f3e:	45 e0       	ldi	r20, 0x05	; 5
     f40:	61 e0       	ldi	r22, 0x01	; 1
     f42:	82 e0       	ldi	r24, 0x02	; 2
     f44:	0e 94 29 05 	call	0xa52	; 0xa52 <_Z6m_sendhhhh>
     f48:	81 e0       	ldi	r24, 0x01	; 1
     f4a:	0e 94 67 05 	call	0xace	; 0xace <_ZN5motor4waitEb>
     f4e:	19 c0       	rjmp	.+50     	; 0xf82 <_ZN5motor4moveEh+0x36a>
     f50:	23 e0       	ldi	r18, 0x03	; 3
     f52:	45 e0       	ldi	r20, 0x05	; 5
     f54:	61 e0       	ldi	r22, 0x01	; 1
     f56:	81 e0       	ldi	r24, 0x01	; 1
     f58:	0e 94 29 05 	call	0xa52	; 0xa52 <_Z6m_sendhhhh>
     f5c:	23 e0       	ldi	r18, 0x03	; 3
     f5e:	45 e0       	ldi	r20, 0x05	; 5
     f60:	62 e0       	ldi	r22, 0x02	; 2
     f62:	82 e0       	ldi	r24, 0x02	; 2
     f64:	0e 94 29 05 	call	0xa52	; 0xa52 <_Z6m_sendhhhh>
     f68:	81 e0       	ldi	r24, 0x01	; 1
     f6a:	0e 94 67 05 	call	0xace	; 0xace <_ZN5motor4waitEb>
     f6e:	09 c0       	rjmp	.+18     	; 0xf82 <_ZN5motor4moveEh+0x36a>
     f70:	81 e0       	ldi	r24, 0x01	; 1
     f72:	0e 94 5c 05 	call	0xab8	; 0xab8 <_ZN5motor5brakeEh>
     f76:	82 e0       	ldi	r24, 0x02	; 2
     f78:	0e 94 5c 05 	call	0xab8	; 0xab8 <_ZN5motor5brakeEh>
     f7c:	81 e0       	ldi	r24, 0x01	; 1
     f7e:	0e 94 67 05 	call	0xace	; 0xace <_ZN5motor4waitEb>
     f82:	9f ef       	ldi	r25, 0xFF	; 255
     f84:	27 e8       	ldi	r18, 0x87	; 135
     f86:	83 e1       	ldi	r24, 0x13	; 19
     f88:	91 50       	subi	r25, 0x01	; 1
     f8a:	20 40       	sbci	r18, 0x00	; 0
     f8c:	80 40       	sbci	r24, 0x00	; 0
     f8e:	e1 f7       	brne	.-8      	; 0xf88 <_ZN5motor4moveEh+0x370>
     f90:	00 c0       	rjmp	.+0      	; 0xf92 <_ZN5motor4moveEh+0x37a>
     f92:	00 00       	nop
     f94:	cf 91       	pop	r28
     f96:	ff 90       	pop	r15
     f98:	ef 90       	pop	r14
     f9a:	df 90       	pop	r13
     f9c:	cf 90       	pop	r12
     f9e:	bf 90       	pop	r11
     fa0:	af 90       	pop	r10
     fa2:	9f 90       	pop	r9
     fa4:	8f 90       	pop	r8
     fa6:	7f 90       	pop	r7
     fa8:	6f 90       	pop	r6
     faa:	5f 90       	pop	r5
     fac:	4f 90       	pop	r4
     fae:	08 95       	ret

00000fb0 <_ZN5motor6gb_fixEv>:
     fb0:	ef 92       	push	r14
     fb2:	ff 92       	push	r15
     fb4:	0f 93       	push	r16
     fb6:	1f 93       	push	r17
     fb8:	cf 93       	push	r28
     fba:	df 93       	push	r29
     fbc:	83 e0       	ldi	r24, 0x03	; 3
     fbe:	90 e0       	ldi	r25, 0x00	; 0
     fc0:	0e 94 f3 0c 	call	0x19e6	; 0x19e6 <_Z4pingi>
     fc4:	ec 01       	movw	r28, r24
     fc6:	86 e0       	ldi	r24, 0x06	; 6
     fc8:	90 e0       	ldi	r25, 0x00	; 0
     fca:	0e 94 f3 0c 	call	0x19e6	; 0x19e6 <_Z4pingi>
     fce:	8c 01       	movw	r16, r24
     fd0:	c9 35       	cpi	r28, 0x59	; 89
     fd2:	22 e0       	ldi	r18, 0x02	; 2
     fd4:	d2 07       	cpc	r29, r18
     fd6:	0c f0       	brlt	.+2      	; 0xfda <_ZN5motor6gb_fixEv+0x2a>
     fd8:	6b c0       	rjmp	.+214    	; 0x10b0 <_ZN5motor6gb_fixEv+0x100>
     fda:	89 eb       	ldi	r24, 0xB9	; 185
     fdc:	90 e0       	ldi	r25, 0x00	; 0
     fde:	8c 1b       	sub	r24, r28
     fe0:	9d 0b       	sbc	r25, r29
     fe2:	8b 3f       	cpi	r24, 0xFB	; 251
     fe4:	2f ef       	ldi	r18, 0xFF	; 255
     fe6:	92 07       	cpc	r25, r18
     fe8:	6c f5       	brge	.+90     	; 0x1044 <_ZN5motor6gb_fixEv+0x94>
     fea:	22 e0       	ldi	r18, 0x02	; 2
     fec:	41 e0       	ldi	r20, 0x01	; 1
     fee:	62 e0       	ldi	r22, 0x02	; 2
     ff0:	81 e0       	ldi	r24, 0x01	; 1
     ff2:	0e 94 29 05 	call	0xa52	; 0xa52 <_Z6m_sendhhhh>
     ff6:	22 e0       	ldi	r18, 0x02	; 2
     ff8:	41 e0       	ldi	r20, 0x01	; 1
     ffa:	62 e0       	ldi	r22, 0x02	; 2
     ffc:	82 e0       	ldi	r24, 0x02	; 2
     ffe:	0e 94 29 05 	call	0xa52	; 0xa52 <_Z6m_sendhhhh>
    1002:	ca 5b       	subi	r28, 0xBA	; 186
    1004:	d1 09       	sbc	r29, r1
    1006:	ca 3d       	cpi	r28, 0xDA	; 218
    1008:	d0 41       	sbci	r29, 0x10	; 16
    100a:	a8 f4       	brcc	.+42     	; 0x1036 <_ZN5motor6gb_fixEv+0x86>
    100c:	22 e0       	ldi	r18, 0x02	; 2
    100e:	41 e0       	ldi	r20, 0x01	; 1
    1010:	62 e0       	ldi	r22, 0x02	; 2
    1012:	81 e0       	ldi	r24, 0x01	; 1
    1014:	0e 94 29 05 	call	0xa52	; 0xa52 <_Z6m_sendhhhh>
    1018:	22 e0       	ldi	r18, 0x02	; 2
    101a:	41 e0       	ldi	r20, 0x01	; 1
    101c:	62 e0       	ldi	r22, 0x02	; 2
    101e:	82 e0       	ldi	r24, 0x02	; 2
    1020:	0e 94 29 05 	call	0xa52	; 0xa52 <_Z6m_sendhhhh>
    1024:	83 e0       	ldi	r24, 0x03	; 3
    1026:	90 e0       	ldi	r25, 0x00	; 0
    1028:	0e 94 f3 0c 	call	0x19e6	; 0x19e6 <_Z4pingi>
    102c:	8a 5b       	subi	r24, 0xBA	; 186
    102e:	91 09       	sbc	r25, r1
    1030:	8a 3d       	cpi	r24, 0xDA	; 218
    1032:	90 41       	sbci	r25, 0x10	; 16
    1034:	58 f3       	brcs	.-42     	; 0x100c <_ZN5motor6gb_fixEv+0x5c>
    1036:	81 e0       	ldi	r24, 0x01	; 1
    1038:	0e 94 5c 05 	call	0xab8	; 0xab8 <_ZN5motor5brakeEh>
    103c:	82 e0       	ldi	r24, 0x02	; 2
    103e:	0e 94 5c 05 	call	0xab8	; 0xab8 <_ZN5motor5brakeEh>
    1042:	99 c0       	rjmp	.+306    	; 0x1176 <_ZN5motor6gb_fixEv+0x1c6>
    1044:	06 97       	sbiw	r24, 0x06	; 6
    1046:	0c f4       	brge	.+2      	; 0x104a <_ZN5motor6gb_fixEv+0x9a>
    1048:	96 c0       	rjmp	.+300    	; 0x1176 <_ZN5motor6gb_fixEv+0x1c6>
    104a:	22 e0       	ldi	r18, 0x02	; 2
    104c:	41 e0       	ldi	r20, 0x01	; 1
    104e:	61 e0       	ldi	r22, 0x01	; 1
    1050:	81 e0       	ldi	r24, 0x01	; 1
    1052:	0e 94 29 05 	call	0xa52	; 0xa52 <_Z6m_sendhhhh>
    1056:	22 e0       	ldi	r18, 0x02	; 2
    1058:	41 e0       	ldi	r20, 0x01	; 1
    105a:	61 e0       	ldi	r22, 0x01	; 1
    105c:	82 e0       	ldi	r24, 0x02	; 2
    105e:	0e 94 29 05 	call	0xa52	; 0xa52 <_Z6m_sendhhhh>
    1062:	c9 3b       	cpi	r28, 0xB9	; 185
    1064:	d1 05       	cpc	r29, r1
    1066:	ec f4       	brge	.+58     	; 0x10a2 <_ZN5motor6gb_fixEv+0xf2>
    1068:	81 e0       	ldi	r24, 0x01	; 1
    106a:	0e 94 62 05 	call	0xac4	; 0xac4 <_ZN5motor6statusEh>
    106e:	81 30       	cpi	r24, 0x01	; 1
    1070:	29 f0       	breq	.+10     	; 0x107c <_ZN5motor6gb_fixEv+0xcc>
    1072:	82 e0       	ldi	r24, 0x02	; 2
    1074:	0e 94 62 05 	call	0xac4	; 0xac4 <_ZN5motor6statusEh>
    1078:	81 30       	cpi	r24, 0x01	; 1
    107a:	61 f4       	brne	.+24     	; 0x1094 <_ZN5motor6gb_fixEv+0xe4>
    107c:	22 e0       	ldi	r18, 0x02	; 2
    107e:	41 e0       	ldi	r20, 0x01	; 1
    1080:	61 e0       	ldi	r22, 0x01	; 1
    1082:	81 e0       	ldi	r24, 0x01	; 1
    1084:	0e 94 29 05 	call	0xa52	; 0xa52 <_Z6m_sendhhhh>
    1088:	22 e0       	ldi	r18, 0x02	; 2
    108a:	41 e0       	ldi	r20, 0x01	; 1
    108c:	61 e0       	ldi	r22, 0x01	; 1
    108e:	82 e0       	ldi	r24, 0x02	; 2
    1090:	0e 94 29 05 	call	0xa52	; 0xa52 <_Z6m_sendhhhh>
    1094:	83 e0       	ldi	r24, 0x03	; 3
    1096:	90 e0       	ldi	r25, 0x00	; 0
    1098:	0e 94 f3 0c 	call	0x19e6	; 0x19e6 <_Z4pingi>
    109c:	89 3b       	cpi	r24, 0xB9	; 185
    109e:	91 05       	cpc	r25, r1
    10a0:	1c f3       	brlt	.-58     	; 0x1068 <_ZN5motor6gb_fixEv+0xb8>
    10a2:	81 e0       	ldi	r24, 0x01	; 1
    10a4:	0e 94 5c 05 	call	0xab8	; 0xab8 <_ZN5motor5brakeEh>
    10a8:	82 e0       	ldi	r24, 0x02	; 2
    10aa:	0e 94 5c 05 	call	0xab8	; 0xab8 <_ZN5motor5brakeEh>
    10ae:	63 c0       	rjmp	.+198    	; 0x1176 <_ZN5motor6gb_fixEv+0x1c6>
    10b0:	89 35       	cpi	r24, 0x59	; 89
    10b2:	92 40       	sbci	r25, 0x02	; 2
    10b4:	0c f0       	brlt	.+2      	; 0x10b8 <_ZN5motor6gb_fixEv+0x108>
    10b6:	5f c0       	rjmp	.+190    	; 0x1176 <_ZN5motor6gb_fixEv+0x1c6>
    10b8:	89 eb       	ldi	r24, 0xB9	; 185
    10ba:	90 e0       	ldi	r25, 0x00	; 0
    10bc:	80 1b       	sub	r24, r16
    10be:	91 0b       	sbc	r25, r17
    10c0:	86 30       	cpi	r24, 0x06	; 6
    10c2:	91 05       	cpc	r25, r1
    10c4:	4c f1       	brlt	.+82     	; 0x1118 <_ZN5motor6gb_fixEv+0x168>
    10c6:	22 e0       	ldi	r18, 0x02	; 2
    10c8:	41 e0       	ldi	r20, 0x01	; 1
    10ca:	62 e0       	ldi	r22, 0x02	; 2
    10cc:	81 e0       	ldi	r24, 0x01	; 1
    10ce:	0e 94 29 05 	call	0xa52	; 0xa52 <_Z6m_sendhhhh>
    10d2:	22 e0       	ldi	r18, 0x02	; 2
    10d4:	41 e0       	ldi	r20, 0x01	; 1
    10d6:	62 e0       	ldi	r22, 0x02	; 2
    10d8:	82 e0       	ldi	r24, 0x02	; 2
    10da:	0e 94 29 05 	call	0xa52	; 0xa52 <_Z6m_sendhhhh>
    10de:	09 3b       	cpi	r16, 0xB9	; 185
    10e0:	11 05       	cpc	r17, r1
    10e2:	9c f4       	brge	.+38     	; 0x110a <_ZN5motor6gb_fixEv+0x15a>
    10e4:	22 e0       	ldi	r18, 0x02	; 2
    10e6:	41 e0       	ldi	r20, 0x01	; 1
    10e8:	62 e0       	ldi	r22, 0x02	; 2
    10ea:	81 e0       	ldi	r24, 0x01	; 1
    10ec:	0e 94 29 05 	call	0xa52	; 0xa52 <_Z6m_sendhhhh>
    10f0:	22 e0       	ldi	r18, 0x02	; 2
    10f2:	41 e0       	ldi	r20, 0x01	; 1
    10f4:	62 e0       	ldi	r22, 0x02	; 2
    10f6:	82 e0       	ldi	r24, 0x02	; 2
    10f8:	0e 94 29 05 	call	0xa52	; 0xa52 <_Z6m_sendhhhh>
    10fc:	86 e0       	ldi	r24, 0x06	; 6
    10fe:	90 e0       	ldi	r25, 0x00	; 0
    1100:	0e 94 f3 0c 	call	0x19e6	; 0x19e6 <_Z4pingi>
    1104:	89 3b       	cpi	r24, 0xB9	; 185
    1106:	91 05       	cpc	r25, r1
    1108:	6c f3       	brlt	.-38     	; 0x10e4 <_ZN5motor6gb_fixEv+0x134>
    110a:	81 e0       	ldi	r24, 0x01	; 1
    110c:	0e 94 5c 05 	call	0xab8	; 0xab8 <_ZN5motor5brakeEh>
    1110:	82 e0       	ldi	r24, 0x02	; 2
    1112:	0e 94 5c 05 	call	0xab8	; 0xab8 <_ZN5motor5brakeEh>
    1116:	2f c0       	rjmp	.+94     	; 0x1176 <_ZN5motor6gb_fixEv+0x1c6>
    1118:	8b 3f       	cpi	r24, 0xFB	; 251
    111a:	9f 4f       	sbci	r25, 0xFF	; 255
    111c:	64 f5       	brge	.+88     	; 0x1176 <_ZN5motor6gb_fixEv+0x1c6>
    111e:	22 e0       	ldi	r18, 0x02	; 2
    1120:	41 e0       	ldi	r20, 0x01	; 1
    1122:	61 e0       	ldi	r22, 0x01	; 1
    1124:	81 e0       	ldi	r24, 0x01	; 1
    1126:	0e 94 29 05 	call	0xa52	; 0xa52 <_Z6m_sendhhhh>
    112a:	22 e0       	ldi	r18, 0x02	; 2
    112c:	41 e0       	ldi	r20, 0x01	; 1
    112e:	61 e0       	ldi	r22, 0x01	; 1
    1130:	82 e0       	ldi	r24, 0x02	; 2
    1132:	0e 94 29 05 	call	0xa52	; 0xa52 <_Z6m_sendhhhh>
    1136:	0a 5b       	subi	r16, 0xBA	; 186
    1138:	11 09       	sbc	r17, r1
    113a:	0a 3d       	cpi	r16, 0xDA	; 218
    113c:	10 41       	sbci	r17, 0x10	; 16
    113e:	a8 f4       	brcc	.+42     	; 0x116a <_ZN5motor6gb_fixEv+0x1ba>
    1140:	22 e0       	ldi	r18, 0x02	; 2
    1142:	41 e0       	ldi	r20, 0x01	; 1
    1144:	61 e0       	ldi	r22, 0x01	; 1
    1146:	81 e0       	ldi	r24, 0x01	; 1
    1148:	0e 94 29 05 	call	0xa52	; 0xa52 <_Z6m_sendhhhh>
    114c:	22 e0       	ldi	r18, 0x02	; 2
    114e:	41 e0       	ldi	r20, 0x01	; 1
    1150:	61 e0       	ldi	r22, 0x01	; 1
    1152:	82 e0       	ldi	r24, 0x02	; 2
    1154:	0e 94 29 05 	call	0xa52	; 0xa52 <_Z6m_sendhhhh>
    1158:	86 e0       	ldi	r24, 0x06	; 6
    115a:	90 e0       	ldi	r25, 0x00	; 0
    115c:	0e 94 f3 0c 	call	0x19e6	; 0x19e6 <_Z4pingi>
    1160:	8a 5b       	subi	r24, 0xBA	; 186
    1162:	91 09       	sbc	r25, r1
    1164:	8a 3d       	cpi	r24, 0xDA	; 218
    1166:	90 41       	sbci	r25, 0x10	; 16
    1168:	58 f3       	brcs	.-42     	; 0x1140 <_ZN5motor6gb_fixEv+0x190>
    116a:	81 e0       	ldi	r24, 0x01	; 1
    116c:	0e 94 5c 05 	call	0xab8	; 0xab8 <_ZN5motor5brakeEh>
    1170:	82 e0       	ldi	r24, 0x02	; 2
    1172:	0e 94 5c 05 	call	0xab8	; 0xab8 <_ZN5motor5brakeEh>
    1176:	df 91       	pop	r29
    1178:	cf 91       	pop	r28
    117a:	1f 91       	pop	r17
    117c:	0f 91       	pop	r16
    117e:	ff 90       	pop	r15
    1180:	ef 90       	pop	r14
    1182:	08 95       	ret

00001184 <_ZN5motor8turn_fixEh>:
    1184:	ef 92       	push	r14
    1186:	ff 92       	push	r15
    1188:	0f 93       	push	r16
    118a:	1f 93       	push	r17
    118c:	cf 93       	push	r28
    118e:	df 93       	push	r29
    1190:	81 11       	cpse	r24, r1
    1192:	27 c0       	rjmp	.+78     	; 0x11e2 <_ZN5motor8turn_fixEh+0x5e>
    1194:	82 e0       	ldi	r24, 0x02	; 2
    1196:	90 e0       	ldi	r25, 0x00	; 0
    1198:	0e 94 f3 0c 	call	0x19e6	; 0x19e6 <_Z4pingi>
    119c:	d8 2f       	mov	r29, r24
    119e:	c9 2f       	mov	r28, r25
    11a0:	81 e0       	ldi	r24, 0x01	; 1
    11a2:	90 e0       	ldi	r25, 0x00	; 0
    11a4:	0e 94 f3 0c 	call	0x19e6	; 0x19e6 <_Z4pingi>
    11a8:	2d 2f       	mov	r18, r29
    11aa:	3c 2f       	mov	r19, r28
    11ac:	82 17       	cp	r24, r18
    11ae:	93 07       	cpc	r25, r19
    11b0:	0c f4       	brge	.+2      	; 0x11b4 <_ZN5motor8turn_fixEh+0x30>
    11b2:	9c 01       	movw	r18, r24
    11b4:	28 35       	cpi	r18, 0x58	; 88
    11b6:	32 40       	sbci	r19, 0x02	; 2
    11b8:	a4 f0       	brlt	.+40     	; 0x11e2 <_ZN5motor8turn_fixEh+0x5e>
    11ba:	85 e0       	ldi	r24, 0x05	; 5
    11bc:	90 e0       	ldi	r25, 0x00	; 0
    11be:	0e 94 f3 0c 	call	0x19e6	; 0x19e6 <_Z4pingi>
    11c2:	d8 2f       	mov	r29, r24
    11c4:	c9 2f       	mov	r28, r25
    11c6:	84 e0       	ldi	r24, 0x04	; 4
    11c8:	90 e0       	ldi	r25, 0x00	; 0
    11ca:	0e 94 f3 0c 	call	0x19e6	; 0x19e6 <_Z4pingi>
    11ce:	2d 2f       	mov	r18, r29
    11d0:	3c 2f       	mov	r19, r28
    11d2:	82 17       	cp	r24, r18
    11d4:	93 07       	cpc	r25, r19
    11d6:	0c f4       	brge	.+2      	; 0x11da <_ZN5motor8turn_fixEh+0x56>
    11d8:	9c 01       	movw	r18, r24
    11da:	28 35       	cpi	r18, 0x58	; 88
    11dc:	32 40       	sbci	r19, 0x02	; 2
    11de:	0c f0       	brlt	.+2      	; 0x11e2 <_ZN5motor8turn_fixEh+0x5e>
    11e0:	fb c0       	rjmp	.+502    	; 0x13d8 <_ZN5motor8turn_fixEh+0x254>
    11e2:	82 e0       	ldi	r24, 0x02	; 2
    11e4:	90 e0       	ldi	r25, 0x00	; 0
    11e6:	0e 94 f3 0c 	call	0x19e6	; 0x19e6 <_Z4pingi>
    11ea:	d8 2f       	mov	r29, r24
    11ec:	c9 2f       	mov	r28, r25
    11ee:	81 e0       	ldi	r24, 0x01	; 1
    11f0:	90 e0       	ldi	r25, 0x00	; 0
    11f2:	0e 94 f3 0c 	call	0x19e6	; 0x19e6 <_Z4pingi>
    11f6:	2d 2f       	mov	r18, r29
    11f8:	3c 2f       	mov	r19, r28
    11fa:	82 17       	cp	r24, r18
    11fc:	93 07       	cpc	r25, r19
    11fe:	0c f4       	brge	.+2      	; 0x1202 <_ZN5motor8turn_fixEh+0x7e>
    1200:	9c 01       	movw	r18, r24
    1202:	29 35       	cpi	r18, 0x59	; 89
    1204:	32 40       	sbci	r19, 0x02	; 2
    1206:	84 f4       	brge	.+32     	; 0x1228 <_ZN5motor8turn_fixEh+0xa4>
    1208:	82 e0       	ldi	r24, 0x02	; 2
    120a:	90 e0       	ldi	r25, 0x00	; 0
    120c:	0e 94 f3 0c 	call	0x19e6	; 0x19e6 <_Z4pingi>
    1210:	89 35       	cpi	r24, 0x59	; 89
    1212:	92 40       	sbci	r25, 0x02	; 2
    1214:	08 f0       	brcs	.+2      	; 0x1218 <_ZN5motor8turn_fixEh+0x94>
    1216:	e0 c0       	rjmp	.+448    	; 0x13d8 <_ZN5motor8turn_fixEh+0x254>
    1218:	81 e0       	ldi	r24, 0x01	; 1
    121a:	90 e0       	ldi	r25, 0x00	; 0
    121c:	0e 94 f3 0c 	call	0x19e6	; 0x19e6 <_Z4pingi>
    1220:	89 35       	cpi	r24, 0x59	; 89
    1222:	92 40       	sbci	r25, 0x02	; 2
    1224:	08 f0       	brcs	.+2      	; 0x1228 <_ZN5motor8turn_fixEh+0xa4>
    1226:	d8 c0       	rjmp	.+432    	; 0x13d8 <_ZN5motor8turn_fixEh+0x254>
    1228:	84 e0       	ldi	r24, 0x04	; 4
    122a:	90 e0       	ldi	r25, 0x00	; 0
    122c:	0e 94 f3 0c 	call	0x19e6	; 0x19e6 <_Z4pingi>
    1230:	d8 2f       	mov	r29, r24
    1232:	c9 2f       	mov	r28, r25
    1234:	85 e0       	ldi	r24, 0x05	; 5
    1236:	90 e0       	ldi	r25, 0x00	; 0
    1238:	0e 94 f3 0c 	call	0x19e6	; 0x19e6 <_Z4pingi>
    123c:	2d 2f       	mov	r18, r29
    123e:	3c 2f       	mov	r19, r28
    1240:	82 17       	cp	r24, r18
    1242:	93 07       	cpc	r25, r19
    1244:	0c f4       	brge	.+2      	; 0x1248 <_ZN5motor8turn_fixEh+0xc4>
    1246:	9c 01       	movw	r18, r24
    1248:	29 35       	cpi	r18, 0x59	; 89
    124a:	32 40       	sbci	r19, 0x02	; 2
    124c:	84 f4       	brge	.+32     	; 0x126e <_ZN5motor8turn_fixEh+0xea>
    124e:	85 e0       	ldi	r24, 0x05	; 5
    1250:	90 e0       	ldi	r25, 0x00	; 0
    1252:	0e 94 f3 0c 	call	0x19e6	; 0x19e6 <_Z4pingi>
    1256:	89 35       	cpi	r24, 0x59	; 89
    1258:	92 40       	sbci	r25, 0x02	; 2
    125a:	08 f0       	brcs	.+2      	; 0x125e <_ZN5motor8turn_fixEh+0xda>
    125c:	bd c0       	rjmp	.+378    	; 0x13d8 <_ZN5motor8turn_fixEh+0x254>
    125e:	84 e0       	ldi	r24, 0x04	; 4
    1260:	90 e0       	ldi	r25, 0x00	; 0
    1262:	0e 94 f3 0c 	call	0x19e6	; 0x19e6 <_Z4pingi>
    1266:	89 35       	cpi	r24, 0x59	; 89
    1268:	92 40       	sbci	r25, 0x02	; 2
    126a:	08 f0       	brcs	.+2      	; 0x126e <_ZN5motor8turn_fixEh+0xea>
    126c:	b5 c0       	rjmp	.+362    	; 0x13d8 <_ZN5motor8turn_fixEh+0x254>
    126e:	82 e0       	ldi	r24, 0x02	; 2
    1270:	90 e0       	ldi	r25, 0x00	; 0
    1272:	0e 94 f3 0c 	call	0x19e6	; 0x19e6 <_Z4pingi>
    1276:	8c 01       	movw	r16, r24
    1278:	81 e0       	ldi	r24, 0x01	; 1
    127a:	90 e0       	ldi	r25, 0x00	; 0
    127c:	0e 94 f3 0c 	call	0x19e6	; 0x19e6 <_Z4pingi>
    1280:	80 0f       	add	r24, r16
    1282:	91 1f       	adc	r25, r17
    1284:	8c 01       	movw	r16, r24
    1286:	16 95       	lsr	r17
    1288:	07 95       	ror	r16
    128a:	85 e0       	ldi	r24, 0x05	; 5
    128c:	90 e0       	ldi	r25, 0x00	; 0
    128e:	0e 94 f3 0c 	call	0x19e6	; 0x19e6 <_Z4pingi>
    1292:	ec 01       	movw	r28, r24
    1294:	84 e0       	ldi	r24, 0x04	; 4
    1296:	90 e0       	ldi	r25, 0x00	; 0
    1298:	0e 94 f3 0c 	call	0x19e6	; 0x19e6 <_Z4pingi>
    129c:	8c 0f       	add	r24, r28
    129e:	9d 1f       	adc	r25, r29
    12a0:	ec 01       	movw	r28, r24
    12a2:	d6 95       	lsr	r29
    12a4:	c7 95       	ror	r28
    12a6:	0e 94 d2 04 	call	0x9a4	; 0x9a4 <_Z9lcd_clearv>
    12aa:	67 e5       	ldi	r22, 0x57	; 87
    12ac:	70 e2       	ldi	r23, 0x20	; 32
    12ae:	80 eb       	ldi	r24, 0xB0	; 176
    12b0:	94 e0       	ldi	r25, 0x04	; 4
    12b2:	0e 94 70 04 	call	0x8e0	; 0x8e0 <_Z10lcd_putstrP10TWI_structPKc>
    12b6:	0c 17       	cp	r16, r28
    12b8:	1d 07       	cpc	r17, r29
    12ba:	4c f0       	brlt	.+18     	; 0x12ce <_ZN5motor8turn_fixEh+0x14a>
    12bc:	c0 17       	cp	r28, r16
    12be:	d1 07       	cpc	r29, r17
    12c0:	5c f4       	brge	.+22     	; 0x12d8 <_ZN5motor8turn_fixEh+0x154>
    12c2:	0f 2e       	mov	r0, r31
    12c4:	f5 e0       	ldi	r31, 0x05	; 5
    12c6:	ef 2e       	mov	r14, r31
    12c8:	f0 2d       	mov	r31, r0
    12ca:	04 e0       	ldi	r16, 0x04	; 4
    12cc:	07 c0       	rjmp	.+14     	; 0x12dc <_ZN5motor8turn_fixEh+0x158>
    12ce:	68 94       	set
    12d0:	ee 24       	eor	r14, r14
    12d2:	e1 f8       	bld	r14, 1
    12d4:	01 e0       	ldi	r16, 0x01	; 1
    12d6:	02 c0       	rjmp	.+4      	; 0x12dc <_ZN5motor8turn_fixEh+0x158>
    12d8:	e1 2c       	mov	r14, r1
    12da:	00 e0       	ldi	r16, 0x00	; 0
    12dc:	10 e0       	ldi	r17, 0x00	; 0
    12de:	c8 01       	movw	r24, r16
    12e0:	0e 94 f3 0c 	call	0x19e6	; 0x19e6 <_Z4pingi>
    12e4:	ec 01       	movw	r28, r24
    12e6:	f1 2c       	mov	r15, r1
    12e8:	c7 01       	movw	r24, r14
    12ea:	0e 94 f3 0c 	call	0x19e6	; 0x19e6 <_Z4pingi>
    12ee:	9e 01       	movw	r18, r28
    12f0:	28 1b       	sub	r18, r24
    12f2:	39 0b       	sbc	r19, r25
    12f4:	c9 01       	movw	r24, r18
    12f6:	8f 3f       	cpi	r24, 0xFF	; 255
    12f8:	3f ef       	ldi	r19, 0xFF	; 255
    12fa:	93 07       	cpc	r25, r19
    12fc:	7c f5       	brge	.+94     	; 0x135c <_ZN5motor8turn_fixEh+0x1d8>
    12fe:	22 e0       	ldi	r18, 0x02	; 2
    1300:	41 e0       	ldi	r20, 0x01	; 1
    1302:	61 e0       	ldi	r22, 0x01	; 1
    1304:	81 e0       	ldi	r24, 0x01	; 1
    1306:	0e 94 29 05 	call	0xa52	; 0xa52 <_Z6m_sendhhhh>
    130a:	22 e0       	ldi	r18, 0x02	; 2
    130c:	41 e0       	ldi	r20, 0x01	; 1
    130e:	62 e0       	ldi	r22, 0x02	; 2
    1310:	82 e0       	ldi	r24, 0x02	; 2
    1312:	0e 94 29 05 	call	0xa52	; 0xa52 <_Z6m_sendhhhh>
    1316:	c8 01       	movw	r24, r16
    1318:	0e 94 f3 0c 	call	0x19e6	; 0x19e6 <_Z4pingi>
    131c:	ec 01       	movw	r28, r24
    131e:	c7 01       	movw	r24, r14
    1320:	0e 94 f3 0c 	call	0x19e6	; 0x19e6 <_Z4pingi>
    1324:	c8 1b       	sub	r28, r24
    1326:	d9 0b       	sbc	r29, r25
    1328:	81 e0       	ldi	r24, 0x01	; 1
    132a:	0e 94 62 05 	call	0xac4	; 0xac4 <_ZN5motor6statusEh>
    132e:	81 30       	cpi	r24, 0x01	; 1
    1330:	29 f0       	breq	.+10     	; 0x133c <_ZN5motor8turn_fixEh+0x1b8>
    1332:	82 e0       	ldi	r24, 0x02	; 2
    1334:	0e 94 62 05 	call	0xac4	; 0xac4 <_ZN5motor6statusEh>
    1338:	81 30       	cpi	r24, 0x01	; 1
    133a:	61 f4       	brne	.+24     	; 0x1354 <_ZN5motor8turn_fixEh+0x1d0>
    133c:	22 e0       	ldi	r18, 0x02	; 2
    133e:	41 e0       	ldi	r20, 0x01	; 1
    1340:	61 e0       	ldi	r22, 0x01	; 1
    1342:	81 e0       	ldi	r24, 0x01	; 1
    1344:	0e 94 29 05 	call	0xa52	; 0xa52 <_Z6m_sendhhhh>
    1348:	22 e0       	ldi	r18, 0x02	; 2
    134a:	41 e0       	ldi	r20, 0x01	; 1
    134c:	62 e0       	ldi	r22, 0x02	; 2
    134e:	82 e0       	ldi	r24, 0x02	; 2
    1350:	0e 94 29 05 	call	0xa52	; 0xa52 <_Z6m_sendhhhh>
    1354:	1c 16       	cp	r1, r28
    1356:	1d 06       	cpc	r1, r29
    1358:	f4 f6       	brge	.-68     	; 0x1316 <_ZN5motor8turn_fixEh+0x192>
    135a:	33 c0       	rjmp	.+102    	; 0x13c2 <_ZN5motor8turn_fixEh+0x23e>
    135c:	02 97       	sbiw	r24, 0x02	; 2
    135e:	74 f1       	brlt	.+92     	; 0x13bc <_ZN5motor8turn_fixEh+0x238>
    1360:	22 e0       	ldi	r18, 0x02	; 2
    1362:	41 e0       	ldi	r20, 0x01	; 1
    1364:	62 e0       	ldi	r22, 0x02	; 2
    1366:	81 e0       	ldi	r24, 0x01	; 1
    1368:	0e 94 29 05 	call	0xa52	; 0xa52 <_Z6m_sendhhhh>
    136c:	22 e0       	ldi	r18, 0x02	; 2
    136e:	41 e0       	ldi	r20, 0x01	; 1
    1370:	61 e0       	ldi	r22, 0x01	; 1
    1372:	82 e0       	ldi	r24, 0x02	; 2
    1374:	0e 94 29 05 	call	0xa52	; 0xa52 <_Z6m_sendhhhh>
    1378:	c8 01       	movw	r24, r16
    137a:	0e 94 f3 0c 	call	0x19e6	; 0x19e6 <_Z4pingi>
    137e:	ec 01       	movw	r28, r24
    1380:	c7 01       	movw	r24, r14
    1382:	0e 94 f3 0c 	call	0x19e6	; 0x19e6 <_Z4pingi>
    1386:	c8 1b       	sub	r28, r24
    1388:	d9 0b       	sbc	r29, r25
    138a:	81 e0       	ldi	r24, 0x01	; 1
    138c:	0e 94 62 05 	call	0xac4	; 0xac4 <_ZN5motor6statusEh>
    1390:	81 30       	cpi	r24, 0x01	; 1
    1392:	29 f0       	breq	.+10     	; 0x139e <_ZN5motor8turn_fixEh+0x21a>
    1394:	82 e0       	ldi	r24, 0x02	; 2
    1396:	0e 94 62 05 	call	0xac4	; 0xac4 <_ZN5motor6statusEh>
    139a:	81 30       	cpi	r24, 0x01	; 1
    139c:	61 f4       	brne	.+24     	; 0x13b6 <_ZN5motor8turn_fixEh+0x232>
    139e:	22 e0       	ldi	r18, 0x02	; 2
    13a0:	41 e0       	ldi	r20, 0x01	; 1
    13a2:	62 e0       	ldi	r22, 0x02	; 2
    13a4:	81 e0       	ldi	r24, 0x01	; 1
    13a6:	0e 94 29 05 	call	0xa52	; 0xa52 <_Z6m_sendhhhh>
    13aa:	22 e0       	ldi	r18, 0x02	; 2
    13ac:	41 e0       	ldi	r20, 0x01	; 1
    13ae:	61 e0       	ldi	r22, 0x01	; 1
    13b0:	82 e0       	ldi	r24, 0x02	; 2
    13b2:	0e 94 29 05 	call	0xa52	; 0xa52 <_Z6m_sendhhhh>
    13b6:	22 97       	sbiw	r28, 0x02	; 2
    13b8:	fc f6       	brge	.-66     	; 0x1378 <_ZN5motor8turn_fixEh+0x1f4>
    13ba:	03 c0       	rjmp	.+6      	; 0x13c2 <_ZN5motor8turn_fixEh+0x23e>
    13bc:	0e 94 d2 04 	call	0x9a4	; 0x9a4 <_Z9lcd_clearv>
    13c0:	0b c0       	rjmp	.+22     	; 0x13d8 <_ZN5motor8turn_fixEh+0x254>
    13c2:	81 e0       	ldi	r24, 0x01	; 1
    13c4:	0e 94 5c 05 	call	0xab8	; 0xab8 <_ZN5motor5brakeEh>
    13c8:	82 e0       	ldi	r24, 0x02	; 2
    13ca:	0e 94 5c 05 	call	0xab8	; 0xab8 <_ZN5motor5brakeEh>
    13ce:	81 e0       	ldi	r24, 0x01	; 1
    13d0:	0e 94 67 05 	call	0xace	; 0xace <_ZN5motor4waitEb>
    13d4:	0e 94 d2 04 	call	0x9a4	; 0x9a4 <_Z9lcd_clearv>
    13d8:	df 91       	pop	r29
    13da:	cf 91       	pop	r28
    13dc:	1f 91       	pop	r17
    13de:	0f 91       	pop	r16
    13e0:	ff 90       	pop	r15
    13e2:	ef 90       	pop	r14
    13e4:	08 95       	ret

000013e6 <_ZN5motor9fix_angleEv>:
    13e6:	8f 92       	push	r8
    13e8:	9f 92       	push	r9
    13ea:	af 92       	push	r10
    13ec:	bf 92       	push	r11
    13ee:	cf 92       	push	r12
    13f0:	df 92       	push	r13
    13f2:	ef 92       	push	r14
    13f4:	ff 92       	push	r15
    13f6:	cf 93       	push	r28
    13f8:	df 93       	push	r29
    13fa:	0e 94 a6 02 	call	0x54c	; 0x54c <_Z10gyro_anglev>
    13fe:	20 91 4e 3a 	lds	r18, 0x3A4E	; 0x803a4e <_ZN5motor7b_angleE>
    1402:	30 91 4f 3a 	lds	r19, 0x3A4F	; 0x803a4f <_ZN5motor7b_angleE+0x1>
    1406:	40 91 50 3a 	lds	r20, 0x3A50	; 0x803a50 <_ZN5motor7b_angleE+0x2>
    140a:	50 91 51 3a 	lds	r21, 0x3A51	; 0x803a51 <_ZN5motor7b_angleE+0x3>
    140e:	0e 94 4d 0f 	call	0x1e9a	; 0x1e9a <__subsf3>
    1412:	4b 01       	movw	r8, r22
    1414:	5c 01       	movw	r10, r24
    1416:	0e 94 bf 0f 	call	0x1f7e	; 0x1f7e <__fixsfsi>
    141a:	6b 01       	movw	r12, r22
    141c:	7c 01       	movw	r14, r24
    141e:	cb 01       	movw	r24, r22
    1420:	b6 01       	movw	r22, r12
    1422:	99 23       	and	r25, r25
    1424:	24 f4       	brge	.+8      	; 0x142e <_ZN5motor9fix_angleEv+0x48>
    1426:	66 27       	eor	r22, r22
    1428:	77 27       	eor	r23, r23
    142a:	6c 19       	sub	r22, r12
    142c:	7d 09       	sbc	r23, r13
    142e:	eb 01       	movw	r28, r22
    1430:	07 2e       	mov	r0, r23
    1432:	00 0c       	add	r0, r0
    1434:	88 0b       	sbc	r24, r24
    1436:	99 0b       	sbc	r25, r25
    1438:	0e 94 f7 0f 	call	0x1fee	; 0x1fee <__floatsisf>
    143c:	20 e0       	ldi	r18, 0x00	; 0
    143e:	30 e0       	ldi	r19, 0x00	; 0
    1440:	40 e8       	ldi	r20, 0x80	; 128
    1442:	5f e3       	ldi	r21, 0x3F	; 63
    1444:	0e 94 a7 10 	call	0x214e	; 0x214e <__gesf2>
    1448:	18 16       	cp	r1, r24
    144a:	0c f0       	brlt	.+2      	; 0x144e <_ZN5motor9fix_angleEv+0x68>
    144c:	55 c1       	rjmp	.+682    	; 0x16f8 <_ZN5motor9fix_angleEv+0x312>
    144e:	20 e0       	ldi	r18, 0x00	; 0
    1450:	30 e0       	ldi	r19, 0x00	; 0
    1452:	a9 01       	movw	r20, r18
    1454:	c5 01       	movw	r24, r10
    1456:	b4 01       	movw	r22, r8
    1458:	0e 94 a7 10 	call	0x214e	; 0x214e <__gesf2>
    145c:	18 16       	cp	r1, r24
    145e:	0c f0       	brlt	.+2      	; 0x1462 <_ZN5motor9fix_angleEv+0x7c>
    1460:	a1 c0       	rjmp	.+322    	; 0x15a4 <_ZN5motor9fix_angleEv+0x1be>
    1462:	84 eb       	ldi	r24, 0xB4	; 180
    1464:	c8 0e       	add	r12, r24
    1466:	d1 1c       	adc	r13, r1
    1468:	89 e6       	ldi	r24, 0x69	; 105
    146a:	c8 16       	cp	r12, r24
    146c:	81 e0       	ldi	r24, 0x01	; 1
    146e:	d8 06       	cpc	r13, r24
    1470:	08 f0       	brcs	.+2      	; 0x1474 <_ZN5motor9fix_angleEv+0x8e>
    1472:	4a c0       	rjmp	.+148    	; 0x1508 <_ZN5motor9fix_angleEv+0x122>
    1474:	23 e0       	ldi	r18, 0x03	; 3
    1476:	41 e0       	ldi	r20, 0x01	; 1
    1478:	62 e0       	ldi	r22, 0x02	; 2
    147a:	81 e0       	ldi	r24, 0x01	; 1
    147c:	0e 94 29 05 	call	0xa52	; 0xa52 <_Z6m_sendhhhh>
    1480:	23 e0       	ldi	r18, 0x03	; 3
    1482:	41 e0       	ldi	r20, 0x01	; 1
    1484:	61 e0       	ldi	r22, 0x01	; 1
    1486:	82 e0       	ldi	r24, 0x02	; 2
    1488:	0e 94 29 05 	call	0xa52	; 0xa52 <_Z6m_sendhhhh>
    148c:	0e 94 a6 02 	call	0x54c	; 0x54c <_Z10gyro_anglev>
    1490:	6b 01       	movw	r12, r22
    1492:	7c 01       	movw	r14, r24
    1494:	81 e0       	ldi	r24, 0x01	; 1
    1496:	0e 94 62 05 	call	0xac4	; 0xac4 <_ZN5motor6statusEh>
    149a:	81 30       	cpi	r24, 0x01	; 1
    149c:	29 f0       	breq	.+10     	; 0x14a8 <_ZN5motor9fix_angleEv+0xc2>
    149e:	82 e0       	ldi	r24, 0x02	; 2
    14a0:	0e 94 62 05 	call	0xac4	; 0xac4 <_ZN5motor6statusEh>
    14a4:	81 30       	cpi	r24, 0x01	; 1
    14a6:	61 f4       	brne	.+24     	; 0x14c0 <_ZN5motor9fix_angleEv+0xda>
    14a8:	23 e0       	ldi	r18, 0x03	; 3
    14aa:	41 e0       	ldi	r20, 0x01	; 1
    14ac:	62 e0       	ldi	r22, 0x02	; 2
    14ae:	81 e0       	ldi	r24, 0x01	; 1
    14b0:	0e 94 29 05 	call	0xa52	; 0xa52 <_Z6m_sendhhhh>
    14b4:	23 e0       	ldi	r18, 0x03	; 3
    14b6:	41 e0       	ldi	r20, 0x01	; 1
    14b8:	61 e0       	ldi	r22, 0x01	; 1
    14ba:	82 e0       	ldi	r24, 0x02	; 2
    14bc:	0e 94 29 05 	call	0xa52	; 0xa52 <_Z6m_sendhhhh>
    14c0:	20 91 4e 3a 	lds	r18, 0x3A4E	; 0x803a4e <_ZN5motor7b_angleE>
    14c4:	30 91 4f 3a 	lds	r19, 0x3A4F	; 0x803a4f <_ZN5motor7b_angleE+0x1>
    14c8:	40 91 50 3a 	lds	r20, 0x3A50	; 0x803a50 <_ZN5motor7b_angleE+0x2>
    14cc:	50 91 51 3a 	lds	r21, 0x3A51	; 0x803a51 <_ZN5motor7b_angleE+0x3>
    14d0:	c7 01       	movw	r24, r14
    14d2:	b6 01       	movw	r22, r12
    14d4:	0e 94 4d 0f 	call	0x1e9a	; 0x1e9a <__subsf3>
    14d8:	0e 94 bf 0f 	call	0x1f7e	; 0x1f7e <__fixsfsi>
    14dc:	9b 01       	movw	r18, r22
    14de:	77 23       	and	r23, r23
    14e0:	24 f4       	brge	.+8      	; 0x14ea <_ZN5motor9fix_angleEv+0x104>
    14e2:	22 27       	eor	r18, r18
    14e4:	33 27       	eor	r19, r19
    14e6:	26 1b       	sub	r18, r22
    14e8:	37 0b       	sbc	r19, r23
    14ea:	b9 01       	movw	r22, r18
    14ec:	33 0f       	add	r19, r19
    14ee:	88 0b       	sbc	r24, r24
    14f0:	99 0b       	sbc	r25, r25
    14f2:	0e 94 f7 0f 	call	0x1fee	; 0x1fee <__floatsisf>
    14f6:	20 e0       	ldi	r18, 0x00	; 0
    14f8:	30 e0       	ldi	r19, 0x00	; 0
    14fa:	40 e8       	ldi	r20, 0x80	; 128
    14fc:	5f e3       	ldi	r21, 0x3F	; 63
    14fe:	0e 94 a7 10 	call	0x214e	; 0x214e <__gesf2>
    1502:	18 16       	cp	r1, r24
    1504:	1c f2       	brlt	.-122    	; 0x148c <_ZN5motor9fix_angleEv+0xa6>
    1506:	f8 c0       	rjmp	.+496    	; 0x16f8 <_ZN5motor9fix_angleEv+0x312>
    1508:	c5 3b       	cpi	r28, 0xB5	; 181
    150a:	d1 05       	cpc	r29, r1
    150c:	0c f4       	brge	.+2      	; 0x1510 <_ZN5motor9fix_angleEv+0x12a>
    150e:	f4 c0       	rjmp	.+488    	; 0x16f8 <_ZN5motor9fix_angleEv+0x312>
    1510:	23 e0       	ldi	r18, 0x03	; 3
    1512:	41 e0       	ldi	r20, 0x01	; 1
    1514:	61 e0       	ldi	r22, 0x01	; 1
    1516:	81 e0       	ldi	r24, 0x01	; 1
    1518:	0e 94 29 05 	call	0xa52	; 0xa52 <_Z6m_sendhhhh>
    151c:	23 e0       	ldi	r18, 0x03	; 3
    151e:	41 e0       	ldi	r20, 0x01	; 1
    1520:	62 e0       	ldi	r22, 0x02	; 2
    1522:	82 e0       	ldi	r24, 0x02	; 2
    1524:	0e 94 29 05 	call	0xa52	; 0xa52 <_Z6m_sendhhhh>
    1528:	0e 94 a6 02 	call	0x54c	; 0x54c <_Z10gyro_anglev>
    152c:	6b 01       	movw	r12, r22
    152e:	7c 01       	movw	r14, r24
    1530:	81 e0       	ldi	r24, 0x01	; 1
    1532:	0e 94 62 05 	call	0xac4	; 0xac4 <_ZN5motor6statusEh>
    1536:	81 30       	cpi	r24, 0x01	; 1
    1538:	29 f0       	breq	.+10     	; 0x1544 <_ZN5motor9fix_angleEv+0x15e>
    153a:	82 e0       	ldi	r24, 0x02	; 2
    153c:	0e 94 62 05 	call	0xac4	; 0xac4 <_ZN5motor6statusEh>
    1540:	81 30       	cpi	r24, 0x01	; 1
    1542:	61 f4       	brne	.+24     	; 0x155c <_ZN5motor9fix_angleEv+0x176>
    1544:	23 e0       	ldi	r18, 0x03	; 3
    1546:	41 e0       	ldi	r20, 0x01	; 1
    1548:	61 e0       	ldi	r22, 0x01	; 1
    154a:	81 e0       	ldi	r24, 0x01	; 1
    154c:	0e 94 29 05 	call	0xa52	; 0xa52 <_Z6m_sendhhhh>
    1550:	23 e0       	ldi	r18, 0x03	; 3
    1552:	41 e0       	ldi	r20, 0x01	; 1
    1554:	62 e0       	ldi	r22, 0x02	; 2
    1556:	82 e0       	ldi	r24, 0x02	; 2
    1558:	0e 94 29 05 	call	0xa52	; 0xa52 <_Z6m_sendhhhh>
    155c:	20 91 4e 3a 	lds	r18, 0x3A4E	; 0x803a4e <_ZN5motor7b_angleE>
    1560:	30 91 4f 3a 	lds	r19, 0x3A4F	; 0x803a4f <_ZN5motor7b_angleE+0x1>
    1564:	40 91 50 3a 	lds	r20, 0x3A50	; 0x803a50 <_ZN5motor7b_angleE+0x2>
    1568:	50 91 51 3a 	lds	r21, 0x3A51	; 0x803a51 <_ZN5motor7b_angleE+0x3>
    156c:	c7 01       	movw	r24, r14
    156e:	b6 01       	movw	r22, r12
    1570:	0e 94 4d 0f 	call	0x1e9a	; 0x1e9a <__subsf3>
    1574:	0e 94 bf 0f 	call	0x1f7e	; 0x1f7e <__fixsfsi>
    1578:	9b 01       	movw	r18, r22
    157a:	77 23       	and	r23, r23
    157c:	24 f4       	brge	.+8      	; 0x1586 <_ZN5motor9fix_angleEv+0x1a0>
    157e:	22 27       	eor	r18, r18
    1580:	33 27       	eor	r19, r19
    1582:	26 1b       	sub	r18, r22
    1584:	37 0b       	sbc	r19, r23
    1586:	b9 01       	movw	r22, r18
    1588:	33 0f       	add	r19, r19
    158a:	88 0b       	sbc	r24, r24
    158c:	99 0b       	sbc	r25, r25
    158e:	0e 94 f7 0f 	call	0x1fee	; 0x1fee <__floatsisf>
    1592:	20 e0       	ldi	r18, 0x00	; 0
    1594:	30 e0       	ldi	r19, 0x00	; 0
    1596:	40 e8       	ldi	r20, 0x80	; 128
    1598:	5f e3       	ldi	r21, 0x3F	; 63
    159a:	0e 94 a7 10 	call	0x214e	; 0x214e <__gesf2>
    159e:	18 16       	cp	r1, r24
    15a0:	1c f2       	brlt	.-122    	; 0x1528 <_ZN5motor9fix_angleEv+0x142>
    15a2:	aa c0       	rjmp	.+340    	; 0x16f8 <_ZN5motor9fix_angleEv+0x312>
    15a4:	20 e0       	ldi	r18, 0x00	; 0
    15a6:	30 e0       	ldi	r19, 0x00	; 0
    15a8:	a9 01       	movw	r20, r18
    15aa:	c5 01       	movw	r24, r10
    15ac:	b4 01       	movw	r22, r8
    15ae:	0e 94 ba 0f 	call	0x1f74	; 0x1f74 <__cmpsf2>
    15b2:	88 23       	and	r24, r24
    15b4:	0c f0       	brlt	.+2      	; 0x15b8 <_ZN5motor9fix_angleEv+0x1d2>
    15b6:	a0 c0       	rjmp	.+320    	; 0x16f8 <_ZN5motor9fix_angleEv+0x312>
    15b8:	84 eb       	ldi	r24, 0xB4	; 180
    15ba:	c8 0e       	add	r12, r24
    15bc:	d1 1c       	adc	r13, r1
    15be:	89 e6       	ldi	r24, 0x69	; 105
    15c0:	c8 16       	cp	r12, r24
    15c2:	81 e0       	ldi	r24, 0x01	; 1
    15c4:	d8 06       	cpc	r13, r24
    15c6:	08 f0       	brcs	.+2      	; 0x15ca <_ZN5motor9fix_angleEv+0x1e4>
    15c8:	4a c0       	rjmp	.+148    	; 0x165e <_ZN5motor9fix_angleEv+0x278>
    15ca:	23 e0       	ldi	r18, 0x03	; 3
    15cc:	41 e0       	ldi	r20, 0x01	; 1
    15ce:	61 e0       	ldi	r22, 0x01	; 1
    15d0:	81 e0       	ldi	r24, 0x01	; 1
    15d2:	0e 94 29 05 	call	0xa52	; 0xa52 <_Z6m_sendhhhh>
    15d6:	23 e0       	ldi	r18, 0x03	; 3
    15d8:	41 e0       	ldi	r20, 0x01	; 1
    15da:	62 e0       	ldi	r22, 0x02	; 2
    15dc:	82 e0       	ldi	r24, 0x02	; 2
    15de:	0e 94 29 05 	call	0xa52	; 0xa52 <_Z6m_sendhhhh>
    15e2:	0e 94 a6 02 	call	0x54c	; 0x54c <_Z10gyro_anglev>
    15e6:	6b 01       	movw	r12, r22
    15e8:	7c 01       	movw	r14, r24
    15ea:	81 e0       	ldi	r24, 0x01	; 1
    15ec:	0e 94 62 05 	call	0xac4	; 0xac4 <_ZN5motor6statusEh>
    15f0:	81 30       	cpi	r24, 0x01	; 1
    15f2:	29 f0       	breq	.+10     	; 0x15fe <_ZN5motor9fix_angleEv+0x218>
    15f4:	82 e0       	ldi	r24, 0x02	; 2
    15f6:	0e 94 62 05 	call	0xac4	; 0xac4 <_ZN5motor6statusEh>
    15fa:	81 30       	cpi	r24, 0x01	; 1
    15fc:	61 f4       	brne	.+24     	; 0x1616 <_ZN5motor9fix_angleEv+0x230>
    15fe:	23 e0       	ldi	r18, 0x03	; 3
    1600:	41 e0       	ldi	r20, 0x01	; 1
    1602:	61 e0       	ldi	r22, 0x01	; 1
    1604:	81 e0       	ldi	r24, 0x01	; 1
    1606:	0e 94 29 05 	call	0xa52	; 0xa52 <_Z6m_sendhhhh>
    160a:	23 e0       	ldi	r18, 0x03	; 3
    160c:	41 e0       	ldi	r20, 0x01	; 1
    160e:	62 e0       	ldi	r22, 0x02	; 2
    1610:	82 e0       	ldi	r24, 0x02	; 2
    1612:	0e 94 29 05 	call	0xa52	; 0xa52 <_Z6m_sendhhhh>
    1616:	20 91 4e 3a 	lds	r18, 0x3A4E	; 0x803a4e <_ZN5motor7b_angleE>
    161a:	30 91 4f 3a 	lds	r19, 0x3A4F	; 0x803a4f <_ZN5motor7b_angleE+0x1>
    161e:	40 91 50 3a 	lds	r20, 0x3A50	; 0x803a50 <_ZN5motor7b_angleE+0x2>
    1622:	50 91 51 3a 	lds	r21, 0x3A51	; 0x803a51 <_ZN5motor7b_angleE+0x3>
    1626:	c7 01       	movw	r24, r14
    1628:	b6 01       	movw	r22, r12
    162a:	0e 94 4d 0f 	call	0x1e9a	; 0x1e9a <__subsf3>
    162e:	0e 94 bf 0f 	call	0x1f7e	; 0x1f7e <__fixsfsi>
    1632:	9b 01       	movw	r18, r22
    1634:	77 23       	and	r23, r23
    1636:	24 f4       	brge	.+8      	; 0x1640 <_ZN5motor9fix_angleEv+0x25a>
    1638:	22 27       	eor	r18, r18
    163a:	33 27       	eor	r19, r19
    163c:	26 1b       	sub	r18, r22
    163e:	37 0b       	sbc	r19, r23
    1640:	b9 01       	movw	r22, r18
    1642:	33 0f       	add	r19, r19
    1644:	88 0b       	sbc	r24, r24
    1646:	99 0b       	sbc	r25, r25
    1648:	0e 94 f7 0f 	call	0x1fee	; 0x1fee <__floatsisf>
    164c:	20 e0       	ldi	r18, 0x00	; 0
    164e:	30 e0       	ldi	r19, 0x00	; 0
    1650:	40 e8       	ldi	r20, 0x80	; 128
    1652:	5f e3       	ldi	r21, 0x3F	; 63
    1654:	0e 94 a7 10 	call	0x214e	; 0x214e <__gesf2>
    1658:	18 16       	cp	r1, r24
    165a:	1c f2       	brlt	.-122    	; 0x15e2 <_ZN5motor9fix_angleEv+0x1fc>
    165c:	4d c0       	rjmp	.+154    	; 0x16f8 <_ZN5motor9fix_angleEv+0x312>
    165e:	c5 3b       	cpi	r28, 0xB5	; 181
    1660:	d1 05       	cpc	r29, r1
    1662:	0c f4       	brge	.+2      	; 0x1666 <_ZN5motor9fix_angleEv+0x280>
    1664:	49 c0       	rjmp	.+146    	; 0x16f8 <_ZN5motor9fix_angleEv+0x312>
    1666:	23 e0       	ldi	r18, 0x03	; 3
    1668:	41 e0       	ldi	r20, 0x01	; 1
    166a:	62 e0       	ldi	r22, 0x02	; 2
    166c:	81 e0       	ldi	r24, 0x01	; 1
    166e:	0e 94 29 05 	call	0xa52	; 0xa52 <_Z6m_sendhhhh>
    1672:	23 e0       	ldi	r18, 0x03	; 3
    1674:	41 e0       	ldi	r20, 0x01	; 1
    1676:	61 e0       	ldi	r22, 0x01	; 1
    1678:	82 e0       	ldi	r24, 0x02	; 2
    167a:	0e 94 29 05 	call	0xa52	; 0xa52 <_Z6m_sendhhhh>
    167e:	0e 94 a6 02 	call	0x54c	; 0x54c <_Z10gyro_anglev>
    1682:	6b 01       	movw	r12, r22
    1684:	7c 01       	movw	r14, r24
    1686:	81 e0       	ldi	r24, 0x01	; 1
    1688:	0e 94 62 05 	call	0xac4	; 0xac4 <_ZN5motor6statusEh>
    168c:	81 30       	cpi	r24, 0x01	; 1
    168e:	29 f0       	breq	.+10     	; 0x169a <_ZN5motor9fix_angleEv+0x2b4>
    1690:	82 e0       	ldi	r24, 0x02	; 2
    1692:	0e 94 62 05 	call	0xac4	; 0xac4 <_ZN5motor6statusEh>
    1696:	81 30       	cpi	r24, 0x01	; 1
    1698:	61 f4       	brne	.+24     	; 0x16b2 <_ZN5motor9fix_angleEv+0x2cc>
    169a:	23 e0       	ldi	r18, 0x03	; 3
    169c:	41 e0       	ldi	r20, 0x01	; 1
    169e:	62 e0       	ldi	r22, 0x02	; 2
    16a0:	81 e0       	ldi	r24, 0x01	; 1
    16a2:	0e 94 29 05 	call	0xa52	; 0xa52 <_Z6m_sendhhhh>
    16a6:	23 e0       	ldi	r18, 0x03	; 3
    16a8:	41 e0       	ldi	r20, 0x01	; 1
    16aa:	61 e0       	ldi	r22, 0x01	; 1
    16ac:	82 e0       	ldi	r24, 0x02	; 2
    16ae:	0e 94 29 05 	call	0xa52	; 0xa52 <_Z6m_sendhhhh>
    16b2:	20 91 4e 3a 	lds	r18, 0x3A4E	; 0x803a4e <_ZN5motor7b_angleE>
    16b6:	30 91 4f 3a 	lds	r19, 0x3A4F	; 0x803a4f <_ZN5motor7b_angleE+0x1>
    16ba:	40 91 50 3a 	lds	r20, 0x3A50	; 0x803a50 <_ZN5motor7b_angleE+0x2>
    16be:	50 91 51 3a 	lds	r21, 0x3A51	; 0x803a51 <_ZN5motor7b_angleE+0x3>
    16c2:	c7 01       	movw	r24, r14
    16c4:	b6 01       	movw	r22, r12
    16c6:	0e 94 4d 0f 	call	0x1e9a	; 0x1e9a <__subsf3>
    16ca:	0e 94 bf 0f 	call	0x1f7e	; 0x1f7e <__fixsfsi>
    16ce:	9b 01       	movw	r18, r22
    16d0:	77 23       	and	r23, r23
    16d2:	24 f4       	brge	.+8      	; 0x16dc <_ZN5motor9fix_angleEv+0x2f6>
    16d4:	22 27       	eor	r18, r18
    16d6:	33 27       	eor	r19, r19
    16d8:	26 1b       	sub	r18, r22
    16da:	37 0b       	sbc	r19, r23
    16dc:	b9 01       	movw	r22, r18
    16de:	33 0f       	add	r19, r19
    16e0:	88 0b       	sbc	r24, r24
    16e2:	99 0b       	sbc	r25, r25
    16e4:	0e 94 f7 0f 	call	0x1fee	; 0x1fee <__floatsisf>
    16e8:	20 e0       	ldi	r18, 0x00	; 0
    16ea:	30 e0       	ldi	r19, 0x00	; 0
    16ec:	40 e8       	ldi	r20, 0x80	; 128
    16ee:	5f e3       	ldi	r21, 0x3F	; 63
    16f0:	0e 94 a7 10 	call	0x214e	; 0x214e <__gesf2>
    16f4:	18 16       	cp	r1, r24
    16f6:	1c f2       	brlt	.-122    	; 0x167e <_ZN5motor9fix_angleEv+0x298>
    16f8:	81 e0       	ldi	r24, 0x01	; 1
    16fa:	0e 94 5c 05 	call	0xab8	; 0xab8 <_ZN5motor5brakeEh>
    16fe:	82 e0       	ldi	r24, 0x02	; 2
    1700:	0e 94 5c 05 	call	0xab8	; 0xab8 <_ZN5motor5brakeEh>
    1704:	df 91       	pop	r29
    1706:	cf 91       	pop	r28
    1708:	ff 90       	pop	r15
    170a:	ef 90       	pop	r14
    170c:	df 90       	pop	r13
    170e:	cf 90       	pop	r12
    1710:	bf 90       	pop	r11
    1712:	af 90       	pop	r10
    1714:	9f 90       	pop	r9
    1716:	8f 90       	pop	r8
    1718:	08 95       	ret

0000171a <_GLOBAL__sub_I_motor_spi>:
#include "motor_control.hpp"
#define RightM PIN2_bm //1
#define LeftM PIN3_bm  //2


spi motor_spi(&SPIC,&PORTC,SPI_PRESCALER_DIV16_gc);
    171a:	21 e0       	ldi	r18, 0x01	; 1
    171c:	40 e4       	ldi	r20, 0x40	; 64
    171e:	56 e0       	ldi	r21, 0x06	; 6
    1720:	60 ec       	ldi	r22, 0xC0	; 192
    1722:	78 e0       	ldi	r23, 0x08	; 8
    1724:	83 e5       	ldi	r24, 0x53	; 83
    1726:	9a e3       	ldi	r25, 0x3A	; 58
    1728:	0e 94 b9 0d 	call	0x1b72	; 0x1b72 <_ZN3spiC1EP10SPI_structP11PORT_struct18SPI_PRESCALER_enum>
    172c:	08 95       	ret

0000172e <_Z7init_mvv>:
		}
		else if (i==2){
			PORTD.OUTCLR=PIN3_bm;
		}
		else if(i==3){
			PORTD.OUTCLR=PIN4_bm;
    172e:	e0 e6       	ldi	r30, 0x60	; 96
    1730:	f6 e0       	ldi	r31, 0x06	; 6
    1732:	8c e1       	ldi	r24, 0x1C	; 28
    1734:	81 83       	std	Z+1, r24	; 0x01
    1736:	a0 e0       	ldi	r26, 0x00	; 0
    1738:	b7 e0       	ldi	r27, 0x07	; 7
    173a:	90 ee       	ldi	r25, 0xE0	; 224
    173c:	12 96       	adiw	r26, 0x02	; 2
    173e:	9c 93       	st	X, r25
    1740:	12 97       	sbiw	r26, 0x02	; 2
    1742:	15 96       	adiw	r26, 0x05	; 5
    1744:	9c 93       	st	X, r25
    1746:	86 83       	std	Z+6, r24	; 0x06
    1748:	08 95       	ret

0000174a <_Z6mv_caphb>:
    174a:	82 30       	cpi	r24, 0x02	; 2
    174c:	71 f0       	breq	.+28     	; 0x176a <_Z6mv_caphb+0x20>
    174e:	83 30       	cpi	r24, 0x03	; 3
    1750:	b1 f0       	breq	.+44     	; 0x177e <_Z6mv_caphb+0x34>
    1752:	81 30       	cpi	r24, 0x01	; 1
    1754:	e9 f4       	brne	.+58     	; 0x1790 <_Z6mv_caphb+0x46>
    1756:	66 23       	and	r22, r22
    1758:	21 f0       	breq	.+8      	; 0x1762 <_Z6mv_caphb+0x18>
    175a:	84 e0       	ldi	r24, 0x04	; 4
    175c:	80 93 66 06 	sts	0x0666, r24	; 0x800666 <__TEXT_REGION_LENGTH__+0x700666>
    1760:	08 95       	ret
    1762:	84 e0       	ldi	r24, 0x04	; 4
    1764:	80 93 65 06 	sts	0x0665, r24	; 0x800665 <__TEXT_REGION_LENGTH__+0x700665>
    1768:	08 95       	ret
    176a:	66 23       	and	r22, r22
    176c:	21 f0       	breq	.+8      	; 0x1776 <_Z6mv_caphb+0x2c>
    176e:	88 e0       	ldi	r24, 0x08	; 8
    1770:	80 93 66 06 	sts	0x0666, r24	; 0x800666 <__TEXT_REGION_LENGTH__+0x700666>
    1774:	08 95       	ret
    1776:	88 e0       	ldi	r24, 0x08	; 8
    1778:	80 93 65 06 	sts	0x0665, r24	; 0x800665 <__TEXT_REGION_LENGTH__+0x700665>
    177c:	08 95       	ret
    177e:	66 23       	and	r22, r22
    1780:	21 f0       	breq	.+8      	; 0x178a <_Z6mv_caphb+0x40>
    1782:	80 e1       	ldi	r24, 0x10	; 16
    1784:	80 93 66 06 	sts	0x0666, r24	; 0x800666 <__TEXT_REGION_LENGTH__+0x700666>
    1788:	08 95       	ret
    178a:	80 e1       	ldi	r24, 0x10	; 16
    178c:	80 93 65 06 	sts	0x0665, r24	; 0x800665 <__TEXT_REGION_LENGTH__+0x700665>
    1790:	08 95       	ret

00001792 <_Z11mv_spi_sendhh>:
			return;
		}
	}
	return;
}
uint8_t mv_spi_send(uint8_t val, uint8_t i){
    1792:	1f 93       	push	r17
    1794:	cf 93       	push	r28
    1796:	df 93       	push	r29
	if (i==1){
    1798:	61 30       	cpi	r22, 0x01	; 1
    179a:	d9 f4       	brne	.+54     	; 0x17d2 <_Z11mv_spi_sendhh+0x40>
		PORTD.OUTSET=PIN2_bm;
    179c:	c0 e6       	ldi	r28, 0x60	; 96
    179e:	d6 e0       	ldi	r29, 0x06	; 6
    17a0:	14 e0       	ldi	r17, 0x04	; 4
    17a2:	1d 83       	std	Y+5, r17	; 0x05
	#else
		//round up by default
		__ticks_dc = (uint32_t)(ceil(fabs(__tmp)));
	#endif

	__builtin_avr_delay_cycles(__ticks_dc);
    17a4:	ef e3       	ldi	r30, 0x3F	; 63
    17a6:	ff e1       	ldi	r31, 0x1F	; 31
    17a8:	31 97       	sbiw	r30, 0x01	; 1
    17aa:	f1 f7       	brne	.-4      	; 0x17a8 <_Z11mv_spi_sendhh+0x16>
    17ac:	00 c0       	rjmp	.+0      	; 0x17ae <_Z11mv_spi_sendhh+0x1c>
    17ae:	00 00       	nop
	else{
		return 0;
	}
	_delay_ms(1);
	if (i==1){
		PORTD.OUTCLR=PIN2_bm;
    17b0:	1e 83       	std	Y+6, r17	; 0x06
    17b2:	ff ef       	ldi	r31, 0xFF	; 255
    17b4:	23 ec       	ldi	r18, 0xC3	; 195
    17b6:	39 e0       	ldi	r19, 0x09	; 9
    17b8:	f1 50       	subi	r31, 0x01	; 1
    17ba:	20 40       	sbci	r18, 0x00	; 0
    17bc:	30 40       	sbci	r19, 0x00	; 0
    17be:	e1 f7       	brne	.-8      	; 0x17b8 <_Z11mv_spi_sendhh+0x26>
    17c0:	00 c0       	rjmp	.+0      	; 0x17c2 <_Z11mv_spi_sendhh+0x30>
    17c2:	00 00       	nop
	else{
		return 0;
	}
	uint8_t dat = 0;
	_delay_ms(100);
	dat = mv.send(val);
    17c4:	68 2f       	mov	r22, r24
    17c6:	88 e5       	ldi	r24, 0x58	; 88
    17c8:	9a e3       	ldi	r25, 0x3A	; 58
    17ca:	0e 94 cd 0d 	call	0x1b9a	; 0x1b9a <_ZN3spi4sendEh>
	if (i==1){
		PORTD.OUTSET=PIN2_bm;
    17ce:	1d 83       	std	Y+5, r17	; 0x05
    17d0:	39 c0       	rjmp	.+114    	; 0x1844 <_Z11mv_spi_sendhh+0xb2>
}
uint8_t mv_spi_send(uint8_t val, uint8_t i){
	if (i==1){
		PORTD.OUTSET=PIN2_bm;
	}
	else if (i==2){
    17d2:	62 30       	cpi	r22, 0x02	; 2
    17d4:	d9 f4       	brne	.+54     	; 0x180c <_Z11mv_spi_sendhh+0x7a>
		PORTD.OUTSET=PIN3_bm;
    17d6:	c0 e6       	ldi	r28, 0x60	; 96
    17d8:	d6 e0       	ldi	r29, 0x06	; 6
    17da:	18 e0       	ldi	r17, 0x08	; 8
    17dc:	1d 83       	std	Y+5, r17	; 0x05
    17de:	ef e3       	ldi	r30, 0x3F	; 63
    17e0:	ff e1       	ldi	r31, 0x1F	; 31
    17e2:	31 97       	sbiw	r30, 0x01	; 1
    17e4:	f1 f7       	brne	.-4      	; 0x17e2 <_Z11mv_spi_sendhh+0x50>
    17e6:	00 c0       	rjmp	.+0      	; 0x17e8 <_Z11mv_spi_sendhh+0x56>
    17e8:	00 00       	nop
	_delay_ms(1);
	if (i==1){
		PORTD.OUTCLR=PIN2_bm;
	}
	else if (i==2){
		PORTD.OUTCLR=PIN3_bm;
    17ea:	1e 83       	std	Y+6, r17	; 0x06
    17ec:	ff ef       	ldi	r31, 0xFF	; 255
    17ee:	23 ec       	ldi	r18, 0xC3	; 195
    17f0:	39 e0       	ldi	r19, 0x09	; 9
    17f2:	f1 50       	subi	r31, 0x01	; 1
    17f4:	20 40       	sbci	r18, 0x00	; 0
    17f6:	30 40       	sbci	r19, 0x00	; 0
    17f8:	e1 f7       	brne	.-8      	; 0x17f2 <_Z11mv_spi_sendhh+0x60>
    17fa:	00 c0       	rjmp	.+0      	; 0x17fc <_Z11mv_spi_sendhh+0x6a>
    17fc:	00 00       	nop
	else{
		return 0;
	}
	uint8_t dat = 0;
	_delay_ms(100);
	dat = mv.send(val);
    17fe:	68 2f       	mov	r22, r24
    1800:	88 e5       	ldi	r24, 0x58	; 88
    1802:	9a e3       	ldi	r25, 0x3A	; 58
    1804:	0e 94 cd 0d 	call	0x1b9a	; 0x1b9a <_ZN3spi4sendEh>
	if (i==1){
		PORTD.OUTSET=PIN2_bm;
	}
	else if (i==2){
		PORTD.OUTSET=PIN3_bm;	
    1808:	1d 83       	std	Y+5, r17	; 0x05
    180a:	1c c0       	rjmp	.+56     	; 0x1844 <_Z11mv_spi_sendhh+0xb2>
		PORTD.OUTSET=PIN2_bm;
	}
	else if (i==2){
		PORTD.OUTSET=PIN3_bm;
	}
	else if(i==3){
    180c:	63 30       	cpi	r22, 0x03	; 3
    180e:	39 f5       	brne	.+78     	; 0x185e <_Z11mv_spi_sendhh+0xcc>
		PORTD.OUTSET=PIN4_bm;
    1810:	c0 e6       	ldi	r28, 0x60	; 96
    1812:	d6 e0       	ldi	r29, 0x06	; 6
    1814:	10 e1       	ldi	r17, 0x10	; 16
    1816:	1d 83       	std	Y+5, r17	; 0x05
    1818:	ef e3       	ldi	r30, 0x3F	; 63
    181a:	ff e1       	ldi	r31, 0x1F	; 31
    181c:	31 97       	sbiw	r30, 0x01	; 1
    181e:	f1 f7       	brne	.-4      	; 0x181c <_Z11mv_spi_sendhh+0x8a>
    1820:	00 c0       	rjmp	.+0      	; 0x1822 <_Z11mv_spi_sendhh+0x90>
    1822:	00 00       	nop
	}
	else if (i==2){
		PORTD.OUTCLR=PIN3_bm;
	}
	else if(i==3){
		PORTD.OUTCLR=PIN4_bm;
    1824:	1e 83       	std	Y+6, r17	; 0x06
    1826:	ff ef       	ldi	r31, 0xFF	; 255
    1828:	23 ec       	ldi	r18, 0xC3	; 195
    182a:	39 e0       	ldi	r19, 0x09	; 9
    182c:	f1 50       	subi	r31, 0x01	; 1
    182e:	20 40       	sbci	r18, 0x00	; 0
    1830:	30 40       	sbci	r19, 0x00	; 0
    1832:	e1 f7       	brne	.-8      	; 0x182c <_Z11mv_spi_sendhh+0x9a>
    1834:	00 c0       	rjmp	.+0      	; 0x1836 <_Z11mv_spi_sendhh+0xa4>
    1836:	00 00       	nop
	else{
		return 0;
	}
	uint8_t dat = 0;
	_delay_ms(100);
	dat = mv.send(val);
    1838:	68 2f       	mov	r22, r24
    183a:	88 e5       	ldi	r24, 0x58	; 88
    183c:	9a e3       	ldi	r25, 0x3A	; 58
    183e:	0e 94 cd 0d 	call	0x1b9a	; 0x1b9a <_ZN3spi4sendEh>
	}
	else if (i==2){
		PORTD.OUTSET=PIN3_bm;	
	}
	else if(i==3){
		PORTD.OUTSET=PIN4_bm;
    1842:	1d 83       	std	Y+5, r17	; 0x05
    1844:	9f ef       	ldi	r25, 0xFF	; 255
    1846:	e9 ef       	ldi	r30, 0xF9	; 249
    1848:	f0 e0       	ldi	r31, 0x00	; 0
    184a:	91 50       	subi	r25, 0x01	; 1
    184c:	e0 40       	sbci	r30, 0x00	; 0
    184e:	f0 40       	sbci	r31, 0x00	; 0
    1850:	e1 f7       	brne	.-8      	; 0x184a <_Z11mv_spi_sendhh+0xb8>
    1852:	00 c0       	rjmp	.+0      	; 0x1854 <_Z11mv_spi_sendhh+0xc2>
    1854:	00 00       	nop
	}
	else{
		return 0;
	}
	_delay_ms(10);
	PORTD.OUTCLR=PIN2_bm|PIN3_bm|PIN4_bm;
    1856:	9c e1       	ldi	r25, 0x1C	; 28
    1858:	90 93 66 06 	sts	0x0666, r25	; 0x800666 <__TEXT_REGION_LENGTH__+0x700666>
	//while((PORTJ.IN & PIN5_bm)==0||(PORTJ.IN & PIN6_bm)==0||(PORTJ.IN & PIN7_bm)==0);
	return dat;
    185c:	01 c0       	rjmp	.+2      	; 0x1860 <_Z11mv_spi_sendhh+0xce>
	}
	else if(i==3){
		PORTD.OUTSET=PIN4_bm;
	}
	else{
		return 0;
    185e:	80 e0       	ldi	r24, 0x00	; 0
	}
	_delay_ms(10);
	PORTD.OUTCLR=PIN2_bm|PIN3_bm|PIN4_bm;
	//while((PORTJ.IN & PIN5_bm)==0||(PORTJ.IN & PIN6_bm)==0||(PORTJ.IN & PIN7_bm)==0);
	return dat;
}
    1860:	df 91       	pop	r29
    1862:	cf 91       	pop	r28
    1864:	1f 91       	pop	r17
    1866:	08 95       	ret

00001868 <_Z8check_mvh>:

void check_mv(uint8_t dir){
    1868:	cf 93       	push	r28
    186a:	df 93       	push	r29
    186c:	d8 2f       	mov	r29, r24
	PORTB.OUTSET=PIN0_bm|PIN1_bm;
    186e:	83 e0       	ldi	r24, 0x03	; 3
    1870:	80 93 25 06 	sts	0x0625, r24	; 0x800625 <__TEXT_REGION_LENGTH__+0x700625>
    1874:	8f e3       	ldi	r24, 0x3F	; 63
    1876:	9c e9       	ldi	r25, 0x9C	; 156
    1878:	01 97       	sbiw	r24, 0x01	; 1
    187a:	f1 f7       	brne	.-4      	; 0x1878 <_Z8check_mvh+0x10>
    187c:	00 c0       	rjmp	.+0      	; 0x187e <_Z8check_mvh+0x16>
    187e:	00 00       	nop
	//mv_sig(dir,false);
	_delay_ms(5);
	led(Blueled,1);
    1880:	61 e0       	ldi	r22, 0x01	; 1
    1882:	84 e0       	ldi	r24, 0x04	; 4
    1884:	0e 94 79 0d 	call	0x1af2	; 0x1af2 <_Z3ledhh>
	uint8_t res = mv_spi_send(dir,1);
    1888:	61 e0       	ldi	r22, 0x01	; 1
    188a:	8d 2f       	mov	r24, r29
    188c:	0e 94 c9 0b 	call	0x1792	; 0x1792 <_Z11mv_spi_sendhh>
    1890:	c8 2f       	mov	r28, r24
	mv_cap(dir,false);
    1892:	60 e0       	ldi	r22, 0x00	; 0
    1894:	8d 2f       	mov	r24, r29
    1896:	0e 94 a5 0b 	call	0x174a	; 0x174a <_Z6mv_caphb>
	serial.string("ch");
    189a:	69 e9       	ldi	r22, 0x99	; 153
    189c:	70 e2       	ldi	r23, 0x20	; 32
    189e:	8a ec       	ldi	r24, 0xCA	; 202
    18a0:	90 e2       	ldi	r25, 0x20	; 32
    18a2:	0e 94 cb 0e 	call	0x1d96	; 0x1d96 <_ZN5usart6stringEPKc>
	serial.putdec(res);
    18a6:	6c 2f       	mov	r22, r28
    18a8:	70 e0       	ldi	r23, 0x00	; 0
    18aa:	8a ec       	ldi	r24, 0xCA	; 202
    18ac:	90 e2       	ldi	r25, 0x20	; 32
    18ae:	0e 94 e0 0e 	call	0x1dc0	; 0x1dc0 <_ZN5usart6putdecEj>
	serial.string("\n\r");
    18b2:	6e e7       	ldi	r22, 0x7E	; 126
    18b4:	70 e2       	ldi	r23, 0x20	; 32
    18b6:	8a ec       	ldi	r24, 0xCA	; 202
    18b8:	90 e2       	ldi	r25, 0x20	; 32
    18ba:	0e 94 cb 0e 	call	0x1d96	; 0x1d96 <_ZN5usart6stringEPKc>
	mv_cap(dir,false);
    18be:	60 e0       	ldi	r22, 0x00	; 0
    18c0:	8d 2f       	mov	r24, r29
    18c2:	0e 94 a5 0b 	call	0x174a	; 0x174a <_Z6mv_caphb>
	led(Blueled,0);
    18c6:	60 e0       	ldi	r22, 0x00	; 0
    18c8:	84 e0       	ldi	r24, 0x04	; 4
    18ca:	0e 94 79 0d 	call	0x1af2	; 0x1af2 <_Z3ledhh>
#include "lcd_control.hpp"

class kit_result{
	uint8_t num;
	public:
	void write(uint8_t x){num=x;}
    18ce:	c0 93 57 3a 	sts	0x3A57, r28	; 0x803a57 <bblk>
	bblk.write(res);
	switch(res){
    18d2:	c5 30       	cpi	r28, 0x05	; 5
    18d4:	19 f1       	breq	.+70     	; 0x191c <_Z8check_mvh+0xb4>
    18d6:	28 f4       	brcc	.+10     	; 0x18e2 <_Z8check_mvh+0x7a>
    18d8:	c3 30       	cpi	r28, 0x03	; 3
    18da:	41 f0       	breq	.+16     	; 0x18ec <_Z8check_mvh+0x84>
    18dc:	c4 30       	cpi	r28, 0x04	; 4
    18de:	91 f0       	breq	.+36     	; 0x1904 <_Z8check_mvh+0x9c>
    18e0:	40 c0       	rjmp	.+128    	; 0x1962 <_Z8check_mvh+0xfa>
    18e2:	c6 30       	cpi	r28, 0x06	; 6
    18e4:	39 f1       	breq	.+78     	; 0x1934 <_Z8check_mvh+0xcc>
    18e6:	c9 30       	cpi	r28, 0x09	; 9
    18e8:	88 f1       	brcs	.+98     	; 0x194c <_Z8check_mvh+0xe4>
    18ea:	3b c0       	rjmp	.+118    	; 0x1962 <_Z8check_mvh+0xfa>
		case 3://H  2kits
			lcd_clear();
    18ec:	0e 94 d2 04 	call	0x9a4	; 0x9a4 <_Z9lcd_clearv>
			lcd_putstr(LCD1_TWI,"Find H!");
    18f0:	6c e9       	ldi	r22, 0x9C	; 156
    18f2:	70 e2       	ldi	r23, 0x20	; 32
    18f4:	80 eb       	ldi	r24, 0xB0	; 176
    18f6:	94 e0       	ldi	r25, 0x04	; 4
    18f8:	0e 94 70 04 	call	0x8e0	; 0x8e0 <_Z10lcd_putstrP10TWI_structPKc>
			finded_victim(2);
    18fc:	82 e0       	ldi	r24, 0x02	; 2
    18fe:	0e 94 f4 01 	call	0x3e8	; 0x3e8 <_Z13finded_victimh>
			break;
    1902:	2f c0       	rjmp	.+94     	; 0x1962 <_Z8check_mvh+0xfa>
		case 4://S  1kits
			lcd_clear();
    1904:	0e 94 d2 04 	call	0x9a4	; 0x9a4 <_Z9lcd_clearv>
			lcd_putstr(LCD1_TWI,"Find S!");
    1908:	64 ea       	ldi	r22, 0xA4	; 164
    190a:	70 e2       	ldi	r23, 0x20	; 32
    190c:	80 eb       	ldi	r24, 0xB0	; 176
    190e:	94 e0       	ldi	r25, 0x04	; 4
    1910:	0e 94 70 04 	call	0x8e0	; 0x8e0 <_Z10lcd_putstrP10TWI_structPKc>
			finded_victim(1);
    1914:	81 e0       	ldi	r24, 0x01	; 1
    1916:	0e 94 f4 01 	call	0x3e8	; 0x3e8 <_Z13finded_victimh>
			break;
    191a:	23 c0       	rjmp	.+70     	; 0x1962 <_Z8check_mvh+0xfa>
		case 5://U 0kits
			lcd_clear();
    191c:	0e 94 d2 04 	call	0x9a4	; 0x9a4 <_Z9lcd_clearv>
			lcd_putstr(LCD1_TWI,"Find U!");
    1920:	6c ea       	ldi	r22, 0xAC	; 172
    1922:	70 e2       	ldi	r23, 0x20	; 32
    1924:	80 eb       	ldi	r24, 0xB0	; 176
    1926:	94 e0       	ldi	r25, 0x04	; 4
    1928:	0e 94 70 04 	call	0x8e0	; 0x8e0 <_Z10lcd_putstrP10TWI_structPKc>
			finded_victim(0);
    192c:	80 e0       	ldi	r24, 0x00	; 0
    192e:	0e 94 f4 01 	call	0x3e8	; 0x3e8 <_Z13finded_victimh>
			break;
    1932:	17 c0       	rjmp	.+46     	; 0x1962 <_Z8check_mvh+0xfa>
		case 6:
			lcd_clear();
    1934:	0e 94 d2 04 	call	0x9a4	; 0x9a4 <_Z9lcd_clearv>
			lcd_putstr(LCD1_TWI,"Find Sermo");
    1938:	64 eb       	ldi	r22, 0xB4	; 180
    193a:	70 e2       	ldi	r23, 0x20	; 32
    193c:	80 eb       	ldi	r24, 0xB0	; 176
    193e:	94 e0       	ldi	r25, 0x04	; 4
    1940:	0e 94 70 04 	call	0x8e0	; 0x8e0 <_Z10lcd_putstrP10TWI_structPKc>
			finded_victim(1);
    1944:	81 e0       	ldi	r24, 0x01	; 1
    1946:	0e 94 f4 01 	call	0x3e8	; 0x3e8 <_Z13finded_victimh>
			break;
    194a:	0b c0       	rjmp	.+22     	; 0x1962 <_Z8check_mvh+0xfa>
		case 7:
		case 8:
			lcd_clear();
    194c:	0e 94 d2 04 	call	0x9a4	; 0x9a4 <_Z9lcd_clearv>
			lcd_putstr(LCD1_TWI,"Find Error");
    1950:	6f eb       	ldi	r22, 0xBF	; 191
    1952:	70 e2       	ldi	r23, 0x20	; 32
    1954:	80 eb       	ldi	r24, 0xB0	; 176
    1956:	94 e0       	ldi	r25, 0x04	; 4
    1958:	0e 94 70 04 	call	0x8e0	; 0x8e0 <_Z10lcd_putstrP10TWI_structPKc>
			finded_victim(1);
    195c:	81 e0       	ldi	r24, 0x01	; 1
    195e:	0e 94 f4 01 	call	0x3e8	; 0x3e8 <_Z13finded_victimh>
			break;
		default:
			break;
	};
	lcd_clear();
    1962:	0e 94 d2 04 	call	0x9a4	; 0x9a4 <_Z9lcd_clearv>
    1966:	9f ef       	ldi	r25, 0xFF	; 255
    1968:	29 ef       	ldi	r18, 0xF9	; 249
    196a:	80 e0       	ldi	r24, 0x00	; 0
    196c:	91 50       	subi	r25, 0x01	; 1
    196e:	20 40       	sbci	r18, 0x00	; 0
    1970:	80 40       	sbci	r24, 0x00	; 0
    1972:	e1 f7       	brne	.-8      	; 0x196c <_Z8check_mvh+0x104>
    1974:	00 c0       	rjmp	.+0      	; 0x1976 <_Z8check_mvh+0x10e>
    1976:	00 00       	nop
	_delay_ms(10);
	PORTB.OUTCLR=PIN0_bm|PIN1_bm;
    1978:	83 e0       	ldi	r24, 0x03	; 3
    197a:	80 93 26 06 	sts	0x0626, r24	; 0x800626 <__TEXT_REGION_LENGTH__+0x700626>
	return;
}
    197e:	df 91       	pop	r29
    1980:	cf 91       	pop	r28
    1982:	08 95       	ret

00001984 <_GLOBAL__sub_I_mv>:
1  ｿｽｿｽ  3 

*/

#include "mv_control.hpp"
spi mv(&SPID,&PORTD,SPI_PRESCALER_DIV128_gc);
    1984:	23 e0       	ldi	r18, 0x03	; 3
    1986:	40 e6       	ldi	r20, 0x60	; 96
    1988:	56 e0       	ldi	r21, 0x06	; 6
    198a:	60 ec       	ldi	r22, 0xC0	; 192
    198c:	79 e0       	ldi	r23, 0x09	; 9
    198e:	88 e5       	ldi	r24, 0x58	; 88
    1990:	9a e3       	ldi	r25, 0x3A	; 58
    1992:	0e 94 b9 0d 	call	0x1b72	; 0x1b72 <_ZN3spiC1EP10SPI_structP11PORT_struct18SPI_PRESCALER_enum>
	uint8_t read(){return num;}
	kit_result(){num=0;}
    1996:	10 92 57 3a 	sts	0x3A57, r1	; 0x803a57 <bblk>
    199a:	08 95       	ret

0000199c <_Z10ping_checkP11PORT_structh>:
		case 6:ping_data=ping_check(&PORTE,PIN5_bm);break;
		default:break;
	}
	return ping_data;
}
uint16_t ping_check (PORT_t *p_port,uint8_t p_pin){
    199c:	fc 01       	movw	r30, r24
	//PD2 ping4繝ｻ・ｽ・・ｪｭ縺ｿ繧托ｽｿ・ｽ繝ｻ・ｽ繝ｻ・ｽ繝ｻ・ｽ・・ｑ・ｿ・ｽ
	//ping(&PORTD,PIN2_bm);
	p_port->DIRSET=p_pin;//(*p_port).DIRSET
    199e:	61 83       	std	Z+1, r22	; 0x01
	p_port->OUT=p_pin;
    19a0:	64 83       	std	Z+4, r22	; 0x04
	#else
		//round up by default
		__ticks_dc = (uint32_t)(ceil(fabs(__tmp)));
	#endif

	__builtin_avr_delay_cycles(__ticks_dc);
    19a2:	8a e2       	ldi	r24, 0x2A	; 42
    19a4:	8a 95       	dec	r24
    19a6:	f1 f7       	brne	.-4      	; 0x19a4 <_Z10ping_checkP11PORT_structh+0x8>
    19a8:	00 c0       	rjmp	.+0      	; 0x19aa <_Z10ping_checkP11PORT_structh+0xe>
	_delay_us(4);
	p_port->OUTCLR=p_pin;
    19aa:	66 83       	std	Z+6, r22	; 0x06
	p_port->DIRCLR=p_pin;
    19ac:	62 83       	std	Z+2, r22	; 0x02
	while((p_port->IN&p_pin)==0);
    19ae:	90 85       	ldd	r25, Z+8	; 0x08
    19b0:	96 23       	and	r25, r22
    19b2:	e9 f3       	breq	.-6      	; 0x19ae <_Z10ping_checkP11PORT_structh+0x12>
	TCC0.CNT=0;
    19b4:	a0 e0       	ldi	r26, 0x00	; 0
    19b6:	b8 e0       	ldi	r27, 0x08	; 8
    19b8:	90 96       	adiw	r26, 0x20	; 32
    19ba:	1d 92       	st	X+, r1
    19bc:	1c 92       	st	X, r1
    19be:	91 97       	sbiw	r26, 0x21	; 33
	cli();
    19c0:	f8 94       	cli
	TCC0.CTRLA=TCC_CLK;
    19c2:	85 e0       	ldi	r24, 0x05	; 5
    19c4:	8c 93       	st	X, r24
	while((p_port->IN&p_pin)!=0);
    19c6:	90 85       	ldd	r25, Z+8	; 0x08
    19c8:	96 23       	and	r25, r22
    19ca:	e9 f7       	brne	.-6      	; 0x19c6 <_Z10ping_checkP11PORT_structh+0x2a>
	TCC0.CTRLA=0x00;
    19cc:	e0 e0       	ldi	r30, 0x00	; 0
    19ce:	f8 e0       	ldi	r31, 0x08	; 8
    19d0:	10 82       	st	Z, r1
	sei();
    19d2:	78 94       	sei
	#else
		//round up by default
		__ticks_dc = (uint32_t)(ceil(fabs(__tmp)));
	#endif

	__builtin_avr_delay_cycles(__ticks_dc);
    19d4:	8f e3       	ldi	r24, 0x3F	; 63
    19d6:	9c e9       	ldi	r25, 0x9C	; 156
    19d8:	01 97       	sbiw	r24, 0x01	; 1
    19da:	f1 f7       	brne	.-4      	; 0x19d8 <_Z10ping_checkP11PORT_structh+0x3c>
    19dc:	00 c0       	rjmp	.+0      	; 0x19de <_Z10ping_checkP11PORT_structh+0x42>
    19de:	00 00       	nop
	_delay_ms(5);
	return (uint16_t)(TCC0.CNT);
    19e0:	80 a1       	ldd	r24, Z+32	; 0x20
    19e2:	91 a1       	ldd	r25, Z+33	; 0x21
}
    19e4:	08 95       	ret

000019e6 <_Z4pingi>:
#define TCC_CLK TC_CLKSEL_DIV64_gc
//#define TCC_CLK TC_TC0_CLKSEL_DIV64_gc    //if TCC_CLK is Error try this.

uint16_t ping(int no){
	uint16_t ping_data=0;
	switch(no){
    19e6:	83 30       	cpi	r24, 0x03	; 3
    19e8:	91 05       	cpc	r25, r1
    19ea:	d1 f0       	breq	.+52     	; 0x1a20 <_Z4pingi+0x3a>
    19ec:	34 f4       	brge	.+12     	; 0x19fa <_Z4pingi+0x14>
    19ee:	81 30       	cpi	r24, 0x01	; 1
    19f0:	91 05       	cpc	r25, r1
    19f2:	51 f0       	breq	.+20     	; 0x1a08 <_Z4pingi+0x22>
    19f4:	02 97       	sbiw	r24, 0x02	; 2
    19f6:	71 f0       	breq	.+28     	; 0x1a14 <_Z4pingi+0x2e>
    19f8:	2b c0       	rjmp	.+86     	; 0x1a50 <_Z4pingi+0x6a>
    19fa:	85 30       	cpi	r24, 0x05	; 5
    19fc:	91 05       	cpc	r25, r1
    19fe:	e1 f0       	breq	.+56     	; 0x1a38 <_Z4pingi+0x52>
    1a00:	ac f0       	brlt	.+42     	; 0x1a2c <_Z4pingi+0x46>
    1a02:	06 97       	sbiw	r24, 0x06	; 6
    1a04:	f9 f0       	breq	.+62     	; 0x1a44 <_Z4pingi+0x5e>
    1a06:	24 c0       	rjmp	.+72     	; 0x1a50 <_Z4pingi+0x6a>
		case 1:ping_data=ping_check(&PORTE,PIN0_bm);break;
    1a08:	61 e0       	ldi	r22, 0x01	; 1
    1a0a:	80 e8       	ldi	r24, 0x80	; 128
    1a0c:	96 e0       	ldi	r25, 0x06	; 6
    1a0e:	0e 94 ce 0c 	call	0x199c	; 0x199c <_Z10ping_checkP11PORT_structh>
    1a12:	08 95       	ret
		case 2:ping_data=ping_check(&PORTE,PIN1_bm);break;
    1a14:	62 e0       	ldi	r22, 0x02	; 2
    1a16:	80 e8       	ldi	r24, 0x80	; 128
    1a18:	96 e0       	ldi	r25, 0x06	; 6
    1a1a:	0e 94 ce 0c 	call	0x199c	; 0x199c <_Z10ping_checkP11PORT_structh>
    1a1e:	08 95       	ret
		case 3:ping_data=ping_check(&PORTE,PIN2_bm);break;
    1a20:	64 e0       	ldi	r22, 0x04	; 4
    1a22:	80 e8       	ldi	r24, 0x80	; 128
    1a24:	96 e0       	ldi	r25, 0x06	; 6
    1a26:	0e 94 ce 0c 	call	0x199c	; 0x199c <_Z10ping_checkP11PORT_structh>
    1a2a:	08 95       	ret
		case 4:ping_data=ping_check(&PORTE,PIN3_bm);break;
    1a2c:	68 e0       	ldi	r22, 0x08	; 8
    1a2e:	80 e8       	ldi	r24, 0x80	; 128
    1a30:	96 e0       	ldi	r25, 0x06	; 6
    1a32:	0e 94 ce 0c 	call	0x199c	; 0x199c <_Z10ping_checkP11PORT_structh>
    1a36:	08 95       	ret
		case 5:ping_data=ping_check(&PORTE,PIN4_bm);break;
    1a38:	60 e1       	ldi	r22, 0x10	; 16
    1a3a:	80 e8       	ldi	r24, 0x80	; 128
    1a3c:	96 e0       	ldi	r25, 0x06	; 6
    1a3e:	0e 94 ce 0c 	call	0x199c	; 0x199c <_Z10ping_checkP11PORT_structh>
    1a42:	08 95       	ret
		case 6:ping_data=ping_check(&PORTE,PIN5_bm);break;
    1a44:	60 e2       	ldi	r22, 0x20	; 32
    1a46:	80 e8       	ldi	r24, 0x80	; 128
    1a48:	96 e0       	ldi	r25, 0x06	; 6
    1a4a:	0e 94 ce 0c 	call	0x199c	; 0x199c <_Z10ping_checkP11PORT_structh>
    1a4e:	08 95       	ret

#define TCC_CLK TC_CLKSEL_DIV64_gc
//#define TCC_CLK TC_TC0_CLKSEL_DIV64_gc    //if TCC_CLK is Error try this.

uint16_t ping(int no){
	uint16_t ping_data=0;
    1a50:	80 e0       	ldi	r24, 0x00	; 0
    1a52:	90 e0       	ldi	r25, 0x00	; 0
		case 5:ping_data=ping_check(&PORTE,PIN4_bm);break;
		case 6:ping_data=ping_check(&PORTE,PIN5_bm);break;
		default:break;
	}
	return ping_data;
}
    1a54:	08 95       	ret

00001a56 <__vector_77>:
    1a56:	1f 92       	push	r1
    1a58:	0f 92       	push	r0
    1a5a:	0f b6       	in	r0, 0x3f	; 63
    1a5c:	0f 92       	push	r0
    1a5e:	11 24       	eor	r1, r1
    1a60:	08 b6       	in	r0, 0x38	; 56
    1a62:	0f 92       	push	r0
    1a64:	18 be       	out	0x38, r1	; 56
    1a66:	0f 90       	pop	r0
    1a68:	08 be       	out	0x38, r0	; 56
    1a6a:	0f 90       	pop	r0
    1a6c:	0f be       	out	0x3f, r0	; 63
    1a6e:	0f 90       	pop	r0
    1a70:	1f 90       	pop	r1
    1a72:	18 95       	reti

00001a74 <_Z8delay_usj>:
    1a74:	20 e0       	ldi	r18, 0x00	; 0
    1a76:	30 e0       	ldi	r19, 0x00	; 0
	#else
		//round up by default
		__ticks_dc = (uint32_t)(ceil(fabs(__tmp)));
	#endif

	__builtin_avr_delay_cycles(__ticks_dc);
    1a78:	4a e0       	ldi	r20, 0x0A	; 10
    1a7a:	4a 95       	dec	r20
    1a7c:	f1 f7       	brne	.-4      	; 0x1a7a <_Z8delay_usj+0x6>
    1a7e:	00 c0       	rjmp	.+0      	; 0x1a80 <_Z8delay_usj+0xc>
    1a80:	2f 5f       	subi	r18, 0xFF	; 255
    1a82:	3f 4f       	sbci	r19, 0xFF	; 255
    1a84:	82 17       	cp	r24, r18
    1a86:	93 07       	cpc	r25, r19
    1a88:	b8 f7       	brcc	.-18     	; 0x1a78 <_Z8delay_usj+0x4>
    1a8a:	08 95       	ret

00001a8c <_Z6buzzerj>:
    1a8c:	af 92       	push	r10
    1a8e:	bf 92       	push	r11
    1a90:	cf 92       	push	r12
    1a92:	df 92       	push	r13
    1a94:	ef 92       	push	r14
    1a96:	ff 92       	push	r15
    1a98:	0f 93       	push	r16
    1a9a:	1f 93       	push	r17
    1a9c:	cf 93       	push	r28
    1a9e:	df 93       	push	r29
    1aa0:	8c 01       	movw	r16, r24
    1aa2:	88 ee       	ldi	r24, 0xE8	; 232
    1aa4:	93 e0       	ldi	r25, 0x03	; 3
    1aa6:	6c 01       	movw	r12, r24
    1aa8:	c0 1a       	sub	r12, r16
    1aaa:	d1 0a       	sbc	r13, r17
    1aac:	c0 e0       	ldi	r28, 0x00	; 0
    1aae:	d0 e0       	ldi	r29, 0x00	; 0
    1ab0:	0f 2e       	mov	r0, r31
    1ab2:	e1 2c       	mov	r14, r1
    1ab4:	f6 e0       	ldi	r31, 0x06	; 6
    1ab6:	ff 2e       	mov	r15, r31
    1ab8:	f0 2d       	mov	r31, r0
    1aba:	bb 24       	eor	r11, r11
    1abc:	b3 94       	inc	r11
    1abe:	ab 2c       	mov	r10, r11
    1ac0:	f7 01       	movw	r30, r14
    1ac2:	a5 82       	std	Z+5, r10	; 0x05
    1ac4:	c8 01       	movw	r24, r16
    1ac6:	0e 94 3a 0d 	call	0x1a74	; 0x1a74 <_Z8delay_usj>
    1aca:	f7 01       	movw	r30, r14
    1acc:	b6 82       	std	Z+6, r11	; 0x06
    1ace:	c8 01       	movw	r24, r16
    1ad0:	0e 94 3a 0d 	call	0x1a74	; 0x1a74 <_Z8delay_usj>
    1ad4:	21 96       	adiw	r28, 0x01	; 1
    1ad6:	cc 16       	cp	r12, r28
    1ad8:	dd 06       	cpc	r13, r29
    1ada:	90 f7       	brcc	.-28     	; 0x1ac0 <_Z6buzzerj+0x34>
    1adc:	df 91       	pop	r29
    1ade:	cf 91       	pop	r28
    1ae0:	1f 91       	pop	r17
    1ae2:	0f 91       	pop	r16
    1ae4:	ff 90       	pop	r15
    1ae6:	ef 90       	pop	r14
    1ae8:	df 90       	pop	r13
    1aea:	cf 90       	pop	r12
    1aec:	bf 90       	pop	r11
    1aee:	af 90       	pop	r10
    1af0:	08 95       	ret

00001af2 <_Z3ledhh>:
    1af2:	61 30       	cpi	r22, 0x01	; 1
    1af4:	19 f4       	brne	.+6      	; 0x1afc <_Z3ledhh+0xa>
    1af6:	80 93 c6 07 	sts	0x07C6, r24	; 0x8007c6 <__TEXT_REGION_LENGTH__+0x7007c6>
    1afa:	08 95       	ret
    1afc:	61 11       	cpse	r22, r1
    1afe:	03 c0       	rjmp	.+6      	; 0x1b06 <_Z3ledhh+0x14>
    1b00:	80 93 c5 07 	sts	0x07C5, r24	; 0x8007c5 <__TEXT_REGION_LENGTH__+0x7007c5>
    1b04:	08 95       	ret
    1b06:	8c e1       	ldi	r24, 0x1C	; 28
    1b08:	80 93 c5 07 	sts	0x07C5, r24	; 0x8007c5 <__TEXT_REGION_LENGTH__+0x7007c5>
    1b0c:	08 95       	ret

00001b0e <_Z9error_ledhh>:
    1b0e:	90 e3       	ldi	r25, 0x30	; 48
    1b10:	90 93 21 07 	sts	0x0721, r25	; 0x800721 <__TEXT_REGION_LENGTH__+0x700721>
    1b14:	82 30       	cpi	r24, 0x02	; 2
    1b16:	81 f4       	brne	.+32     	; 0x1b38 <_Z9error_ledhh+0x2a>
    1b18:	61 30       	cpi	r22, 0x01	; 1
    1b1a:	21 f4       	brne	.+8      	; 0x1b24 <_Z9error_ledhh+0x16>
    1b1c:	80 e1       	ldi	r24, 0x10	; 16
    1b1e:	80 93 25 07 	sts	0x0725, r24	; 0x800725 <__TEXT_REGION_LENGTH__+0x700725>
    1b22:	08 95       	ret
    1b24:	61 11       	cpse	r22, r1
    1b26:	04 c0       	rjmp	.+8      	; 0x1b30 <_Z9error_ledhh+0x22>
    1b28:	80 e1       	ldi	r24, 0x10	; 16
    1b2a:	80 93 26 07 	sts	0x0726, r24	; 0x800726 <__TEXT_REGION_LENGTH__+0x700726>
    1b2e:	08 95       	ret
    1b30:	80 e1       	ldi	r24, 0x10	; 16
    1b32:	80 93 27 07 	sts	0x0727, r24	; 0x800727 <__TEXT_REGION_LENGTH__+0x700727>
    1b36:	08 95       	ret
    1b38:	81 30       	cpi	r24, 0x01	; 1
    1b3a:	79 f4       	brne	.+30     	; 0x1b5a <_Z9error_ledhh+0x4c>
    1b3c:	61 30       	cpi	r22, 0x01	; 1
    1b3e:	21 f4       	brne	.+8      	; 0x1b48 <_Z9error_ledhh+0x3a>
    1b40:	80 e2       	ldi	r24, 0x20	; 32
    1b42:	80 93 25 07 	sts	0x0725, r24	; 0x800725 <__TEXT_REGION_LENGTH__+0x700725>
    1b46:	08 95       	ret
    1b48:	61 11       	cpse	r22, r1
    1b4a:	04 c0       	rjmp	.+8      	; 0x1b54 <_Z9error_ledhh+0x46>
    1b4c:	80 e2       	ldi	r24, 0x20	; 32
    1b4e:	80 93 26 07 	sts	0x0726, r24	; 0x800726 <__TEXT_REGION_LENGTH__+0x700726>
    1b52:	08 95       	ret
    1b54:	80 e2       	ldi	r24, 0x20	; 32
    1b56:	80 93 27 07 	sts	0x0727, r24	; 0x800727 <__TEXT_REGION_LENGTH__+0x700727>
    1b5a:	08 95       	ret

00001b5c <_GLOBAL__sub_I_vl>:
 *  Author: shun2
 */ 

#include "vl53lox.hpp"

twi vl(VL_TWI,100000);
    1b5c:	20 ea       	ldi	r18, 0xA0	; 160
    1b5e:	36 e8       	ldi	r19, 0x86	; 134
    1b60:	41 e0       	ldi	r20, 0x01	; 1
    1b62:	50 e0       	ldi	r21, 0x00	; 0
    1b64:	60 e9       	ldi	r22, 0x90	; 144
    1b66:	74 e0       	ldi	r23, 0x04	; 4
    1b68:	8c e5       	ldi	r24, 0x5C	; 92
    1b6a:	9a e3       	ldi	r25, 0x3A	; 58
    1b6c:	0e 94 dd 0d 	call	0x1bba	; 0x1bba <_ZN3twiC1EP10TWI_structm>
    1b70:	08 95       	ret

00001b72 <_ZN3spiC1EP10SPI_structP11PORT_struct18SPI_PRESCALER_enum>:
    1b72:	fc 01       	movw	r30, r24
    1b74:	60 83       	st	Z, r22
    1b76:	71 83       	std	Z+1, r23	; 0x01
    1b78:	42 83       	std	Z+2, r20	; 0x02
    1b7a:	53 83       	std	Z+3, r21	; 0x03
    1b7c:	80 e4       	ldi	r24, 0x40	; 64
    1b7e:	da 01       	movw	r26, r20
    1b80:	12 96       	adiw	r26, 0x02	; 2
    1b82:	8c 93       	st	X, r24
    1b84:	a2 81       	ldd	r26, Z+2	; 0x02
    1b86:	b3 81       	ldd	r27, Z+3	; 0x03
    1b88:	80 eb       	ldi	r24, 0xB0	; 176
    1b8a:	11 96       	adiw	r26, 0x01	; 1
    1b8c:	8c 93       	st	X, r24
    1b8e:	01 90       	ld	r0, Z+
    1b90:	f0 81       	ld	r31, Z
    1b92:	e0 2d       	mov	r30, r0
    1b94:	20 65       	ori	r18, 0x50	; 80
    1b96:	20 83       	st	Z, r18
    1b98:	08 95       	ret

00001b9a <_ZN3spi4sendEh>:
    1b9a:	dc 01       	movw	r26, r24
    1b9c:	ed 91       	ld	r30, X+
    1b9e:	fc 91       	ld	r31, X
    1ba0:	11 97       	sbiw	r26, 0x01	; 1
    1ba2:	63 83       	std	Z+3, r22	; 0x03
    1ba4:	ed 91       	ld	r30, X+
    1ba6:	fc 91       	ld	r31, X
    1ba8:	11 97       	sbiw	r26, 0x01	; 1
    1baa:	92 81       	ldd	r25, Z+2	; 0x02
    1bac:	99 23       	and	r25, r25
    1bae:	ec f7       	brge	.-6      	; 0x1baa <_ZN3spi4sendEh+0x10>
    1bb0:	12 82       	std	Z+2, r1	; 0x02
    1bb2:	ed 91       	ld	r30, X+
    1bb4:	fc 91       	ld	r31, X
    1bb6:	83 81       	ldd	r24, Z+3	; 0x03
    1bb8:	08 95       	ret

00001bba <_ZN3twiC1EP10TWI_structm>:
    1bba:	0f 93       	push	r16
    1bbc:	1f 93       	push	r17
    1bbe:	cf 93       	push	r28
    1bc0:	df 93       	push	r29
    1bc2:	ec 01       	movw	r28, r24
    1bc4:	8b 01       	movw	r16, r22
    1bc6:	68 87       	std	Y+8, r22	; 0x08
    1bc8:	79 87       	std	Y+9, r23	; 0x09
    1bca:	22 0f       	add	r18, r18
    1bcc:	33 1f       	adc	r19, r19
    1bce:	44 1f       	adc	r20, r20
    1bd0:	55 1f       	adc	r21, r21
    1bd2:	60 e0       	ldi	r22, 0x00	; 0
    1bd4:	78 e4       	ldi	r23, 0x48	; 72
    1bd6:	88 ee       	ldi	r24, 0xE8	; 232
    1bd8:	91 e0       	ldi	r25, 0x01	; 1
    1bda:	0e 94 19 11 	call	0x2232	; 0x2232 <__udivmodsi4>
    1bde:	da 01       	movw	r26, r20
    1be0:	c9 01       	movw	r24, r18
    1be2:	05 97       	sbiw	r24, 0x05	; 5
    1be4:	a1 09       	sbc	r26, r1
    1be6:	b1 09       	sbc	r27, r1
    1be8:	8c 83       	std	Y+4, r24	; 0x04
    1bea:	9d 83       	std	Y+5, r25	; 0x05
    1bec:	ae 83       	std	Y+6, r26	; 0x06
    1bee:	bf 83       	std	Y+7, r27	; 0x07
    1bf0:	f8 01       	movw	r30, r16
    1bf2:	85 83       	std	Z+5, r24	; 0x05
    1bf4:	e8 85       	ldd	r30, Y+8	; 0x08
    1bf6:	f9 85       	ldd	r31, Y+9	; 0x09
    1bf8:	82 81       	ldd	r24, Z+2	; 0x02
    1bfa:	82 83       	std	Z+2, r24	; 0x02
    1bfc:	e8 85       	ldd	r30, Y+8	; 0x08
    1bfe:	f9 85       	ldd	r31, Y+9	; 0x09
    1c00:	81 81       	ldd	r24, Z+1	; 0x01
    1c02:	88 60       	ori	r24, 0x08	; 8
    1c04:	81 83       	std	Z+1, r24	; 0x01
    1c06:	e8 85       	ldd	r30, Y+8	; 0x08
    1c08:	f9 85       	ldd	r31, Y+9	; 0x09
    1c0a:	81 e0       	ldi	r24, 0x01	; 1
    1c0c:	84 83       	std	Z+4, r24	; 0x04
    1c0e:	df 91       	pop	r29
    1c10:	cf 91       	pop	r28
    1c12:	1f 91       	pop	r17
    1c14:	0f 91       	pop	r16
    1c16:	08 95       	ret

00001c18 <_ZN3twi10errorCheckEv>:
    1c18:	dc 01       	movw	r26, r24
    1c1a:	18 96       	adiw	r26, 0x08	; 8
    1c1c:	ed 91       	ld	r30, X+
    1c1e:	fc 91       	ld	r31, X
    1c20:	19 97       	sbiw	r26, 0x09	; 9
    1c22:	84 81       	ldd	r24, Z+4	; 0x04
    1c24:	82 fd       	sbrc	r24, 2
    1c26:	05 c0       	rjmp	.+10     	; 0x1c32 <_ZN3twi10errorCheckEv+0x1a>
    1c28:	94 81       	ldd	r25, Z+4	; 0x04
    1c2a:	89 2f       	mov	r24, r25
    1c2c:	88 70       	andi	r24, 0x08	; 8
    1c2e:	93 ff       	sbrs	r25, 3
    1c30:	09 c0       	rjmp	.+18     	; 0x1c44 <_ZN3twi10errorCheckEv+0x2c>
    1c32:	81 e0       	ldi	r24, 0x01	; 1
    1c34:	84 83       	std	Z+4, r24	; 0x04
    1c36:	18 96       	adiw	r26, 0x08	; 8
    1c38:	ed 91       	ld	r30, X+
    1c3a:	fc 91       	ld	r31, X
    1c3c:	19 97       	sbiw	r26, 0x09	; 9
    1c3e:	83 e0       	ldi	r24, 0x03	; 3
    1c40:	83 83       	std	Z+3, r24	; 0x03
    1c42:	8f ef       	ldi	r24, 0xFF	; 255
    1c44:	08 95       	ret

00001c46 <_ZN3twi7AddressEhh>:
    1c46:	dc 01       	movw	r26, r24
    1c48:	44 23       	and	r20, r20
    1c4a:	59 f0       	breq	.+22     	; 0x1c62 <_ZN3twi7AddressEhh+0x1c>
    1c4c:	18 96       	adiw	r26, 0x08	; 8
    1c4e:	ed 91       	ld	r30, X+
    1c50:	fc 91       	ld	r31, X
    1c52:	19 97       	sbiw	r26, 0x09	; 9
    1c54:	61 60       	ori	r22, 0x01	; 1
    1c56:	66 83       	std	Z+6, r22	; 0x06
    1c58:	18 96       	adiw	r26, 0x08	; 8
    1c5a:	ed 91       	ld	r30, X+
    1c5c:	fc 91       	ld	r31, X
    1c5e:	19 97       	sbiw	r26, 0x09	; 9
    1c60:	07 c0       	rjmp	.+14     	; 0x1c70 <_ZN3twi7AddressEhh+0x2a>
    1c62:	18 96       	adiw	r26, 0x08	; 8
    1c64:	ed 91       	ld	r30, X+
    1c66:	fc 91       	ld	r31, X
    1c68:	19 97       	sbiw	r26, 0x09	; 9
    1c6a:	6e 7f       	andi	r22, 0xFE	; 254
    1c6c:	66 83       	std	Z+6, r22	; 0x06
    1c6e:	f4 cf       	rjmp	.-24     	; 0x1c58 <_ZN3twi7AddressEhh+0x12>
    1c70:	94 81       	ldd	r25, Z+4	; 0x04
    1c72:	90 7c       	andi	r25, 0xC0	; 192
    1c74:	e9 f3       	breq	.-6      	; 0x1c70 <_ZN3twi7AddressEhh+0x2a>
    1c76:	94 81       	ldd	r25, Z+4	; 0x04
    1c78:	89 2f       	mov	r24, r25
    1c7a:	80 71       	andi	r24, 0x10	; 16
    1c7c:	94 ff       	sbrs	r25, 4
    1c7e:	10 c0       	rjmp	.+32     	; 0x1ca0 <_ZN3twi7AddressEhh+0x5a>
    1c80:	84 81       	ldd	r24, Z+4	; 0x04
    1c82:	80 64       	ori	r24, 0x40	; 64
    1c84:	84 83       	std	Z+4, r24	; 0x04
    1c86:	18 96       	adiw	r26, 0x08	; 8
    1c88:	ed 91       	ld	r30, X+
    1c8a:	fc 91       	ld	r31, X
    1c8c:	19 97       	sbiw	r26, 0x09	; 9
    1c8e:	84 81       	ldd	r24, Z+4	; 0x04
    1c90:	80 68       	ori	r24, 0x80	; 128
    1c92:	84 83       	std	Z+4, r24	; 0x04
    1c94:	18 96       	adiw	r26, 0x08	; 8
    1c96:	ed 91       	ld	r30, X+
    1c98:	fc 91       	ld	r31, X
    1c9a:	19 97       	sbiw	r26, 0x09	; 9
    1c9c:	81 e0       	ldi	r24, 0x01	; 1
    1c9e:	84 83       	std	Z+4, r24	; 0x04
    1ca0:	08 95       	ret

00001ca2 <_ZN3twi11WriteSingleEi>:
    1ca2:	cf 93       	push	r28
    1ca4:	df 93       	push	r29
    1ca6:	ec 01       	movw	r28, r24
    1ca8:	e8 85       	ldd	r30, Y+8	; 0x08
    1caa:	f9 85       	ldd	r31, Y+9	; 0x09
    1cac:	67 83       	std	Z+7, r22	; 0x07
    1cae:	e8 85       	ldd	r30, Y+8	; 0x08
    1cb0:	f9 85       	ldd	r31, Y+9	; 0x09
    1cb2:	84 81       	ldd	r24, Z+4	; 0x04
    1cb4:	8c 7f       	andi	r24, 0xFC	; 252
    1cb6:	e9 f3       	breq	.-6      	; 0x1cb2 <_ZN3twi11WriteSingleEi+0x10>
    1cb8:	ce 01       	movw	r24, r28
    1cba:	0e 94 0c 0e 	call	0x1c18	; 0x1c18 <_ZN3twi10errorCheckEv>
    1cbe:	e8 85       	ldd	r30, Y+8	; 0x08
    1cc0:	f9 85       	ldd	r31, Y+9	; 0x09
    1cc2:	94 81       	ldd	r25, Z+4	; 0x04
    1cc4:	89 2f       	mov	r24, r25
    1cc6:	80 71       	andi	r24, 0x10	; 16
    1cc8:	94 ff       	sbrs	r25, 4
    1cca:	0c c0       	rjmp	.+24     	; 0x1ce4 <_ZN3twi11WriteSingleEi+0x42>
    1ccc:	84 81       	ldd	r24, Z+4	; 0x04
    1cce:	80 64       	ori	r24, 0x40	; 64
    1cd0:	84 83       	std	Z+4, r24	; 0x04
    1cd2:	e8 85       	ldd	r30, Y+8	; 0x08
    1cd4:	f9 85       	ldd	r31, Y+9	; 0x09
    1cd6:	84 81       	ldd	r24, Z+4	; 0x04
    1cd8:	80 68       	ori	r24, 0x80	; 128
    1cda:	84 83       	std	Z+4, r24	; 0x04
    1cdc:	e8 85       	ldd	r30, Y+8	; 0x08
    1cde:	f9 85       	ldd	r31, Y+9	; 0x09
    1ce0:	81 e0       	ldi	r24, 0x01	; 1
    1ce2:	84 83       	std	Z+4, r24	; 0x04
    1ce4:	df 91       	pop	r29
    1ce6:	cf 91       	pop	r28
    1ce8:	08 95       	ret

00001cea <_ZN3twi10ReadSingleEh>:
    1cea:	cf 93       	push	r28
    1cec:	df 93       	push	r29
    1cee:	ec 01       	movw	r28, r24
    1cf0:	e8 85       	ldd	r30, Y+8	; 0x08
    1cf2:	f9 85       	ldd	r31, Y+9	; 0x09
    1cf4:	84 81       	ldd	r24, Z+4	; 0x04
    1cf6:	8c 7f       	andi	r24, 0xFC	; 252
    1cf8:	e9 f3       	breq	.-6      	; 0x1cf4 <_ZN3twi10ReadSingleEh+0xa>
    1cfa:	66 23       	and	r22, r22
    1cfc:	19 f0       	breq	.+6      	; 0x1d04 <_ZN3twi10ReadSingleEh+0x1a>
    1cfe:	82 e0       	ldi	r24, 0x02	; 2
    1d00:	83 83       	std	Z+3, r24	; 0x03
    1d02:	02 c0       	rjmp	.+4      	; 0x1d08 <_ZN3twi10ReadSingleEh+0x1e>
    1d04:	86 e0       	ldi	r24, 0x06	; 6
    1d06:	83 83       	std	Z+3, r24	; 0x03
    1d08:	ce 01       	movw	r24, r28
    1d0a:	0e 94 0c 0e 	call	0x1c18	; 0x1c18 <_ZN3twi10errorCheckEv>
    1d0e:	e8 85       	ldd	r30, Y+8	; 0x08
    1d10:	f9 85       	ldd	r31, Y+9	; 0x09
    1d12:	87 81       	ldd	r24, Z+7	; 0x07
    1d14:	df 91       	pop	r29
    1d16:	cf 91       	pop	r28
    1d18:	08 95       	ret

00001d1a <_ZN3twi4StopEv>:
    1d1a:	cf 93       	push	r28
    1d1c:	df 93       	push	r29
    1d1e:	ec 01       	movw	r28, r24
    1d20:	e8 85       	ldd	r30, Y+8	; 0x08
    1d22:	f9 85       	ldd	r31, Y+9	; 0x09
    1d24:	84 81       	ldd	r24, Z+4	; 0x04
    1d26:	8c 7f       	andi	r24, 0xFC	; 252
    1d28:	e9 f3       	breq	.-6      	; 0x1d24 <_ZN3twi4StopEv+0xa>
    1d2a:	ce 01       	movw	r24, r28
    1d2c:	0e 94 0c 0e 	call	0x1c18	; 0x1c18 <_ZN3twi10errorCheckEv>
    1d30:	e8 85       	ldd	r30, Y+8	; 0x08
    1d32:	f9 85       	ldd	r31, Y+9	; 0x09
    1d34:	83 e0       	ldi	r24, 0x03	; 3
    1d36:	83 83       	std	Z+3, r24	; 0x03
    1d38:	df 91       	pop	r29
    1d3a:	cf 91       	pop	r28
    1d3c:	08 95       	ret

00001d3e <_ZN5usartC1EP12USART_structP11PORT_struct>:
    1d3e:	fc 01       	movw	r30, r24
    1d40:	40 83       	st	Z, r20
    1d42:	51 83       	std	Z+1, r21	; 0x01
    1d44:	62 83       	std	Z+2, r22	; 0x02
    1d46:	73 83       	std	Z+3, r23	; 0x03
    1d48:	88 e0       	ldi	r24, 0x08	; 8
    1d4a:	da 01       	movw	r26, r20
    1d4c:	11 96       	adiw	r26, 0x01	; 1
    1d4e:	8c 93       	st	X, r24
    1d50:	a0 81       	ld	r26, Z
    1d52:	b1 81       	ldd	r27, Z+1	; 0x01
    1d54:	84 e0       	ldi	r24, 0x04	; 4
    1d56:	12 96       	adiw	r26, 0x02	; 2
    1d58:	8c 93       	st	X, r24
    1d5a:	a2 81       	ldd	r26, Z+2	; 0x02
    1d5c:	b3 81       	ldd	r27, Z+3	; 0x03
    1d5e:	83 e3       	ldi	r24, 0x33	; 51
    1d60:	16 96       	adiw	r26, 0x06	; 6
    1d62:	8c 93       	st	X, r24
    1d64:	a2 81       	ldd	r26, Z+2	; 0x02
    1d66:	b3 81       	ldd	r27, Z+3	; 0x03
    1d68:	17 96       	adiw	r26, 0x07	; 7
    1d6a:	1c 92       	st	X, r1
    1d6c:	a2 81       	ldd	r26, Z+2	; 0x02
    1d6e:	b3 81       	ldd	r27, Z+3	; 0x03
    1d70:	83 e0       	ldi	r24, 0x03	; 3
    1d72:	15 96       	adiw	r26, 0x05	; 5
    1d74:	8c 93       	st	X, r24
    1d76:	02 80       	ldd	r0, Z+2	; 0x02
    1d78:	f3 81       	ldd	r31, Z+3	; 0x03
    1d7a:	e0 2d       	mov	r30, r0
    1d7c:	88 e1       	ldi	r24, 0x18	; 24
    1d7e:	84 83       	std	Z+4, r24	; 0x04
    1d80:	08 95       	ret

00001d82 <_ZN5usart4sendEc>:
    1d82:	dc 01       	movw	r26, r24
    1d84:	12 96       	adiw	r26, 0x02	; 2
    1d86:	ed 91       	ld	r30, X+
    1d88:	fc 91       	ld	r31, X
    1d8a:	13 97       	sbiw	r26, 0x03	; 3
    1d8c:	81 81       	ldd	r24, Z+1	; 0x01
    1d8e:	85 ff       	sbrs	r24, 5
    1d90:	fd cf       	rjmp	.-6      	; 0x1d8c <_ZN5usart4sendEc+0xa>
    1d92:	60 83       	st	Z, r22
    1d94:	08 95       	ret

00001d96 <_ZN5usart6stringEPKc>:
    1d96:	0f 93       	push	r16
    1d98:	1f 93       	push	r17
    1d9a:	cf 93       	push	r28
    1d9c:	df 93       	push	r29
    1d9e:	eb 01       	movw	r28, r22
    1da0:	68 81       	ld	r22, Y
    1da2:	66 23       	and	r22, r22
    1da4:	41 f0       	breq	.+16     	; 0x1db6 <_ZN5usart6stringEPKc+0x20>
    1da6:	8c 01       	movw	r16, r24
    1da8:	21 96       	adiw	r28, 0x01	; 1
    1daa:	c8 01       	movw	r24, r16
    1dac:	0e 94 c1 0e 	call	0x1d82	; 0x1d82 <_ZN5usart4sendEc>
    1db0:	69 91       	ld	r22, Y+
    1db2:	61 11       	cpse	r22, r1
    1db4:	fa cf       	rjmp	.-12     	; 0x1daa <_ZN5usart6stringEPKc+0x14>
    1db6:	df 91       	pop	r29
    1db8:	cf 91       	pop	r28
    1dba:	1f 91       	pop	r17
    1dbc:	0f 91       	pop	r16
    1dbe:	08 95       	ret

00001dc0 <_ZN5usart6putdecEj>:
    1dc0:	ef 92       	push	r14
    1dc2:	ff 92       	push	r15
    1dc4:	0f 93       	push	r16
    1dc6:	1f 93       	push	r17
    1dc8:	cf 93       	push	r28
    1dca:	df 93       	push	r29
    1dcc:	7c 01       	movw	r14, r24
    1dce:	eb 01       	movw	r28, r22
    1dd0:	9b 01       	movw	r18, r22
    1dd2:	36 95       	lsr	r19
    1dd4:	27 95       	ror	r18
    1dd6:	36 95       	lsr	r19
    1dd8:	27 95       	ror	r18
    1dda:	36 95       	lsr	r19
    1ddc:	27 95       	ror	r18
    1dde:	a5 ec       	ldi	r26, 0xC5	; 197
    1de0:	b0 e2       	ldi	r27, 0x20	; 32
    1de2:	0e 94 44 11 	call	0x2288	; 0x2288 <__umulhisi3>
    1de6:	8c 01       	movw	r16, r24
    1de8:	12 95       	swap	r17
    1dea:	02 95       	swap	r16
    1dec:	0f 70       	andi	r16, 0x0F	; 15
    1dee:	01 27       	eor	r16, r17
    1df0:	1f 70       	andi	r17, 0x0F	; 15
    1df2:	01 27       	eor	r16, r17
    1df4:	60 e3       	ldi	r22, 0x30	; 48
    1df6:	60 0f       	add	r22, r16
    1df8:	c7 01       	movw	r24, r14
    1dfa:	0e 94 c1 0e 	call	0x1d82	; 0x1d82 <_ZN5usart4sendEc>
    1dfe:	28 ee       	ldi	r18, 0xE8	; 232
    1e00:	33 e0       	ldi	r19, 0x03	; 3
    1e02:	02 9f       	mul	r16, r18
    1e04:	c0 01       	movw	r24, r0
    1e06:	03 9f       	mul	r16, r19
    1e08:	90 0d       	add	r25, r0
    1e0a:	12 9f       	mul	r17, r18
    1e0c:	90 0d       	add	r25, r0
    1e0e:	11 24       	eor	r1, r1
    1e10:	c8 1b       	sub	r28, r24
    1e12:	d9 0b       	sbc	r29, r25
    1e14:	9e 01       	movw	r18, r28
    1e16:	36 95       	lsr	r19
    1e18:	27 95       	ror	r18
    1e1a:	36 95       	lsr	r19
    1e1c:	27 95       	ror	r18
    1e1e:	ab e7       	ldi	r26, 0x7B	; 123
    1e20:	b4 e1       	ldi	r27, 0x14	; 20
    1e22:	0e 94 44 11 	call	0x2288	; 0x2288 <__umulhisi3>
    1e26:	8c 01       	movw	r16, r24
    1e28:	16 95       	lsr	r17
    1e2a:	07 95       	ror	r16
    1e2c:	60 e3       	ldi	r22, 0x30	; 48
    1e2e:	60 0f       	add	r22, r16
    1e30:	c7 01       	movw	r24, r14
    1e32:	0e 94 c1 0e 	call	0x1d82	; 0x1d82 <_ZN5usart4sendEc>
    1e36:	24 e6       	ldi	r18, 0x64	; 100
    1e38:	20 9f       	mul	r18, r16
    1e3a:	c0 01       	movw	r24, r0
    1e3c:	21 9f       	mul	r18, r17
    1e3e:	90 0d       	add	r25, r0
    1e40:	11 24       	eor	r1, r1
    1e42:	c8 1b       	sub	r28, r24
    1e44:	d9 0b       	sbc	r29, r25
    1e46:	9e 01       	movw	r18, r28
    1e48:	ad ec       	ldi	r26, 0xCD	; 205
    1e4a:	bc ec       	ldi	r27, 0xCC	; 204
    1e4c:	0e 94 44 11 	call	0x2288	; 0x2288 <__umulhisi3>
    1e50:	8c 01       	movw	r16, r24
    1e52:	16 95       	lsr	r17
    1e54:	07 95       	ror	r16
    1e56:	16 95       	lsr	r17
    1e58:	07 95       	ror	r16
    1e5a:	16 95       	lsr	r17
    1e5c:	07 95       	ror	r16
    1e5e:	60 e3       	ldi	r22, 0x30	; 48
    1e60:	60 0f       	add	r22, r16
    1e62:	c7 01       	movw	r24, r14
    1e64:	0e 94 c1 0e 	call	0x1d82	; 0x1d82 <_ZN5usart4sendEc>
    1e68:	c8 01       	movw	r24, r16
    1e6a:	88 0f       	add	r24, r24
    1e6c:	99 1f       	adc	r25, r25
    1e6e:	00 0f       	add	r16, r16
    1e70:	11 1f       	adc	r17, r17
    1e72:	00 0f       	add	r16, r16
    1e74:	11 1f       	adc	r17, r17
    1e76:	00 0f       	add	r16, r16
    1e78:	11 1f       	adc	r17, r17
    1e7a:	08 0f       	add	r16, r24
    1e7c:	19 1f       	adc	r17, r25
    1e7e:	c0 1b       	sub	r28, r16
    1e80:	d1 0b       	sbc	r29, r17
    1e82:	6c 2f       	mov	r22, r28
    1e84:	60 5d       	subi	r22, 0xD0	; 208
    1e86:	c7 01       	movw	r24, r14
    1e88:	0e 94 c1 0e 	call	0x1d82	; 0x1d82 <_ZN5usart4sendEc>
    1e8c:	df 91       	pop	r29
    1e8e:	cf 91       	pop	r28
    1e90:	1f 91       	pop	r17
    1e92:	0f 91       	pop	r16
    1e94:	ff 90       	pop	r15
    1e96:	ef 90       	pop	r14
    1e98:	08 95       	ret

00001e9a <__subsf3>:
    1e9a:	50 58       	subi	r21, 0x80	; 128

00001e9c <__addsf3>:
    1e9c:	bb 27       	eor	r27, r27
    1e9e:	aa 27       	eor	r26, r26
    1ea0:	0e 94 65 0f 	call	0x1eca	; 0x1eca <__addsf3x>
    1ea4:	0c 94 6d 10 	jmp	0x20da	; 0x20da <__fp_round>
    1ea8:	0e 94 5f 10 	call	0x20be	; 0x20be <__fp_pscA>
    1eac:	38 f0       	brcs	.+14     	; 0x1ebc <__addsf3+0x20>
    1eae:	0e 94 66 10 	call	0x20cc	; 0x20cc <__fp_pscB>
    1eb2:	20 f0       	brcs	.+8      	; 0x1ebc <__addsf3+0x20>
    1eb4:	39 f4       	brne	.+14     	; 0x1ec4 <__addsf3+0x28>
    1eb6:	9f 3f       	cpi	r25, 0xFF	; 255
    1eb8:	19 f4       	brne	.+6      	; 0x1ec0 <__addsf3+0x24>
    1eba:	26 f4       	brtc	.+8      	; 0x1ec4 <__addsf3+0x28>
    1ebc:	0c 94 5c 10 	jmp	0x20b8	; 0x20b8 <__fp_nan>
    1ec0:	0e f4       	brtc	.+2      	; 0x1ec4 <__addsf3+0x28>
    1ec2:	e0 95       	com	r30
    1ec4:	e7 fb       	bst	r30, 7
    1ec6:	0c 94 56 10 	jmp	0x20ac	; 0x20ac <__fp_inf>

00001eca <__addsf3x>:
    1eca:	e9 2f       	mov	r30, r25
    1ecc:	0e 94 7e 10 	call	0x20fc	; 0x20fc <__fp_split3>
    1ed0:	58 f3       	brcs	.-42     	; 0x1ea8 <__addsf3+0xc>
    1ed2:	ba 17       	cp	r27, r26
    1ed4:	62 07       	cpc	r22, r18
    1ed6:	73 07       	cpc	r23, r19
    1ed8:	84 07       	cpc	r24, r20
    1eda:	95 07       	cpc	r25, r21
    1edc:	20 f0       	brcs	.+8      	; 0x1ee6 <__addsf3x+0x1c>
    1ede:	79 f4       	brne	.+30     	; 0x1efe <__addsf3x+0x34>
    1ee0:	a6 f5       	brtc	.+104    	; 0x1f4a <__addsf3x+0x80>
    1ee2:	0c 94 a0 10 	jmp	0x2140	; 0x2140 <__fp_zero>
    1ee6:	0e f4       	brtc	.+2      	; 0x1eea <__addsf3x+0x20>
    1ee8:	e0 95       	com	r30
    1eea:	0b 2e       	mov	r0, r27
    1eec:	ba 2f       	mov	r27, r26
    1eee:	a0 2d       	mov	r26, r0
    1ef0:	0b 01       	movw	r0, r22
    1ef2:	b9 01       	movw	r22, r18
    1ef4:	90 01       	movw	r18, r0
    1ef6:	0c 01       	movw	r0, r24
    1ef8:	ca 01       	movw	r24, r20
    1efa:	a0 01       	movw	r20, r0
    1efc:	11 24       	eor	r1, r1
    1efe:	ff 27       	eor	r31, r31
    1f00:	59 1b       	sub	r21, r25
    1f02:	99 f0       	breq	.+38     	; 0x1f2a <__addsf3x+0x60>
    1f04:	59 3f       	cpi	r21, 0xF9	; 249
    1f06:	50 f4       	brcc	.+20     	; 0x1f1c <__addsf3x+0x52>
    1f08:	50 3e       	cpi	r21, 0xE0	; 224
    1f0a:	68 f1       	brcs	.+90     	; 0x1f66 <__addsf3x+0x9c>
    1f0c:	1a 16       	cp	r1, r26
    1f0e:	f0 40       	sbci	r31, 0x00	; 0
    1f10:	a2 2f       	mov	r26, r18
    1f12:	23 2f       	mov	r18, r19
    1f14:	34 2f       	mov	r19, r20
    1f16:	44 27       	eor	r20, r20
    1f18:	58 5f       	subi	r21, 0xF8	; 248
    1f1a:	f3 cf       	rjmp	.-26     	; 0x1f02 <__addsf3x+0x38>
    1f1c:	46 95       	lsr	r20
    1f1e:	37 95       	ror	r19
    1f20:	27 95       	ror	r18
    1f22:	a7 95       	ror	r26
    1f24:	f0 40       	sbci	r31, 0x00	; 0
    1f26:	53 95       	inc	r21
    1f28:	c9 f7       	brne	.-14     	; 0x1f1c <__addsf3x+0x52>
    1f2a:	7e f4       	brtc	.+30     	; 0x1f4a <__addsf3x+0x80>
    1f2c:	1f 16       	cp	r1, r31
    1f2e:	ba 0b       	sbc	r27, r26
    1f30:	62 0b       	sbc	r22, r18
    1f32:	73 0b       	sbc	r23, r19
    1f34:	84 0b       	sbc	r24, r20
    1f36:	ba f0       	brmi	.+46     	; 0x1f66 <__addsf3x+0x9c>
    1f38:	91 50       	subi	r25, 0x01	; 1
    1f3a:	a1 f0       	breq	.+40     	; 0x1f64 <__addsf3x+0x9a>
    1f3c:	ff 0f       	add	r31, r31
    1f3e:	bb 1f       	adc	r27, r27
    1f40:	66 1f       	adc	r22, r22
    1f42:	77 1f       	adc	r23, r23
    1f44:	88 1f       	adc	r24, r24
    1f46:	c2 f7       	brpl	.-16     	; 0x1f38 <__addsf3x+0x6e>
    1f48:	0e c0       	rjmp	.+28     	; 0x1f66 <__addsf3x+0x9c>
    1f4a:	ba 0f       	add	r27, r26
    1f4c:	62 1f       	adc	r22, r18
    1f4e:	73 1f       	adc	r23, r19
    1f50:	84 1f       	adc	r24, r20
    1f52:	48 f4       	brcc	.+18     	; 0x1f66 <__addsf3x+0x9c>
    1f54:	87 95       	ror	r24
    1f56:	77 95       	ror	r23
    1f58:	67 95       	ror	r22
    1f5a:	b7 95       	ror	r27
    1f5c:	f7 95       	ror	r31
    1f5e:	9e 3f       	cpi	r25, 0xFE	; 254
    1f60:	08 f0       	brcs	.+2      	; 0x1f64 <__addsf3x+0x9a>
    1f62:	b0 cf       	rjmp	.-160    	; 0x1ec4 <__addsf3+0x28>
    1f64:	93 95       	inc	r25
    1f66:	88 0f       	add	r24, r24
    1f68:	08 f0       	brcs	.+2      	; 0x1f6c <__addsf3x+0xa2>
    1f6a:	99 27       	eor	r25, r25
    1f6c:	ee 0f       	add	r30, r30
    1f6e:	97 95       	ror	r25
    1f70:	87 95       	ror	r24
    1f72:	08 95       	ret

00001f74 <__cmpsf2>:
    1f74:	0e 94 32 10 	call	0x2064	; 0x2064 <__fp_cmp>
    1f78:	08 f4       	brcc	.+2      	; 0x1f7c <__cmpsf2+0x8>
    1f7a:	81 e0       	ldi	r24, 0x01	; 1
    1f7c:	08 95       	ret

00001f7e <__fixsfsi>:
    1f7e:	0e 94 c6 0f 	call	0x1f8c	; 0x1f8c <__fixunssfsi>
    1f82:	68 94       	set
    1f84:	b1 11       	cpse	r27, r1
    1f86:	0c 94 a1 10 	jmp	0x2142	; 0x2142 <__fp_szero>
    1f8a:	08 95       	ret

00001f8c <__fixunssfsi>:
    1f8c:	0e 94 86 10 	call	0x210c	; 0x210c <__fp_splitA>
    1f90:	88 f0       	brcs	.+34     	; 0x1fb4 <__fixunssfsi+0x28>
    1f92:	9f 57       	subi	r25, 0x7F	; 127
    1f94:	98 f0       	brcs	.+38     	; 0x1fbc <__fixunssfsi+0x30>
    1f96:	b9 2f       	mov	r27, r25
    1f98:	99 27       	eor	r25, r25
    1f9a:	b7 51       	subi	r27, 0x17	; 23
    1f9c:	b0 f0       	brcs	.+44     	; 0x1fca <__fixunssfsi+0x3e>
    1f9e:	e1 f0       	breq	.+56     	; 0x1fd8 <__fixunssfsi+0x4c>
    1fa0:	66 0f       	add	r22, r22
    1fa2:	77 1f       	adc	r23, r23
    1fa4:	88 1f       	adc	r24, r24
    1fa6:	99 1f       	adc	r25, r25
    1fa8:	1a f0       	brmi	.+6      	; 0x1fb0 <__fixunssfsi+0x24>
    1faa:	ba 95       	dec	r27
    1fac:	c9 f7       	brne	.-14     	; 0x1fa0 <__fixunssfsi+0x14>
    1fae:	14 c0       	rjmp	.+40     	; 0x1fd8 <__fixunssfsi+0x4c>
    1fb0:	b1 30       	cpi	r27, 0x01	; 1
    1fb2:	91 f0       	breq	.+36     	; 0x1fd8 <__fixunssfsi+0x4c>
    1fb4:	0e 94 a0 10 	call	0x2140	; 0x2140 <__fp_zero>
    1fb8:	b1 e0       	ldi	r27, 0x01	; 1
    1fba:	08 95       	ret
    1fbc:	0c 94 a0 10 	jmp	0x2140	; 0x2140 <__fp_zero>
    1fc0:	67 2f       	mov	r22, r23
    1fc2:	78 2f       	mov	r23, r24
    1fc4:	88 27       	eor	r24, r24
    1fc6:	b8 5f       	subi	r27, 0xF8	; 248
    1fc8:	39 f0       	breq	.+14     	; 0x1fd8 <__fixunssfsi+0x4c>
    1fca:	b9 3f       	cpi	r27, 0xF9	; 249
    1fcc:	cc f3       	brlt	.-14     	; 0x1fc0 <__fixunssfsi+0x34>
    1fce:	86 95       	lsr	r24
    1fd0:	77 95       	ror	r23
    1fd2:	67 95       	ror	r22
    1fd4:	b3 95       	inc	r27
    1fd6:	d9 f7       	brne	.-10     	; 0x1fce <__fixunssfsi+0x42>
    1fd8:	3e f4       	brtc	.+14     	; 0x1fe8 <__fixunssfsi+0x5c>
    1fda:	90 95       	com	r25
    1fdc:	80 95       	com	r24
    1fde:	70 95       	com	r23
    1fe0:	61 95       	neg	r22
    1fe2:	7f 4f       	sbci	r23, 0xFF	; 255
    1fe4:	8f 4f       	sbci	r24, 0xFF	; 255
    1fe6:	9f 4f       	sbci	r25, 0xFF	; 255
    1fe8:	08 95       	ret

00001fea <__floatunsisf>:
    1fea:	e8 94       	clt
    1fec:	09 c0       	rjmp	.+18     	; 0x2000 <__floatsisf+0x12>

00001fee <__floatsisf>:
    1fee:	97 fb       	bst	r25, 7
    1ff0:	3e f4       	brtc	.+14     	; 0x2000 <__floatsisf+0x12>
    1ff2:	90 95       	com	r25
    1ff4:	80 95       	com	r24
    1ff6:	70 95       	com	r23
    1ff8:	61 95       	neg	r22
    1ffa:	7f 4f       	sbci	r23, 0xFF	; 255
    1ffc:	8f 4f       	sbci	r24, 0xFF	; 255
    1ffe:	9f 4f       	sbci	r25, 0xFF	; 255
    2000:	99 23       	and	r25, r25
    2002:	a9 f0       	breq	.+42     	; 0x202e <__floatsisf+0x40>
    2004:	f9 2f       	mov	r31, r25
    2006:	96 e9       	ldi	r25, 0x96	; 150
    2008:	bb 27       	eor	r27, r27
    200a:	93 95       	inc	r25
    200c:	f6 95       	lsr	r31
    200e:	87 95       	ror	r24
    2010:	77 95       	ror	r23
    2012:	67 95       	ror	r22
    2014:	b7 95       	ror	r27
    2016:	f1 11       	cpse	r31, r1
    2018:	f8 cf       	rjmp	.-16     	; 0x200a <__floatsisf+0x1c>
    201a:	fa f4       	brpl	.+62     	; 0x205a <__floatsisf+0x6c>
    201c:	bb 0f       	add	r27, r27
    201e:	11 f4       	brne	.+4      	; 0x2024 <__floatsisf+0x36>
    2020:	60 ff       	sbrs	r22, 0
    2022:	1b c0       	rjmp	.+54     	; 0x205a <__floatsisf+0x6c>
    2024:	6f 5f       	subi	r22, 0xFF	; 255
    2026:	7f 4f       	sbci	r23, 0xFF	; 255
    2028:	8f 4f       	sbci	r24, 0xFF	; 255
    202a:	9f 4f       	sbci	r25, 0xFF	; 255
    202c:	16 c0       	rjmp	.+44     	; 0x205a <__floatsisf+0x6c>
    202e:	88 23       	and	r24, r24
    2030:	11 f0       	breq	.+4      	; 0x2036 <__floatsisf+0x48>
    2032:	96 e9       	ldi	r25, 0x96	; 150
    2034:	11 c0       	rjmp	.+34     	; 0x2058 <__floatsisf+0x6a>
    2036:	77 23       	and	r23, r23
    2038:	21 f0       	breq	.+8      	; 0x2042 <__floatsisf+0x54>
    203a:	9e e8       	ldi	r25, 0x8E	; 142
    203c:	87 2f       	mov	r24, r23
    203e:	76 2f       	mov	r23, r22
    2040:	05 c0       	rjmp	.+10     	; 0x204c <__floatsisf+0x5e>
    2042:	66 23       	and	r22, r22
    2044:	71 f0       	breq	.+28     	; 0x2062 <__floatsisf+0x74>
    2046:	96 e8       	ldi	r25, 0x86	; 134
    2048:	86 2f       	mov	r24, r22
    204a:	70 e0       	ldi	r23, 0x00	; 0
    204c:	60 e0       	ldi	r22, 0x00	; 0
    204e:	2a f0       	brmi	.+10     	; 0x205a <__floatsisf+0x6c>
    2050:	9a 95       	dec	r25
    2052:	66 0f       	add	r22, r22
    2054:	77 1f       	adc	r23, r23
    2056:	88 1f       	adc	r24, r24
    2058:	da f7       	brpl	.-10     	; 0x2050 <__floatsisf+0x62>
    205a:	88 0f       	add	r24, r24
    205c:	96 95       	lsr	r25
    205e:	87 95       	ror	r24
    2060:	97 f9       	bld	r25, 7
    2062:	08 95       	ret

00002064 <__fp_cmp>:
    2064:	99 0f       	add	r25, r25
    2066:	00 08       	sbc	r0, r0
    2068:	55 0f       	add	r21, r21
    206a:	aa 0b       	sbc	r26, r26
    206c:	e0 e8       	ldi	r30, 0x80	; 128
    206e:	fe ef       	ldi	r31, 0xFE	; 254
    2070:	16 16       	cp	r1, r22
    2072:	17 06       	cpc	r1, r23
    2074:	e8 07       	cpc	r30, r24
    2076:	f9 07       	cpc	r31, r25
    2078:	c0 f0       	brcs	.+48     	; 0x20aa <__fp_cmp+0x46>
    207a:	12 16       	cp	r1, r18
    207c:	13 06       	cpc	r1, r19
    207e:	e4 07       	cpc	r30, r20
    2080:	f5 07       	cpc	r31, r21
    2082:	98 f0       	brcs	.+38     	; 0x20aa <__fp_cmp+0x46>
    2084:	62 1b       	sub	r22, r18
    2086:	73 0b       	sbc	r23, r19
    2088:	84 0b       	sbc	r24, r20
    208a:	95 0b       	sbc	r25, r21
    208c:	39 f4       	brne	.+14     	; 0x209c <__fp_cmp+0x38>
    208e:	0a 26       	eor	r0, r26
    2090:	61 f0       	breq	.+24     	; 0x20aa <__fp_cmp+0x46>
    2092:	23 2b       	or	r18, r19
    2094:	24 2b       	or	r18, r20
    2096:	25 2b       	or	r18, r21
    2098:	21 f4       	brne	.+8      	; 0x20a2 <__fp_cmp+0x3e>
    209a:	08 95       	ret
    209c:	0a 26       	eor	r0, r26
    209e:	09 f4       	brne	.+2      	; 0x20a2 <__fp_cmp+0x3e>
    20a0:	a1 40       	sbci	r26, 0x01	; 1
    20a2:	a6 95       	lsr	r26
    20a4:	8f ef       	ldi	r24, 0xFF	; 255
    20a6:	81 1d       	adc	r24, r1
    20a8:	81 1d       	adc	r24, r1
    20aa:	08 95       	ret

000020ac <__fp_inf>:
    20ac:	97 f9       	bld	r25, 7
    20ae:	9f 67       	ori	r25, 0x7F	; 127
    20b0:	80 e8       	ldi	r24, 0x80	; 128
    20b2:	70 e0       	ldi	r23, 0x00	; 0
    20b4:	60 e0       	ldi	r22, 0x00	; 0
    20b6:	08 95       	ret

000020b8 <__fp_nan>:
    20b8:	9f ef       	ldi	r25, 0xFF	; 255
    20ba:	80 ec       	ldi	r24, 0xC0	; 192
    20bc:	08 95       	ret

000020be <__fp_pscA>:
    20be:	00 24       	eor	r0, r0
    20c0:	0a 94       	dec	r0
    20c2:	16 16       	cp	r1, r22
    20c4:	17 06       	cpc	r1, r23
    20c6:	18 06       	cpc	r1, r24
    20c8:	09 06       	cpc	r0, r25
    20ca:	08 95       	ret

000020cc <__fp_pscB>:
    20cc:	00 24       	eor	r0, r0
    20ce:	0a 94       	dec	r0
    20d0:	12 16       	cp	r1, r18
    20d2:	13 06       	cpc	r1, r19
    20d4:	14 06       	cpc	r1, r20
    20d6:	05 06       	cpc	r0, r21
    20d8:	08 95       	ret

000020da <__fp_round>:
    20da:	09 2e       	mov	r0, r25
    20dc:	03 94       	inc	r0
    20de:	00 0c       	add	r0, r0
    20e0:	11 f4       	brne	.+4      	; 0x20e6 <__fp_round+0xc>
    20e2:	88 23       	and	r24, r24
    20e4:	52 f0       	brmi	.+20     	; 0x20fa <__fp_round+0x20>
    20e6:	bb 0f       	add	r27, r27
    20e8:	40 f4       	brcc	.+16     	; 0x20fa <__fp_round+0x20>
    20ea:	bf 2b       	or	r27, r31
    20ec:	11 f4       	brne	.+4      	; 0x20f2 <__fp_round+0x18>
    20ee:	60 ff       	sbrs	r22, 0
    20f0:	04 c0       	rjmp	.+8      	; 0x20fa <__fp_round+0x20>
    20f2:	6f 5f       	subi	r22, 0xFF	; 255
    20f4:	7f 4f       	sbci	r23, 0xFF	; 255
    20f6:	8f 4f       	sbci	r24, 0xFF	; 255
    20f8:	9f 4f       	sbci	r25, 0xFF	; 255
    20fa:	08 95       	ret

000020fc <__fp_split3>:
    20fc:	57 fd       	sbrc	r21, 7
    20fe:	90 58       	subi	r25, 0x80	; 128
    2100:	44 0f       	add	r20, r20
    2102:	55 1f       	adc	r21, r21
    2104:	59 f0       	breq	.+22     	; 0x211c <__fp_splitA+0x10>
    2106:	5f 3f       	cpi	r21, 0xFF	; 255
    2108:	71 f0       	breq	.+28     	; 0x2126 <__fp_splitA+0x1a>
    210a:	47 95       	ror	r20

0000210c <__fp_splitA>:
    210c:	88 0f       	add	r24, r24
    210e:	97 fb       	bst	r25, 7
    2110:	99 1f       	adc	r25, r25
    2112:	61 f0       	breq	.+24     	; 0x212c <__fp_splitA+0x20>
    2114:	9f 3f       	cpi	r25, 0xFF	; 255
    2116:	79 f0       	breq	.+30     	; 0x2136 <__fp_splitA+0x2a>
    2118:	87 95       	ror	r24
    211a:	08 95       	ret
    211c:	12 16       	cp	r1, r18
    211e:	13 06       	cpc	r1, r19
    2120:	14 06       	cpc	r1, r20
    2122:	55 1f       	adc	r21, r21
    2124:	f2 cf       	rjmp	.-28     	; 0x210a <__fp_split3+0xe>
    2126:	46 95       	lsr	r20
    2128:	f1 df       	rcall	.-30     	; 0x210c <__fp_splitA>
    212a:	08 c0       	rjmp	.+16     	; 0x213c <__fp_splitA+0x30>
    212c:	16 16       	cp	r1, r22
    212e:	17 06       	cpc	r1, r23
    2130:	18 06       	cpc	r1, r24
    2132:	99 1f       	adc	r25, r25
    2134:	f1 cf       	rjmp	.-30     	; 0x2118 <__fp_splitA+0xc>
    2136:	86 95       	lsr	r24
    2138:	71 05       	cpc	r23, r1
    213a:	61 05       	cpc	r22, r1
    213c:	08 94       	sec
    213e:	08 95       	ret

00002140 <__fp_zero>:
    2140:	e8 94       	clt

00002142 <__fp_szero>:
    2142:	bb 27       	eor	r27, r27
    2144:	66 27       	eor	r22, r22
    2146:	77 27       	eor	r23, r23
    2148:	cb 01       	movw	r24, r22
    214a:	97 f9       	bld	r25, 7
    214c:	08 95       	ret

0000214e <__gesf2>:
    214e:	0e 94 32 10 	call	0x2064	; 0x2064 <__fp_cmp>
    2152:	08 f4       	brcc	.+2      	; 0x2156 <__gesf2+0x8>
    2154:	8f ef       	ldi	r24, 0xFF	; 255
    2156:	08 95       	ret

00002158 <__mulsf3>:
    2158:	0e 94 bf 10 	call	0x217e	; 0x217e <__mulsf3x>
    215c:	0c 94 6d 10 	jmp	0x20da	; 0x20da <__fp_round>
    2160:	0e 94 5f 10 	call	0x20be	; 0x20be <__fp_pscA>
    2164:	38 f0       	brcs	.+14     	; 0x2174 <__mulsf3+0x1c>
    2166:	0e 94 66 10 	call	0x20cc	; 0x20cc <__fp_pscB>
    216a:	20 f0       	brcs	.+8      	; 0x2174 <__mulsf3+0x1c>
    216c:	95 23       	and	r25, r21
    216e:	11 f0       	breq	.+4      	; 0x2174 <__mulsf3+0x1c>
    2170:	0c 94 56 10 	jmp	0x20ac	; 0x20ac <__fp_inf>
    2174:	0c 94 5c 10 	jmp	0x20b8	; 0x20b8 <__fp_nan>
    2178:	11 24       	eor	r1, r1
    217a:	0c 94 a1 10 	jmp	0x2142	; 0x2142 <__fp_szero>

0000217e <__mulsf3x>:
    217e:	0e 94 7e 10 	call	0x20fc	; 0x20fc <__fp_split3>
    2182:	70 f3       	brcs	.-36     	; 0x2160 <__mulsf3+0x8>

00002184 <__mulsf3_pse>:
    2184:	95 9f       	mul	r25, r21
    2186:	c1 f3       	breq	.-16     	; 0x2178 <__mulsf3+0x20>
    2188:	95 0f       	add	r25, r21
    218a:	50 e0       	ldi	r21, 0x00	; 0
    218c:	55 1f       	adc	r21, r21
    218e:	62 9f       	mul	r22, r18
    2190:	f0 01       	movw	r30, r0
    2192:	72 9f       	mul	r23, r18
    2194:	bb 27       	eor	r27, r27
    2196:	f0 0d       	add	r31, r0
    2198:	b1 1d       	adc	r27, r1
    219a:	63 9f       	mul	r22, r19
    219c:	aa 27       	eor	r26, r26
    219e:	f0 0d       	add	r31, r0
    21a0:	b1 1d       	adc	r27, r1
    21a2:	aa 1f       	adc	r26, r26
    21a4:	64 9f       	mul	r22, r20
    21a6:	66 27       	eor	r22, r22
    21a8:	b0 0d       	add	r27, r0
    21aa:	a1 1d       	adc	r26, r1
    21ac:	66 1f       	adc	r22, r22
    21ae:	82 9f       	mul	r24, r18
    21b0:	22 27       	eor	r18, r18
    21b2:	b0 0d       	add	r27, r0
    21b4:	a1 1d       	adc	r26, r1
    21b6:	62 1f       	adc	r22, r18
    21b8:	73 9f       	mul	r23, r19
    21ba:	b0 0d       	add	r27, r0
    21bc:	a1 1d       	adc	r26, r1
    21be:	62 1f       	adc	r22, r18
    21c0:	83 9f       	mul	r24, r19
    21c2:	a0 0d       	add	r26, r0
    21c4:	61 1d       	adc	r22, r1
    21c6:	22 1f       	adc	r18, r18
    21c8:	74 9f       	mul	r23, r20
    21ca:	33 27       	eor	r19, r19
    21cc:	a0 0d       	add	r26, r0
    21ce:	61 1d       	adc	r22, r1
    21d0:	23 1f       	adc	r18, r19
    21d2:	84 9f       	mul	r24, r20
    21d4:	60 0d       	add	r22, r0
    21d6:	21 1d       	adc	r18, r1
    21d8:	82 2f       	mov	r24, r18
    21da:	76 2f       	mov	r23, r22
    21dc:	6a 2f       	mov	r22, r26
    21de:	11 24       	eor	r1, r1
    21e0:	9f 57       	subi	r25, 0x7F	; 127
    21e2:	50 40       	sbci	r21, 0x00	; 0
    21e4:	9a f0       	brmi	.+38     	; 0x220c <__mulsf3_pse+0x88>
    21e6:	f1 f0       	breq	.+60     	; 0x2224 <__mulsf3_pse+0xa0>
    21e8:	88 23       	and	r24, r24
    21ea:	4a f0       	brmi	.+18     	; 0x21fe <__mulsf3_pse+0x7a>
    21ec:	ee 0f       	add	r30, r30
    21ee:	ff 1f       	adc	r31, r31
    21f0:	bb 1f       	adc	r27, r27
    21f2:	66 1f       	adc	r22, r22
    21f4:	77 1f       	adc	r23, r23
    21f6:	88 1f       	adc	r24, r24
    21f8:	91 50       	subi	r25, 0x01	; 1
    21fa:	50 40       	sbci	r21, 0x00	; 0
    21fc:	a9 f7       	brne	.-22     	; 0x21e8 <__mulsf3_pse+0x64>
    21fe:	9e 3f       	cpi	r25, 0xFE	; 254
    2200:	51 05       	cpc	r21, r1
    2202:	80 f0       	brcs	.+32     	; 0x2224 <__mulsf3_pse+0xa0>
    2204:	0c 94 56 10 	jmp	0x20ac	; 0x20ac <__fp_inf>
    2208:	0c 94 a1 10 	jmp	0x2142	; 0x2142 <__fp_szero>
    220c:	5f 3f       	cpi	r21, 0xFF	; 255
    220e:	e4 f3       	brlt	.-8      	; 0x2208 <__mulsf3_pse+0x84>
    2210:	98 3e       	cpi	r25, 0xE8	; 232
    2212:	d4 f3       	brlt	.-12     	; 0x2208 <__mulsf3_pse+0x84>
    2214:	86 95       	lsr	r24
    2216:	77 95       	ror	r23
    2218:	67 95       	ror	r22
    221a:	b7 95       	ror	r27
    221c:	f7 95       	ror	r31
    221e:	e7 95       	ror	r30
    2220:	9f 5f       	subi	r25, 0xFF	; 255
    2222:	c1 f7       	brne	.-16     	; 0x2214 <__mulsf3_pse+0x90>
    2224:	fe 2b       	or	r31, r30
    2226:	88 0f       	add	r24, r24
    2228:	91 1d       	adc	r25, r1
    222a:	96 95       	lsr	r25
    222c:	87 95       	ror	r24
    222e:	97 f9       	bld	r25, 7
    2230:	08 95       	ret

00002232 <__udivmodsi4>:
    2232:	a1 e2       	ldi	r26, 0x21	; 33
    2234:	1a 2e       	mov	r1, r26
    2236:	aa 1b       	sub	r26, r26
    2238:	bb 1b       	sub	r27, r27
    223a:	fd 01       	movw	r30, r26
    223c:	0d c0       	rjmp	.+26     	; 0x2258 <__udivmodsi4_ep>

0000223e <__udivmodsi4_loop>:
    223e:	aa 1f       	adc	r26, r26
    2240:	bb 1f       	adc	r27, r27
    2242:	ee 1f       	adc	r30, r30
    2244:	ff 1f       	adc	r31, r31
    2246:	a2 17       	cp	r26, r18
    2248:	b3 07       	cpc	r27, r19
    224a:	e4 07       	cpc	r30, r20
    224c:	f5 07       	cpc	r31, r21
    224e:	20 f0       	brcs	.+8      	; 0x2258 <__udivmodsi4_ep>
    2250:	a2 1b       	sub	r26, r18
    2252:	b3 0b       	sbc	r27, r19
    2254:	e4 0b       	sbc	r30, r20
    2256:	f5 0b       	sbc	r31, r21

00002258 <__udivmodsi4_ep>:
    2258:	66 1f       	adc	r22, r22
    225a:	77 1f       	adc	r23, r23
    225c:	88 1f       	adc	r24, r24
    225e:	99 1f       	adc	r25, r25
    2260:	1a 94       	dec	r1
    2262:	69 f7       	brne	.-38     	; 0x223e <__udivmodsi4_loop>
    2264:	60 95       	com	r22
    2266:	70 95       	com	r23
    2268:	80 95       	com	r24
    226a:	90 95       	com	r25
    226c:	9b 01       	movw	r18, r22
    226e:	ac 01       	movw	r20, r24
    2270:	bd 01       	movw	r22, r26
    2272:	cf 01       	movw	r24, r30
    2274:	08 95       	ret

00002276 <__tablejump2__>:
    2276:	ee 0f       	add	r30, r30
    2278:	ff 1f       	adc	r31, r31
    227a:	88 1f       	adc	r24, r24
    227c:	8b bf       	out	0x3b, r24	; 59
    227e:	07 90       	elpm	r0, Z+
    2280:	f6 91       	elpm	r31, Z
    2282:	e0 2d       	mov	r30, r0
    2284:	1b be       	out	0x3b, r1	; 59
    2286:	19 94       	eijmp

00002288 <__umulhisi3>:
    2288:	a2 9f       	mul	r26, r18
    228a:	b0 01       	movw	r22, r0
    228c:	b3 9f       	mul	r27, r19
    228e:	c0 01       	movw	r24, r0
    2290:	a3 9f       	mul	r26, r19
    2292:	70 0d       	add	r23, r0
    2294:	81 1d       	adc	r24, r1
    2296:	11 24       	eor	r1, r1
    2298:	91 1d       	adc	r25, r1
    229a:	b2 9f       	mul	r27, r18
    229c:	70 0d       	add	r23, r0
    229e:	81 1d       	adc	r24, r1
    22a0:	11 24       	eor	r1, r1
    22a2:	91 1d       	adc	r25, r1
    22a4:	08 95       	ret

000022a6 <_exit>:
    22a6:	f8 94       	cli

000022a8 <__stop_program>:
    22a8:	ff cf       	rjmp	.-2      	; 0x22a8 <__stop_program>
