
Aquila.elf:     file format elf32-avr

Sections:
Idx Name          Size      VMA       LMA       File off  Algn
  0 .text         0000186a  00000000  00000000  000000b4  2**1
                  CONTENTS, ALLOC, LOAD, READONLY, CODE
  1 .data         0000003c  00802000  0000186a  0000191e  2**0
                  CONTENTS, ALLOC, LOAD, DATA
  2 .bss          0000187c  0080203c  0080203c  0000195a  2**0
                  ALLOC
  3 .eeprom       00000002  00810000  00810000  0000195a  2**0
                  CONTENTS, ALLOC, LOAD, DATA
  4 .comment      00000030  00000000  00000000  0000195c  2**0
                  CONTENTS, READONLY
  5 .note.gnu.avr.deviceinfo 00000040  00000000  00000000  0000198c  2**2
                  CONTENTS, READONLY
  6 .debug_aranges 00000448  00000000  00000000  000019cc  2**0
                  CONTENTS, READONLY, DEBUGGING
  7 .debug_info   0001e673  00000000  00000000  00001e14  2**0
                  CONTENTS, READONLY, DEBUGGING
  8 .debug_abbrev 00005b17  00000000  00000000  00020487  2**0
                  CONTENTS, READONLY, DEBUGGING
  9 .debug_line   00006a92  00000000  00000000  00025f9e  2**0
                  CONTENTS, READONLY, DEBUGGING
 10 .debug_frame  00000e3c  00000000  00000000  0002ca30  2**2
                  CONTENTS, READONLY, DEBUGGING
 11 .debug_str    000046e7  00000000  00000000  0002d86c  2**0
                  CONTENTS, READONLY, DEBUGGING
 12 .debug_loc    0000d979  00000000  00000000  00031f53  2**0
                  CONTENTS, READONLY, DEBUGGING
 13 .debug_ranges 00000530  00000000  00000000  0003f8cc  2**0
                  CONTENTS, READONLY, DEBUGGING

Disassembly of section .text:

00000000 <__vectors>:
       0:	0c 94 09 01 	jmp	0x212	; 0x212 <__ctors_end>
       4:	0c 94 3f 01 	jmp	0x27e	; 0x27e <__bad_interrupt>
       8:	0c 94 3f 01 	jmp	0x27e	; 0x27e <__bad_interrupt>
       c:	0c 94 3f 01 	jmp	0x27e	; 0x27e <__bad_interrupt>
      10:	0c 94 3f 01 	jmp	0x27e	; 0x27e <__bad_interrupt>
      14:	0c 94 3f 01 	jmp	0x27e	; 0x27e <__bad_interrupt>
      18:	0c 94 3f 01 	jmp	0x27e	; 0x27e <__bad_interrupt>
      1c:	0c 94 3f 01 	jmp	0x27e	; 0x27e <__bad_interrupt>
      20:	0c 94 3f 01 	jmp	0x27e	; 0x27e <__bad_interrupt>
      24:	0c 94 3f 01 	jmp	0x27e	; 0x27e <__bad_interrupt>
      28:	0c 94 3f 01 	jmp	0x27e	; 0x27e <__bad_interrupt>
      2c:	0c 94 3f 01 	jmp	0x27e	; 0x27e <__bad_interrupt>
      30:	0c 94 3f 01 	jmp	0x27e	; 0x27e <__bad_interrupt>
      34:	0c 94 3f 01 	jmp	0x27e	; 0x27e <__bad_interrupt>
      38:	0c 94 3f 01 	jmp	0x27e	; 0x27e <__bad_interrupt>
      3c:	0c 94 3f 01 	jmp	0x27e	; 0x27e <__bad_interrupt>
      40:	0c 94 3f 01 	jmp	0x27e	; 0x27e <__bad_interrupt>
      44:	0c 94 3f 01 	jmp	0x27e	; 0x27e <__bad_interrupt>
      48:	0c 94 3f 01 	jmp	0x27e	; 0x27e <__bad_interrupt>
      4c:	0c 94 3f 01 	jmp	0x27e	; 0x27e <__bad_interrupt>
      50:	0c 94 3f 01 	jmp	0x27e	; 0x27e <__bad_interrupt>
      54:	0c 94 3f 01 	jmp	0x27e	; 0x27e <__bad_interrupt>
      58:	0c 94 3f 01 	jmp	0x27e	; 0x27e <__bad_interrupt>
      5c:	0c 94 3f 01 	jmp	0x27e	; 0x27e <__bad_interrupt>
      60:	0c 94 3f 01 	jmp	0x27e	; 0x27e <__bad_interrupt>
      64:	0c 94 3f 01 	jmp	0x27e	; 0x27e <__bad_interrupt>
      68:	0c 94 3f 01 	jmp	0x27e	; 0x27e <__bad_interrupt>
      6c:	0c 94 3f 01 	jmp	0x27e	; 0x27e <__bad_interrupt>
      70:	0c 94 3f 01 	jmp	0x27e	; 0x27e <__bad_interrupt>
      74:	0c 94 3f 01 	jmp	0x27e	; 0x27e <__bad_interrupt>
      78:	0c 94 3f 01 	jmp	0x27e	; 0x27e <__bad_interrupt>
      7c:	0c 94 3f 01 	jmp	0x27e	; 0x27e <__bad_interrupt>
      80:	0c 94 3f 01 	jmp	0x27e	; 0x27e <__bad_interrupt>
      84:	0c 94 3f 01 	jmp	0x27e	; 0x27e <__bad_interrupt>
      88:	0c 94 3f 01 	jmp	0x27e	; 0x27e <__bad_interrupt>
      8c:	0c 94 3f 01 	jmp	0x27e	; 0x27e <__bad_interrupt>
      90:	0c 94 3f 01 	jmp	0x27e	; 0x27e <__bad_interrupt>
      94:	0c 94 3f 01 	jmp	0x27e	; 0x27e <__bad_interrupt>
      98:	0c 94 3f 01 	jmp	0x27e	; 0x27e <__bad_interrupt>
      9c:	0c 94 3f 01 	jmp	0x27e	; 0x27e <__bad_interrupt>
      a0:	0c 94 3f 01 	jmp	0x27e	; 0x27e <__bad_interrupt>
      a4:	0c 94 3f 01 	jmp	0x27e	; 0x27e <__bad_interrupt>
      a8:	0c 94 3f 01 	jmp	0x27e	; 0x27e <__bad_interrupt>
      ac:	0c 94 3f 01 	jmp	0x27e	; 0x27e <__bad_interrupt>
      b0:	0c 94 3f 01 	jmp	0x27e	; 0x27e <__bad_interrupt>
      b4:	0c 94 3f 01 	jmp	0x27e	; 0x27e <__bad_interrupt>
      b8:	0c 94 3f 01 	jmp	0x27e	; 0x27e <__bad_interrupt>
      bc:	0c 94 3f 01 	jmp	0x27e	; 0x27e <__bad_interrupt>
      c0:	0c 94 3f 01 	jmp	0x27e	; 0x27e <__bad_interrupt>
      c4:	0c 94 3f 01 	jmp	0x27e	; 0x27e <__bad_interrupt>
      c8:	0c 94 3f 01 	jmp	0x27e	; 0x27e <__bad_interrupt>
      cc:	0c 94 3f 01 	jmp	0x27e	; 0x27e <__bad_interrupt>
      d0:	0c 94 3f 01 	jmp	0x27e	; 0x27e <__bad_interrupt>
      d4:	0c 94 3f 01 	jmp	0x27e	; 0x27e <__bad_interrupt>
      d8:	0c 94 3f 01 	jmp	0x27e	; 0x27e <__bad_interrupt>
      dc:	0c 94 3f 01 	jmp	0x27e	; 0x27e <__bad_interrupt>
      e0:	0c 94 3f 01 	jmp	0x27e	; 0x27e <__bad_interrupt>
      e4:	0c 94 3f 01 	jmp	0x27e	; 0x27e <__bad_interrupt>
      e8:	0c 94 3f 01 	jmp	0x27e	; 0x27e <__bad_interrupt>
      ec:	0c 94 3f 01 	jmp	0x27e	; 0x27e <__bad_interrupt>
      f0:	0c 94 3f 01 	jmp	0x27e	; 0x27e <__bad_interrupt>
      f4:	0c 94 3f 01 	jmp	0x27e	; 0x27e <__bad_interrupt>
      f8:	0c 94 3f 01 	jmp	0x27e	; 0x27e <__bad_interrupt>
      fc:	0c 94 3f 01 	jmp	0x27e	; 0x27e <__bad_interrupt>
     100:	0c 94 3f 01 	jmp	0x27e	; 0x27e <__bad_interrupt>
     104:	0c 94 3f 01 	jmp	0x27e	; 0x27e <__bad_interrupt>
     108:	0c 94 3f 01 	jmp	0x27e	; 0x27e <__bad_interrupt>
     10c:	0c 94 3f 01 	jmp	0x27e	; 0x27e <__bad_interrupt>
     110:	0c 94 3f 01 	jmp	0x27e	; 0x27e <__bad_interrupt>
     114:	0c 94 3f 01 	jmp	0x27e	; 0x27e <__bad_interrupt>
     118:	0c 94 3f 01 	jmp	0x27e	; 0x27e <__bad_interrupt>
     11c:	0c 94 3f 01 	jmp	0x27e	; 0x27e <__bad_interrupt>
     120:	0c 94 3f 01 	jmp	0x27e	; 0x27e <__bad_interrupt>
     124:	0c 94 3f 01 	jmp	0x27e	; 0x27e <__bad_interrupt>
     128:	0c 94 3f 01 	jmp	0x27e	; 0x27e <__bad_interrupt>
     12c:	0c 94 3f 01 	jmp	0x27e	; 0x27e <__bad_interrupt>
     130:	0c 94 3f 01 	jmp	0x27e	; 0x27e <__bad_interrupt>
     134:	0c 94 9f 07 	jmp	0xf3e	; 0xf3e <__vector_77>
     138:	0c 94 3f 01 	jmp	0x27e	; 0x27e <__bad_interrupt>
     13c:	0c 94 3f 01 	jmp	0x27e	; 0x27e <__bad_interrupt>
     140:	0c 94 3f 01 	jmp	0x27e	; 0x27e <__bad_interrupt>
     144:	0c 94 3f 01 	jmp	0x27e	; 0x27e <__bad_interrupt>
     148:	0c 94 3f 01 	jmp	0x27e	; 0x27e <__bad_interrupt>
     14c:	0c 94 3f 01 	jmp	0x27e	; 0x27e <__bad_interrupt>
     150:	0c 94 3f 01 	jmp	0x27e	; 0x27e <__bad_interrupt>
     154:	0c 94 3f 01 	jmp	0x27e	; 0x27e <__bad_interrupt>
     158:	0c 94 3f 01 	jmp	0x27e	; 0x27e <__bad_interrupt>
     15c:	0c 94 3f 01 	jmp	0x27e	; 0x27e <__bad_interrupt>
     160:	0c 94 3f 01 	jmp	0x27e	; 0x27e <__bad_interrupt>
     164:	0c 94 3f 01 	jmp	0x27e	; 0x27e <__bad_interrupt>
     168:	0c 94 3f 01 	jmp	0x27e	; 0x27e <__bad_interrupt>
     16c:	0c 94 3f 01 	jmp	0x27e	; 0x27e <__bad_interrupt>
     170:	0c 94 3f 01 	jmp	0x27e	; 0x27e <__bad_interrupt>
     174:	0c 94 3f 01 	jmp	0x27e	; 0x27e <__bad_interrupt>
     178:	0c 94 3f 01 	jmp	0x27e	; 0x27e <__bad_interrupt>
     17c:	0c 94 3f 01 	jmp	0x27e	; 0x27e <__bad_interrupt>
     180:	0c 94 3f 01 	jmp	0x27e	; 0x27e <__bad_interrupt>
     184:	0c 94 3f 01 	jmp	0x27e	; 0x27e <__bad_interrupt>
     188:	0c 94 3f 01 	jmp	0x27e	; 0x27e <__bad_interrupt>
     18c:	0c 94 3f 01 	jmp	0x27e	; 0x27e <__bad_interrupt>
     190:	0c 94 3f 01 	jmp	0x27e	; 0x27e <__bad_interrupt>
     194:	0c 94 3f 01 	jmp	0x27e	; 0x27e <__bad_interrupt>
     198:	0c 94 3f 01 	jmp	0x27e	; 0x27e <__bad_interrupt>
     19c:	0c 94 3f 01 	jmp	0x27e	; 0x27e <__bad_interrupt>
     1a0:	0c 94 3f 01 	jmp	0x27e	; 0x27e <__bad_interrupt>
     1a4:	0c 94 3f 01 	jmp	0x27e	; 0x27e <__bad_interrupt>
     1a8:	0c 94 3f 01 	jmp	0x27e	; 0x27e <__bad_interrupt>
     1ac:	0c 94 3f 01 	jmp	0x27e	; 0x27e <__bad_interrupt>
     1b0:	0c 94 3f 01 	jmp	0x27e	; 0x27e <__bad_interrupt>
     1b4:	0c 94 3f 01 	jmp	0x27e	; 0x27e <__bad_interrupt>
     1b8:	0c 94 3f 01 	jmp	0x27e	; 0x27e <__bad_interrupt>
     1bc:	0c 94 3f 01 	jmp	0x27e	; 0x27e <__bad_interrupt>
     1c0:	0c 94 3f 01 	jmp	0x27e	; 0x27e <__bad_interrupt>
     1c4:	0c 94 3f 01 	jmp	0x27e	; 0x27e <__bad_interrupt>
     1c8:	0c 94 3f 01 	jmp	0x27e	; 0x27e <__bad_interrupt>
     1cc:	0c 94 3f 01 	jmp	0x27e	; 0x27e <__bad_interrupt>
     1d0:	0c 94 3f 01 	jmp	0x27e	; 0x27e <__bad_interrupt>
     1d4:	0c 94 3f 01 	jmp	0x27e	; 0x27e <__bad_interrupt>
     1d8:	0c 94 3f 01 	jmp	0x27e	; 0x27e <__bad_interrupt>
     1dc:	0c 94 3f 01 	jmp	0x27e	; 0x27e <__bad_interrupt>
     1e0:	0c 94 3f 01 	jmp	0x27e	; 0x27e <__bad_interrupt>
     1e4:	0c 94 3f 01 	jmp	0x27e	; 0x27e <__bad_interrupt>
     1e8:	0c 94 3f 01 	jmp	0x27e	; 0x27e <__bad_interrupt>
     1ec:	0c 94 3f 01 	jmp	0x27e	; 0x27e <__bad_interrupt>
     1f0:	0c 94 3f 01 	jmp	0x27e	; 0x27e <__bad_interrupt>
     1f4:	0c 94 3f 01 	jmp	0x27e	; 0x27e <__bad_interrupt>
     1f8:	0c 94 3f 01 	jmp	0x27e	; 0x27e <__bad_interrupt>

000001fc <__trampolines_start>:
     1fc:	0c 94 64 0b 	jmp	0x16c8	; 0x16c8 <__divdi3_moddi3+0x16>
     200:	0c 94 60 01 	jmp	0x2c0	; 0x2c0 <_GLOBAL__sub_I_mall>
     204:	0c 94 93 06 	jmp	0xd26	; 0xd26 <_GLOBAL__sub_I_mv>
     208:	0c 94 7b 06 	jmp	0xcf6	; 0xcf6 <_GLOBAL__sub_I_motor_spi>

0000020c <__ctors_start>:
     20c:	60 01       	movw	r12, r0
     20e:	7b 06       	cpc	r7, r27
     210:	93 06       	cpc	r9, r19

00000212 <__ctors_end>:
     212:	11 24       	eor	r1, r1
     214:	1f be       	out	0x3f, r1	; 63
     216:	cf ef       	ldi	r28, 0xFF	; 255
     218:	cd bf       	out	0x3d, r28	; 61
     21a:	df e3       	ldi	r29, 0x3F	; 63
     21c:	de bf       	out	0x3e, r29	; 62
     21e:	00 e0       	ldi	r16, 0x00	; 0
     220:	0c bf       	out	0x3c, r16	; 60
     222:	18 be       	out	0x38, r1	; 56
     224:	19 be       	out	0x39, r1	; 57
     226:	1a be       	out	0x3a, r1	; 58
     228:	1b be       	out	0x3b, r1	; 59

0000022a <__do_copy_data>:
     22a:	10 e2       	ldi	r17, 0x20	; 32
     22c:	a0 e0       	ldi	r26, 0x00	; 0
     22e:	b0 e2       	ldi	r27, 0x20	; 32
     230:	ea e6       	ldi	r30, 0x6A	; 106
     232:	f8 e1       	ldi	r31, 0x18	; 24
     234:	00 e0       	ldi	r16, 0x00	; 0
     236:	0b bf       	out	0x3b, r16	; 59
     238:	02 c0       	rjmp	.+4      	; 0x23e <__do_copy_data+0x14>
     23a:	07 90       	elpm	r0, Z+
     23c:	0d 92       	st	X+, r0
     23e:	ac 33       	cpi	r26, 0x3C	; 60
     240:	b1 07       	cpc	r27, r17
     242:	d9 f7       	brne	.-10     	; 0x23a <__do_copy_data+0x10>
     244:	1b be       	out	0x3b, r1	; 59

00000246 <__do_clear_bss>:
     246:	28 e3       	ldi	r18, 0x38	; 56
     248:	ac e3       	ldi	r26, 0x3C	; 60
     24a:	b0 e2       	ldi	r27, 0x20	; 32
     24c:	01 c0       	rjmp	.+2      	; 0x250 <.do_clear_bss_start>

0000024e <.do_clear_bss_loop>:
     24e:	1d 92       	st	X+, r1

00000250 <.do_clear_bss_start>:
     250:	a8 3b       	cpi	r26, 0xB8	; 184
     252:	b2 07       	cpc	r27, r18
     254:	e1 f7       	brne	.-8      	; 0x24e <.do_clear_bss_loop>

00000256 <__do_global_ctors>:
     256:	11 e0       	ldi	r17, 0x01	; 1
     258:	c9 e0       	ldi	r28, 0x09	; 9
     25a:	d1 e0       	ldi	r29, 0x01	; 1
     25c:	00 e0       	ldi	r16, 0x00	; 0
     25e:	06 c0       	rjmp	.+12     	; 0x26c <__do_global_ctors+0x16>
     260:	21 97       	sbiw	r28, 0x01	; 1
     262:	01 09       	sbc	r16, r1
     264:	80 2f       	mov	r24, r16
     266:	fe 01       	movw	r30, r28
     268:	0e 94 4d 0b 	call	0x169a	; 0x169a <__tablejump2__>
     26c:	c6 30       	cpi	r28, 0x06	; 6
     26e:	d1 07       	cpc	r29, r17
     270:	80 e0       	ldi	r24, 0x00	; 0
     272:	08 07       	cpc	r16, r24
     274:	a9 f7       	brne	.-22     	; 0x260 <__do_global_ctors+0xa>
     276:	0e 94 41 01 	call	0x282	; 0x282 <main>
     27a:	0c 94 33 0c 	jmp	0x1866	; 0x1866 <_exit>

0000027e <__bad_interrupt>:
     27e:	0c 94 00 00 	jmp	0	; 0x0 <__vectors>

00000282 <main>:
	lcd_clear();
	//ping->for_cp(ping_control)->for_write_walls1->write_walls(petal)
}

int main(){	
	init_all();
     282:	0e 94 1b 05 	call	0xa36	; 0xa36 <_Z8init_allv>
	init_mv();
     286:	0e 94 85 06 	call	0xd0a	; 0xd0a <_Z7init_mvv>
	#else
		//round up by default
		__ticks_dc = (uint32_t)(ceil(fabs(__tmp)));
	#endif

	__builtin_avr_delay_cycles(__ticks_dc);
     28a:	2f ef       	ldi	r18, 0xFF	; 255
     28c:	87 e8       	ldi	r24, 0x87	; 135
     28e:	93 e1       	ldi	r25, 0x13	; 19
     290:	21 50       	subi	r18, 0x01	; 1
     292:	80 40       	sbci	r24, 0x00	; 0
     294:	90 40       	sbci	r25, 0x00	; 0
     296:	e1 f7       	brne	.-8      	; 0x290 <main+0xe>
     298:	00 c0       	rjmp	.+0      	; 0x29a <main+0x18>
     29a:	00 00       	nop
	/*lcd_putstr(LCD1_TWI,"Hello");
	motor::wait();
	lcd_clear();
	lcd_putstr(LCD1_TWI,"Ready!");
	lcd_clear();*/
	serial.string("wake_up\n");
     29c:	68 e2       	ldi	r22, 0x28	; 40
     29e:	70 e2       	ldi	r23, 0x20	; 32
     2a0:	8c e3       	ldi	r24, 0x3C	; 60
     2a2:	90 e2       	ldi	r25, 0x20	; 32
     2a4:	0e 94 b1 08 	call	0x1162	; 0x1162 <_ZN5usart6stringEPKc>
	uint8_t s = 0;
	//_delay_ms(500);
	//init_mpu();
	select_bus(7);
     2a8:	87 e0       	ldi	r24, 0x07	; 7
     2aa:	0e 94 9d 06 	call	0xd3a	; 0xd3a <_Z10select_bush>
	while(1){
		sermo_test();
     2ae:	0e 94 7a 07 	call	0xef4	; 0xef4 <_Z10sermo_testv>
		serial.string("\n\r");
     2b2:	67 e3       	ldi	r22, 0x37	; 55
     2b4:	70 e2       	ldi	r23, 0x20	; 32
     2b6:	8c e3       	ldi	r24, 0x3C	; 60
     2b8:	90 e2       	ldi	r25, 0x20	; 32
     2ba:	0e 94 b1 08 	call	0x1162	; 0x1162 <_ZN5usart6stringEPKc>
     2be:	f7 cf       	rjmp	.-18     	; 0x2ae <main+0x2c>

000002c0 <_GLOBAL__sub_I_mall>:
		debugping(v::right);
		debugping(v::back);
		_delay_ms(500);
	}
	return 0;
     2c0:	cf 93       	push	r28
     2c2:	df 93       	push	r29
    ci max=200;
    int size,now;
    node mal[200];
    bl box[200]={0};
public:
    nodes(){size=0;now=0;};
     2c4:	aa e5       	ldi	r26, 0x5A	; 90
     2c6:	b0 e2       	ldi	r27, 0x20	; 32
     2c8:	88 ec       	ldi	r24, 0xC8	; 200
     2ca:	90 e0       	ldi	r25, 0x00	; 0
     2cc:	8d 93       	st	X+, r24
     2ce:	9c 93       	st	X, r25
     2d0:	11 97       	sbiw	r26, 0x01	; 1
     2d2:	80 e7       	ldi	r24, 0x70	; 112
     2d4:	97 e1       	ldi	r25, 0x17	; 23
     2d6:	e0 e6       	ldi	r30, 0x60	; 96
     2d8:	f0 e2       	ldi	r31, 0x20	; 32
     2da:	ef 01       	movw	r28, r30
     2dc:	9c 01       	movw	r18, r24
     2de:	19 92       	st	Y+, r1
     2e0:	21 50       	subi	r18, 0x01	; 1
     2e2:	30 40       	sbci	r19, 0x00	; 0
     2e4:	e1 f7       	brne	.-8      	; 0x2de <_GLOBAL__sub_I_mall+0x1e>
     2e6:	88 ee       	ldi	r24, 0xE8	; 232
     2e8:	93 e0       	ldi	r25, 0x03	; 3
     2ea:	1c 96       	adiw	r26, 0x0c	; 12
     2ec:	8d 93       	st	X+, r24
     2ee:	9c 93       	st	X, r25
     2f0:	1d 97       	sbiw	r26, 0x0d	; 13
     2f2:	80 93 a2 20 	sts	0x20A2, r24	; 0x8020a2 <mall+0x48>
     2f6:	90 93 a3 20 	sts	0x20A3, r25	; 0x8020a3 <mall+0x49>
     2fa:	80 93 c0 20 	sts	0x20C0, r24	; 0x8020c0 <mall+0x66>
     2fe:	90 93 c1 20 	sts	0x20C1, r25	; 0x8020c1 <mall+0x67>
     302:	80 93 de 20 	sts	0x20DE, r24	; 0x8020de <mall+0x84>
     306:	90 93 df 20 	sts	0x20DF, r25	; 0x8020df <mall+0x85>
     30a:	80 93 fc 20 	sts	0x20FC, r24	; 0x8020fc <mall+0xa2>
     30e:	90 93 fd 20 	sts	0x20FD, r25	; 0x8020fd <mall+0xa3>
     312:	80 93 1a 21 	sts	0x211A, r24	; 0x80211a <mall+0xc0>
     316:	90 93 1b 21 	sts	0x211B, r25	; 0x80211b <mall+0xc1>
     31a:	80 93 38 21 	sts	0x2138, r24	; 0x802138 <mall+0xde>
     31e:	90 93 39 21 	sts	0x2139, r25	; 0x802139 <mall+0xdf>
     322:	80 93 56 21 	sts	0x2156, r24	; 0x802156 <mall+0xfc>
     326:	90 93 57 21 	sts	0x2157, r25	; 0x802157 <mall+0xfd>
     32a:	80 93 74 21 	sts	0x2174, r24	; 0x802174 <mall+0x11a>
     32e:	90 93 75 21 	sts	0x2175, r25	; 0x802175 <mall+0x11b>
     332:	80 93 92 21 	sts	0x2192, r24	; 0x802192 <mall+0x138>
     336:	90 93 93 21 	sts	0x2193, r25	; 0x802193 <mall+0x139>
     33a:	80 93 b0 21 	sts	0x21B0, r24	; 0x8021b0 <mall+0x156>
     33e:	90 93 b1 21 	sts	0x21B1, r25	; 0x8021b1 <mall+0x157>
     342:	80 93 ce 21 	sts	0x21CE, r24	; 0x8021ce <mall+0x174>
     346:	90 93 cf 21 	sts	0x21CF, r25	; 0x8021cf <mall+0x175>
     34a:	80 93 ec 21 	sts	0x21EC, r24	; 0x8021ec <mall+0x192>
     34e:	90 93 ed 21 	sts	0x21ED, r25	; 0x8021ed <mall+0x193>
     352:	80 93 0a 22 	sts	0x220A, r24	; 0x80220a <mall+0x1b0>
     356:	90 93 0b 22 	sts	0x220B, r25	; 0x80220b <mall+0x1b1>
     35a:	80 93 28 22 	sts	0x2228, r24	; 0x802228 <mall+0x1ce>
     35e:	90 93 29 22 	sts	0x2229, r25	; 0x802229 <mall+0x1cf>
     362:	80 93 46 22 	sts	0x2246, r24	; 0x802246 <mall+0x1ec>
     366:	90 93 47 22 	sts	0x2247, r25	; 0x802247 <mall+0x1ed>
     36a:	80 93 64 22 	sts	0x2264, r24	; 0x802264 <mall+0x20a>
     36e:	90 93 65 22 	sts	0x2265, r25	; 0x802265 <mall+0x20b>
     372:	80 93 82 22 	sts	0x2282, r24	; 0x802282 <mall+0x228>
     376:	90 93 83 22 	sts	0x2283, r25	; 0x802283 <mall+0x229>
     37a:	80 93 a0 22 	sts	0x22A0, r24	; 0x8022a0 <mall+0x246>
     37e:	90 93 a1 22 	sts	0x22A1, r25	; 0x8022a1 <mall+0x247>
     382:	80 93 be 22 	sts	0x22BE, r24	; 0x8022be <mall+0x264>
     386:	90 93 bf 22 	sts	0x22BF, r25	; 0x8022bf <mall+0x265>
     38a:	80 93 dc 22 	sts	0x22DC, r24	; 0x8022dc <mall+0x282>
     38e:	90 93 dd 22 	sts	0x22DD, r25	; 0x8022dd <mall+0x283>
     392:	80 93 fa 22 	sts	0x22FA, r24	; 0x8022fa <mall+0x2a0>
     396:	90 93 fb 22 	sts	0x22FB, r25	; 0x8022fb <mall+0x2a1>
     39a:	80 93 18 23 	sts	0x2318, r24	; 0x802318 <mall+0x2be>
     39e:	90 93 19 23 	sts	0x2319, r25	; 0x802319 <mall+0x2bf>
     3a2:	80 93 36 23 	sts	0x2336, r24	; 0x802336 <mall+0x2dc>
     3a6:	90 93 37 23 	sts	0x2337, r25	; 0x802337 <mall+0x2dd>
     3aa:	80 93 54 23 	sts	0x2354, r24	; 0x802354 <mall+0x2fa>
     3ae:	90 93 55 23 	sts	0x2355, r25	; 0x802355 <mall+0x2fb>
     3b2:	80 93 72 23 	sts	0x2372, r24	; 0x802372 <mall+0x318>
     3b6:	90 93 73 23 	sts	0x2373, r25	; 0x802373 <mall+0x319>
     3ba:	80 93 90 23 	sts	0x2390, r24	; 0x802390 <mall+0x336>
     3be:	90 93 91 23 	sts	0x2391, r25	; 0x802391 <mall+0x337>
     3c2:	80 93 ae 23 	sts	0x23AE, r24	; 0x8023ae <mall+0x354>
     3c6:	90 93 af 23 	sts	0x23AF, r25	; 0x8023af <mall+0x355>
     3ca:	80 93 cc 23 	sts	0x23CC, r24	; 0x8023cc <mall+0x372>
     3ce:	90 93 cd 23 	sts	0x23CD, r25	; 0x8023cd <mall+0x373>
     3d2:	80 93 ea 23 	sts	0x23EA, r24	; 0x8023ea <mall+0x390>
     3d6:	90 93 eb 23 	sts	0x23EB, r25	; 0x8023eb <mall+0x391>
     3da:	80 93 08 24 	sts	0x2408, r24	; 0x802408 <mall+0x3ae>
     3de:	90 93 09 24 	sts	0x2409, r25	; 0x802409 <mall+0x3af>
     3e2:	80 93 26 24 	sts	0x2426, r24	; 0x802426 <mall+0x3cc>
     3e6:	90 93 27 24 	sts	0x2427, r25	; 0x802427 <mall+0x3cd>
     3ea:	80 93 44 24 	sts	0x2444, r24	; 0x802444 <mall+0x3ea>
     3ee:	90 93 45 24 	sts	0x2445, r25	; 0x802445 <mall+0x3eb>
     3f2:	80 93 62 24 	sts	0x2462, r24	; 0x802462 <mall+0x408>
     3f6:	90 93 63 24 	sts	0x2463, r25	; 0x802463 <mall+0x409>
     3fa:	80 93 80 24 	sts	0x2480, r24	; 0x802480 <mall+0x426>
     3fe:	90 93 81 24 	sts	0x2481, r25	; 0x802481 <mall+0x427>
     402:	80 93 9e 24 	sts	0x249E, r24	; 0x80249e <mall+0x444>
     406:	90 93 9f 24 	sts	0x249F, r25	; 0x80249f <mall+0x445>
     40a:	80 93 bc 24 	sts	0x24BC, r24	; 0x8024bc <mall+0x462>
     40e:	90 93 bd 24 	sts	0x24BD, r25	; 0x8024bd <mall+0x463>
     412:	80 93 da 24 	sts	0x24DA, r24	; 0x8024da <mall+0x480>
     416:	90 93 db 24 	sts	0x24DB, r25	; 0x8024db <mall+0x481>
     41a:	80 93 f8 24 	sts	0x24F8, r24	; 0x8024f8 <mall+0x49e>
     41e:	90 93 f9 24 	sts	0x24F9, r25	; 0x8024f9 <mall+0x49f>
     422:	80 93 16 25 	sts	0x2516, r24	; 0x802516 <mall+0x4bc>
     426:	90 93 17 25 	sts	0x2517, r25	; 0x802517 <mall+0x4bd>
     42a:	80 93 34 25 	sts	0x2534, r24	; 0x802534 <mall+0x4da>
     42e:	90 93 35 25 	sts	0x2535, r25	; 0x802535 <mall+0x4db>
     432:	80 93 52 25 	sts	0x2552, r24	; 0x802552 <mall+0x4f8>
     436:	90 93 53 25 	sts	0x2553, r25	; 0x802553 <mall+0x4f9>
     43a:	80 93 70 25 	sts	0x2570, r24	; 0x802570 <mall+0x516>
     43e:	90 93 71 25 	sts	0x2571, r25	; 0x802571 <mall+0x517>
     442:	80 93 8e 25 	sts	0x258E, r24	; 0x80258e <mall+0x534>
     446:	90 93 8f 25 	sts	0x258F, r25	; 0x80258f <mall+0x535>
     44a:	80 93 ac 25 	sts	0x25AC, r24	; 0x8025ac <mall+0x552>
     44e:	90 93 ad 25 	sts	0x25AD, r25	; 0x8025ad <mall+0x553>
     452:	80 93 ca 25 	sts	0x25CA, r24	; 0x8025ca <mall+0x570>
     456:	90 93 cb 25 	sts	0x25CB, r25	; 0x8025cb <mall+0x571>
     45a:	80 93 e8 25 	sts	0x25E8, r24	; 0x8025e8 <mall+0x58e>
     45e:	90 93 e9 25 	sts	0x25E9, r25	; 0x8025e9 <mall+0x58f>
     462:	80 93 06 26 	sts	0x2606, r24	; 0x802606 <mall+0x5ac>
     466:	90 93 07 26 	sts	0x2607, r25	; 0x802607 <mall+0x5ad>
     46a:	80 93 24 26 	sts	0x2624, r24	; 0x802624 <mall+0x5ca>
     46e:	90 93 25 26 	sts	0x2625, r25	; 0x802625 <mall+0x5cb>
     472:	80 93 42 26 	sts	0x2642, r24	; 0x802642 <mall+0x5e8>
     476:	90 93 43 26 	sts	0x2643, r25	; 0x802643 <mall+0x5e9>
     47a:	80 93 60 26 	sts	0x2660, r24	; 0x802660 <mall+0x606>
     47e:	90 93 61 26 	sts	0x2661, r25	; 0x802661 <mall+0x607>
     482:	80 93 7e 26 	sts	0x267E, r24	; 0x80267e <mall+0x624>
     486:	90 93 7f 26 	sts	0x267F, r25	; 0x80267f <mall+0x625>
     48a:	80 93 9c 26 	sts	0x269C, r24	; 0x80269c <mall+0x642>
     48e:	90 93 9d 26 	sts	0x269D, r25	; 0x80269d <mall+0x643>
     492:	80 93 ba 26 	sts	0x26BA, r24	; 0x8026ba <mall+0x660>
     496:	90 93 bb 26 	sts	0x26BB, r25	; 0x8026bb <mall+0x661>
     49a:	80 93 d8 26 	sts	0x26D8, r24	; 0x8026d8 <mall+0x67e>
     49e:	90 93 d9 26 	sts	0x26D9, r25	; 0x8026d9 <mall+0x67f>
     4a2:	80 93 f6 26 	sts	0x26F6, r24	; 0x8026f6 <mall+0x69c>
     4a6:	90 93 f7 26 	sts	0x26F7, r25	; 0x8026f7 <mall+0x69d>
     4aa:	80 93 14 27 	sts	0x2714, r24	; 0x802714 <mall+0x6ba>
     4ae:	90 93 15 27 	sts	0x2715, r25	; 0x802715 <mall+0x6bb>
     4b2:	80 93 32 27 	sts	0x2732, r24	; 0x802732 <mall+0x6d8>
     4b6:	90 93 33 27 	sts	0x2733, r25	; 0x802733 <mall+0x6d9>
     4ba:	80 93 50 27 	sts	0x2750, r24	; 0x802750 <mall+0x6f6>
     4be:	90 93 51 27 	sts	0x2751, r25	; 0x802751 <mall+0x6f7>
     4c2:	80 93 6e 27 	sts	0x276E, r24	; 0x80276e <mall+0x714>
     4c6:	90 93 6f 27 	sts	0x276F, r25	; 0x80276f <mall+0x715>
     4ca:	80 93 8c 27 	sts	0x278C, r24	; 0x80278c <mall+0x732>
     4ce:	90 93 8d 27 	sts	0x278D, r25	; 0x80278d <mall+0x733>
     4d2:	80 93 aa 27 	sts	0x27AA, r24	; 0x8027aa <mall+0x750>
     4d6:	90 93 ab 27 	sts	0x27AB, r25	; 0x8027ab <mall+0x751>
     4da:	80 93 c8 27 	sts	0x27C8, r24	; 0x8027c8 <mall+0x76e>
     4de:	90 93 c9 27 	sts	0x27C9, r25	; 0x8027c9 <mall+0x76f>
     4e2:	80 93 e6 27 	sts	0x27E6, r24	; 0x8027e6 <mall+0x78c>
     4e6:	90 93 e7 27 	sts	0x27E7, r25	; 0x8027e7 <mall+0x78d>
     4ea:	80 93 04 28 	sts	0x2804, r24	; 0x802804 <mall+0x7aa>
     4ee:	90 93 05 28 	sts	0x2805, r25	; 0x802805 <mall+0x7ab>
     4f2:	80 93 22 28 	sts	0x2822, r24	; 0x802822 <mall+0x7c8>
     4f6:	90 93 23 28 	sts	0x2823, r25	; 0x802823 <mall+0x7c9>
     4fa:	80 93 40 28 	sts	0x2840, r24	; 0x802840 <mall+0x7e6>
     4fe:	90 93 41 28 	sts	0x2841, r25	; 0x802841 <mall+0x7e7>
     502:	80 93 5e 28 	sts	0x285E, r24	; 0x80285e <mall+0x804>
     506:	90 93 5f 28 	sts	0x285F, r25	; 0x80285f <mall+0x805>
     50a:	80 93 7c 28 	sts	0x287C, r24	; 0x80287c <mall+0x822>
     50e:	90 93 7d 28 	sts	0x287D, r25	; 0x80287d <mall+0x823>
     512:	80 93 9a 28 	sts	0x289A, r24	; 0x80289a <mall+0x840>
     516:	90 93 9b 28 	sts	0x289B, r25	; 0x80289b <mall+0x841>
     51a:	80 93 b8 28 	sts	0x28B8, r24	; 0x8028b8 <mall+0x85e>
     51e:	90 93 b9 28 	sts	0x28B9, r25	; 0x8028b9 <mall+0x85f>
     522:	80 93 d6 28 	sts	0x28D6, r24	; 0x8028d6 <mall+0x87c>
     526:	90 93 d7 28 	sts	0x28D7, r25	; 0x8028d7 <mall+0x87d>
     52a:	80 93 f4 28 	sts	0x28F4, r24	; 0x8028f4 <mall+0x89a>
     52e:	90 93 f5 28 	sts	0x28F5, r25	; 0x8028f5 <mall+0x89b>
     532:	80 93 12 29 	sts	0x2912, r24	; 0x802912 <mall+0x8b8>
     536:	90 93 13 29 	sts	0x2913, r25	; 0x802913 <mall+0x8b9>
     53a:	80 93 30 29 	sts	0x2930, r24	; 0x802930 <mall+0x8d6>
     53e:	90 93 31 29 	sts	0x2931, r25	; 0x802931 <mall+0x8d7>
     542:	80 93 4e 29 	sts	0x294E, r24	; 0x80294e <mall+0x8f4>
     546:	90 93 4f 29 	sts	0x294F, r25	; 0x80294f <mall+0x8f5>
     54a:	80 93 6c 29 	sts	0x296C, r24	; 0x80296c <mall+0x912>
     54e:	90 93 6d 29 	sts	0x296D, r25	; 0x80296d <mall+0x913>
     552:	80 93 8a 29 	sts	0x298A, r24	; 0x80298a <mall+0x930>
     556:	90 93 8b 29 	sts	0x298B, r25	; 0x80298b <mall+0x931>
     55a:	80 93 a8 29 	sts	0x29A8, r24	; 0x8029a8 <mall+0x94e>
     55e:	90 93 a9 29 	sts	0x29A9, r25	; 0x8029a9 <mall+0x94f>
     562:	80 93 c6 29 	sts	0x29C6, r24	; 0x8029c6 <mall+0x96c>
     566:	90 93 c7 29 	sts	0x29C7, r25	; 0x8029c7 <mall+0x96d>
     56a:	80 93 e4 29 	sts	0x29E4, r24	; 0x8029e4 <mall+0x98a>
     56e:	90 93 e5 29 	sts	0x29E5, r25	; 0x8029e5 <mall+0x98b>
     572:	80 93 02 2a 	sts	0x2A02, r24	; 0x802a02 <mall+0x9a8>
     576:	90 93 03 2a 	sts	0x2A03, r25	; 0x802a03 <mall+0x9a9>
     57a:	80 93 20 2a 	sts	0x2A20, r24	; 0x802a20 <mall+0x9c6>
     57e:	90 93 21 2a 	sts	0x2A21, r25	; 0x802a21 <mall+0x9c7>
     582:	80 93 3e 2a 	sts	0x2A3E, r24	; 0x802a3e <mall+0x9e4>
     586:	90 93 3f 2a 	sts	0x2A3F, r25	; 0x802a3f <mall+0x9e5>
     58a:	80 93 5c 2a 	sts	0x2A5C, r24	; 0x802a5c <mall+0xa02>
     58e:	90 93 5d 2a 	sts	0x2A5D, r25	; 0x802a5d <mall+0xa03>
     592:	80 93 7a 2a 	sts	0x2A7A, r24	; 0x802a7a <mall+0xa20>
     596:	90 93 7b 2a 	sts	0x2A7B, r25	; 0x802a7b <mall+0xa21>
     59a:	80 93 98 2a 	sts	0x2A98, r24	; 0x802a98 <mall+0xa3e>
     59e:	90 93 99 2a 	sts	0x2A99, r25	; 0x802a99 <mall+0xa3f>
     5a2:	80 93 b6 2a 	sts	0x2AB6, r24	; 0x802ab6 <mall+0xa5c>
     5a6:	90 93 b7 2a 	sts	0x2AB7, r25	; 0x802ab7 <mall+0xa5d>
     5aa:	80 93 d4 2a 	sts	0x2AD4, r24	; 0x802ad4 <mall+0xa7a>
     5ae:	90 93 d5 2a 	sts	0x2AD5, r25	; 0x802ad5 <mall+0xa7b>
     5b2:	80 93 f2 2a 	sts	0x2AF2, r24	; 0x802af2 <mall+0xa98>
     5b6:	90 93 f3 2a 	sts	0x2AF3, r25	; 0x802af3 <mall+0xa99>
     5ba:	80 93 10 2b 	sts	0x2B10, r24	; 0x802b10 <mall+0xab6>
     5be:	90 93 11 2b 	sts	0x2B11, r25	; 0x802b11 <mall+0xab7>
     5c2:	80 93 2e 2b 	sts	0x2B2E, r24	; 0x802b2e <mall+0xad4>
     5c6:	90 93 2f 2b 	sts	0x2B2F, r25	; 0x802b2f <mall+0xad5>
     5ca:	80 93 4c 2b 	sts	0x2B4C, r24	; 0x802b4c <mall+0xaf2>
     5ce:	90 93 4d 2b 	sts	0x2B4D, r25	; 0x802b4d <mall+0xaf3>
     5d2:	80 93 6a 2b 	sts	0x2B6A, r24	; 0x802b6a <mall+0xb10>
     5d6:	90 93 6b 2b 	sts	0x2B6B, r25	; 0x802b6b <mall+0xb11>
     5da:	80 93 88 2b 	sts	0x2B88, r24	; 0x802b88 <mall+0xb2e>
     5de:	90 93 89 2b 	sts	0x2B89, r25	; 0x802b89 <mall+0xb2f>
     5e2:	80 93 a6 2b 	sts	0x2BA6, r24	; 0x802ba6 <mall+0xb4c>
     5e6:	90 93 a7 2b 	sts	0x2BA7, r25	; 0x802ba7 <mall+0xb4d>
     5ea:	80 93 c4 2b 	sts	0x2BC4, r24	; 0x802bc4 <mall+0xb6a>
     5ee:	90 93 c5 2b 	sts	0x2BC5, r25	; 0x802bc5 <mall+0xb6b>
     5f2:	80 93 e2 2b 	sts	0x2BE2, r24	; 0x802be2 <mall+0xb88>
     5f6:	90 93 e3 2b 	sts	0x2BE3, r25	; 0x802be3 <mall+0xb89>
     5fa:	80 93 00 2c 	sts	0x2C00, r24	; 0x802c00 <mall+0xba6>
     5fe:	90 93 01 2c 	sts	0x2C01, r25	; 0x802c01 <mall+0xba7>
     602:	80 93 1e 2c 	sts	0x2C1E, r24	; 0x802c1e <mall+0xbc4>
     606:	90 93 1f 2c 	sts	0x2C1F, r25	; 0x802c1f <mall+0xbc5>
     60a:	80 93 3c 2c 	sts	0x2C3C, r24	; 0x802c3c <mall+0xbe2>
     60e:	90 93 3d 2c 	sts	0x2C3D, r25	; 0x802c3d <mall+0xbe3>
     612:	80 93 5a 2c 	sts	0x2C5A, r24	; 0x802c5a <mall+0xc00>
     616:	90 93 5b 2c 	sts	0x2C5B, r25	; 0x802c5b <mall+0xc01>
     61a:	80 93 78 2c 	sts	0x2C78, r24	; 0x802c78 <mall+0xc1e>
     61e:	90 93 79 2c 	sts	0x2C79, r25	; 0x802c79 <mall+0xc1f>
     622:	80 93 96 2c 	sts	0x2C96, r24	; 0x802c96 <mall+0xc3c>
     626:	90 93 97 2c 	sts	0x2C97, r25	; 0x802c97 <mall+0xc3d>
     62a:	80 93 b4 2c 	sts	0x2CB4, r24	; 0x802cb4 <mall+0xc5a>
     62e:	90 93 b5 2c 	sts	0x2CB5, r25	; 0x802cb5 <mall+0xc5b>
     632:	80 93 d2 2c 	sts	0x2CD2, r24	; 0x802cd2 <mall+0xc78>
     636:	90 93 d3 2c 	sts	0x2CD3, r25	; 0x802cd3 <mall+0xc79>
     63a:	80 93 f0 2c 	sts	0x2CF0, r24	; 0x802cf0 <mall+0xc96>
     63e:	90 93 f1 2c 	sts	0x2CF1, r25	; 0x802cf1 <mall+0xc97>
     642:	80 93 0e 2d 	sts	0x2D0E, r24	; 0x802d0e <mall+0xcb4>
     646:	90 93 0f 2d 	sts	0x2D0F, r25	; 0x802d0f <mall+0xcb5>
     64a:	80 93 2c 2d 	sts	0x2D2C, r24	; 0x802d2c <mall+0xcd2>
     64e:	90 93 2d 2d 	sts	0x2D2D, r25	; 0x802d2d <mall+0xcd3>
     652:	80 93 4a 2d 	sts	0x2D4A, r24	; 0x802d4a <mall+0xcf0>
     656:	90 93 4b 2d 	sts	0x2D4B, r25	; 0x802d4b <mall+0xcf1>
     65a:	80 93 68 2d 	sts	0x2D68, r24	; 0x802d68 <mall+0xd0e>
     65e:	90 93 69 2d 	sts	0x2D69, r25	; 0x802d69 <mall+0xd0f>
     662:	80 93 86 2d 	sts	0x2D86, r24	; 0x802d86 <mall+0xd2c>
     666:	90 93 87 2d 	sts	0x2D87, r25	; 0x802d87 <mall+0xd2d>
     66a:	80 93 a4 2d 	sts	0x2DA4, r24	; 0x802da4 <mall+0xd4a>
     66e:	90 93 a5 2d 	sts	0x2DA5, r25	; 0x802da5 <mall+0xd4b>
     672:	80 93 c2 2d 	sts	0x2DC2, r24	; 0x802dc2 <mall+0xd68>
     676:	90 93 c3 2d 	sts	0x2DC3, r25	; 0x802dc3 <mall+0xd69>
     67a:	80 93 e0 2d 	sts	0x2DE0, r24	; 0x802de0 <mall+0xd86>
     67e:	90 93 e1 2d 	sts	0x2DE1, r25	; 0x802de1 <mall+0xd87>
     682:	80 93 fe 2d 	sts	0x2DFE, r24	; 0x802dfe <mall+0xda4>
     686:	90 93 ff 2d 	sts	0x2DFF, r25	; 0x802dff <mall+0xda5>
     68a:	80 93 1c 2e 	sts	0x2E1C, r24	; 0x802e1c <mall+0xdc2>
     68e:	90 93 1d 2e 	sts	0x2E1D, r25	; 0x802e1d <mall+0xdc3>
     692:	80 93 3a 2e 	sts	0x2E3A, r24	; 0x802e3a <mall+0xde0>
     696:	90 93 3b 2e 	sts	0x2E3B, r25	; 0x802e3b <mall+0xde1>
     69a:	80 93 58 2e 	sts	0x2E58, r24	; 0x802e58 <mall+0xdfe>
     69e:	90 93 59 2e 	sts	0x2E59, r25	; 0x802e59 <mall+0xdff>
     6a2:	80 93 76 2e 	sts	0x2E76, r24	; 0x802e76 <mall+0xe1c>
     6a6:	90 93 77 2e 	sts	0x2E77, r25	; 0x802e77 <mall+0xe1d>
     6aa:	80 93 94 2e 	sts	0x2E94, r24	; 0x802e94 <mall+0xe3a>
     6ae:	90 93 95 2e 	sts	0x2E95, r25	; 0x802e95 <mall+0xe3b>
     6b2:	80 93 b2 2e 	sts	0x2EB2, r24	; 0x802eb2 <mall+0xe58>
     6b6:	90 93 b3 2e 	sts	0x2EB3, r25	; 0x802eb3 <mall+0xe59>
     6ba:	80 93 d0 2e 	sts	0x2ED0, r24	; 0x802ed0 <mall+0xe76>
     6be:	90 93 d1 2e 	sts	0x2ED1, r25	; 0x802ed1 <mall+0xe77>
     6c2:	80 93 ee 2e 	sts	0x2EEE, r24	; 0x802eee <mall+0xe94>
     6c6:	90 93 ef 2e 	sts	0x2EEF, r25	; 0x802eef <mall+0xe95>
     6ca:	80 93 0c 2f 	sts	0x2F0C, r24	; 0x802f0c <mall+0xeb2>
     6ce:	90 93 0d 2f 	sts	0x2F0D, r25	; 0x802f0d <mall+0xeb3>
     6d2:	80 93 2a 2f 	sts	0x2F2A, r24	; 0x802f2a <mall+0xed0>
     6d6:	90 93 2b 2f 	sts	0x2F2B, r25	; 0x802f2b <mall+0xed1>
     6da:	80 93 48 2f 	sts	0x2F48, r24	; 0x802f48 <mall+0xeee>
     6de:	90 93 49 2f 	sts	0x2F49, r25	; 0x802f49 <mall+0xeef>
     6e2:	80 93 66 2f 	sts	0x2F66, r24	; 0x802f66 <mall+0xf0c>
     6e6:	90 93 67 2f 	sts	0x2F67, r25	; 0x802f67 <mall+0xf0d>
     6ea:	80 93 84 2f 	sts	0x2F84, r24	; 0x802f84 <mall+0xf2a>
     6ee:	90 93 85 2f 	sts	0x2F85, r25	; 0x802f85 <mall+0xf2b>
     6f2:	80 93 a2 2f 	sts	0x2FA2, r24	; 0x802fa2 <mall+0xf48>
     6f6:	90 93 a3 2f 	sts	0x2FA3, r25	; 0x802fa3 <mall+0xf49>
     6fa:	80 93 c0 2f 	sts	0x2FC0, r24	; 0x802fc0 <mall+0xf66>
     6fe:	90 93 c1 2f 	sts	0x2FC1, r25	; 0x802fc1 <mall+0xf67>
     702:	80 93 de 2f 	sts	0x2FDE, r24	; 0x802fde <mall+0xf84>
     706:	90 93 df 2f 	sts	0x2FDF, r25	; 0x802fdf <mall+0xf85>
     70a:	80 93 fc 2f 	sts	0x2FFC, r24	; 0x802ffc <mall+0xfa2>
     70e:	90 93 fd 2f 	sts	0x2FFD, r25	; 0x802ffd <mall+0xfa3>
     712:	80 93 1a 30 	sts	0x301A, r24	; 0x80301a <mall+0xfc0>
     716:	90 93 1b 30 	sts	0x301B, r25	; 0x80301b <mall+0xfc1>
     71a:	80 93 38 30 	sts	0x3038, r24	; 0x803038 <mall+0xfde>
     71e:	90 93 39 30 	sts	0x3039, r25	; 0x803039 <mall+0xfdf>
     722:	80 93 56 30 	sts	0x3056, r24	; 0x803056 <mall+0xffc>
     726:	90 93 57 30 	sts	0x3057, r25	; 0x803057 <mall+0xffd>
     72a:	80 93 74 30 	sts	0x3074, r24	; 0x803074 <mall+0x101a>
     72e:	90 93 75 30 	sts	0x3075, r25	; 0x803075 <mall+0x101b>
     732:	80 93 92 30 	sts	0x3092, r24	; 0x803092 <mall+0x1038>
     736:	90 93 93 30 	sts	0x3093, r25	; 0x803093 <mall+0x1039>
     73a:	80 93 b0 30 	sts	0x30B0, r24	; 0x8030b0 <mall+0x1056>
     73e:	90 93 b1 30 	sts	0x30B1, r25	; 0x8030b1 <mall+0x1057>
     742:	80 93 ce 30 	sts	0x30CE, r24	; 0x8030ce <mall+0x1074>
     746:	90 93 cf 30 	sts	0x30CF, r25	; 0x8030cf <mall+0x1075>
     74a:	80 93 ec 30 	sts	0x30EC, r24	; 0x8030ec <mall+0x1092>
     74e:	90 93 ed 30 	sts	0x30ED, r25	; 0x8030ed <mall+0x1093>
     752:	80 93 0a 31 	sts	0x310A, r24	; 0x80310a <mall+0x10b0>
     756:	90 93 0b 31 	sts	0x310B, r25	; 0x80310b <mall+0x10b1>
     75a:	80 93 28 31 	sts	0x3128, r24	; 0x803128 <mall+0x10ce>
     75e:	90 93 29 31 	sts	0x3129, r25	; 0x803129 <mall+0x10cf>
     762:	80 93 46 31 	sts	0x3146, r24	; 0x803146 <mall+0x10ec>
     766:	90 93 47 31 	sts	0x3147, r25	; 0x803147 <mall+0x10ed>
     76a:	80 93 64 31 	sts	0x3164, r24	; 0x803164 <mall+0x110a>
     76e:	90 93 65 31 	sts	0x3165, r25	; 0x803165 <mall+0x110b>
     772:	80 93 82 31 	sts	0x3182, r24	; 0x803182 <mall+0x1128>
     776:	90 93 83 31 	sts	0x3183, r25	; 0x803183 <mall+0x1129>
     77a:	80 93 a0 31 	sts	0x31A0, r24	; 0x8031a0 <mall+0x1146>
     77e:	90 93 a1 31 	sts	0x31A1, r25	; 0x8031a1 <mall+0x1147>
     782:	80 93 be 31 	sts	0x31BE, r24	; 0x8031be <mall+0x1164>
     786:	90 93 bf 31 	sts	0x31BF, r25	; 0x8031bf <mall+0x1165>
     78a:	80 93 dc 31 	sts	0x31DC, r24	; 0x8031dc <mall+0x1182>
     78e:	90 93 dd 31 	sts	0x31DD, r25	; 0x8031dd <mall+0x1183>
     792:	80 93 fa 31 	sts	0x31FA, r24	; 0x8031fa <mall+0x11a0>
     796:	90 93 fb 31 	sts	0x31FB, r25	; 0x8031fb <mall+0x11a1>
     79a:	80 93 18 32 	sts	0x3218, r24	; 0x803218 <mall+0x11be>
     79e:	90 93 19 32 	sts	0x3219, r25	; 0x803219 <mall+0x11bf>
     7a2:	80 93 36 32 	sts	0x3236, r24	; 0x803236 <mall+0x11dc>
     7a6:	90 93 37 32 	sts	0x3237, r25	; 0x803237 <mall+0x11dd>
     7aa:	80 93 54 32 	sts	0x3254, r24	; 0x803254 <mall+0x11fa>
     7ae:	90 93 55 32 	sts	0x3255, r25	; 0x803255 <mall+0x11fb>
     7b2:	80 93 72 32 	sts	0x3272, r24	; 0x803272 <mall+0x1218>
     7b6:	90 93 73 32 	sts	0x3273, r25	; 0x803273 <mall+0x1219>
     7ba:	80 93 90 32 	sts	0x3290, r24	; 0x803290 <mall+0x1236>
     7be:	90 93 91 32 	sts	0x3291, r25	; 0x803291 <mall+0x1237>
     7c2:	80 93 ae 32 	sts	0x32AE, r24	; 0x8032ae <mall+0x1254>
     7c6:	90 93 af 32 	sts	0x32AF, r25	; 0x8032af <mall+0x1255>
     7ca:	80 93 cc 32 	sts	0x32CC, r24	; 0x8032cc <mall+0x1272>
     7ce:	90 93 cd 32 	sts	0x32CD, r25	; 0x8032cd <mall+0x1273>
     7d2:	80 93 ea 32 	sts	0x32EA, r24	; 0x8032ea <mall+0x1290>
     7d6:	90 93 eb 32 	sts	0x32EB, r25	; 0x8032eb <mall+0x1291>
     7da:	80 93 08 33 	sts	0x3308, r24	; 0x803308 <mall+0x12ae>
     7de:	90 93 09 33 	sts	0x3309, r25	; 0x803309 <mall+0x12af>
     7e2:	80 93 26 33 	sts	0x3326, r24	; 0x803326 <mall+0x12cc>
     7e6:	90 93 27 33 	sts	0x3327, r25	; 0x803327 <mall+0x12cd>
     7ea:	80 93 44 33 	sts	0x3344, r24	; 0x803344 <mall+0x12ea>
     7ee:	90 93 45 33 	sts	0x3345, r25	; 0x803345 <mall+0x12eb>
     7f2:	80 93 62 33 	sts	0x3362, r24	; 0x803362 <mall+0x1308>
     7f6:	90 93 63 33 	sts	0x3363, r25	; 0x803363 <mall+0x1309>
     7fa:	80 93 80 33 	sts	0x3380, r24	; 0x803380 <mall+0x1326>
     7fe:	90 93 81 33 	sts	0x3381, r25	; 0x803381 <mall+0x1327>
     802:	80 93 9e 33 	sts	0x339E, r24	; 0x80339e <mall+0x1344>
     806:	90 93 9f 33 	sts	0x339F, r25	; 0x80339f <mall+0x1345>
     80a:	80 93 bc 33 	sts	0x33BC, r24	; 0x8033bc <mall+0x1362>
     80e:	90 93 bd 33 	sts	0x33BD, r25	; 0x8033bd <mall+0x1363>
     812:	80 93 da 33 	sts	0x33DA, r24	; 0x8033da <mall+0x1380>
     816:	90 93 db 33 	sts	0x33DB, r25	; 0x8033db <mall+0x1381>
     81a:	80 93 f8 33 	sts	0x33F8, r24	; 0x8033f8 <mall+0x139e>
     81e:	90 93 f9 33 	sts	0x33F9, r25	; 0x8033f9 <mall+0x139f>
     822:	80 93 16 34 	sts	0x3416, r24	; 0x803416 <mall+0x13bc>
     826:	90 93 17 34 	sts	0x3417, r25	; 0x803417 <mall+0x13bd>
     82a:	80 93 34 34 	sts	0x3434, r24	; 0x803434 <mall+0x13da>
     82e:	90 93 35 34 	sts	0x3435, r25	; 0x803435 <mall+0x13db>
     832:	80 93 52 34 	sts	0x3452, r24	; 0x803452 <mall+0x13f8>
     836:	90 93 53 34 	sts	0x3453, r25	; 0x803453 <mall+0x13f9>
     83a:	80 93 70 34 	sts	0x3470, r24	; 0x803470 <mall+0x1416>
     83e:	90 93 71 34 	sts	0x3471, r25	; 0x803471 <mall+0x1417>
     842:	80 93 8e 34 	sts	0x348E, r24	; 0x80348e <mall+0x1434>
     846:	90 93 8f 34 	sts	0x348F, r25	; 0x80348f <mall+0x1435>
     84a:	80 93 ac 34 	sts	0x34AC, r24	; 0x8034ac <mall+0x1452>
     84e:	90 93 ad 34 	sts	0x34AD, r25	; 0x8034ad <mall+0x1453>
     852:	80 93 ca 34 	sts	0x34CA, r24	; 0x8034ca <mall+0x1470>
     856:	90 93 cb 34 	sts	0x34CB, r25	; 0x8034cb <mall+0x1471>
     85a:	80 93 e8 34 	sts	0x34E8, r24	; 0x8034e8 <mall+0x148e>
     85e:	90 93 e9 34 	sts	0x34E9, r25	; 0x8034e9 <mall+0x148f>
     862:	80 93 06 35 	sts	0x3506, r24	; 0x803506 <mall+0x14ac>
     866:	90 93 07 35 	sts	0x3507, r25	; 0x803507 <mall+0x14ad>
     86a:	80 93 24 35 	sts	0x3524, r24	; 0x803524 <mall+0x14ca>
     86e:	90 93 25 35 	sts	0x3525, r25	; 0x803525 <mall+0x14cb>
     872:	80 93 42 35 	sts	0x3542, r24	; 0x803542 <mall+0x14e8>
     876:	90 93 43 35 	sts	0x3543, r25	; 0x803543 <mall+0x14e9>
     87a:	80 93 60 35 	sts	0x3560, r24	; 0x803560 <mall+0x1506>
     87e:	90 93 61 35 	sts	0x3561, r25	; 0x803561 <mall+0x1507>
     882:	80 93 7e 35 	sts	0x357E, r24	; 0x80357e <mall+0x1524>
     886:	90 93 7f 35 	sts	0x357F, r25	; 0x80357f <mall+0x1525>
     88a:	80 93 9c 35 	sts	0x359C, r24	; 0x80359c <mall+0x1542>
     88e:	90 93 9d 35 	sts	0x359D, r25	; 0x80359d <mall+0x1543>
     892:	80 93 ba 35 	sts	0x35BA, r24	; 0x8035ba <mall+0x1560>
     896:	90 93 bb 35 	sts	0x35BB, r25	; 0x8035bb <mall+0x1561>
     89a:	80 93 d8 35 	sts	0x35D8, r24	; 0x8035d8 <mall+0x157e>
     89e:	90 93 d9 35 	sts	0x35D9, r25	; 0x8035d9 <mall+0x157f>
     8a2:	80 93 f6 35 	sts	0x35F6, r24	; 0x8035f6 <mall+0x159c>
     8a6:	90 93 f7 35 	sts	0x35F7, r25	; 0x8035f7 <mall+0x159d>
     8aa:	80 93 14 36 	sts	0x3614, r24	; 0x803614 <mall+0x15ba>
     8ae:	90 93 15 36 	sts	0x3615, r25	; 0x803615 <mall+0x15bb>
     8b2:	80 93 32 36 	sts	0x3632, r24	; 0x803632 <mall+0x15d8>
     8b6:	90 93 33 36 	sts	0x3633, r25	; 0x803633 <mall+0x15d9>
     8ba:	80 93 50 36 	sts	0x3650, r24	; 0x803650 <mall+0x15f6>
     8be:	90 93 51 36 	sts	0x3651, r25	; 0x803651 <mall+0x15f7>
     8c2:	80 93 6e 36 	sts	0x366E, r24	; 0x80366e <mall+0x1614>
     8c6:	90 93 6f 36 	sts	0x366F, r25	; 0x80366f <mall+0x1615>
     8ca:	80 93 8c 36 	sts	0x368C, r24	; 0x80368c <mall+0x1632>
     8ce:	90 93 8d 36 	sts	0x368D, r25	; 0x80368d <mall+0x1633>
     8d2:	80 93 aa 36 	sts	0x36AA, r24	; 0x8036aa <mall+0x1650>
     8d6:	90 93 ab 36 	sts	0x36AB, r25	; 0x8036ab <mall+0x1651>
     8da:	80 93 c8 36 	sts	0x36C8, r24	; 0x8036c8 <mall+0x166e>
     8de:	90 93 c9 36 	sts	0x36C9, r25	; 0x8036c9 <mall+0x166f>
     8e2:	80 93 e6 36 	sts	0x36E6, r24	; 0x8036e6 <mall+0x168c>
     8e6:	90 93 e7 36 	sts	0x36E7, r25	; 0x8036e7 <mall+0x168d>
     8ea:	80 93 04 37 	sts	0x3704, r24	; 0x803704 <mall+0x16aa>
     8ee:	90 93 05 37 	sts	0x3705, r25	; 0x803705 <mall+0x16ab>
     8f2:	80 93 22 37 	sts	0x3722, r24	; 0x803722 <mall+0x16c8>
     8f6:	90 93 23 37 	sts	0x3723, r25	; 0x803723 <mall+0x16c9>
     8fa:	80 93 40 37 	sts	0x3740, r24	; 0x803740 <mall+0x16e6>
     8fe:	90 93 41 37 	sts	0x3741, r25	; 0x803741 <mall+0x16e7>
     902:	80 93 5e 37 	sts	0x375E, r24	; 0x80375e <mall+0x1704>
     906:	90 93 5f 37 	sts	0x375F, r25	; 0x80375f <mall+0x1705>
     90a:	80 93 7c 37 	sts	0x377C, r24	; 0x80377c <mall+0x1722>
     90e:	90 93 7d 37 	sts	0x377D, r25	; 0x80377d <mall+0x1723>
     912:	80 93 9a 37 	sts	0x379A, r24	; 0x80379a <mall+0x1740>
     916:	90 93 9b 37 	sts	0x379B, r25	; 0x80379b <mall+0x1741>
     91a:	80 93 b8 37 	sts	0x37B8, r24	; 0x8037b8 <mall+0x175e>
     91e:	90 93 b9 37 	sts	0x37B9, r25	; 0x8037b9 <mall+0x175f>
     922:	88 ec       	ldi	r24, 0xC8	; 200
     924:	e0 ed       	ldi	r30, 0xD0	; 208
     926:	f7 e3       	ldi	r31, 0x37	; 55
     928:	ef 01       	movw	r28, r30
     92a:	19 92       	st	Y+, r1
     92c:	8a 95       	dec	r24
     92e:	e9 f7       	brne	.-6      	; 0x92a <__LOCK_REGION_LENGTH__+0x52a>
     930:	12 96       	adiw	r26, 0x02	; 2
     932:	1d 92       	st	X+, r1
     934:	1c 92       	st	X, r1
     936:	13 97       	sbiw	r26, 0x03	; 3
    node* make(){
        if(now>=max-1){ return np; }else{
            now++;
     938:	81 e0       	ldi	r24, 0x01	; 1
     93a:	90 e0       	ldi	r25, 0x00	; 0
     93c:	14 96       	adiw	r26, 0x04	; 4
     93e:	8d 93       	st	X+, r24
     940:	9c 93       	st	X, r25
     942:	15 97       	sbiw	r26, 0x05	; 5
    long long unsigned int counter;//dfs's counter.
    node* ans;//dfs's answer.
    //for dfs
public:
    core(){
        now = mall.make();
     944:	ea e4       	ldi	r30, 0x4A	; 74
     946:	f0 e2       	ldi	r31, 0x20	; 32
     948:	2e e7       	ldi	r18, 0x7E	; 126
     94a:	30 e2       	ldi	r19, 0x20	; 32
     94c:	20 83       	st	Z, r18
     94e:	31 83       	std	Z+1, r19	; 0x01
        start = now; 
     950:	22 83       	std	Z+2, r18	; 0x02
     952:	33 83       	std	Z+3, r19	; 0x03
        start->x=100;start->y=100;start->z=1;start->back[0]=np;start->type=v::start;start->depth=0;
     954:	24 e6       	ldi	r18, 0x64	; 100
     956:	30 e0       	ldi	r19, 0x00	; 0
     958:	94 96       	adiw	r26, 0x24	; 36
     95a:	2d 93       	st	X+, r18
     95c:	3c 93       	st	X, r19
     95e:	95 97       	sbiw	r26, 0x25	; 37
     960:	96 96       	adiw	r26, 0x26	; 38
     962:	2d 93       	st	X+, r18
     964:	3c 93       	st	X, r19
     966:	97 97       	sbiw	r26, 0x27	; 39
     968:	98 96       	adiw	r26, 0x28	; 40
     96a:	8d 93       	st	X+, r24
     96c:	9c 93       	st	X, r25
     96e:	99 97       	sbiw	r26, 0x29	; 41
     970:	8f ef       	ldi	r24, 0xFF	; 255
     972:	9f ef       	ldi	r25, 0xFF	; 255
     974:	9c 96       	adiw	r26, 0x2c	; 44
     976:	8d 93       	st	X+, r24
     978:	9c 93       	st	X, r25
     97a:	9d 97       	sbiw	r26, 0x2d	; 45
     97c:	9a 96       	adiw	r26, 0x2a	; 42
     97e:	1d 92       	st	X+, r1
     980:	1c 92       	st	X, r1
     982:	9b 97       	sbiw	r26, 0x2b	; 43
        //dir = v::left;
		dir = 0;
     984:	14 82       	std	Z+4, r1	; 0x04
     986:	15 82       	std	Z+5, r1	; 0x05
        counter=0;
     988:	16 82       	std	Z+6, r1	; 0x06
     98a:	17 82       	std	Z+7, r1	; 0x07
     98c:	10 86       	std	Z+8, r1	; 0x08
     98e:	11 86       	std	Z+9, r1	; 0x09
     990:	12 86       	std	Z+10, r1	; 0x0a
     992:	13 86       	std	Z+11, r1	; 0x0b
     994:	14 86       	std	Z+12, r1	; 0x0c
     996:	15 86       	std	Z+13, r1	; 0x0d
        ans = np;
     998:	16 86       	std	Z+14, r1	; 0x0e
     99a:	17 86       	std	Z+15, r1	; 0x0f
#include "xmega_usart.hpp"
#include "xmega_twi.hpp"
#include <util/delay.h>


twi mpu(&TWIC,100000);
     99c:	20 ea       	ldi	r18, 0xA0	; 160
     99e:	36 e8       	ldi	r19, 0x86	; 134
     9a0:	41 e0       	ldi	r20, 0x01	; 1
     9a2:	50 e0       	ldi	r21, 0x00	; 0
     9a4:	60 e8       	ldi	r22, 0x80	; 128
     9a6:	74 e0       	ldi	r23, 0x04	; 4
     9a8:	80 e4       	ldi	r24, 0x40	; 64
     9aa:	90 e2       	ldi	r25, 0x20	; 32
     9ac:	0e 94 c2 07 	call	0xf84	; 0xf84 <_ZN3twiC1EP10TWI_structm>

#include "source/petal.hpp"
#include "source/gyro_control.hpp"
#include "source/mv_control.hpp"
#include "source/mpu9250.hpp"
usart serial(&USARTC0,&PORTC);
     9b0:	40 e4       	ldi	r20, 0x40	; 64
     9b2:	56 e0       	ldi	r21, 0x06	; 6
     9b4:	60 ea       	ldi	r22, 0xA0	; 160
     9b6:	78 e0       	ldi	r23, 0x08	; 8
     9b8:	8c e3       	ldi	r24, 0x3C	; 60
     9ba:	90 e2       	ldi	r25, 0x20	; 32
     9bc:	0e 94 85 08 	call	0x110a	; 0x110a <_ZN5usartC1EP12USART_structP11PORT_struct>
		debugping(v::right);
		debugping(v::back);
		_delay_ms(500);
	}
	return 0;
     9c0:	df 91       	pop	r29
     9c2:	cf 91       	pop	r28
     9c4:	08 95       	ret

000009c6 <_Z10init_colorv>:
     9c6:	87 e0       	ldi	r24, 0x07	; 7
     9c8:	80 93 a1 06 	sts	0x06A1, r24	; 0x8006a1 <__TEXT_REGION_LENGTH__+0x7006a1>
     9cc:	08 95       	ret

000009ce <_Z10init_clockv>:
	init_color();
}


void init_clock(void){
	OSC.CTRL |= 0x02;					//32MHz内蔵発振器動作許可
     9ce:	e0 e5       	ldi	r30, 0x50	; 80
     9d0:	f0 e0       	ldi	r31, 0x00	; 0
     9d2:	80 81       	ld	r24, Z
     9d4:	82 60       	ori	r24, 0x02	; 2
     9d6:	80 83       	st	Z, r24
	while((OSC.STATUS & 0x02) == 0);	//32MHz内蔵発振器が安定するまで待つ
     9d8:	81 81       	ldd	r24, Z+1	; 0x01
     9da:	81 ff       	sbrs	r24, 1
     9dc:	fd cf       	rjmp	.-6      	; 0x9d8 <_Z10init_clockv+0xa>
	CPU_CCP = 0xD8;						//システムクロック制御レジスタアクセス許可を行う
     9de:	88 ed       	ldi	r24, 0xD8	; 216
     9e0:	84 bf       	out	0x34, r24	; 52
	CLK.CTRL = 0x01;					//システムクロックを32MHzに変更
     9e2:	e0 e4       	ldi	r30, 0x40	; 64
     9e4:	f0 e0       	ldi	r31, 0x00	; 0
     9e6:	81 e0       	ldi	r24, 0x01	; 1
     9e8:	80 83       	st	Z, r24
	CLK.PSCTRL=CLK_PSADIV0_bm;		//select Prescaler A as 2, Prescaler B and Prescaler C as 1, Clksys=16MHz, Clkper4=Clkper2=Clkper=Clkcpu=8MHz
     9ea:	84 e0       	ldi	r24, 0x04	; 4
     9ec:	81 83       	std	Z+1, r24	; 0x01
	OSC.CTRL &= 0xFE;					//2MHz内蔵発振器動作停止
     9ee:	e0 e5       	ldi	r30, 0x50	; 80
     9f0:	f0 e0       	ldi	r31, 0x00	; 0
     9f2:	80 81       	ld	r24, Z
     9f4:	8e 7f       	andi	r24, 0xFE	; 254
     9f6:	80 83       	st	Z, r24
     9f8:	08 95       	ret

000009fa <_Z3rtcv>:
}


void rtc(void){
	OSC.CTRL = OSC_RC32KEN_bm;
     9fa:	84 e0       	ldi	r24, 0x04	; 4
     9fc:	80 93 50 00 	sts	0x0050, r24	; 0x800050 <__TEXT_REGION_LENGTH__+0x700050>
	while((OSC_STATUS&&OSC_RC32KRDY_bm)==0);
     a00:	e1 e5       	ldi	r30, 0x51	; 81
     a02:	f0 e0       	ldi	r31, 0x00	; 0
     a04:	80 81       	ld	r24, Z
     a06:	88 23       	and	r24, r24
     a08:	e9 f3       	breq	.-6      	; 0xa04 <_Z3rtcv+0xa>
	CLK.RTCCTRL = 0b00000001;
     a0a:	81 e0       	ldi	r24, 0x01	; 1
     a0c:	80 93 43 00 	sts	0x0043, r24	; 0x800043 <__TEXT_REGION_LENGTH__+0x700043>
	RTC.CTRL = RTC_PRESCALER_DIV1024_gc;
     a10:	87 e0       	ldi	r24, 0x07	; 7
     a12:	80 93 00 04 	sts	0x0400, r24	; 0x800400 <__TEXT_REGION_LENGTH__+0x700400>
     a16:	08 95       	ret

00000a18 <_Z8init_avrv>:
}

void init_avr(void){
	PORTA.DIRSET=PIN0_bm;//ブザー
     a18:	81 e0       	ldi	r24, 0x01	; 1
     a1a:	80 93 01 06 	sts	0x0601, r24	; 0x800601 <__TEXT_REGION_LENGTH__+0x700601>
	PORTQ.DIRSET = PIN0_bm|PIN1_bm|PIN2_bm;//フルカラーLED
     a1e:	e0 ec       	ldi	r30, 0xC0	; 192
     a20:	f7 e0       	ldi	r31, 0x07	; 7
     a22:	87 e0       	ldi	r24, 0x07	; 7
     a24:	81 83       	std	Z+1, r24	; 0x01
	PORTQ.OUTSET = PIN0_bm|PIN1_bm|PIN2_bm;
     a26:	85 83       	std	Z+5, r24	; 0x05
	PORTK.DIRSET = PIN0_bm|PIN1_bm|PIN2_bm|PIN3_bm;//ステッピングinit
     a28:	8f e0       	ldi	r24, 0x0F	; 15
     a2a:	80 93 21 07 	sts	0x0721, r24	; 0x800721 <__TEXT_REGION_LENGTH__+0x700721>
	PORTB.DIRSET = PIN0_bm|PIN1_bm;//モーター用SIG
     a2e:	83 e0       	ldi	r24, 0x03	; 3
     a30:	80 93 21 06 	sts	0x0621, r24	; 0x800621 <__TEXT_REGION_LENGTH__+0x700621>
     a34:	08 95       	ret

00000a36 <_Z8init_allv>:
#include "motor_control.hpp"
#include "action.hpp"
#include "color_control.hpp"

void init_all(void){
	init_clock();
     a36:	0e 94 e7 04 	call	0x9ce	; 0x9ce <_Z10init_clockv>
	init_avr();
     a3a:	0e 94 0c 05 	call	0xa18	; 0xa18 <_Z8init_avrv>
	init_lcd();
     a3e:	0e 94 28 05 	call	0xa50	; 0xa50 <_Z8init_lcdv>
	init_motor();
     a42:	0e 94 75 06 	call	0xcea	; 0xcea <_Z10init_motorv>
	rtc();
     a46:	0e 94 fd 04 	call	0x9fa	; 0x9fa <_Z3rtcv>
	init_color();
     a4a:	0e 94 e3 04 	call	0x9c6	; 0x9c6 <_Z10init_colorv>
     a4e:	08 95       	ret

00000a50 <_Z8init_lcdv>:
 */ 

#include "lcd_control.hpp"


void init_lcd(void){
     a50:	cf 93       	push	r28
     a52:	df 93       	push	r29
     a54:	cd b7       	in	r28, 0x3d	; 61
     a56:	de b7       	in	r29, 0x3e	; 62
     a58:	2a 97       	sbiw	r28, 0x0a	; 10
     a5a:	cd bf       	out	0x3d, r28	; 61
     a5c:	de bf       	out	0x3e, r29	; 62
	twi lcd_twi(&TWID,lcd_fre);
     a5e:	20 e8       	ldi	r18, 0x80	; 128
     a60:	3a e1       	ldi	r19, 0x1A	; 26
     a62:	46 e0       	ldi	r20, 0x06	; 6
     a64:	50 e0       	ldi	r21, 0x00	; 0
     a66:	60 e9       	ldi	r22, 0x90	; 144
     a68:	74 e0       	ldi	r23, 0x04	; 4
     a6a:	ce 01       	movw	r24, r28
     a6c:	01 96       	adiw	r24, 0x01	; 1
     a6e:	0e 94 c2 07 	call	0xf84	; 0xf84 <_ZN3twiC1EP10TWI_structm>
	lcd_twi.Address(LCD1_SLvADD,0);
     a72:	40 e0       	ldi	r20, 0x00	; 0
     a74:	6c e7       	ldi	r22, 0x7C	; 124
     a76:	ce 01       	movw	r24, r28
     a78:	01 96       	adiw	r24, 0x01	; 1
     a7a:	0e 94 09 08 	call	0x1012	; 0x1012 <_ZN3twi7AddressEhh>
	lcd_twi.WriteSingle(0x00);
     a7e:	60 e0       	ldi	r22, 0x00	; 0
     a80:	70 e0       	ldi	r23, 0x00	; 0
     a82:	ce 01       	movw	r24, r28
     a84:	01 96       	adiw	r24, 0x01	; 1
     a86:	0e 94 37 08 	call	0x106e	; 0x106e <_ZN3twi11WriteSingleEi>
	lcd_twi.WriteSingle(0x38);	//FunctionSet無効化
     a8a:	68 e3       	ldi	r22, 0x38	; 56
     a8c:	70 e0       	ldi	r23, 0x00	; 0
     a8e:	ce 01       	movw	r24, r28
     a90:	01 96       	adiw	r24, 0x01	; 1
     a92:	0e 94 37 08 	call	0x106e	; 0x106e <_ZN3twi11WriteSingleEi>
	lcd_twi.Stop();
     a96:	ce 01       	movw	r24, r28
     a98:	01 96       	adiw	r24, 0x01	; 1
     a9a:	0e 94 73 08 	call	0x10e6	; 0x10e6 <_ZN3twi4StopEv>
     a9e:	2f ef       	ldi	r18, 0xFF	; 255
     aa0:	81 ee       	ldi	r24, 0xE1	; 225
     aa2:	94 e0       	ldi	r25, 0x04	; 4
     aa4:	21 50       	subi	r18, 0x01	; 1
     aa6:	80 40       	sbci	r24, 0x00	; 0
     aa8:	90 40       	sbci	r25, 0x00	; 0
     aaa:	e1 f7       	brne	.-8      	; 0xaa4 <_Z8init_lcdv+0x54>
     aac:	00 c0       	rjmp	.+0      	; 0xaae <_Z8init_lcdv+0x5e>
     aae:	00 00       	nop
	_delay_ms(50);
	lcd_twi.Address(LCD1_SLvADD,0);
     ab0:	40 e0       	ldi	r20, 0x00	; 0
     ab2:	6c e7       	ldi	r22, 0x7C	; 124
     ab4:	ce 01       	movw	r24, r28
     ab6:	01 96       	adiw	r24, 0x01	; 1
     ab8:	0e 94 09 08 	call	0x1012	; 0x1012 <_ZN3twi7AddressEhh>
	lcd_twi.WriteSingle(0x00);
     abc:	60 e0       	ldi	r22, 0x00	; 0
     abe:	70 e0       	ldi	r23, 0x00	; 0
     ac0:	ce 01       	movw	r24, r28
     ac2:	01 96       	adiw	r24, 0x01	; 1
     ac4:	0e 94 37 08 	call	0x106e	; 0x106e <_ZN3twi11WriteSingleEi>
	lcd_twi.WriteSingle(0x39);	//FunctionSet有効化
     ac8:	69 e3       	ldi	r22, 0x39	; 57
     aca:	70 e0       	ldi	r23, 0x00	; 0
     acc:	ce 01       	movw	r24, r28
     ace:	01 96       	adiw	r24, 0x01	; 1
     ad0:	0e 94 37 08 	call	0x106e	; 0x106e <_ZN3twi11WriteSingleEi>
	lcd_twi.Stop();
     ad4:	ce 01       	movw	r24, r28
     ad6:	01 96       	adiw	r24, 0x01	; 1
     ad8:	0e 94 73 08 	call	0x10e6	; 0x10e6 <_ZN3twi4StopEv>
     adc:	2f ef       	ldi	r18, 0xFF	; 255
     ade:	81 ee       	ldi	r24, 0xE1	; 225
     ae0:	94 e0       	ldi	r25, 0x04	; 4
     ae2:	21 50       	subi	r18, 0x01	; 1
     ae4:	80 40       	sbci	r24, 0x00	; 0
     ae6:	90 40       	sbci	r25, 0x00	; 0
     ae8:	e1 f7       	brne	.-8      	; 0xae2 <_Z8init_lcdv+0x92>
     aea:	00 c0       	rjmp	.+0      	; 0xaec <_Z8init_lcdv+0x9c>
     aec:	00 00       	nop
	_delay_ms(50);
	lcd_twi.Address(LCD1_SLvADD,0);
     aee:	40 e0       	ldi	r20, 0x00	; 0
     af0:	6c e7       	ldi	r22, 0x7C	; 124
     af2:	ce 01       	movw	r24, r28
     af4:	01 96       	adiw	r24, 0x01	; 1
     af6:	0e 94 09 08 	call	0x1012	; 0x1012 <_ZN3twi7AddressEhh>
	lcd_twi.WriteSingle(0x00);
     afa:	60 e0       	ldi	r22, 0x00	; 0
     afc:	70 e0       	ldi	r23, 0x00	; 0
     afe:	ce 01       	movw	r24, r28
     b00:	01 96       	adiw	r24, 0x01	; 1
     b02:	0e 94 37 08 	call	0x106e	; 0x106e <_ZN3twi11WriteSingleEi>
	lcd_twi.WriteSingle(0x14);	//Internal OSC frequency
     b06:	64 e1       	ldi	r22, 0x14	; 20
     b08:	70 e0       	ldi	r23, 0x00	; 0
     b0a:	ce 01       	movw	r24, r28
     b0c:	01 96       	adiw	r24, 0x01	; 1
     b0e:	0e 94 37 08 	call	0x106e	; 0x106e <_ZN3twi11WriteSingleEi>
	lcd_twi.Stop();
     b12:	ce 01       	movw	r24, r28
     b14:	01 96       	adiw	r24, 0x01	; 1
     b16:	0e 94 73 08 	call	0x10e6	; 0x10e6 <_ZN3twi4StopEv>
     b1a:	2f ef       	ldi	r18, 0xFF	; 255
     b1c:	81 ee       	ldi	r24, 0xE1	; 225
     b1e:	94 e0       	ldi	r25, 0x04	; 4
     b20:	21 50       	subi	r18, 0x01	; 1
     b22:	80 40       	sbci	r24, 0x00	; 0
     b24:	90 40       	sbci	r25, 0x00	; 0
     b26:	e1 f7       	brne	.-8      	; 0xb20 <_Z8init_lcdv+0xd0>
     b28:	00 c0       	rjmp	.+0      	; 0xb2a <_Z8init_lcdv+0xda>
     b2a:	00 00       	nop
	_delay_ms(50);
	lcd_twi.Address(LCD1_SLvADD,0);
     b2c:	40 e0       	ldi	r20, 0x00	; 0
     b2e:	6c e7       	ldi	r22, 0x7C	; 124
     b30:	ce 01       	movw	r24, r28
     b32:	01 96       	adiw	r24, 0x01	; 1
     b34:	0e 94 09 08 	call	0x1012	; 0x1012 <_ZN3twi7AddressEhh>
	lcd_twi.WriteSingle(0x00);
     b38:	60 e0       	ldi	r22, 0x00	; 0
     b3a:	70 e0       	ldi	r23, 0x00	; 0
     b3c:	ce 01       	movw	r24, r28
     b3e:	01 96       	adiw	r24, 0x01	; 1
     b40:	0e 94 37 08 	call	0x106e	; 0x106e <_ZN3twi11WriteSingleEi>
	lcd_twi.WriteSingle(0x7e);	//コントラスト設定	//70?
     b44:	6e e7       	ldi	r22, 0x7E	; 126
     b46:	70 e0       	ldi	r23, 0x00	; 0
     b48:	ce 01       	movw	r24, r28
     b4a:	01 96       	adiw	r24, 0x01	; 1
     b4c:	0e 94 37 08 	call	0x106e	; 0x106e <_ZN3twi11WriteSingleEi>
	lcd_twi.Stop();
     b50:	ce 01       	movw	r24, r28
     b52:	01 96       	adiw	r24, 0x01	; 1
     b54:	0e 94 73 08 	call	0x10e6	; 0x10e6 <_ZN3twi4StopEv>
     b58:	2f ef       	ldi	r18, 0xFF	; 255
     b5a:	81 ee       	ldi	r24, 0xE1	; 225
     b5c:	94 e0       	ldi	r25, 0x04	; 4
     b5e:	21 50       	subi	r18, 0x01	; 1
     b60:	80 40       	sbci	r24, 0x00	; 0
     b62:	90 40       	sbci	r25, 0x00	; 0
     b64:	e1 f7       	brne	.-8      	; 0xb5e <_Z8init_lcdv+0x10e>
     b66:	00 c0       	rjmp	.+0      	; 0xb68 <_Z8init_lcdv+0x118>
     b68:	00 00       	nop
	_delay_ms(50);
	lcd_twi.Address(LCD1_SLvADD,0);
     b6a:	40 e0       	ldi	r20, 0x00	; 0
     b6c:	6c e7       	ldi	r22, 0x7C	; 124
     b6e:	ce 01       	movw	r24, r28
     b70:	01 96       	adiw	r24, 0x01	; 1
     b72:	0e 94 09 08 	call	0x1012	; 0x1012 <_ZN3twi7AddressEhh>
	lcd_twi.WriteSingle(0x00);
     b76:	60 e0       	ldi	r22, 0x00	; 0
     b78:	70 e0       	ldi	r23, 0x00	; 0
     b7a:	ce 01       	movw	r24, r28
     b7c:	01 96       	adiw	r24, 0x01	; 1
     b7e:	0e 94 37 08 	call	0x106e	; 0x106e <_ZN3twi11WriteSingleEi>
	lcd_twi.WriteSingle(0x55);	//Power,ICON,Contrast Control
     b82:	65 e5       	ldi	r22, 0x55	; 85
     b84:	70 e0       	ldi	r23, 0x00	; 0
     b86:	ce 01       	movw	r24, r28
     b88:	01 96       	adiw	r24, 0x01	; 1
     b8a:	0e 94 37 08 	call	0x106e	; 0x106e <_ZN3twi11WriteSingleEi>
	lcd_twi.Stop();
     b8e:	ce 01       	movw	r24, r28
     b90:	01 96       	adiw	r24, 0x01	; 1
     b92:	0e 94 73 08 	call	0x10e6	; 0x10e6 <_ZN3twi4StopEv>
     b96:	2f ef       	ldi	r18, 0xFF	; 255
     b98:	81 ee       	ldi	r24, 0xE1	; 225
     b9a:	94 e0       	ldi	r25, 0x04	; 4
     b9c:	21 50       	subi	r18, 0x01	; 1
     b9e:	80 40       	sbci	r24, 0x00	; 0
     ba0:	90 40       	sbci	r25, 0x00	; 0
     ba2:	e1 f7       	brne	.-8      	; 0xb9c <_Z8init_lcdv+0x14c>
     ba4:	00 c0       	rjmp	.+0      	; 0xba6 <_Z8init_lcdv+0x156>
     ba6:	00 00       	nop
	_delay_ms(50);
	lcd_twi.Address(LCD1_SLvADD,0);
     ba8:	40 e0       	ldi	r20, 0x00	; 0
     baa:	6c e7       	ldi	r22, 0x7C	; 124
     bac:	ce 01       	movw	r24, r28
     bae:	01 96       	adiw	r24, 0x01	; 1
     bb0:	0e 94 09 08 	call	0x1012	; 0x1012 <_ZN3twi7AddressEhh>
	lcd_twi.WriteSingle(0x00);
     bb4:	60 e0       	ldi	r22, 0x00	; 0
     bb6:	70 e0       	ldi	r23, 0x00	; 0
     bb8:	ce 01       	movw	r24, r28
     bba:	01 96       	adiw	r24, 0x01	; 1
     bbc:	0e 94 37 08 	call	0x106e	; 0x106e <_ZN3twi11WriteSingleEi>
	lcd_twi.WriteSingle(0x6c);	//Follower Control
     bc0:	6c e6       	ldi	r22, 0x6C	; 108
     bc2:	70 e0       	ldi	r23, 0x00	; 0
     bc4:	ce 01       	movw	r24, r28
     bc6:	01 96       	adiw	r24, 0x01	; 1
     bc8:	0e 94 37 08 	call	0x106e	; 0x106e <_ZN3twi11WriteSingleEi>
	lcd_twi.Stop();
     bcc:	ce 01       	movw	r24, r28
     bce:	01 96       	adiw	r24, 0x01	; 1
     bd0:	0e 94 73 08 	call	0x10e6	; 0x10e6 <_ZN3twi4StopEv>
     bd4:	2f ef       	ldi	r18, 0xFF	; 255
     bd6:	83 ed       	ldi	r24, 0xD3	; 211
     bd8:	90 e3       	ldi	r25, 0x30	; 48
     bda:	21 50       	subi	r18, 0x01	; 1
     bdc:	80 40       	sbci	r24, 0x00	; 0
     bde:	90 40       	sbci	r25, 0x00	; 0
     be0:	e1 f7       	brne	.-8      	; 0xbda <_Z8init_lcdv+0x18a>
     be2:	00 c0       	rjmp	.+0      	; 0xbe4 <_Z8init_lcdv+0x194>
     be4:	00 00       	nop
	_delay_ms(500);
	lcd_twi.Address(LCD1_SLvADD,0);
     be6:	40 e0       	ldi	r20, 0x00	; 0
     be8:	6c e7       	ldi	r22, 0x7C	; 124
     bea:	ce 01       	movw	r24, r28
     bec:	01 96       	adiw	r24, 0x01	; 1
     bee:	0e 94 09 08 	call	0x1012	; 0x1012 <_ZN3twi7AddressEhh>
	lcd_twi.WriteSingle(0x00);
     bf2:	60 e0       	ldi	r22, 0x00	; 0
     bf4:	70 e0       	ldi	r23, 0x00	; 0
     bf6:	ce 01       	movw	r24, r28
     bf8:	01 96       	adiw	r24, 0x01	; 1
     bfa:	0e 94 37 08 	call	0x106e	; 0x106e <_ZN3twi11WriteSingleEi>
	lcd_twi.WriteSingle(0x38);	//FunctionSet無効化
     bfe:	68 e3       	ldi	r22, 0x38	; 56
     c00:	70 e0       	ldi	r23, 0x00	; 0
     c02:	ce 01       	movw	r24, r28
     c04:	01 96       	adiw	r24, 0x01	; 1
     c06:	0e 94 37 08 	call	0x106e	; 0x106e <_ZN3twi11WriteSingleEi>
	lcd_twi.Stop();
     c0a:	ce 01       	movw	r24, r28
     c0c:	01 96       	adiw	r24, 0x01	; 1
     c0e:	0e 94 73 08 	call	0x10e6	; 0x10e6 <_ZN3twi4StopEv>
     c12:	2f ef       	ldi	r18, 0xFF	; 255
     c14:	81 ee       	ldi	r24, 0xE1	; 225
     c16:	94 e0       	ldi	r25, 0x04	; 4
     c18:	21 50       	subi	r18, 0x01	; 1
     c1a:	80 40       	sbci	r24, 0x00	; 0
     c1c:	90 40       	sbci	r25, 0x00	; 0
     c1e:	e1 f7       	brne	.-8      	; 0xc18 <_Z8init_lcdv+0x1c8>
     c20:	00 c0       	rjmp	.+0      	; 0xc22 <_Z8init_lcdv+0x1d2>
     c22:	00 00       	nop
	_delay_ms(50);
	lcd_twi.Address(LCD1_SLvADD,0);
     c24:	40 e0       	ldi	r20, 0x00	; 0
     c26:	6c e7       	ldi	r22, 0x7C	; 124
     c28:	ce 01       	movw	r24, r28
     c2a:	01 96       	adiw	r24, 0x01	; 1
     c2c:	0e 94 09 08 	call	0x1012	; 0x1012 <_ZN3twi7AddressEhh>
	lcd_twi.WriteSingle(0x00);
     c30:	60 e0       	ldi	r22, 0x00	; 0
     c32:	70 e0       	ldi	r23, 0x00	; 0
     c34:	ce 01       	movw	r24, r28
     c36:	01 96       	adiw	r24, 0x01	; 1
     c38:	0e 94 37 08 	call	0x106e	; 0x106e <_ZN3twi11WriteSingleEi>
	lcd_twi.WriteSingle(0x0c);	//Display ON\OFF Control
     c3c:	6c e0       	ldi	r22, 0x0C	; 12
     c3e:	70 e0       	ldi	r23, 0x00	; 0
     c40:	ce 01       	movw	r24, r28
     c42:	01 96       	adiw	r24, 0x01	; 1
     c44:	0e 94 37 08 	call	0x106e	; 0x106e <_ZN3twi11WriteSingleEi>
	lcd_twi.Stop();
     c48:	ce 01       	movw	r24, r28
     c4a:	01 96       	adiw	r24, 0x01	; 1
     c4c:	0e 94 73 08 	call	0x10e6	; 0x10e6 <_ZN3twi4StopEv>
     c50:	2f ef       	ldi	r18, 0xFF	; 255
     c52:	81 ee       	ldi	r24, 0xE1	; 225
     c54:	94 e0       	ldi	r25, 0x04	; 4
     c56:	21 50       	subi	r18, 0x01	; 1
     c58:	80 40       	sbci	r24, 0x00	; 0
     c5a:	90 40       	sbci	r25, 0x00	; 0
     c5c:	e1 f7       	brne	.-8      	; 0xc56 <_Z8init_lcdv+0x206>
     c5e:	00 c0       	rjmp	.+0      	; 0xc60 <_Z8init_lcdv+0x210>
     c60:	00 00       	nop
	_delay_ms(50);
	lcd_twi.Address(LCD1_SLvADD,0);
     c62:	40 e0       	ldi	r20, 0x00	; 0
     c64:	6c e7       	ldi	r22, 0x7C	; 124
     c66:	ce 01       	movw	r24, r28
     c68:	01 96       	adiw	r24, 0x01	; 1
     c6a:	0e 94 09 08 	call	0x1012	; 0x1012 <_ZN3twi7AddressEhh>
	lcd_twi.WriteSingle(0x00);
     c6e:	60 e0       	ldi	r22, 0x00	; 0
     c70:	70 e0       	ldi	r23, 0x00	; 0
     c72:	ce 01       	movw	r24, r28
     c74:	01 96       	adiw	r24, 0x01	; 1
     c76:	0e 94 37 08 	call	0x106e	; 0x106e <_ZN3twi11WriteSingleEi>
	lcd_twi.WriteSingle(0x01);	//ClearDisplay
     c7a:	61 e0       	ldi	r22, 0x01	; 1
     c7c:	70 e0       	ldi	r23, 0x00	; 0
     c7e:	ce 01       	movw	r24, r28
     c80:	01 96       	adiw	r24, 0x01	; 1
     c82:	0e 94 37 08 	call	0x106e	; 0x106e <_ZN3twi11WriteSingleEi>
	lcd_twi.Stop();
     c86:	ce 01       	movw	r24, r28
     c88:	01 96       	adiw	r24, 0x01	; 1
     c8a:	0e 94 73 08 	call	0x10e6	; 0x10e6 <_ZN3twi4StopEv>
     c8e:	2f ef       	ldi	r18, 0xFF	; 255
     c90:	81 ee       	ldi	r24, 0xE1	; 225
     c92:	94 e0       	ldi	r25, 0x04	; 4
     c94:	21 50       	subi	r18, 0x01	; 1
     c96:	80 40       	sbci	r24, 0x00	; 0
     c98:	90 40       	sbci	r25, 0x00	; 0
     c9a:	e1 f7       	brne	.-8      	; 0xc94 <_Z8init_lcdv+0x244>
     c9c:	00 c0       	rjmp	.+0      	; 0xc9e <_Z8init_lcdv+0x24e>
     c9e:	00 00       	nop
	_delay_ms(50);
	lcd_twi.Address(LCD1_SLvADD,0);
     ca0:	40 e0       	ldi	r20, 0x00	; 0
     ca2:	6c e7       	ldi	r22, 0x7C	; 124
     ca4:	ce 01       	movw	r24, r28
     ca6:	01 96       	adiw	r24, 0x01	; 1
     ca8:	0e 94 09 08 	call	0x1012	; 0x1012 <_ZN3twi7AddressEhh>
	lcd_twi.WriteSingle(0x00);
     cac:	60 e0       	ldi	r22, 0x00	; 0
     cae:	70 e0       	ldi	r23, 0x00	; 0
     cb0:	ce 01       	movw	r24, r28
     cb2:	01 96       	adiw	r24, 0x01	; 1
     cb4:	0e 94 37 08 	call	0x106e	; 0x106e <_ZN3twi11WriteSingleEi>
	lcd_twi.WriteSingle(0x06);	//EntryMode??
     cb8:	66 e0       	ldi	r22, 0x06	; 6
     cba:	70 e0       	ldi	r23, 0x00	; 0
     cbc:	ce 01       	movw	r24, r28
     cbe:	01 96       	adiw	r24, 0x01	; 1
     cc0:	0e 94 37 08 	call	0x106e	; 0x106e <_ZN3twi11WriteSingleEi>
	lcd_twi.Stop();
     cc4:	ce 01       	movw	r24, r28
     cc6:	01 96       	adiw	r24, 0x01	; 1
     cc8:	0e 94 73 08 	call	0x10e6	; 0x10e6 <_ZN3twi4StopEv>
     ccc:	2f ef       	ldi	r18, 0xFF	; 255
     cce:	81 ee       	ldi	r24, 0xE1	; 225
     cd0:	94 e0       	ldi	r25, 0x04	; 4
     cd2:	21 50       	subi	r18, 0x01	; 1
     cd4:	80 40       	sbci	r24, 0x00	; 0
     cd6:	90 40       	sbci	r25, 0x00	; 0
     cd8:	e1 f7       	brne	.-8      	; 0xcd2 <_Z8init_lcdv+0x282>
     cda:	00 c0       	rjmp	.+0      	; 0xcdc <_Z8init_lcdv+0x28c>
     cdc:	00 00       	nop
	_delay_ms(50);
	return;
}
     cde:	2a 96       	adiw	r28, 0x0a	; 10
     ce0:	cd bf       	out	0x3d, r28	; 61
     ce2:	de bf       	out	0x3e, r29	; 62
     ce4:	df 91       	pop	r29
     ce6:	cf 91       	pop	r28
     ce8:	08 95       	ret

00000cea <_Z10init_motorv>:
			return 1;
		}
		else{
			return 0;
		}
	}
     cea:	e0 e2       	ldi	r30, 0x20	; 32
     cec:	f6 e0       	ldi	r31, 0x06	; 6
     cee:	8f e0       	ldi	r24, 0x0F	; 15
     cf0:	81 83       	std	Z+1, r24	; 0x01
     cf2:	85 83       	std	Z+5, r24	; 0x05
     cf4:	08 95       	ret

00000cf6 <_GLOBAL__sub_I_motor_spi>:
#include "motor_control.hpp"
#define RightM PIN2_bm //1
#define LeftM PIN3_bm  //2


spi motor_spi(&SPIC,&PORTC,SPI_PRESCALER_DIV16_gc);
     cf6:	21 e0       	ldi	r18, 0x01	; 1
     cf8:	40 e4       	ldi	r20, 0x40	; 64
     cfa:	56 e0       	ldi	r21, 0x06	; 6
     cfc:	60 ec       	ldi	r22, 0xC0	; 192
     cfe:	78 e0       	ldi	r23, 0x08	; 8
     d00:	88 e9       	ldi	r24, 0x98	; 152
     d02:	98 e3       	ldi	r25, 0x38	; 56
     d04:	0e 94 ae 07 	call	0xf5c	; 0xf5c <_ZN3spiC1EP10SPI_structP11PORT_struct18SPI_PRESCALER_enum>
     d08:	08 95       	ret

00000d0a <_Z7init_mvv>:
	};
	lcd_clear();
	_delay_ms(10);
	PORTB.OUTCLR=PIN0_bm|PIN1_bm;
	return;
}
     d0a:	e0 e6       	ldi	r30, 0x60	; 96
     d0c:	f6 e0       	ldi	r31, 0x06	; 6
     d0e:	8c e1       	ldi	r24, 0x1C	; 28
     d10:	81 83       	std	Z+1, r24	; 0x01
     d12:	a0 e0       	ldi	r26, 0x00	; 0
     d14:	b7 e0       	ldi	r27, 0x07	; 7
     d16:	90 ee       	ldi	r25, 0xE0	; 224
     d18:	12 96       	adiw	r26, 0x02	; 2
     d1a:	9c 93       	st	X, r25
     d1c:	12 97       	sbiw	r26, 0x02	; 2
     d1e:	15 96       	adiw	r26, 0x05	; 5
     d20:	9c 93       	st	X, r25
     d22:	86 83       	std	Z+6, r24	; 0x06
     d24:	08 95       	ret

00000d26 <_GLOBAL__sub_I_mv>:


*/

#include "mv_control.hpp"
spi mv(&SPID,&PORTD,SPI_PRESCALER_DIV128_gc);
     d26:	23 e0       	ldi	r18, 0x03	; 3
     d28:	40 e6       	ldi	r20, 0x60	; 96
     d2a:	56 e0       	ldi	r21, 0x06	; 6
     d2c:	60 ec       	ldi	r22, 0xC0	; 192
     d2e:	79 e0       	ldi	r23, 0x09	; 9
     d30:	8c e9       	ldi	r24, 0x9C	; 156
     d32:	98 e3       	ldi	r25, 0x38	; 56
     d34:	0e 94 ae 07 	call	0xf5c	; 0xf5c <_ZN3spiC1EP10SPI_structP11PORT_struct18SPI_PRESCALER_enum>
     d38:	08 95       	ret

00000d3a <_Z10select_bush>:
/*
使い方は単純
アドレス0xE0(shifted)でbusnumber | (1<<3)を送ればいい。一応7を超えてないかだけ確認する必要がある。
*/

void select_bus(uint8_t busnumber){
     d3a:	1f 93       	push	r17
     d3c:	cf 93       	push	r28
     d3e:	df 93       	push	r29
     d40:	cd b7       	in	r28, 0x3d	; 61
     d42:	de b7       	in	r29, 0x3e	; 62
     d44:	2a 97       	sbiw	r28, 0x0a	; 10
     d46:	cd bf       	out	0x3d, r28	; 61
     d48:	de bf       	out	0x3e, r29	; 62
     d4a:	18 2f       	mov	r17, r24
	twi bus(BUS_TWI,sermo_fre);
     d4c:	20 ed       	ldi	r18, 0xD0	; 208
     d4e:	3b ef       	ldi	r19, 0xFB	; 251
     d50:	41 e0       	ldi	r20, 0x01	; 1
     d52:	50 e0       	ldi	r21, 0x00	; 0
     d54:	60 e9       	ldi	r22, 0x90	; 144
     d56:	74 e0       	ldi	r23, 0x04	; 4
     d58:	ce 01       	movw	r24, r28
     d5a:	01 96       	adiw	r24, 0x01	; 1
     d5c:	0e 94 c2 07 	call	0xf84	; 0xf84 <_ZN3twiC1EP10TWI_structm>
	uint8_t bus_addr = 0x70<<1;
	bus.Address(bus_addr,0);
     d60:	40 e0       	ldi	r20, 0x00	; 0
     d62:	60 ee       	ldi	r22, 0xE0	; 224
     d64:	ce 01       	movw	r24, r28
     d66:	01 96       	adiw	r24, 0x01	; 1
     d68:	0e 94 09 08 	call	0x1012	; 0x1012 <_ZN3twi7AddressEhh>
	if(busnumber<=7 && bus.WriteSingle(bus_addr)==0){
     d6c:	18 30       	cpi	r17, 0x08	; 8
     d6e:	e0 f4       	brcc	.+56     	; 0xda8 <_Z10select_bush+0x6e>
     d70:	60 ee       	ldi	r22, 0xE0	; 224
     d72:	70 e0       	ldi	r23, 0x00	; 0
     d74:	ce 01       	movw	r24, r28
     d76:	01 96       	adiw	r24, 0x01	; 1
     d78:	0e 94 37 08 	call	0x106e	; 0x106e <_ZN3twi11WriteSingleEi>
     d7c:	81 11       	cpse	r24, r1
     d7e:	14 c0       	rjmp	.+40     	; 0xda8 <_Z10select_bush+0x6e>
	#else
		//round up by default
		__ticks_dc = (uint32_t)(ceil(fabs(__tmp)));
	#endif

	__builtin_avr_delay_cycles(__ticks_dc);
     d80:	8a e6       	ldi	r24, 0x6A	; 106
     d82:	8a 95       	dec	r24
     d84:	f1 f7       	brne	.-4      	; 0xd82 <_Z10select_bush+0x48>
     d86:	00 c0       	rjmp	.+0      	; 0xd88 <_Z10select_bush+0x4e>
		_delay_us(10);
		bus.WriteSingle(busnumber | (1 << 3));
     d88:	18 60       	ori	r17, 0x08	; 8
     d8a:	61 2f       	mov	r22, r17
     d8c:	70 e0       	ldi	r23, 0x00	; 0
     d8e:	ce 01       	movw	r24, r28
     d90:	01 96       	adiw	r24, 0x01	; 1
     d92:	0e 94 37 08 	call	0x106e	; 0x106e <_ZN3twi11WriteSingleEi>
     d96:	9a e6       	ldi	r25, 0x6A	; 106
     d98:	9a 95       	dec	r25
     d9a:	f1 f7       	brne	.-4      	; 0xd98 <_Z10select_bush+0x5e>
     d9c:	00 c0       	rjmp	.+0      	; 0xd9e <_Z10select_bush+0x64>
		_delay_us(10);
		bus.Stop();
     d9e:	ce 01       	movw	r24, r28
     da0:	01 96       	adiw	r24, 0x01	; 1
     da2:	0e 94 73 08 	call	0x10e6	; 0x10e6 <_ZN3twi4StopEv>
     da6:	0a c0       	rjmp	.+20     	; 0xdbc <_Z10select_bush+0x82>
	}
	else{
		bus.Stop();
     da8:	ce 01       	movw	r24, r28
     daa:	01 96       	adiw	r24, 0x01	; 1
     dac:	0e 94 73 08 	call	0x10e6	; 0x10e6 <_ZN3twi4StopEv>
		serial.string("error1\n\r");
     db0:	61 e3       	ldi	r22, 0x31	; 49
     db2:	70 e2       	ldi	r23, 0x20	; 32
     db4:	8c e3       	ldi	r24, 0x3C	; 60
     db6:	90 e2       	ldi	r25, 0x20	; 32
     db8:	0e 94 b1 08 	call	0x1162	; 0x1162 <_ZN5usart6stringEPKc>
     dbc:	8f e1       	ldi	r24, 0x1F	; 31
     dbe:	93 e0       	ldi	r25, 0x03	; 3
     dc0:	01 97       	sbiw	r24, 0x01	; 1
     dc2:	f1 f7       	brne	.-4      	; 0xdc0 <_Z10select_bush+0x86>
     dc4:	00 c0       	rjmp	.+0      	; 0xdc6 <_Z10select_bush+0x8c>
     dc6:	00 00       	nop
	}
	_delay_us(100);
}
     dc8:	2a 96       	adiw	r28, 0x0a	; 10
     dca:	cd bf       	out	0x3d, r28	; 61
     dcc:	de bf       	out	0x3e, r29	; 62
     dce:	df 91       	pop	r29
     dd0:	cf 91       	pop	r28
     dd2:	1f 91       	pop	r17
     dd4:	08 95       	ret

00000dd6 <_Z16ReadFromMLX90614P10TWI_structcc>:
void ReadFromMLX90614(TWI_t *port ,char addr, char cmd){
     dd6:	ef 92       	push	r14
     dd8:	ff 92       	push	r15
     dda:	0f 93       	push	r16
     ddc:	1f 93       	push	r17
     dde:	cf 93       	push	r28
     de0:	df 93       	push	r29
     de2:	cd b7       	in	r28, 0x3d	; 61
     de4:	de b7       	in	r29, 0x3e	; 62
     de6:	2a 97       	sbiw	r28, 0x0a	; 10
     de8:	cd bf       	out	0x3d, r28	; 61
     dea:	de bf       	out	0x3e, r29	; 62
     dec:	e6 2e       	mov	r14, r22
     dee:	f4 2e       	mov	r15, r20
	twi serm(port,sermo_fre);
     df0:	20 ed       	ldi	r18, 0xD0	; 208
     df2:	3b ef       	ldi	r19, 0xFB	; 251
     df4:	41 e0       	ldi	r20, 0x01	; 1
     df6:	50 e0       	ldi	r21, 0x00	; 0
     df8:	bc 01       	movw	r22, r24
     dfa:	ce 01       	movw	r24, r28
     dfc:	01 96       	adiw	r24, 0x01	; 1
     dfe:	0e 94 c2 07 	call	0xf84	; 0xf84 <_ZN3twiC1EP10TWI_structm>
	dat[4]=serm.Address(addr,0);	 // start recieve process
     e02:	40 e0       	ldi	r20, 0x00	; 0
     e04:	6e 2d       	mov	r22, r14
     e06:	ce 01       	movw	r24, r28
     e08:	01 96       	adiw	r24, 0x01	; 1
     e0a:	0e 94 09 08 	call	0x1012	; 0x1012 <_ZN3twi7AddressEhh>
     e0e:	00 ea       	ldi	r16, 0xA0	; 160
     e10:	18 e3       	ldi	r17, 0x38	; 56
     e12:	90 e0       	ldi	r25, 0x00	; 0
     e14:	a0 e0       	ldi	r26, 0x00	; 0
     e16:	b0 e0       	ldi	r27, 0x00	; 0
     e18:	f8 01       	movw	r30, r16
     e1a:	80 8b       	std	Z+16, r24	; 0x10
     e1c:	91 8b       	std	Z+17, r25	; 0x11
     e1e:	a2 8b       	std	Z+18, r26	; 0x12
     e20:	b3 8b       	std	Z+19, r27	; 0x13
	serm.WriteSingle(cmd);	// Write command
     e22:	6f 2d       	mov	r22, r15
     e24:	70 e0       	ldi	r23, 0x00	; 0
     e26:	ce 01       	movw	r24, r28
     e28:	01 96       	adiw	r24, 0x01	; 1
     e2a:	0e 94 37 08 	call	0x106e	; 0x106e <_ZN3twi11WriteSingleEi>
	//serm.Stop();	 // publish repeat start condition
	dat[5]=serm.Address(addr,1);
     e2e:	41 e0       	ldi	r20, 0x01	; 1
     e30:	6e 2d       	mov	r22, r14
     e32:	ce 01       	movw	r24, r28
     e34:	01 96       	adiw	r24, 0x01	; 1
     e36:	0e 94 09 08 	call	0x1012	; 0x1012 <_ZN3twi7AddressEhh>
     e3a:	90 e0       	ldi	r25, 0x00	; 0
     e3c:	a0 e0       	ldi	r26, 0x00	; 0
     e3e:	b0 e0       	ldi	r27, 0x00	; 0
     e40:	f8 01       	movw	r30, r16
     e42:	84 8b       	std	Z+20, r24	; 0x14
     e44:	95 8b       	std	Z+21, r25	; 0x15
     e46:	a6 8b       	std	Z+22, r26	; 0x16
     e48:	b7 8b       	std	Z+23, r27	; 0x17
	dat[0]=serm.ReadSingle(1);	 // request data+pec byte
     e4a:	61 e0       	ldi	r22, 0x01	; 1
     e4c:	ce 01       	movw	r24, r28
     e4e:	01 96       	adiw	r24, 0x01	; 1
     e50:	0e 94 5b 08 	call	0x10b6	; 0x10b6 <_ZN3twi10ReadSingleEh>
     e54:	90 e0       	ldi	r25, 0x00	; 0
     e56:	a0 e0       	ldi	r26, 0x00	; 0
     e58:	b0 e0       	ldi	r27, 0x00	; 0
     e5a:	f8 01       	movw	r30, r16
     e5c:	80 83       	st	Z, r24
     e5e:	91 83       	std	Z+1, r25	; 0x01
     e60:	a2 83       	std	Z+2, r26	; 0x02
     e62:	b3 83       	std	Z+3, r27	; 0x03
	dat[1]=serm.ReadSingle(1);
     e64:	61 e0       	ldi	r22, 0x01	; 1
     e66:	ce 01       	movw	r24, r28
     e68:	01 96       	adiw	r24, 0x01	; 1
     e6a:	0e 94 5b 08 	call	0x10b6	; 0x10b6 <_ZN3twi10ReadSingleEh>
     e6e:	90 e0       	ldi	r25, 0x00	; 0
     e70:	a0 e0       	ldi	r26, 0x00	; 0
     e72:	b0 e0       	ldi	r27, 0x00	; 0
     e74:	f8 01       	movw	r30, r16
     e76:	84 83       	std	Z+4, r24	; 0x04
     e78:	95 83       	std	Z+5, r25	; 0x05
     e7a:	a6 83       	std	Z+6, r26	; 0x06
     e7c:	b7 83       	std	Z+7, r27	; 0x07
	dat[2]=serm.ReadSingle(0);
     e7e:	60 e0       	ldi	r22, 0x00	; 0
     e80:	ce 01       	movw	r24, r28
     e82:	01 96       	adiw	r24, 0x01	; 1
     e84:	0e 94 5b 08 	call	0x10b6	; 0x10b6 <_ZN3twi10ReadSingleEh>
     e88:	90 e0       	ldi	r25, 0x00	; 0
     e8a:	a0 e0       	ldi	r26, 0x00	; 0
     e8c:	b0 e0       	ldi	r27, 0x00	; 0
     e8e:	f8 01       	movw	r30, r16
     e90:	80 87       	std	Z+8, r24	; 0x08
     e92:	91 87       	std	Z+9, r25	; 0x09
     e94:	a2 87       	std	Z+10, r26	; 0x0a
     e96:	b3 87       	std	Z+11, r27	; 0x0b
	
	//serial.puthex2(dat[1]);
	serm.Stop();	 // end recieve process
     e98:	ce 01       	movw	r24, r28
     e9a:	01 96       	adiw	r24, 0x01	; 1
     e9c:	0e 94 73 08 	call	0x10e6	; 0x10e6 <_ZN3twi4StopEv>
	return;
}
     ea0:	2a 96       	adiw	r28, 0x0a	; 10
     ea2:	cd bf       	out	0x3d, r28	; 61
     ea4:	de bf       	out	0x3e, r29	; 62
     ea6:	df 91       	pop	r29
     ea8:	cf 91       	pop	r28
     eaa:	1f 91       	pop	r17
     eac:	0f 91       	pop	r16
     eae:	ff 90       	pop	r15
     eb0:	ef 90       	pop	r14
     eb2:	08 95       	ret

00000eb4 <_Z20ReadTempFromMLX90614P10TWI_structc>:
*	arguments									 *
*	addr : slave address						 *
*	return										 *
*	Degrees Celsius of temperature				 *
*************************************************/
double ReadTempFromMLX90614(TWI_t *port , char addr){
     eb4:	0f 93       	push	r16
     eb6:	1f 93       	push	r17
	uint32_t tmp;
	double temp;
	ReadFromMLX90614(port, addr, 0x07);	 // recieve from MLX90614
     eb8:	47 e0       	ldi	r20, 0x07	; 7
     eba:	0e 94 eb 06 	call	0xdd6	; 0xdd6 <_Z16ReadFromMLX90614P10TWI_structcc>
	tmp = ( dat[1] << 8 )	+ dat[0];	 // to temperature in marge two bytes
     ebe:	e0 ea       	ldi	r30, 0xA0	; 160
     ec0:	f8 e3       	ldi	r31, 0x38	; 56
	temp = ( ( (double)tmp * 2.0 ) - 27315.0 ) / 100.0;	 // convert Absolute temperature to Degrees Celsius of temperature
	/*if(tmp>=20000){
		tmp=0;
	}*/
	return tmp;
     ec2:	84 81       	ldd	r24, Z+4	; 0x04
     ec4:	95 81       	ldd	r25, Z+5	; 0x05
     ec6:	a6 81       	ldd	r26, Z+6	; 0x06
     ec8:	b7 81       	ldd	r27, Z+7	; 0x07
     eca:	44 27       	eor	r20, r20
     ecc:	58 2f       	mov	r21, r24
     ece:	69 2f       	mov	r22, r25
     ed0:	7a 2f       	mov	r23, r26
     ed2:	80 81       	ld	r24, Z
     ed4:	91 81       	ldd	r25, Z+1	; 0x01
     ed6:	a2 81       	ldd	r26, Z+2	; 0x02
     ed8:	b3 81       	ldd	r27, Z+3	; 0x03
     eda:	8a 01       	movw	r16, r20
     edc:	9b 01       	movw	r18, r22
     ede:	08 0f       	add	r16, r24
     ee0:	19 1f       	adc	r17, r25
     ee2:	2a 1f       	adc	r18, r26
     ee4:	3b 1f       	adc	r19, r27
     ee6:	c9 01       	movw	r24, r18
     ee8:	b8 01       	movw	r22, r16
     eea:	0e 94 c5 0a 	call	0x158a	; 0x158a <__floatunsisf>
}
     eee:	1f 91       	pop	r17
     ef0:	0f 91       	pop	r16
     ef2:	08 95       	ret

00000ef4 <_Z10sermo_testv>:

void sermo_test(void){
	uint32_t dic;
	while(1){
		dic=ReadTempFromMLX90614(&TWID,SERMO_addr);
     ef4:	64 eb       	ldi	r22, 0xB4	; 180
     ef6:	80 e9       	ldi	r24, 0x90	; 144
     ef8:	94 e0       	ldi	r25, 0x04	; 4
     efa:	0e 94 5a 07 	call	0xeb4	; 0xeb4 <_Z20ReadTempFromMLX90614P10TWI_structc>
		serial.puthex2(dic);
     efe:	0e 94 96 0a 	call	0x152c	; 0x152c <__fixunssfsi>
     f02:	dc 01       	movw	r26, r24
     f04:	cb 01       	movw	r24, r22
     f06:	08 2f       	mov	r16, r24
     f08:	19 2f       	mov	r17, r25
     f0a:	2a 2f       	mov	r18, r26
     f0c:	3b 2f       	mov	r19, r27
     f0e:	40 e0       	ldi	r20, 0x00	; 0
     f10:	50 e0       	ldi	r21, 0x00	; 0
     f12:	60 e0       	ldi	r22, 0x00	; 0
     f14:	70 e0       	ldi	r23, 0x00	; 0
     f16:	8c e3       	ldi	r24, 0x3C	; 60
     f18:	90 e2       	ldi	r25, 0x20	; 32
     f1a:	0e 94 c6 08 	call	0x118c	; 0x118c <_ZN5usart7puthex2Ex>
		serial.string("\n\r");
     f1e:	67 e3       	ldi	r22, 0x37	; 55
     f20:	70 e2       	ldi	r23, 0x20	; 32
     f22:	8c e3       	ldi	r24, 0x3C	; 60
     f24:	90 e2       	ldi	r25, 0x20	; 32
     f26:	0e 94 b1 08 	call	0x1162	; 0x1162 <_ZN5usart6stringEPKc>
	#else
		//round up by default
		__ticks_dc = (uint32_t)(ceil(fabs(__tmp)));
	#endif

	__builtin_avr_delay_cycles(__ticks_dc);
     f2a:	2f ef       	ldi	r18, 0xFF	; 255
     f2c:	87 ea       	ldi	r24, 0xA7	; 167
     f2e:	91 e6       	ldi	r25, 0x61	; 97
     f30:	21 50       	subi	r18, 0x01	; 1
     f32:	80 40       	sbci	r24, 0x00	; 0
     f34:	90 40       	sbci	r25, 0x00	; 0
     f36:	e1 f7       	brne	.-8      	; 0xf30 <_Z10sermo_testv+0x3c>
     f38:	00 c0       	rjmp	.+0      	; 0xf3a <_Z10sermo_testv+0x46>
     f3a:	00 00       	nop
     f3c:	db cf       	rjmp	.-74     	; 0xef4 <_Z10sermo_testv>

00000f3e <__vector_77>:
     f3e:	1f 92       	push	r1
     f40:	0f 92       	push	r0
     f42:	0f b6       	in	r0, 0x3f	; 63
     f44:	0f 92       	push	r0
     f46:	11 24       	eor	r1, r1
     f48:	08 b6       	in	r0, 0x38	; 56
     f4a:	0f 92       	push	r0
     f4c:	18 be       	out	0x38, r1	; 56
     f4e:	0f 90       	pop	r0
     f50:	08 be       	out	0x38, r0	; 56
     f52:	0f 90       	pop	r0
     f54:	0f be       	out	0x3f, r0	; 63
     f56:	0f 90       	pop	r0
     f58:	1f 90       	pop	r1
     f5a:	18 95       	reti

00000f5c <_ZN3spiC1EP10SPI_structP11PORT_struct18SPI_PRESCALER_enum>:
 *  Author: shun2
 */ 
#include <avr/io.h>
#include "xmega_spi.hpp"

spi::spi(SPI_t *ports,PORT_t *portg,SPI_PRESCALER_enum scale){
     f5c:	fc 01       	movw	r30, r24
	sport = ports;
     f5e:	60 83       	st	Z, r22
     f60:	71 83       	std	Z+1, r23	; 0x01
	gport = portg;
     f62:	42 83       	std	Z+2, r20	; 0x02
     f64:	53 83       	std	Z+3, r21	; 0x03
	gport->DIRCLR = PIN6_bm;//MISO
     f66:	80 e4       	ldi	r24, 0x40	; 64
     f68:	da 01       	movw	r26, r20
     f6a:	12 96       	adiw	r26, 0x02	; 2
     f6c:	8c 93       	st	X, r24
	gport->DIRSET = PIN4_bm | PIN5_bm | PIN7_bm;//MOSI,SCK
     f6e:	a2 81       	ldd	r26, Z+2	; 0x02
     f70:	b3 81       	ldd	r27, Z+3	; 0x03
     f72:	80 eb       	ldi	r24, 0xB0	; 176
     f74:	11 96       	adiw	r26, 0x01	; 1
     f76:	8c 93       	st	X, r24
	sport->CTRL = SPI_ENABLE_bm | SPI_MASTER_bm | SPI_MODE_0_gc | scale;
     f78:	01 90       	ld	r0, Z+
     f7a:	f0 81       	ld	r31, Z
     f7c:	e0 2d       	mov	r30, r0
     f7e:	20 65       	ori	r18, 0x50	; 80
     f80:	20 83       	st	Z, r18
     f82:	08 95       	ret

00000f84 <_ZN3twiC1EP10TWI_structm>:
 *  Author: shun2
 */ 

#include "xmega_twi.hpp"

twi::twi(TWI_t *portt,unsigned long baud){
     f84:	0f 93       	push	r16
     f86:	1f 93       	push	r17
     f88:	cf 93       	push	r28
     f8a:	df 93       	push	r29
     f8c:	ec 01       	movw	r28, r24
     f8e:	8b 01       	movw	r16, r22
	port=portt;
     f90:	68 87       	std	Y+8, r22	; 0x08
     f92:	79 87       	std	Y+9, r23	; 0x09
	baudset=(F_CPU/(2*baud))-5;
     f94:	22 0f       	add	r18, r18
     f96:	33 1f       	adc	r19, r19
     f98:	44 1f       	adc	r20, r20
     f9a:	55 1f       	adc	r21, r21
     f9c:	60 e0       	ldi	r22, 0x00	; 0
     f9e:	78 e4       	ldi	r23, 0x48	; 72
     fa0:	88 ee       	ldi	r24, 0xE8	; 232
     fa2:	91 e0       	ldi	r25, 0x01	; 1
     fa4:	0e 94 2b 0b 	call	0x1656	; 0x1656 <__udivmodsi4>
     fa8:	da 01       	movw	r26, r20
     faa:	c9 01       	movw	r24, r18
     fac:	05 97       	sbiw	r24, 0x05	; 5
     fae:	a1 09       	sbc	r26, r1
     fb0:	b1 09       	sbc	r27, r1
     fb2:	8c 83       	std	Y+4, r24	; 0x04
     fb4:	9d 83       	std	Y+5, r25	; 0x05
     fb6:	ae 83       	std	Y+6, r26	; 0x06
     fb8:	bf 83       	std	Y+7, r27	; 0x07
	#if baudset>255
	#warning "the desired BAUDRATE is too low for F_CPU. The BAUD register will be set to its highest possible value"
	port->MASTER.BAUD=0xff;
	#else
	port->MASTER.BAUD=(uint8_t)baudset;
     fba:	f8 01       	movw	r30, r16
     fbc:	85 83       	std	Z+5, r24	; 0x05
	#endif // BAUD
	//port->MASTER.BAUD=255;
	port->MASTER.CTRLB|=TWI_MASTER_TIMEOUT_200US_gc|0;  //TWI_MASTER_TIMEOUT_DISABLED_gc
     fbe:	e8 85       	ldd	r30, Y+8	; 0x08
     fc0:	f9 85       	ldd	r31, Y+9	; 0x09
     fc2:	82 81       	ldd	r24, Z+2	; 0x02
     fc4:	8c 60       	ori	r24, 0x0C	; 12
     fc6:	82 83       	std	Z+2, r24	; 0x02
	port->MASTER.CTRLA|=TWI_MASTER_ENABLE_bm;
     fc8:	e8 85       	ldd	r30, Y+8	; 0x08
     fca:	f9 85       	ldd	r31, Y+9	; 0x09
     fcc:	81 81       	ldd	r24, Z+1	; 0x01
     fce:	88 60       	ori	r24, 0x08	; 8
     fd0:	81 83       	std	Z+1, r24	; 0x01
	port->MASTER.STATUS = TWI_MASTER_BUSSTATE_IDLE_gc;
     fd2:	e8 85       	ldd	r30, Y+8	; 0x08
     fd4:	f9 85       	ldd	r31, Y+9	; 0x09
     fd6:	81 e0       	ldi	r24, 0x01	; 1
     fd8:	84 83       	std	Z+4, r24	; 0x04
	
	return;
}
     fda:	df 91       	pop	r29
     fdc:	cf 91       	pop	r28
     fde:	1f 91       	pop	r17
     fe0:	0f 91       	pop	r16
     fe2:	08 95       	ret

00000fe4 <_ZN3twi10errorCheckEv>:
uint8_t twi::errorCheck(void)
{
     fe4:	dc 01       	movw	r26, r24
	if(port->MASTER.STATUS&TWI_MASTER_BUSERR_bm||port->MASTER.STATUS&TWI_MASTER_ARBLOST_bm)
     fe6:	18 96       	adiw	r26, 0x08	; 8
     fe8:	ed 91       	ld	r30, X+
     fea:	fc 91       	ld	r31, X
     fec:	19 97       	sbiw	r26, 0x09	; 9
     fee:	84 81       	ldd	r24, Z+4	; 0x04
     ff0:	82 fd       	sbrc	r24, 2
     ff2:	05 c0       	rjmp	.+10     	; 0xffe <_ZN3twi10errorCheckEv+0x1a>
     ff4:	94 81       	ldd	r25, Z+4	; 0x04
     ff6:	89 2f       	mov	r24, r25
     ff8:	88 70       	andi	r24, 0x08	; 8
     ffa:	93 ff       	sbrs	r25, 3
     ffc:	09 c0       	rjmp	.+18     	; 0x1010 <_ZN3twi10errorCheckEv+0x2c>
	{
		port->MASTER.STATUS = TWI_MASTER_BUSSTATE_IDLE_gc;
     ffe:	81 e0       	ldi	r24, 0x01	; 1
    1000:	84 83       	std	Z+4, r24	; 0x04
		port->MASTER.CTRLC=TWI_MASTER_CMD_STOP_gc;
    1002:	18 96       	adiw	r26, 0x08	; 8
    1004:	ed 91       	ld	r30, X+
    1006:	fc 91       	ld	r31, X
    1008:	19 97       	sbiw	r26, 0x09	; 9
    100a:	83 e0       	ldi	r24, 0x03	; 3
    100c:	83 83       	std	Z+3, r24	; 0x03
		return 255;
    100e:	8f ef       	ldi	r24, 0xFF	; 255
	}
	else
	{
		return 0;
	}
}
    1010:	08 95       	ret

00001012 <_ZN3twi7AddressEhh>:

uint8_t twi::Address(uint8_t addr, uint8_t rw){
    1012:	dc 01       	movw	r26, r24
	if(rw)
    1014:	44 23       	and	r20, r20
    1016:	59 f0       	breq	.+22     	; 0x102e <_ZN3twi7AddressEhh+0x1c>
	{
		port->MASTER.ADDR=addr|1;
    1018:	18 96       	adiw	r26, 0x08	; 8
    101a:	ed 91       	ld	r30, X+
    101c:	fc 91       	ld	r31, X
    101e:	19 97       	sbiw	r26, 0x09	; 9
    1020:	61 60       	ori	r22, 0x01	; 1
    1022:	66 83       	std	Z+6, r22	; 0x06
	}
	else
	{
		port->MASTER.ADDR=addr&(~1);
	}
	while(!(port->MASTER.STATUS&0xc0));
    1024:	18 96       	adiw	r26, 0x08	; 8
    1026:	ed 91       	ld	r30, X+
    1028:	fc 91       	ld	r31, X
    102a:	19 97       	sbiw	r26, 0x09	; 9
    102c:	07 c0       	rjmp	.+14     	; 0x103c <_ZN3twi7AddressEhh+0x2a>
	{
		port->MASTER.ADDR=addr|1;
	}
	else
	{
		port->MASTER.ADDR=addr&(~1);
    102e:	18 96       	adiw	r26, 0x08	; 8
    1030:	ed 91       	ld	r30, X+
    1032:	fc 91       	ld	r31, X
    1034:	19 97       	sbiw	r26, 0x09	; 9
    1036:	6e 7f       	andi	r22, 0xFE	; 254
    1038:	66 83       	std	Z+6, r22	; 0x06
    103a:	f4 cf       	rjmp	.-24     	; 0x1024 <_ZN3twi7AddressEhh+0x12>
	}
	while(!(port->MASTER.STATUS&0xc0));
    103c:	94 81       	ldd	r25, Z+4	; 0x04
    103e:	90 7c       	andi	r25, 0xC0	; 192
    1040:	e9 f3       	breq	.-6      	; 0x103c <_ZN3twi7AddressEhh+0x2a>

	//	errorCheck(port);

	if(port->MASTER.STATUS&TWI_MASTER_RXACK_bm)
    1042:	94 81       	ldd	r25, Z+4	; 0x04
    1044:	89 2f       	mov	r24, r25
    1046:	80 71       	andi	r24, 0x10	; 16
    1048:	94 ff       	sbrs	r25, 4
    104a:	10 c0       	rjmp	.+32     	; 0x106c <_ZN3twi7AddressEhh+0x5a>
	{
		port->MASTER.STATUS |= TWI_MASTER_WIF_bm;
    104c:	84 81       	ldd	r24, Z+4	; 0x04
    104e:	80 64       	ori	r24, 0x40	; 64
    1050:	84 83       	std	Z+4, r24	; 0x04
		port->MASTER.STATUS |= TWI_MASTER_RIF_bm;
    1052:	18 96       	adiw	r26, 0x08	; 8
    1054:	ed 91       	ld	r30, X+
    1056:	fc 91       	ld	r31, X
    1058:	19 97       	sbiw	r26, 0x09	; 9
    105a:	84 81       	ldd	r24, Z+4	; 0x04
    105c:	80 68       	ori	r24, 0x80	; 128
    105e:	84 83       	std	Z+4, r24	; 0x04
		port->MASTER.STATUS = TWI_MASTER_BUSSTATE_IDLE_gc;
    1060:	18 96       	adiw	r26, 0x08	; 8
    1062:	ed 91       	ld	r30, X+
    1064:	fc 91       	ld	r31, X
    1066:	19 97       	sbiw	r26, 0x09	; 9
    1068:	81 e0       	ldi	r24, 0x01	; 1
    106a:	84 83       	std	Z+4, r24	; 0x04
	else
	{

		return 0;
	}
}
    106c:	08 95       	ret

0000106e <_ZN3twi11WriteSingleEi>:

uint8_t twi::WriteSingle(int data)
{
    106e:	cf 93       	push	r28
    1070:	df 93       	push	r29
    1072:	ec 01       	movw	r28, r24
	port->MASTER.DATA = data;
    1074:	e8 85       	ldd	r30, Y+8	; 0x08
    1076:	f9 85       	ldd	r31, Y+9	; 0x09
    1078:	67 83       	std	Z+7, r22	; 0x07
	while(!(port->MASTER.STATUS&0xfc));
    107a:	e8 85       	ldd	r30, Y+8	; 0x08
    107c:	f9 85       	ldd	r31, Y+9	; 0x09
    107e:	84 81       	ldd	r24, Z+4	; 0x04
    1080:	8c 7f       	andi	r24, 0xFC	; 252
    1082:	e9 f3       	breq	.-6      	; 0x107e <_ZN3twi11WriteSingleEi+0x10>

	errorCheck();
    1084:	ce 01       	movw	r24, r28
    1086:	0e 94 f2 07 	call	0xfe4	; 0xfe4 <_ZN3twi10errorCheckEv>

	if(port->MASTER.STATUS&TWI_MASTER_RXACK_bm)
    108a:	e8 85       	ldd	r30, Y+8	; 0x08
    108c:	f9 85       	ldd	r31, Y+9	; 0x09
    108e:	94 81       	ldd	r25, Z+4	; 0x04
    1090:	89 2f       	mov	r24, r25
    1092:	80 71       	andi	r24, 0x10	; 16
    1094:	94 ff       	sbrs	r25, 4
    1096:	0c c0       	rjmp	.+24     	; 0x10b0 <_ZN3twi11WriteSingleEi+0x42>
	{
		port->MASTER.STATUS |= TWI_MASTER_WIF_bm;
    1098:	84 81       	ldd	r24, Z+4	; 0x04
    109a:	80 64       	ori	r24, 0x40	; 64
    109c:	84 83       	std	Z+4, r24	; 0x04
		port->MASTER.STATUS |= TWI_MASTER_RIF_bm;
    109e:	e8 85       	ldd	r30, Y+8	; 0x08
    10a0:	f9 85       	ldd	r31, Y+9	; 0x09
    10a2:	84 81       	ldd	r24, Z+4	; 0x04
    10a4:	80 68       	ori	r24, 0x80	; 128
    10a6:	84 83       	std	Z+4, r24	; 0x04
		port->MASTER.STATUS = TWI_MASTER_BUSSTATE_IDLE_gc;
    10a8:	e8 85       	ldd	r30, Y+8	; 0x08
    10aa:	f9 85       	ldd	r31, Y+9	; 0x09
    10ac:	81 e0       	ldi	r24, 0x01	; 1
    10ae:	84 83       	std	Z+4, r24	; 0x04
	}
	else
	{
		return 0;
	}
}
    10b0:	df 91       	pop	r29
    10b2:	cf 91       	pop	r28
    10b4:	08 95       	ret

000010b6 <_ZN3twi10ReadSingleEh>:

uint8_t twi::ReadSingle(uint8_t ack)
{
    10b6:	cf 93       	push	r28
    10b8:	df 93       	push	r29
    10ba:	ec 01       	movw	r28, r24
	//TWIC.MASTER.STATUS |= TWI_MASTER_RIF_bm;

	while(!(port->MASTER.STATUS&0xfc));
    10bc:	e8 85       	ldd	r30, Y+8	; 0x08
    10be:	f9 85       	ldd	r31, Y+9	; 0x09
    10c0:	84 81       	ldd	r24, Z+4	; 0x04
    10c2:	8c 7f       	andi	r24, 0xFC	; 252
    10c4:	e9 f3       	breq	.-6      	; 0x10c0 <_ZN3twi10ReadSingleEh+0xa>

	if (ack)
    10c6:	66 23       	and	r22, r22
    10c8:	19 f0       	breq	.+6      	; 0x10d0 <_ZN3twi10ReadSingleEh+0x1a>
	{
		port->MASTER.CTRLC=TWI_MASTER_CMD_RECVTRANS_gc;
    10ca:	82 e0       	ldi	r24, 0x02	; 2
    10cc:	83 83       	std	Z+3, r24	; 0x03
    10ce:	02 c0       	rjmp	.+4      	; 0x10d4 <_ZN3twi10ReadSingleEh+0x1e>
	}
	else
	{
		port->MASTER.CTRLC=TWI_MASTER_CMD_RECVTRANS_gc|TWI_MASTER_ACKACT_bm;
    10d0:	86 e0       	ldi	r24, 0x06	; 6
    10d2:	83 83       	std	Z+3, r24	; 0x03
	}

	errorCheck();
    10d4:	ce 01       	movw	r24, r28
    10d6:	0e 94 f2 07 	call	0xfe4	; 0xfe4 <_ZN3twi10errorCheckEv>

	return port->MASTER.DATA;
    10da:	e8 85       	ldd	r30, Y+8	; 0x08
    10dc:	f9 85       	ldd	r31, Y+9	; 0x09
    10de:	87 81       	ldd	r24, Z+7	; 0x07
}
    10e0:	df 91       	pop	r29
    10e2:	cf 91       	pop	r28
    10e4:	08 95       	ret

000010e6 <_ZN3twi4StopEv>:

void twi::Stop(void)
{
    10e6:	cf 93       	push	r28
    10e8:	df 93       	push	r29
    10ea:	ec 01       	movw	r28, r24
	while(!(port->MASTER.STATUS&0xfc));
    10ec:	e8 85       	ldd	r30, Y+8	; 0x08
    10ee:	f9 85       	ldd	r31, Y+9	; 0x09
    10f0:	84 81       	ldd	r24, Z+4	; 0x04
    10f2:	8c 7f       	andi	r24, 0xFC	; 252
    10f4:	e9 f3       	breq	.-6      	; 0x10f0 <_ZN3twi4StopEv+0xa>

	errorCheck();
    10f6:	ce 01       	movw	r24, r28
    10f8:	0e 94 f2 07 	call	0xfe4	; 0xfe4 <_ZN3twi10errorCheckEv>

	port->MASTER.CTRLC=TWI_MASTER_CMD_STOP_gc;
    10fc:	e8 85       	ldd	r30, Y+8	; 0x08
    10fe:	f9 85       	ldd	r31, Y+9	; 0x09
    1100:	83 e0       	ldi	r24, 0x03	; 3
    1102:	83 83       	std	Z+3, r24	; 0x03
	return;
}
    1104:	df 91       	pop	r29
    1106:	cf 91       	pop	r28
    1108:	08 95       	ret

0000110a <_ZN5usartC1EP12USART_structP11PORT_struct>:
	data %= 100;
	usart::send(data/10 + '0');
	data %= 10;
	usart::send(data + '0');
	return;
}
    110a:	fc 01       	movw	r30, r24
    110c:	40 83       	st	Z, r20
    110e:	51 83       	std	Z+1, r21	; 0x01
    1110:	62 83       	std	Z+2, r22	; 0x02
    1112:	73 83       	std	Z+3, r23	; 0x03
    1114:	88 e0       	ldi	r24, 0x08	; 8
    1116:	da 01       	movw	r26, r20
    1118:	11 96       	adiw	r26, 0x01	; 1
    111a:	8c 93       	st	X, r24
    111c:	a0 81       	ld	r26, Z
    111e:	b1 81       	ldd	r27, Z+1	; 0x01
    1120:	84 e0       	ldi	r24, 0x04	; 4
    1122:	12 96       	adiw	r26, 0x02	; 2
    1124:	8c 93       	st	X, r24
    1126:	a2 81       	ldd	r26, Z+2	; 0x02
    1128:	b3 81       	ldd	r27, Z+3	; 0x03
    112a:	83 e3       	ldi	r24, 0x33	; 51
    112c:	16 96       	adiw	r26, 0x06	; 6
    112e:	8c 93       	st	X, r24
    1130:	a2 81       	ldd	r26, Z+2	; 0x02
    1132:	b3 81       	ldd	r27, Z+3	; 0x03
    1134:	17 96       	adiw	r26, 0x07	; 7
    1136:	1c 92       	st	X, r1
    1138:	a2 81       	ldd	r26, Z+2	; 0x02
    113a:	b3 81       	ldd	r27, Z+3	; 0x03
    113c:	83 e0       	ldi	r24, 0x03	; 3
    113e:	15 96       	adiw	r26, 0x05	; 5
    1140:	8c 93       	st	X, r24
    1142:	02 80       	ldd	r0, Z+2	; 0x02
    1144:	f3 81       	ldd	r31, Z+3	; 0x03
    1146:	e0 2d       	mov	r30, r0
    1148:	88 e1       	ldi	r24, 0x18	; 24
    114a:	84 83       	std	Z+4, r24	; 0x04
    114c:	08 95       	ret

0000114e <_ZN5usart4sendEc>:
    114e:	dc 01       	movw	r26, r24
    1150:	12 96       	adiw	r26, 0x02	; 2
    1152:	ed 91       	ld	r30, X+
    1154:	fc 91       	ld	r31, X
    1156:	13 97       	sbiw	r26, 0x03	; 3
    1158:	81 81       	ldd	r24, Z+1	; 0x01
    115a:	85 ff       	sbrs	r24, 5
    115c:	fd cf       	rjmp	.-6      	; 0x1158 <_ZN5usart4sendEc+0xa>
    115e:	60 83       	st	Z, r22
    1160:	08 95       	ret

00001162 <_ZN5usart6stringEPKc>:
    1162:	0f 93       	push	r16
    1164:	1f 93       	push	r17
    1166:	cf 93       	push	r28
    1168:	df 93       	push	r29
    116a:	eb 01       	movw	r28, r22
    116c:	68 81       	ld	r22, Y
    116e:	66 23       	and	r22, r22
    1170:	41 f0       	breq	.+16     	; 0x1182 <_ZN5usart6stringEPKc+0x20>
    1172:	8c 01       	movw	r16, r24
    1174:	21 96       	adiw	r28, 0x01	; 1
    1176:	c8 01       	movw	r24, r16
    1178:	0e 94 a7 08 	call	0x114e	; 0x114e <_ZN5usart4sendEc>
    117c:	69 91       	ld	r22, Y+
    117e:	61 11       	cpse	r22, r1
    1180:	fa cf       	rjmp	.-12     	; 0x1176 <_ZN5usart6stringEPKc+0x14>
    1182:	df 91       	pop	r29
    1184:	cf 91       	pop	r28
    1186:	1f 91       	pop	r17
    1188:	0f 91       	pop	r16
    118a:	08 95       	ret

0000118c <_ZN5usart7puthex2Ex>:
void usart::puthex2(int64_t data){//12桁整数
    118c:	2f 92       	push	r2
    118e:	3f 92       	push	r3
    1190:	4f 92       	push	r4
    1192:	5f 92       	push	r5
    1194:	6f 92       	push	r6
    1196:	7f 92       	push	r7
    1198:	8f 92       	push	r8
    119a:	9f 92       	push	r9
    119c:	af 92       	push	r10
    119e:	bf 92       	push	r11
    11a0:	cf 92       	push	r12
    11a2:	df 92       	push	r13
    11a4:	ef 92       	push	r14
    11a6:	ff 92       	push	r15
    11a8:	0f 93       	push	r16
    11aa:	1f 93       	push	r17
    11ac:	cf 93       	push	r28
    11ae:	df 93       	push	r29
    11b0:	ec 01       	movw	r28, r24
    11b2:	20 2e       	mov	r2, r16
    11b4:	31 2e       	mov	r3, r17
    11b6:	42 2e       	mov	r4, r18
    11b8:	53 2e       	mov	r5, r19
    11ba:	64 2e       	mov	r6, r20
    11bc:	75 2e       	mov	r7, r21
    11be:	86 2e       	mov	r8, r22
    11c0:	97 2e       	mov	r9, r23
	//if(data<0){
		//usart::string("-");
		//data=data*-1;
	//}
	if(data & 0x8000000000000000){
    11c2:	20 2f       	mov	r18, r16
    11c4:	31 2f       	mov	r19, r17
    11c6:	44 2d       	mov	r20, r4
    11c8:	55 2d       	mov	r21, r5
    11ca:	66 2d       	mov	r22, r6
    11cc:	77 2d       	mov	r23, r7
    11ce:	88 2d       	mov	r24, r8
    11d0:	99 2d       	mov	r25, r9
    11d2:	a0 e0       	ldi	r26, 0x00	; 0
    11d4:	0e 94 27 0c 	call	0x184e	; 0x184e <__cmpdi2_s8>
    11d8:	44 f4       	brge	.+16     	; 0x11ea <_ZN5usart7puthex2Ex+0x5e>
		usart::string("-");
    11da:	6a e3       	ldi	r22, 0x3A	; 58
    11dc:	70 e2       	ldi	r23, 0x20	; 32
    11de:	ce 01       	movw	r24, r28
    11e0:	0e 94 b1 08 	call	0x1162	; 0x1162 <_ZN5usart6stringEPKc>
		data=data&0x7FFFFFFFFFFFFFFF;
    11e4:	89 2d       	mov	r24, r9
    11e6:	8f 77       	andi	r24, 0x7F	; 127
    11e8:	98 2e       	mov	r9, r24
	}
	usart::send(data/100000000000 + '0');
    11ea:	a1 2c       	mov	r10, r1
    11ec:	0f 2e       	mov	r0, r31
    11ee:	f8 ee       	ldi	r31, 0xE8	; 232
    11f0:	bf 2e       	mov	r11, r31
    11f2:	f0 2d       	mov	r31, r0
    11f4:	0f 2e       	mov	r0, r31
    11f6:	f6 e7       	ldi	r31, 0x76	; 118
    11f8:	cf 2e       	mov	r12, r31
    11fa:	f0 2d       	mov	r31, r0
    11fc:	0f 2e       	mov	r0, r31
    11fe:	f8 e4       	ldi	r31, 0x48	; 72
    1200:	df 2e       	mov	r13, r31
    1202:	f0 2d       	mov	r31, r0
    1204:	0f 2e       	mov	r0, r31
    1206:	f7 e1       	ldi	r31, 0x17	; 23
    1208:	ef 2e       	mov	r14, r31
    120a:	f0 2d       	mov	r31, r0
    120c:	f1 2c       	mov	r15, r1
    120e:	00 e0       	ldi	r16, 0x00	; 0
    1210:	10 e0       	ldi	r17, 0x00	; 0
    1212:	22 2d       	mov	r18, r2
    1214:	33 2d       	mov	r19, r3
    1216:	44 2d       	mov	r20, r4
    1218:	55 2d       	mov	r21, r5
    121a:	66 2d       	mov	r22, r6
    121c:	77 2d       	mov	r23, r7
    121e:	88 2d       	mov	r24, r8
    1220:	99 2d       	mov	r25, r9
    1222:	0e 94 58 0b 	call	0x16b0	; 0x16b0 <__divdi3>
    1226:	60 e3       	ldi	r22, 0x30	; 48
    1228:	62 0f       	add	r22, r18
    122a:	ce 01       	movw	r24, r28
    122c:	0e 94 a7 08 	call	0x114e	; 0x114e <_ZN5usart4sendEc>
	data %= 100000000000;
    1230:	22 2d       	mov	r18, r2
    1232:	33 2d       	mov	r19, r3
    1234:	44 2d       	mov	r20, r4
    1236:	55 2d       	mov	r21, r5
    1238:	66 2d       	mov	r22, r6
    123a:	77 2d       	mov	r23, r7
    123c:	88 2d       	mov	r24, r8
    123e:	99 2d       	mov	r25, r9
    1240:	0e 94 56 0b 	call	0x16ac	; 0x16ac <__moddi3>
    1244:	22 2e       	mov	r2, r18
    1246:	33 2e       	mov	r3, r19
    1248:	44 2e       	mov	r4, r20
    124a:	55 2e       	mov	r5, r21
    124c:	66 2e       	mov	r6, r22
    124e:	77 2e       	mov	r7, r23
    1250:	88 2e       	mov	r8, r24
    1252:	99 2e       	mov	r9, r25
	usart::send(data/10000000000 + '0');
    1254:	0f 2e       	mov	r0, r31
    1256:	f4 ee       	ldi	r31, 0xE4	; 228
    1258:	bf 2e       	mov	r11, r31
    125a:	f0 2d       	mov	r31, r0
    125c:	0f 2e       	mov	r0, r31
    125e:	fb e0       	ldi	r31, 0x0B	; 11
    1260:	cf 2e       	mov	r12, r31
    1262:	f0 2d       	mov	r31, r0
    1264:	0f 2e       	mov	r0, r31
    1266:	f4 e5       	ldi	r31, 0x54	; 84
    1268:	df 2e       	mov	r13, r31
    126a:	f0 2d       	mov	r31, r0
    126c:	68 94       	set
    126e:	ee 24       	eor	r14, r14
    1270:	e1 f8       	bld	r14, 1
    1272:	0e 94 58 0b 	call	0x16b0	; 0x16b0 <__divdi3>
    1276:	60 e3       	ldi	r22, 0x30	; 48
    1278:	62 0f       	add	r22, r18
    127a:	ce 01       	movw	r24, r28
    127c:	0e 94 a7 08 	call	0x114e	; 0x114e <_ZN5usart4sendEc>
	data %= 10000000000;
    1280:	22 2d       	mov	r18, r2
    1282:	33 2d       	mov	r19, r3
    1284:	44 2d       	mov	r20, r4
    1286:	55 2d       	mov	r21, r5
    1288:	66 2d       	mov	r22, r6
    128a:	77 2d       	mov	r23, r7
    128c:	88 2d       	mov	r24, r8
    128e:	99 2d       	mov	r25, r9
    1290:	0e 94 56 0b 	call	0x16ac	; 0x16ac <__moddi3>
    1294:	22 2e       	mov	r2, r18
    1296:	33 2e       	mov	r3, r19
    1298:	44 2e       	mov	r4, r20
    129a:	55 2e       	mov	r5, r21
    129c:	66 2e       	mov	r6, r22
    129e:	77 2e       	mov	r7, r23
    12a0:	88 2e       	mov	r8, r24
    12a2:	99 2e       	mov	r9, r25
	usart::send(data/1000000000 + '0');
    12a4:	0f 2e       	mov	r0, r31
    12a6:	fa ec       	ldi	r31, 0xCA	; 202
    12a8:	bf 2e       	mov	r11, r31
    12aa:	f0 2d       	mov	r31, r0
    12ac:	0f 2e       	mov	r0, r31
    12ae:	fa e9       	ldi	r31, 0x9A	; 154
    12b0:	cf 2e       	mov	r12, r31
    12b2:	f0 2d       	mov	r31, r0
    12b4:	0f 2e       	mov	r0, r31
    12b6:	fb e3       	ldi	r31, 0x3B	; 59
    12b8:	df 2e       	mov	r13, r31
    12ba:	f0 2d       	mov	r31, r0
    12bc:	e1 2c       	mov	r14, r1
    12be:	0e 94 58 0b 	call	0x16b0	; 0x16b0 <__divdi3>
    12c2:	60 e3       	ldi	r22, 0x30	; 48
    12c4:	62 0f       	add	r22, r18
    12c6:	ce 01       	movw	r24, r28
    12c8:	0e 94 a7 08 	call	0x114e	; 0x114e <_ZN5usart4sendEc>
	data %= 1000000000;
    12cc:	22 2d       	mov	r18, r2
    12ce:	33 2d       	mov	r19, r3
    12d0:	44 2d       	mov	r20, r4
    12d2:	55 2d       	mov	r21, r5
    12d4:	66 2d       	mov	r22, r6
    12d6:	77 2d       	mov	r23, r7
    12d8:	88 2d       	mov	r24, r8
    12da:	99 2d       	mov	r25, r9
    12dc:	0e 94 56 0b 	call	0x16ac	; 0x16ac <__moddi3>
    12e0:	22 2e       	mov	r2, r18
    12e2:	33 2e       	mov	r3, r19
    12e4:	44 2e       	mov	r4, r20
    12e6:	55 2e       	mov	r5, r21
    12e8:	66 2e       	mov	r6, r22
    12ea:	77 2e       	mov	r7, r23
    12ec:	88 2e       	mov	r8, r24
    12ee:	99 2e       	mov	r9, r25
	usart::send(data/100000000 + '0');
    12f0:	0f 2e       	mov	r0, r31
    12f2:	f1 ee       	ldi	r31, 0xE1	; 225
    12f4:	bf 2e       	mov	r11, r31
    12f6:	f0 2d       	mov	r31, r0
    12f8:	0f 2e       	mov	r0, r31
    12fa:	f5 ef       	ldi	r31, 0xF5	; 245
    12fc:	cf 2e       	mov	r12, r31
    12fe:	f0 2d       	mov	r31, r0
    1300:	0f 2e       	mov	r0, r31
    1302:	f5 e0       	ldi	r31, 0x05	; 5
    1304:	df 2e       	mov	r13, r31
    1306:	f0 2d       	mov	r31, r0
    1308:	0e 94 58 0b 	call	0x16b0	; 0x16b0 <__divdi3>
    130c:	60 e3       	ldi	r22, 0x30	; 48
    130e:	62 0f       	add	r22, r18
    1310:	ce 01       	movw	r24, r28
    1312:	0e 94 a7 08 	call	0x114e	; 0x114e <_ZN5usart4sendEc>
	data %= 100000000;
    1316:	22 2d       	mov	r18, r2
    1318:	33 2d       	mov	r19, r3
    131a:	44 2d       	mov	r20, r4
    131c:	55 2d       	mov	r21, r5
    131e:	66 2d       	mov	r22, r6
    1320:	77 2d       	mov	r23, r7
    1322:	88 2d       	mov	r24, r8
    1324:	99 2d       	mov	r25, r9
    1326:	0e 94 56 0b 	call	0x16ac	; 0x16ac <__moddi3>
    132a:	22 2e       	mov	r2, r18
    132c:	33 2e       	mov	r3, r19
    132e:	44 2e       	mov	r4, r20
    1330:	55 2e       	mov	r5, r21
    1332:	66 2e       	mov	r6, r22
    1334:	77 2e       	mov	r7, r23
    1336:	88 2e       	mov	r8, r24
    1338:	99 2e       	mov	r9, r25
	usart::send(data/10000000 + '0');
    133a:	68 94       	set
    133c:	aa 24       	eor	r10, r10
    133e:	a7 f8       	bld	r10, 7
    1340:	0f 2e       	mov	r0, r31
    1342:	f6 e9       	ldi	r31, 0x96	; 150
    1344:	bf 2e       	mov	r11, r31
    1346:	f0 2d       	mov	r31, r0
    1348:	0f 2e       	mov	r0, r31
    134a:	f8 e9       	ldi	r31, 0x98	; 152
    134c:	cf 2e       	mov	r12, r31
    134e:	f0 2d       	mov	r31, r0
    1350:	d1 2c       	mov	r13, r1
    1352:	0e 94 58 0b 	call	0x16b0	; 0x16b0 <__divdi3>
    1356:	60 e3       	ldi	r22, 0x30	; 48
    1358:	62 0f       	add	r22, r18
    135a:	ce 01       	movw	r24, r28
    135c:	0e 94 a7 08 	call	0x114e	; 0x114e <_ZN5usart4sendEc>
	data %= 10000000;
    1360:	22 2d       	mov	r18, r2
    1362:	33 2d       	mov	r19, r3
    1364:	44 2d       	mov	r20, r4
    1366:	55 2d       	mov	r21, r5
    1368:	66 2d       	mov	r22, r6
    136a:	77 2d       	mov	r23, r7
    136c:	88 2d       	mov	r24, r8
    136e:	99 2d       	mov	r25, r9
    1370:	0e 94 56 0b 	call	0x16ac	; 0x16ac <__moddi3>
    1374:	22 2e       	mov	r2, r18
    1376:	33 2e       	mov	r3, r19
    1378:	44 2e       	mov	r4, r20
    137a:	55 2e       	mov	r5, r21
    137c:	66 2e       	mov	r6, r22
    137e:	77 2e       	mov	r7, r23
    1380:	88 2e       	mov	r8, r24
    1382:	99 2e       	mov	r9, r25
	usart::send(data/1000000 + '0');
    1384:	68 94       	set
    1386:	aa 24       	eor	r10, r10
    1388:	a6 f8       	bld	r10, 6
    138a:	0f 2e       	mov	r0, r31
    138c:	f2 e4       	ldi	r31, 0x42	; 66
    138e:	bf 2e       	mov	r11, r31
    1390:	f0 2d       	mov	r31, r0
    1392:	0f 2e       	mov	r0, r31
    1394:	ff e0       	ldi	r31, 0x0F	; 15
    1396:	cf 2e       	mov	r12, r31
    1398:	f0 2d       	mov	r31, r0
    139a:	0e 94 58 0b 	call	0x16b0	; 0x16b0 <__divdi3>
    139e:	60 e3       	ldi	r22, 0x30	; 48
    13a0:	62 0f       	add	r22, r18
    13a2:	ce 01       	movw	r24, r28
    13a4:	0e 94 a7 08 	call	0x114e	; 0x114e <_ZN5usart4sendEc>
	data %= 1000000;
    13a8:	22 2d       	mov	r18, r2
    13aa:	33 2d       	mov	r19, r3
    13ac:	44 2d       	mov	r20, r4
    13ae:	55 2d       	mov	r21, r5
    13b0:	66 2d       	mov	r22, r6
    13b2:	77 2d       	mov	r23, r7
    13b4:	88 2d       	mov	r24, r8
    13b6:	99 2d       	mov	r25, r9
    13b8:	0e 94 56 0b 	call	0x16ac	; 0x16ac <__moddi3>
    13bc:	22 2e       	mov	r2, r18
    13be:	33 2e       	mov	r3, r19
    13c0:	44 2e       	mov	r4, r20
    13c2:	55 2e       	mov	r5, r21
    13c4:	66 2e       	mov	r6, r22
    13c6:	77 2e       	mov	r7, r23
    13c8:	88 2e       	mov	r8, r24
    13ca:	99 2e       	mov	r9, r25
	usart::send(data/100000 + '0');
    13cc:	0f 2e       	mov	r0, r31
    13ce:	f0 ea       	ldi	r31, 0xA0	; 160
    13d0:	af 2e       	mov	r10, r31
    13d2:	f0 2d       	mov	r31, r0
    13d4:	0f 2e       	mov	r0, r31
    13d6:	f6 e8       	ldi	r31, 0x86	; 134
    13d8:	bf 2e       	mov	r11, r31
    13da:	f0 2d       	mov	r31, r0
    13dc:	cc 24       	eor	r12, r12
    13de:	c3 94       	inc	r12
    13e0:	0e 94 58 0b 	call	0x16b0	; 0x16b0 <__divdi3>
    13e4:	60 e3       	ldi	r22, 0x30	; 48
    13e6:	62 0f       	add	r22, r18
    13e8:	ce 01       	movw	r24, r28
    13ea:	0e 94 a7 08 	call	0x114e	; 0x114e <_ZN5usart4sendEc>
	data %= 100000;
    13ee:	22 2d       	mov	r18, r2
    13f0:	33 2d       	mov	r19, r3
    13f2:	44 2d       	mov	r20, r4
    13f4:	55 2d       	mov	r21, r5
    13f6:	66 2d       	mov	r22, r6
    13f8:	77 2d       	mov	r23, r7
    13fa:	88 2d       	mov	r24, r8
    13fc:	99 2d       	mov	r25, r9
    13fe:	0e 94 56 0b 	call	0x16ac	; 0x16ac <__moddi3>
    1402:	22 2e       	mov	r2, r18
    1404:	33 2e       	mov	r3, r19
    1406:	44 2e       	mov	r4, r20
    1408:	55 2e       	mov	r5, r21
    140a:	66 2e       	mov	r6, r22
    140c:	77 2e       	mov	r7, r23
    140e:	88 2e       	mov	r8, r24
    1410:	99 2e       	mov	r9, r25
	usart::send(data/10000 + '0');
    1412:	68 94       	set
    1414:	aa 24       	eor	r10, r10
    1416:	a4 f8       	bld	r10, 4
    1418:	0f 2e       	mov	r0, r31
    141a:	f7 e2       	ldi	r31, 0x27	; 39
    141c:	bf 2e       	mov	r11, r31
    141e:	f0 2d       	mov	r31, r0
    1420:	c1 2c       	mov	r12, r1
    1422:	0e 94 58 0b 	call	0x16b0	; 0x16b0 <__divdi3>
    1426:	60 e3       	ldi	r22, 0x30	; 48
    1428:	62 0f       	add	r22, r18
    142a:	ce 01       	movw	r24, r28
    142c:	0e 94 a7 08 	call	0x114e	; 0x114e <_ZN5usart4sendEc>
	data %= 10000;
    1430:	22 2d       	mov	r18, r2
    1432:	33 2d       	mov	r19, r3
    1434:	44 2d       	mov	r20, r4
    1436:	55 2d       	mov	r21, r5
    1438:	66 2d       	mov	r22, r6
    143a:	77 2d       	mov	r23, r7
    143c:	88 2d       	mov	r24, r8
    143e:	99 2d       	mov	r25, r9
    1440:	0e 94 56 0b 	call	0x16ac	; 0x16ac <__moddi3>
    1444:	22 2e       	mov	r2, r18
    1446:	33 2e       	mov	r3, r19
    1448:	44 2e       	mov	r4, r20
    144a:	55 2e       	mov	r5, r21
    144c:	66 2e       	mov	r6, r22
    144e:	77 2e       	mov	r7, r23
    1450:	88 2e       	mov	r8, r24
    1452:	99 2e       	mov	r9, r25
	usart::send(data/1000 + '0');
    1454:	0f 2e       	mov	r0, r31
    1456:	f8 ee       	ldi	r31, 0xE8	; 232
    1458:	af 2e       	mov	r10, r31
    145a:	f0 2d       	mov	r31, r0
    145c:	0f 2e       	mov	r0, r31
    145e:	f3 e0       	ldi	r31, 0x03	; 3
    1460:	bf 2e       	mov	r11, r31
    1462:	f0 2d       	mov	r31, r0
    1464:	0e 94 58 0b 	call	0x16b0	; 0x16b0 <__divdi3>
    1468:	60 e3       	ldi	r22, 0x30	; 48
    146a:	62 0f       	add	r22, r18
    146c:	ce 01       	movw	r24, r28
    146e:	0e 94 a7 08 	call	0x114e	; 0x114e <_ZN5usart4sendEc>
	data %= 1000;
    1472:	22 2d       	mov	r18, r2
    1474:	33 2d       	mov	r19, r3
    1476:	44 2d       	mov	r20, r4
    1478:	55 2d       	mov	r21, r5
    147a:	66 2d       	mov	r22, r6
    147c:	77 2d       	mov	r23, r7
    147e:	88 2d       	mov	r24, r8
    1480:	99 2d       	mov	r25, r9
    1482:	0e 94 56 0b 	call	0x16ac	; 0x16ac <__moddi3>
    1486:	22 2e       	mov	r2, r18
    1488:	33 2e       	mov	r3, r19
    148a:	44 2e       	mov	r4, r20
    148c:	55 2e       	mov	r5, r21
    148e:	66 2e       	mov	r6, r22
    1490:	77 2e       	mov	r7, r23
    1492:	88 2e       	mov	r8, r24
    1494:	99 2e       	mov	r9, r25
	usart::send(data/100 + '0');
    1496:	0f 2e       	mov	r0, r31
    1498:	f4 e6       	ldi	r31, 0x64	; 100
    149a:	af 2e       	mov	r10, r31
    149c:	f0 2d       	mov	r31, r0
    149e:	b1 2c       	mov	r11, r1
    14a0:	0e 94 58 0b 	call	0x16b0	; 0x16b0 <__divdi3>
    14a4:	60 e3       	ldi	r22, 0x30	; 48
    14a6:	62 0f       	add	r22, r18
    14a8:	ce 01       	movw	r24, r28
    14aa:	0e 94 a7 08 	call	0x114e	; 0x114e <_ZN5usart4sendEc>
	data %= 100;
    14ae:	22 2d       	mov	r18, r2
    14b0:	33 2d       	mov	r19, r3
    14b2:	44 2d       	mov	r20, r4
    14b4:	55 2d       	mov	r21, r5
    14b6:	66 2d       	mov	r22, r6
    14b8:	77 2d       	mov	r23, r7
    14ba:	88 2d       	mov	r24, r8
    14bc:	99 2d       	mov	r25, r9
    14be:	0e 94 56 0b 	call	0x16ac	; 0x16ac <__moddi3>
    14c2:	22 2e       	mov	r2, r18
    14c4:	33 2e       	mov	r3, r19
    14c6:	44 2e       	mov	r4, r20
    14c8:	55 2e       	mov	r5, r21
    14ca:	66 2e       	mov	r6, r22
    14cc:	77 2e       	mov	r7, r23
    14ce:	88 2e       	mov	r8, r24
    14d0:	99 2e       	mov	r9, r25
	usart::send(data/10 + '0');
    14d2:	0f 2e       	mov	r0, r31
    14d4:	fa e0       	ldi	r31, 0x0A	; 10
    14d6:	af 2e       	mov	r10, r31
    14d8:	f0 2d       	mov	r31, r0
    14da:	0e 94 58 0b 	call	0x16b0	; 0x16b0 <__divdi3>
    14de:	60 e3       	ldi	r22, 0x30	; 48
    14e0:	62 0f       	add	r22, r18
    14e2:	ce 01       	movw	r24, r28
    14e4:	0e 94 a7 08 	call	0x114e	; 0x114e <_ZN5usart4sendEc>
	data %= 10;
	usart::send(data + '0');
    14e8:	22 2d       	mov	r18, r2
    14ea:	33 2d       	mov	r19, r3
    14ec:	44 2d       	mov	r20, r4
    14ee:	55 2d       	mov	r21, r5
    14f0:	66 2d       	mov	r22, r6
    14f2:	77 2d       	mov	r23, r7
    14f4:	88 2d       	mov	r24, r8
    14f6:	99 2d       	mov	r25, r9
    14f8:	0e 94 56 0b 	call	0x16ac	; 0x16ac <__moddi3>
    14fc:	60 e3       	ldi	r22, 0x30	; 48
    14fe:	62 0f       	add	r22, r18
    1500:	ce 01       	movw	r24, r28
    1502:	0e 94 a7 08 	call	0x114e	; 0x114e <_ZN5usart4sendEc>
	return;
    1506:	df 91       	pop	r29
    1508:	cf 91       	pop	r28
    150a:	1f 91       	pop	r17
    150c:	0f 91       	pop	r16
    150e:	ff 90       	pop	r15
    1510:	ef 90       	pop	r14
    1512:	df 90       	pop	r13
    1514:	cf 90       	pop	r12
    1516:	bf 90       	pop	r11
    1518:	af 90       	pop	r10
    151a:	9f 90       	pop	r9
    151c:	8f 90       	pop	r8
    151e:	7f 90       	pop	r7
    1520:	6f 90       	pop	r6
    1522:	5f 90       	pop	r5
    1524:	4f 90       	pop	r4
    1526:	3f 90       	pop	r3
    1528:	2f 90       	pop	r2
    152a:	08 95       	ret

0000152c <__fixunssfsi>:
    152c:	0e 94 0a 0b 	call	0x1614	; 0x1614 <__fp_splitA>
    1530:	88 f0       	brcs	.+34     	; 0x1554 <__fixunssfsi+0x28>
    1532:	9f 57       	subi	r25, 0x7F	; 127
    1534:	98 f0       	brcs	.+38     	; 0x155c <__fixunssfsi+0x30>
    1536:	b9 2f       	mov	r27, r25
    1538:	99 27       	eor	r25, r25
    153a:	b7 51       	subi	r27, 0x17	; 23
    153c:	b0 f0       	brcs	.+44     	; 0x156a <__fixunssfsi+0x3e>
    153e:	e1 f0       	breq	.+56     	; 0x1578 <__fixunssfsi+0x4c>
    1540:	66 0f       	add	r22, r22
    1542:	77 1f       	adc	r23, r23
    1544:	88 1f       	adc	r24, r24
    1546:	99 1f       	adc	r25, r25
    1548:	1a f0       	brmi	.+6      	; 0x1550 <__fixunssfsi+0x24>
    154a:	ba 95       	dec	r27
    154c:	c9 f7       	brne	.-14     	; 0x1540 <__fixunssfsi+0x14>
    154e:	14 c0       	rjmp	.+40     	; 0x1578 <__fixunssfsi+0x4c>
    1550:	b1 30       	cpi	r27, 0x01	; 1
    1552:	91 f0       	breq	.+36     	; 0x1578 <__fixunssfsi+0x4c>
    1554:	0e 94 24 0b 	call	0x1648	; 0x1648 <__fp_zero>
    1558:	b1 e0       	ldi	r27, 0x01	; 1
    155a:	08 95       	ret
    155c:	0c 94 24 0b 	jmp	0x1648	; 0x1648 <__fp_zero>
    1560:	67 2f       	mov	r22, r23
    1562:	78 2f       	mov	r23, r24
    1564:	88 27       	eor	r24, r24
    1566:	b8 5f       	subi	r27, 0xF8	; 248
    1568:	39 f0       	breq	.+14     	; 0x1578 <__fixunssfsi+0x4c>
    156a:	b9 3f       	cpi	r27, 0xF9	; 249
    156c:	cc f3       	brlt	.-14     	; 0x1560 <__fixunssfsi+0x34>
    156e:	86 95       	lsr	r24
    1570:	77 95       	ror	r23
    1572:	67 95       	ror	r22
    1574:	b3 95       	inc	r27
    1576:	d9 f7       	brne	.-10     	; 0x156e <__fixunssfsi+0x42>
    1578:	3e f4       	brtc	.+14     	; 0x1588 <__fixunssfsi+0x5c>
    157a:	90 95       	com	r25
    157c:	80 95       	com	r24
    157e:	70 95       	com	r23
    1580:	61 95       	neg	r22
    1582:	7f 4f       	sbci	r23, 0xFF	; 255
    1584:	8f 4f       	sbci	r24, 0xFF	; 255
    1586:	9f 4f       	sbci	r25, 0xFF	; 255
    1588:	08 95       	ret

0000158a <__floatunsisf>:
    158a:	e8 94       	clt
    158c:	09 c0       	rjmp	.+18     	; 0x15a0 <__floatsisf+0x12>

0000158e <__floatsisf>:
    158e:	97 fb       	bst	r25, 7
    1590:	3e f4       	brtc	.+14     	; 0x15a0 <__floatsisf+0x12>
    1592:	90 95       	com	r25
    1594:	80 95       	com	r24
    1596:	70 95       	com	r23
    1598:	61 95       	neg	r22
    159a:	7f 4f       	sbci	r23, 0xFF	; 255
    159c:	8f 4f       	sbci	r24, 0xFF	; 255
    159e:	9f 4f       	sbci	r25, 0xFF	; 255
    15a0:	99 23       	and	r25, r25
    15a2:	a9 f0       	breq	.+42     	; 0x15ce <__floatsisf+0x40>
    15a4:	f9 2f       	mov	r31, r25
    15a6:	96 e9       	ldi	r25, 0x96	; 150
    15a8:	bb 27       	eor	r27, r27
    15aa:	93 95       	inc	r25
    15ac:	f6 95       	lsr	r31
    15ae:	87 95       	ror	r24
    15b0:	77 95       	ror	r23
    15b2:	67 95       	ror	r22
    15b4:	b7 95       	ror	r27
    15b6:	f1 11       	cpse	r31, r1
    15b8:	f8 cf       	rjmp	.-16     	; 0x15aa <__floatsisf+0x1c>
    15ba:	fa f4       	brpl	.+62     	; 0x15fa <__floatsisf+0x6c>
    15bc:	bb 0f       	add	r27, r27
    15be:	11 f4       	brne	.+4      	; 0x15c4 <__floatsisf+0x36>
    15c0:	60 ff       	sbrs	r22, 0
    15c2:	1b c0       	rjmp	.+54     	; 0x15fa <__floatsisf+0x6c>
    15c4:	6f 5f       	subi	r22, 0xFF	; 255
    15c6:	7f 4f       	sbci	r23, 0xFF	; 255
    15c8:	8f 4f       	sbci	r24, 0xFF	; 255
    15ca:	9f 4f       	sbci	r25, 0xFF	; 255
    15cc:	16 c0       	rjmp	.+44     	; 0x15fa <__floatsisf+0x6c>
    15ce:	88 23       	and	r24, r24
    15d0:	11 f0       	breq	.+4      	; 0x15d6 <__floatsisf+0x48>
    15d2:	96 e9       	ldi	r25, 0x96	; 150
    15d4:	11 c0       	rjmp	.+34     	; 0x15f8 <__floatsisf+0x6a>
    15d6:	77 23       	and	r23, r23
    15d8:	21 f0       	breq	.+8      	; 0x15e2 <__floatsisf+0x54>
    15da:	9e e8       	ldi	r25, 0x8E	; 142
    15dc:	87 2f       	mov	r24, r23
    15de:	76 2f       	mov	r23, r22
    15e0:	05 c0       	rjmp	.+10     	; 0x15ec <__floatsisf+0x5e>
    15e2:	66 23       	and	r22, r22
    15e4:	71 f0       	breq	.+28     	; 0x1602 <__floatsisf+0x74>
    15e6:	96 e8       	ldi	r25, 0x86	; 134
    15e8:	86 2f       	mov	r24, r22
    15ea:	70 e0       	ldi	r23, 0x00	; 0
    15ec:	60 e0       	ldi	r22, 0x00	; 0
    15ee:	2a f0       	brmi	.+10     	; 0x15fa <__floatsisf+0x6c>
    15f0:	9a 95       	dec	r25
    15f2:	66 0f       	add	r22, r22
    15f4:	77 1f       	adc	r23, r23
    15f6:	88 1f       	adc	r24, r24
    15f8:	da f7       	brpl	.-10     	; 0x15f0 <__floatsisf+0x62>
    15fa:	88 0f       	add	r24, r24
    15fc:	96 95       	lsr	r25
    15fe:	87 95       	ror	r24
    1600:	97 f9       	bld	r25, 7
    1602:	08 95       	ret

00001604 <__fp_split3>:
    1604:	57 fd       	sbrc	r21, 7
    1606:	90 58       	subi	r25, 0x80	; 128
    1608:	44 0f       	add	r20, r20
    160a:	55 1f       	adc	r21, r21
    160c:	59 f0       	breq	.+22     	; 0x1624 <__fp_splitA+0x10>
    160e:	5f 3f       	cpi	r21, 0xFF	; 255
    1610:	71 f0       	breq	.+28     	; 0x162e <__fp_splitA+0x1a>
    1612:	47 95       	ror	r20

00001614 <__fp_splitA>:
    1614:	88 0f       	add	r24, r24
    1616:	97 fb       	bst	r25, 7
    1618:	99 1f       	adc	r25, r25
    161a:	61 f0       	breq	.+24     	; 0x1634 <__fp_splitA+0x20>
    161c:	9f 3f       	cpi	r25, 0xFF	; 255
    161e:	79 f0       	breq	.+30     	; 0x163e <__fp_splitA+0x2a>
    1620:	87 95       	ror	r24
    1622:	08 95       	ret
    1624:	12 16       	cp	r1, r18
    1626:	13 06       	cpc	r1, r19
    1628:	14 06       	cpc	r1, r20
    162a:	55 1f       	adc	r21, r21
    162c:	f2 cf       	rjmp	.-28     	; 0x1612 <__fp_split3+0xe>
    162e:	46 95       	lsr	r20
    1630:	f1 df       	rcall	.-30     	; 0x1614 <__fp_splitA>
    1632:	08 c0       	rjmp	.+16     	; 0x1644 <__fp_splitA+0x30>
    1634:	16 16       	cp	r1, r22
    1636:	17 06       	cpc	r1, r23
    1638:	18 06       	cpc	r1, r24
    163a:	99 1f       	adc	r25, r25
    163c:	f1 cf       	rjmp	.-30     	; 0x1620 <__fp_splitA+0xc>
    163e:	86 95       	lsr	r24
    1640:	71 05       	cpc	r23, r1
    1642:	61 05       	cpc	r22, r1
    1644:	08 94       	sec
    1646:	08 95       	ret

00001648 <__fp_zero>:
    1648:	e8 94       	clt

0000164a <__fp_szero>:
    164a:	bb 27       	eor	r27, r27
    164c:	66 27       	eor	r22, r22
    164e:	77 27       	eor	r23, r23
    1650:	cb 01       	movw	r24, r22
    1652:	97 f9       	bld	r25, 7
    1654:	08 95       	ret

00001656 <__udivmodsi4>:
    1656:	a1 e2       	ldi	r26, 0x21	; 33
    1658:	1a 2e       	mov	r1, r26
    165a:	aa 1b       	sub	r26, r26
    165c:	bb 1b       	sub	r27, r27
    165e:	fd 01       	movw	r30, r26
    1660:	0d c0       	rjmp	.+26     	; 0x167c <__udivmodsi4_ep>

00001662 <__udivmodsi4_loop>:
    1662:	aa 1f       	adc	r26, r26
    1664:	bb 1f       	adc	r27, r27
    1666:	ee 1f       	adc	r30, r30
    1668:	ff 1f       	adc	r31, r31
    166a:	a2 17       	cp	r26, r18
    166c:	b3 07       	cpc	r27, r19
    166e:	e4 07       	cpc	r30, r20
    1670:	f5 07       	cpc	r31, r21
    1672:	20 f0       	brcs	.+8      	; 0x167c <__udivmodsi4_ep>
    1674:	a2 1b       	sub	r26, r18
    1676:	b3 0b       	sbc	r27, r19
    1678:	e4 0b       	sbc	r30, r20
    167a:	f5 0b       	sbc	r31, r21

0000167c <__udivmodsi4_ep>:
    167c:	66 1f       	adc	r22, r22
    167e:	77 1f       	adc	r23, r23
    1680:	88 1f       	adc	r24, r24
    1682:	99 1f       	adc	r25, r25
    1684:	1a 94       	dec	r1
    1686:	69 f7       	brne	.-38     	; 0x1662 <__udivmodsi4_loop>
    1688:	60 95       	com	r22
    168a:	70 95       	com	r23
    168c:	80 95       	com	r24
    168e:	90 95       	com	r25
    1690:	9b 01       	movw	r18, r22
    1692:	ac 01       	movw	r20, r24
    1694:	bd 01       	movw	r22, r26
    1696:	cf 01       	movw	r24, r30
    1698:	08 95       	ret

0000169a <__tablejump2__>:
    169a:	ee 0f       	add	r30, r30
    169c:	ff 1f       	adc	r31, r31
    169e:	88 1f       	adc	r24, r24
    16a0:	8b bf       	out	0x3b, r24	; 59
    16a2:	07 90       	elpm	r0, Z+
    16a4:	f6 91       	elpm	r31, Z
    16a6:	e0 2d       	mov	r30, r0
    16a8:	1b be       	out	0x3b, r1	; 59
    16aa:	19 94       	eijmp

000016ac <__moddi3>:
    16ac:	68 94       	set
    16ae:	01 c0       	rjmp	.+2      	; 0x16b2 <__divdi3_moddi3>

000016b0 <__divdi3>:
    16b0:	e8 94       	clt

000016b2 <__divdi3_moddi3>:
    16b2:	f9 2f       	mov	r31, r25
    16b4:	f1 2b       	or	r31, r17
    16b6:	12 f0       	brmi	.+4      	; 0x16bc <__divdi3_moddi3+0xa>
    16b8:	0c 94 8a 0b 	jmp	0x1714	; 0x1714 <__udivdi3_umoddi3>
    16bc:	a0 e0       	ldi	r26, 0x00	; 0
    16be:	b0 e0       	ldi	r27, 0x00	; 0
    16c0:	e4 e6       	ldi	r30, 0x64	; 100
    16c2:	fb e0       	ldi	r31, 0x0B	; 11
    16c4:	0c 94 fc 0b 	jmp	0x17f8	; 0x17f8 <__prologue_saves__+0xc>
    16c8:	09 2e       	mov	r0, r25
    16ca:	05 94       	asr	r0
    16cc:	22 f4       	brpl	.+8      	; 0x16d6 <__divdi3_moddi3+0x24>
    16ce:	0e 94 e6 0b 	call	0x17cc	; 0x17cc <__negdi2>
    16d2:	11 23       	and	r17, r17
    16d4:	92 f4       	brpl	.+36     	; 0x16fa <__divdi3_moddi3+0x48>
    16d6:	f0 e8       	ldi	r31, 0x80	; 128
    16d8:	0f 26       	eor	r0, r31
    16da:	ff ef       	ldi	r31, 0xFF	; 255
    16dc:	e0 94       	com	r14
    16de:	f0 94       	com	r15
    16e0:	00 95       	com	r16
    16e2:	10 95       	com	r17
    16e4:	b0 94       	com	r11
    16e6:	c0 94       	com	r12
    16e8:	d0 94       	com	r13
    16ea:	a1 94       	neg	r10
    16ec:	bf 0a       	sbc	r11, r31
    16ee:	cf 0a       	sbc	r12, r31
    16f0:	df 0a       	sbc	r13, r31
    16f2:	ef 0a       	sbc	r14, r31
    16f4:	ff 0a       	sbc	r15, r31
    16f6:	0f 0b       	sbc	r16, r31
    16f8:	1f 0b       	sbc	r17, r31
    16fa:	0e 94 95 0b 	call	0x172a	; 0x172a <__udivmod64>
    16fe:	07 fc       	sbrc	r0, 7
    1700:	0e 94 e6 0b 	call	0x17cc	; 0x17cc <__negdi2>
    1704:	cd b7       	in	r28, 0x3d	; 61
    1706:	de b7       	in	r29, 0x3e	; 62
    1708:	ec e0       	ldi	r30, 0x0C	; 12
    170a:	0c 94 15 0c 	jmp	0x182a	; 0x182a <__epilogue_restores__+0xc>

0000170e <__umoddi3>:
    170e:	68 94       	set
    1710:	01 c0       	rjmp	.+2      	; 0x1714 <__udivdi3_umoddi3>

00001712 <__udivdi3>:
    1712:	e8 94       	clt

00001714 <__udivdi3_umoddi3>:
    1714:	8f 92       	push	r8
    1716:	9f 92       	push	r9
    1718:	cf 93       	push	r28
    171a:	df 93       	push	r29
    171c:	0e 94 95 0b 	call	0x172a	; 0x172a <__udivmod64>
    1720:	df 91       	pop	r29
    1722:	cf 91       	pop	r28
    1724:	9f 90       	pop	r9
    1726:	8f 90       	pop	r8
    1728:	08 95       	ret

0000172a <__udivmod64>:
    172a:	88 24       	eor	r8, r8
    172c:	99 24       	eor	r9, r9
    172e:	f4 01       	movw	r30, r8
    1730:	e4 01       	movw	r28, r8
    1732:	b0 e4       	ldi	r27, 0x40	; 64
    1734:	9f 93       	push	r25
    1736:	aa 27       	eor	r26, r26
    1738:	9a 15       	cp	r25, r10
    173a:	8b 04       	cpc	r8, r11
    173c:	9c 04       	cpc	r9, r12
    173e:	ed 05       	cpc	r30, r13
    1740:	fe 05       	cpc	r31, r14
    1742:	cf 05       	cpc	r28, r15
    1744:	d0 07       	cpc	r29, r16
    1746:	a1 07       	cpc	r26, r17
    1748:	98 f4       	brcc	.+38     	; 0x1770 <__udivmod64+0x46>
    174a:	ad 2f       	mov	r26, r29
    174c:	dc 2f       	mov	r29, r28
    174e:	cf 2f       	mov	r28, r31
    1750:	fe 2f       	mov	r31, r30
    1752:	e9 2d       	mov	r30, r9
    1754:	98 2c       	mov	r9, r8
    1756:	89 2e       	mov	r8, r25
    1758:	98 2f       	mov	r25, r24
    175a:	87 2f       	mov	r24, r23
    175c:	76 2f       	mov	r23, r22
    175e:	65 2f       	mov	r22, r21
    1760:	54 2f       	mov	r21, r20
    1762:	43 2f       	mov	r20, r19
    1764:	32 2f       	mov	r19, r18
    1766:	22 27       	eor	r18, r18
    1768:	b8 50       	subi	r27, 0x08	; 8
    176a:	31 f7       	brne	.-52     	; 0x1738 <__udivmod64+0xe>
    176c:	bf 91       	pop	r27
    176e:	27 c0       	rjmp	.+78     	; 0x17be <__udivmod64+0x94>
    1770:	1b 2e       	mov	r1, r27
    1772:	bf 91       	pop	r27
    1774:	bb 27       	eor	r27, r27
    1776:	22 0f       	add	r18, r18
    1778:	33 1f       	adc	r19, r19
    177a:	44 1f       	adc	r20, r20
    177c:	55 1f       	adc	r21, r21
    177e:	66 1f       	adc	r22, r22
    1780:	77 1f       	adc	r23, r23
    1782:	88 1f       	adc	r24, r24
    1784:	99 1f       	adc	r25, r25
    1786:	88 1c       	adc	r8, r8
    1788:	99 1c       	adc	r9, r9
    178a:	ee 1f       	adc	r30, r30
    178c:	ff 1f       	adc	r31, r31
    178e:	cc 1f       	adc	r28, r28
    1790:	dd 1f       	adc	r29, r29
    1792:	aa 1f       	adc	r26, r26
    1794:	bb 1f       	adc	r27, r27
    1796:	8a 14       	cp	r8, r10
    1798:	9b 04       	cpc	r9, r11
    179a:	ec 05       	cpc	r30, r12
    179c:	fd 05       	cpc	r31, r13
    179e:	ce 05       	cpc	r28, r14
    17a0:	df 05       	cpc	r29, r15
    17a2:	a0 07       	cpc	r26, r16
    17a4:	b1 07       	cpc	r27, r17
    17a6:	48 f0       	brcs	.+18     	; 0x17ba <__udivmod64+0x90>
    17a8:	8a 18       	sub	r8, r10
    17aa:	9b 08       	sbc	r9, r11
    17ac:	ec 09       	sbc	r30, r12
    17ae:	fd 09       	sbc	r31, r13
    17b0:	ce 09       	sbc	r28, r14
    17b2:	df 09       	sbc	r29, r15
    17b4:	a0 0b       	sbc	r26, r16
    17b6:	b1 0b       	sbc	r27, r17
    17b8:	21 60       	ori	r18, 0x01	; 1
    17ba:	1a 94       	dec	r1
    17bc:	e1 f6       	brne	.-72     	; 0x1776 <__udivmod64+0x4c>
    17be:	2e f4       	brtc	.+10     	; 0x17ca <__udivmod64+0xa0>
    17c0:	94 01       	movw	r18, r8
    17c2:	af 01       	movw	r20, r30
    17c4:	be 01       	movw	r22, r28
    17c6:	cd 01       	movw	r24, r26
    17c8:	00 0c       	add	r0, r0
    17ca:	08 95       	ret

000017cc <__negdi2>:
    17cc:	60 95       	com	r22
    17ce:	70 95       	com	r23
    17d0:	80 95       	com	r24
    17d2:	90 95       	com	r25
    17d4:	30 95       	com	r19
    17d6:	40 95       	com	r20
    17d8:	50 95       	com	r21
    17da:	21 95       	neg	r18
    17dc:	3f 4f       	sbci	r19, 0xFF	; 255
    17de:	4f 4f       	sbci	r20, 0xFF	; 255
    17e0:	5f 4f       	sbci	r21, 0xFF	; 255
    17e2:	6f 4f       	sbci	r22, 0xFF	; 255
    17e4:	7f 4f       	sbci	r23, 0xFF	; 255
    17e6:	8f 4f       	sbci	r24, 0xFF	; 255
    17e8:	9f 4f       	sbci	r25, 0xFF	; 255
    17ea:	08 95       	ret

000017ec <__prologue_saves__>:
    17ec:	2f 92       	push	r2
    17ee:	3f 92       	push	r3
    17f0:	4f 92       	push	r4
    17f2:	5f 92       	push	r5
    17f4:	6f 92       	push	r6
    17f6:	7f 92       	push	r7
    17f8:	8f 92       	push	r8
    17fa:	9f 92       	push	r9
    17fc:	af 92       	push	r10
    17fe:	bf 92       	push	r11
    1800:	cf 92       	push	r12
    1802:	df 92       	push	r13
    1804:	ef 92       	push	r14
    1806:	ff 92       	push	r15
    1808:	0f 93       	push	r16
    180a:	1f 93       	push	r17
    180c:	cf 93       	push	r28
    180e:	df 93       	push	r29
    1810:	cd b7       	in	r28, 0x3d	; 61
    1812:	de b7       	in	r29, 0x3e	; 62
    1814:	ca 1b       	sub	r28, r26
    1816:	db 0b       	sbc	r29, r27
    1818:	cd bf       	out	0x3d, r28	; 61
    181a:	de bf       	out	0x3e, r29	; 62
    181c:	19 94       	eijmp

0000181e <__epilogue_restores__>:
    181e:	2a 88       	ldd	r2, Y+18	; 0x12
    1820:	39 88       	ldd	r3, Y+17	; 0x11
    1822:	48 88       	ldd	r4, Y+16	; 0x10
    1824:	5f 84       	ldd	r5, Y+15	; 0x0f
    1826:	6e 84       	ldd	r6, Y+14	; 0x0e
    1828:	7d 84       	ldd	r7, Y+13	; 0x0d
    182a:	8c 84       	ldd	r8, Y+12	; 0x0c
    182c:	9b 84       	ldd	r9, Y+11	; 0x0b
    182e:	aa 84       	ldd	r10, Y+10	; 0x0a
    1830:	b9 84       	ldd	r11, Y+9	; 0x09
    1832:	c8 84       	ldd	r12, Y+8	; 0x08
    1834:	df 80       	ldd	r13, Y+7	; 0x07
    1836:	ee 80       	ldd	r14, Y+6	; 0x06
    1838:	fd 80       	ldd	r15, Y+5	; 0x05
    183a:	0c 81       	ldd	r16, Y+4	; 0x04
    183c:	1b 81       	ldd	r17, Y+3	; 0x03
    183e:	aa 81       	ldd	r26, Y+2	; 0x02
    1840:	b9 81       	ldd	r27, Y+1	; 0x01
    1842:	ce 0f       	add	r28, r30
    1844:	d1 1d       	adc	r29, r1
    1846:	cd bf       	out	0x3d, r28	; 61
    1848:	de bf       	out	0x3e, r29	; 62
    184a:	ed 01       	movw	r28, r26
    184c:	08 95       	ret

0000184e <__cmpdi2_s8>:
    184e:	00 24       	eor	r0, r0
    1850:	a7 fd       	sbrc	r26, 7
    1852:	00 94       	com	r0
    1854:	2a 17       	cp	r18, r26
    1856:	30 05       	cpc	r19, r0
    1858:	40 05       	cpc	r20, r0
    185a:	50 05       	cpc	r21, r0
    185c:	60 05       	cpc	r22, r0
    185e:	70 05       	cpc	r23, r0
    1860:	80 05       	cpc	r24, r0
    1862:	90 05       	cpc	r25, r0
    1864:	08 95       	ret

00001866 <_exit>:
    1866:	f8 94       	cli

00001868 <__stop_program>:
    1868:	ff cf       	rjmp	.-2      	; 0x1868 <__stop_program>
